TMS320C2000 Assembler PC v20.2.1 Mon Nov  2 17:14:28 2020

Copyright (c) 1996-2018 Texas Instruments Incorporated
bts_main.asm                                                         PAGE    1

       1              ;***************************************************************
       2              ;* TMS320C2000 G3 C/C++ Codegen                               PC v20.2.1.LTS *
       3              ;* Date/Time created: Mon Nov  2 17:14:27 2020                 *
       4              ;***************************************************************
       5                      .compiler_opts --abi=eabi --cla_support=cla2 --diag_wrap=off --float_support=fpu32 --hll_source=on --
       6                      .asg    XAR2, FP
       7              
       8              $C$DW$CU        .dwtag  DW_TAG_compile_unit
       9                      .dwattr $C$DW$CU, DW_AT_name("../bts_main.c")
      10                      .dwattr $C$DW$CU, DW_AT_producer("TI TMS320C2000 G3 C/C++ Codegen PC v20.2.1.LTS Copyright (c) 1996-2
      11                      .dwattr $C$DW$CU, DW_AT_TI_version(0x01)
      12                      .dwattr $C$DW$CU, DW_AT_comp_dir("C:\Users\a0230328\workspace_v10\bts_F2800x_4ch_v2\RELEASE")
      13              
      14              $C$DW$1 .dwtag  DW_TAG_subprogram
      15                      .dwattr $C$DW$1, DW_AT_name("SPI_clearInterruptStatus")
      16                      .dwattr $C$DW$1, DW_AT_linkage_name("SPI_clearInterruptStatus")
      17                      .dwattr $C$DW$1, DW_AT_declaration
      18                      .dwattr $C$DW$1, DW_AT_external
      19                      .dwattr $C$DW$1, DW_AT_decl_file("C:/ti/C2000Ware_DigitalPower_SDK_3_00_01_00/c2000ware/driverlib/f28
      20                      .dwattr $C$DW$1, DW_AT_decl_line(0x50e)
      21                      .dwattr $C$DW$1, DW_AT_decl_column(0x01)
      22              $C$DW$2 .dwtag  DW_TAG_formal_parameter
      23                      .dwattr $C$DW$2, DW_AT_type(*$C$DW$T$41)
      24              
      25              $C$DW$3 .dwtag  DW_TAG_formal_parameter
      26                      .dwattr $C$DW$3, DW_AT_type(*$C$DW$T$41)
      27              
      28                      .dwendtag $C$DW$1
      29              
      30              
      31              $C$DW$4 .dwtag  DW_TAG_subprogram
      32                      .dwattr $C$DW$4, DW_AT_name("BTS_HAL_setupDevice")
      33                      .dwattr $C$DW$4, DW_AT_linkage_name("BTS_HAL_setupDevice")
      34                      .dwattr $C$DW$4, DW_AT_declaration
      35                      .dwattr $C$DW$4, DW_AT_external
      36                      .dwattr $C$DW$4, DW_AT_decl_file("C:\Users\a0230328\workspace_v10\bts_F2800x_4ch_v2\bts_hal.h")
      37                      .dwattr $C$DW$4, DW_AT_decl_line(0x49)
      38                      .dwattr $C$DW$4, DW_AT_decl_column(0x06)
      39                      .dwendtag $C$DW$4
      40              
      41              
      42              $C$DW$5 .dwtag  DW_TAG_subprogram
      43                      .dwattr $C$DW$5, DW_AT_name("BTS_HAL_setupSyncBuckPinsGpio")
      44                      .dwattr $C$DW$5, DW_AT_linkage_name("BTS_HAL_setupSyncBuckPinsGpio")
      45                      .dwattr $C$DW$5, DW_AT_declaration
      46                      .dwattr $C$DW$5, DW_AT_external
      47                      .dwattr $C$DW$5, DW_AT_decl_file("C:\Users\a0230328\workspace_v10\bts_F2800x_4ch_v2\bts_hal.h")
      48                      .dwattr $C$DW$5, DW_AT_decl_line(0x4e)
      49                      .dwattr $C$DW$5, DW_AT_decl_column(0x06)
      50                      .dwendtag $C$DW$5
      51              
      52              
      53              $C$DW$6 .dwtag  DW_TAG_subprogram
      54                      .dwattr $C$DW$6, DW_AT_name("BTS_HAL_disableEpwmCounting")
      55                      .dwattr $C$DW$6, DW_AT_linkage_name("BTS_HAL_disableEpwmCounting")
TMS320C2000 Assembler PC v20.2.1 Mon Nov  2 17:14:28 2020

Copyright (c) 1996-2018 Texas Instruments Incorporated
bts_main.asm                                                         PAGE    2

      56                      .dwattr $C$DW$6, DW_AT_declaration
      57                      .dwattr $C$DW$6, DW_AT_external
      58                      .dwattr $C$DW$6, DW_AT_decl_file("C:\Users\a0230328\workspace_v10\bts_F2800x_4ch_v2\bts_hal.h")
      59                      .dwattr $C$DW$6, DW_AT_decl_line(0x53)
      60                      .dwattr $C$DW$6, DW_AT_decl_column(0x06)
      61                      .dwendtag $C$DW$6
      62              
      63              
      64              $C$DW$7 .dwtag  DW_TAG_subprogram
      65                      .dwattr $C$DW$7, DW_AT_name("BTS_HAL_setupSyncBuckPwm")
      66                      .dwattr $C$DW$7, DW_AT_linkage_name("BTS_HAL_setupSyncBuckPwm")
      67                      .dwattr $C$DW$7, DW_AT_declaration
      68                      .dwattr $C$DW$7, DW_AT_external
      69                      .dwattr $C$DW$7, DW_AT_decl_file("C:\Users\a0230328\workspace_v10\bts_F2800x_4ch_v2\bts_hal.h")
      70                      .dwattr $C$DW$7, DW_AT_decl_line(0x50)
      71                      .dwattr $C$DW$7, DW_AT_decl_column(0x06)
      72              $C$DW$8 .dwtag  DW_TAG_formal_parameter
      73                      .dwattr $C$DW$8, DW_AT_type(*$C$DW$T$41)
      74              
      75                      .dwendtag $C$DW$7
      76              
      77              
      78              $C$DW$9 .dwtag  DW_TAG_subprogram
      79                      .dwattr $C$DW$9, DW_AT_name("BTS_setupHrpwmMepScaleFactor")
      80                      .dwattr $C$DW$9, DW_AT_linkage_name("BTS_setupHrpwmMepScaleFactor")
      81                      .dwattr $C$DW$9, DW_AT_declaration
      82                      .dwattr $C$DW$9, DW_AT_external
      83                      .dwattr $C$DW$9, DW_AT_decl_file("C:/Users/a0230328/workspace_v10/bts_F2800x_4ch_v2/bts.h")
      84                      .dwattr $C$DW$9, DW_AT_decl_line(0x120)
      85                      .dwattr $C$DW$9, DW_AT_decl_column(0x06)
      86                      .dwendtag $C$DW$9
      87              
      88              
      89              $C$DW$10        .dwtag  DW_TAG_subprogram
      90                      .dwattr $C$DW$10, DW_AT_name("BTS_HAL_SetupSpiPinsGpio")
      91                      .dwattr $C$DW$10, DW_AT_linkage_name("BTS_HAL_SetupSpiPinsGpio")
      92                      .dwattr $C$DW$10, DW_AT_declaration
      93                      .dwattr $C$DW$10, DW_AT_external
      94                      .dwattr $C$DW$10, DW_AT_decl_file("C:\Users\a0230328\workspace_v10\bts_F2800x_4ch_v2\bts_hal.h")
      95                      .dwattr $C$DW$10, DW_AT_decl_line(0x5a)
      96                      .dwattr $C$DW$10, DW_AT_decl_column(0x06)
      97                      .dwendtag $C$DW$10
      98              
      99              
     100              $C$DW$11        .dwtag  DW_TAG_subprogram
     101                      .dwattr $C$DW$11, DW_AT_name("BTS_HAL_SetupSpi")
     102                      .dwattr $C$DW$11, DW_AT_linkage_name("BTS_HAL_SetupSpi")
     103                      .dwattr $C$DW$11, DW_AT_declaration
     104                      .dwattr $C$DW$11, DW_AT_external
     105                      .dwattr $C$DW$11, DW_AT_decl_file("C:\Users\a0230328\workspace_v10\bts_F2800x_4ch_v2\bts_hal.h")
     106                      .dwattr $C$DW$11, DW_AT_decl_line(0x59)
     107                      .dwattr $C$DW$11, DW_AT_decl_column(0x06)
     108                      .dwendtag $C$DW$11
     109              
     110              
TMS320C2000 Assembler PC v20.2.1 Mon Nov  2 17:14:28 2020

Copyright (c) 1996-2018 Texas Instruments Incorporated
bts_main.asm                                                         PAGE    3

     111              $C$DW$12        .dwtag  DW_TAG_subprogram
     112                      .dwattr $C$DW$12, DW_AT_name("BTS_HAL_setupExAdcGpio")
     113                      .dwattr $C$DW$12, DW_AT_linkage_name("BTS_HAL_setupExAdcGpio")
     114                      .dwattr $C$DW$12, DW_AT_declaration
     115                      .dwattr $C$DW$12, DW_AT_external
     116                      .dwattr $C$DW$12, DW_AT_decl_file("C:\Users\a0230328\workspace_v10\bts_F2800x_4ch_v2\bts_hal.h")
     117                      .dwattr $C$DW$12, DW_AT_decl_line(0x4c)
     118                      .dwattr $C$DW$12, DW_AT_decl_column(0x06)
     119                      .dwendtag $C$DW$12
     120              
     121              
     122              $C$DW$13        .dwtag  DW_TAG_subprogram
     123                      .dwattr $C$DW$13, DW_AT_name("BTS_HAL_setupExAdc")
     124                      .dwattr $C$DW$13, DW_AT_linkage_name("BTS_HAL_setupExAdc")
     125                      .dwattr $C$DW$13, DW_AT_declaration
     126                      .dwattr $C$DW$13, DW_AT_external
     127                      .dwattr $C$DW$13, DW_AT_decl_file("C:\Users\a0230328\workspace_v10\bts_F2800x_4ch_v2\bts_hal.h")
     128                      .dwattr $C$DW$13, DW_AT_decl_line(0x4a)
     129                      .dwattr $C$DW$13, DW_AT_decl_column(0x06)
     130                      .dwendtag $C$DW$13
     131              
     132              
     133              $C$DW$14        .dwtag  DW_TAG_subprogram
     134                      .dwattr $C$DW$14, DW_AT_name("BTS_initUserVariables")
     135                      .dwattr $C$DW$14, DW_AT_linkage_name("BTS_initUserVariables")
     136                      .dwattr $C$DW$14, DW_AT_declaration
     137                      .dwattr $C$DW$14, DW_AT_external
     138                      .dwattr $C$DW$14, DW_AT_decl_file("C:/Users/a0230328/workspace_v10/bts_F2800x_4ch_v2/bts.h")
     139                      .dwattr $C$DW$14, DW_AT_decl_line(0x123)
     140                      .dwattr $C$DW$14, DW_AT_decl_column(0x06)
     141                      .dwendtag $C$DW$14
     142              
     143              
     144              $C$DW$15        .dwtag  DW_TAG_subprogram
     145                      .dwattr $C$DW$15, DW_AT_name("BTS_initProgramVariables")
     146                      .dwattr $C$DW$15, DW_AT_linkage_name("BTS_initProgramVariables")
     147                      .dwattr $C$DW$15, DW_AT_declaration
     148                      .dwattr $C$DW$15, DW_AT_external
     149                      .dwattr $C$DW$15, DW_AT_decl_file("C:/Users/a0230328/workspace_v10/bts_F2800x_4ch_v2/bts.h")
     150                      .dwattr $C$DW$15, DW_AT_decl_line(0x124)
     151                      .dwattr $C$DW$15, DW_AT_decl_column(0x06)
     152                      .dwendtag $C$DW$15
     153              
     154              
     155              $C$DW$16        .dwtag  DW_TAG_subprogram
     156                      .dwattr $C$DW$16, DW_AT_name("BTS_initController")
     157                      .dwattr $C$DW$16, DW_AT_linkage_name("BTS_initController")
     158                      .dwattr $C$DW$16, DW_AT_declaration
     159                      .dwattr $C$DW$16, DW_AT_external
     160                      .dwattr $C$DW$16, DW_AT_decl_file("C:/Users/a0230328/workspace_v10/bts_F2800x_4ch_v2/bts.h")
     161                      .dwattr $C$DW$16, DW_AT_decl_line(0x125)
     162                      .dwattr $C$DW$16, DW_AT_decl_column(0x06)
     163                      .dwendtag $C$DW$16
     164              
     165              
TMS320C2000 Assembler PC v20.2.1 Mon Nov  2 17:14:28 2020

Copyright (c) 1996-2018 Texas Instruments Incorporated
bts_main.asm                                                         PAGE    4

     166              $C$DW$17        .dwtag  DW_TAG_subprogram
     167                      .dwattr $C$DW$17, DW_AT_name("BTS_setupSfra")
     168                      .dwattr $C$DW$17, DW_AT_linkage_name("BTS_setupSfra")
     169                      .dwattr $C$DW$17, DW_AT_declaration
     170                      .dwattr $C$DW$17, DW_AT_external
     171                      .dwattr $C$DW$17, DW_AT_decl_file("C:/Users/a0230328/workspace_v10/bts_F2800x_4ch_v2/bts.h")
     172                      .dwattr $C$DW$17, DW_AT_decl_line(0x11d)
     173                      .dwattr $C$DW$17, DW_AT_decl_column(0x06)
     174                      .dwendtag $C$DW$17
     175              
     176              
     177              $C$DW$18        .dwtag  DW_TAG_subprogram
     178                      .dwattr $C$DW$18, DW_AT_name("BTS_setupSfraGui")
     179                      .dwattr $C$DW$18, DW_AT_linkage_name("BTS_setupSfraGui")
     180                      .dwattr $C$DW$18, DW_AT_declaration
     181                      .dwattr $C$DW$18, DW_AT_external
     182                      .dwattr $C$DW$18, DW_AT_decl_file("C:/Users/a0230328/workspace_v10/bts_F2800x_4ch_v2/bts.h")
     183                      .dwattr $C$DW$18, DW_AT_decl_line(0x11e)
     184                      .dwattr $C$DW$18, DW_AT_decl_column(0x06)
     185                      .dwendtag $C$DW$18
     186              
     187              
     188              $C$DW$19        .dwtag  DW_TAG_subprogram
     189                      .dwattr $C$DW$19, DW_AT_name("BTS_HAL_setupInterruptTrigger")
     190                      .dwattr $C$DW$19, DW_AT_linkage_name("BTS_HAL_setupInterruptTrigger")
     191                      .dwattr $C$DW$19, DW_AT_declaration
     192                      .dwattr $C$DW$19, DW_AT_external
     193                      .dwattr $C$DW$19, DW_AT_decl_file("C:\Users\a0230328\workspace_v10\bts_F2800x_4ch_v2\bts_hal.h")
     194                      .dwattr $C$DW$19, DW_AT_decl_line(0x55)
     195                      .dwattr $C$DW$19, DW_AT_decl_column(0x06)
     196                      .dwendtag $C$DW$19
     197              
     198              
     199              $C$DW$20        .dwtag  DW_TAG_subprogram
     200                      .dwattr $C$DW$20, DW_AT_name("BTS_HAL_setupInterrupt")
     201                      .dwattr $C$DW$20, DW_AT_linkage_name("BTS_HAL_setupInterrupt")
     202                      .dwattr $C$DW$20, DW_AT_declaration
     203                      .dwattr $C$DW$20, DW_AT_external
     204                      .dwattr $C$DW$20, DW_AT_decl_file("C:\Users\a0230328\workspace_v10\bts_F2800x_4ch_v2\bts_hal.h")
     205                      .dwattr $C$DW$20, DW_AT_decl_line(0x57)
     206                      .dwattr $C$DW$20, DW_AT_decl_column(0x06)
     207                      .dwendtag $C$DW$20
     208              
     209              
     210              $C$DW$21        .dwtag  DW_TAG_subprogram
     211                      .dwattr $C$DW$21, DW_AT_name("BTS_HAL_enableEpwmCounting")
     212                      .dwattr $C$DW$21, DW_AT_linkage_name("BTS_HAL_enableEpwmCounting")
     213                      .dwattr $C$DW$21, DW_AT_declaration
     214                      .dwattr $C$DW$21, DW_AT_external
     215                      .dwattr $C$DW$21, DW_AT_decl_file("C:\Users\a0230328\workspace_v10\bts_F2800x_4ch_v2\bts_hal.h")
     216                      .dwattr $C$DW$21, DW_AT_decl_line(0x54)
     217                      .dwattr $C$DW$21, DW_AT_decl_column(0x06)
     218                      .dwendtag $C$DW$21
     219              
     220              
TMS320C2000 Assembler PC v20.2.1 Mon Nov  2 17:14:28 2020

Copyright (c) 1996-2018 Texas Instruments Incorporated
bts_main.asm                                                         PAGE    5

     221              $C$DW$22        .dwtag  DW_TAG_subprogram
     222                      .dwattr $C$DW$22, DW_AT_name("BTS_HAL_setupSyncBuckPinsEpwm")
     223                      .dwattr $C$DW$22, DW_AT_linkage_name("BTS_HAL_setupSyncBuckPinsEpwm")
     224                      .dwattr $C$DW$22, DW_AT_declaration
     225                      .dwattr $C$DW$22, DW_AT_external
     226                      .dwattr $C$DW$22, DW_AT_decl_file("C:\Users\a0230328\workspace_v10\bts_F2800x_4ch_v2\bts_hal.h")
     227                      .dwattr $C$DW$22, DW_AT_decl_line(0x4f)
     228                      .dwattr $C$DW$22, DW_AT_decl_column(0x06)
     229                      .dwendtag $C$DW$22
     230              
     231              
     232              $C$DW$23        .dwtag  DW_TAG_subprogram
     233                      .dwattr $C$DW$23, DW_AT_name("BTS_updateReference")
     234                      .dwattr $C$DW$23, DW_AT_linkage_name("BTS_updateReference")
     235                      .dwattr $C$DW$23, DW_AT_declaration
     236                      .dwattr $C$DW$23, DW_AT_external
     237                      .dwattr $C$DW$23, DW_AT_decl_file("C:/Users/a0230328/workspace_v10/bts_F2800x_4ch_v2/bts.h")
     238                      .dwattr $C$DW$23, DW_AT_decl_line(0x122)
     239                      .dwattr $C$DW$23, DW_AT_decl_column(0x06)
     240              $C$DW$24        .dwtag  DW_TAG_formal_parameter
     241                      .dwattr $C$DW$24, DW_AT_type(*$C$DW$T$66)
     242              
     243              $C$DW$25        .dwtag  DW_TAG_formal_parameter
     244                      .dwattr $C$DW$25, DW_AT_type(*$C$DW$T$69)
     245              
     246                      .dwendtag $C$DW$23
     247              
     248              
     249              $C$DW$26        .dwtag  DW_TAG_subprogram
     250                      .dwattr $C$DW$26, DW_AT_name("BTS_monitor_Iout_Vout")
     251                      .dwattr $C$DW$26, DW_AT_linkage_name("BTS_monitor_Iout_Vout")
     252                      .dwattr $C$DW$26, DW_AT_declaration
     253                      .dwattr $C$DW$26, DW_AT_external
     254                      .dwattr $C$DW$26, DW_AT_decl_file("C:/Users/a0230328/workspace_v10/bts_F2800x_4ch_v2/bts.h")
     255                      .dwattr $C$DW$26, DW_AT_decl_line(0x126)
     256                      .dwattr $C$DW$26, DW_AT_decl_column(0x06)
     257              $C$DW$27        .dwtag  DW_TAG_formal_parameter
     258                      .dwattr $C$DW$27, DW_AT_type(*$C$DW$T$72)
     259              
     260                      .dwendtag $C$DW$26
     261              
     262              $C$DW$28        .dwtag  DW_TAG_variable
     263                      .dwattr $C$DW$28, DW_AT_name("BTS_ExAdcRxflag")
     264                      .dwattr $C$DW$28, DW_AT_linkage_name("BTS_ExAdcRxflag")
     265                      .dwattr $C$DW$28, DW_AT_type(*$C$DW$T$21)
     266                      .dwattr $C$DW$28, DW_AT_declaration
     267                      .dwattr $C$DW$28, DW_AT_external
     268                      .dwattr $C$DW$28, DW_AT_decl_file("C:\Users\a0230328\workspace_v10\bts_F2800x_4ch_v2\bts_hal.h")
     269                      .dwattr $C$DW$28, DW_AT_decl_line(0x41)
     270                      .dwattr $C$DW$28, DW_AT_decl_column(0x1a)
     271              
     272              $C$DW$29        .dwtag  DW_TAG_variable
     273                      .dwattr $C$DW$29, DW_AT_name("BTS_sfoStatus")
     274                      .dwattr $C$DW$29, DW_AT_linkage_name("BTS_sfoStatus")
     275                      .dwattr $C$DW$29, DW_AT_type(*$C$DW$T$20)
TMS320C2000 Assembler PC v20.2.1 Mon Nov  2 17:14:28 2020

Copyright (c) 1996-2018 Texas Instruments Incorporated
bts_main.asm                                                         PAGE    6

     276                      .dwattr $C$DW$29, DW_AT_declaration
     277                      .dwattr $C$DW$29, DW_AT_external
     278                      .dwattr $C$DW$29, DW_AT_decl_file("C:/Users/a0230328/workspace_v10/bts_F2800x_4ch_v2/bts.h")
     279                      .dwattr $C$DW$29, DW_AT_decl_line(0xfe)
     280                      .dwattr $C$DW$29, DW_AT_decl_column(0x13)
     281              
     282              
     283              $C$DW$30        .dwtag  DW_TAG_subprogram
     284                      .dwattr $C$DW$30, DW_AT_name("SFO")
     285                      .dwattr $C$DW$30, DW_AT_linkage_name("SFO")
     286                      .dwattr $C$DW$30, DW_AT_type(*$C$DW$T$10)
     287                      .dwattr $C$DW$30, DW_AT_declaration
     288                      .dwattr $C$DW$30, DW_AT_external
     289                      .dwattr $C$DW$30, DW_AT_decl_file("C:/Users/a0230328/workspace_v10/bts_F2800x_4ch_v2/libraries/SFO/SF
     290                      .dwattr $C$DW$30, DW_AT_decl_line(0x40)
     291                      .dwattr $C$DW$30, DW_AT_decl_column(0x05)
     292                      .dwendtag $C$DW$30
     293              
     294              $C$DW$31        .dwtag  DW_TAG_variable
     295                      .dwattr $C$DW$31, DW_AT_name("MEP_ScaleFactor")
     296                      .dwattr $C$DW$31, DW_AT_linkage_name("MEP_ScaleFactor")
     297                      .dwattr $C$DW$31, DW_AT_type(*$C$DW$T$41)
     298                      .dwattr $C$DW$31, DW_AT_declaration
     299                      .dwattr $C$DW$31, DW_AT_external
     300                      .dwattr $C$DW$31, DW_AT_decl_file("C:\Users\a0230328\workspace_v10\bts_F2800x_4ch_v2\bts_hal.h")
     301                      .dwattr $C$DW$31, DW_AT_decl_line(0x42)
     302                      .dwattr $C$DW$31, DW_AT_decl_column(0x12)
     303              
     304                      .global ||Alpha_State_Ptr||
     305 00000000               .bss    ||Alpha_State_Ptr||,2,1,1
     306              $C$DW$32        .dwtag  DW_TAG_variable
     307                      .dwattr $C$DW$32, DW_AT_name("Alpha_State_Ptr")
     308                      .dwattr $C$DW$32, DW_AT_linkage_name("Alpha_State_Ptr")
     309                      .dwattr $C$DW$32, DW_AT_location[DW_OP_addr ||Alpha_State_Ptr||]
     310                      .dwattr $C$DW$32, DW_AT_type(*$C$DW$T$79)
     311                      .dwattr $C$DW$32, DW_AT_external
     312                      .dwattr $C$DW$32, DW_AT_decl_file("../bts_main.c")
     313                      .dwattr $C$DW$32, DW_AT_decl_line(0x25)
     314                      .dwattr $C$DW$32, DW_AT_decl_column(0x08)
     315              
     316                      .global ||A_Task_Ptr||
     317 00000002               .bss    ||A_Task_Ptr||,2,1,1
     318              $C$DW$33        .dwtag  DW_TAG_variable
     319                      .dwattr $C$DW$33, DW_AT_name("A_Task_Ptr")
     320                      .dwattr $C$DW$33, DW_AT_linkage_name("A_Task_Ptr")
     321                      .dwattr $C$DW$33, DW_AT_location[DW_OP_addr ||A_Task_Ptr||]
     322                      .dwattr $C$DW$33, DW_AT_type(*$C$DW$T$79)
     323                      .dwattr $C$DW$33, DW_AT_external
     324                      .dwattr $C$DW$33, DW_AT_decl_file("../bts_main.c")
     325                      .dwattr $C$DW$33, DW_AT_decl_line(0x26)
     326                      .dwattr $C$DW$33, DW_AT_decl_column(0x08)
     327              
     328                      .global ||B_Task_Ptr||
     329 00000004               .bss    ||B_Task_Ptr||,2,1,1
     330              $C$DW$34        .dwtag  DW_TAG_variable
TMS320C2000 Assembler PC v20.2.1 Mon Nov  2 17:14:28 2020

Copyright (c) 1996-2018 Texas Instruments Incorporated
bts_main.asm                                                         PAGE    7

     331                      .dwattr $C$DW$34, DW_AT_name("B_Task_Ptr")
     332                      .dwattr $C$DW$34, DW_AT_linkage_name("B_Task_Ptr")
     333                      .dwattr $C$DW$34, DW_AT_location[DW_OP_addr ||B_Task_Ptr||]
     334                      .dwattr $C$DW$34, DW_AT_type(*$C$DW$T$79)
     335                      .dwattr $C$DW$34, DW_AT_external
     336                      .dwattr $C$DW$34, DW_AT_decl_file("../bts_main.c")
     337                      .dwattr $C$DW$34, DW_AT_decl_line(0x27)
     338                      .dwattr $C$DW$34, DW_AT_decl_column(0x08)
     339              
     340                      .global ||C_Task_Ptr||
     341 00000006               .bss    ||C_Task_Ptr||,2,1,1
     342              $C$DW$35        .dwtag  DW_TAG_variable
     343                      .dwattr $C$DW$35, DW_AT_name("C_Task_Ptr")
     344                      .dwattr $C$DW$35, DW_AT_linkage_name("C_Task_Ptr")
     345                      .dwattr $C$DW$35, DW_AT_location[DW_OP_addr ||C_Task_Ptr||]
     346                      .dwattr $C$DW$35, DW_AT_type(*$C$DW$T$79)
     347                      .dwattr $C$DW$35, DW_AT_external
     348                      .dwattr $C$DW$35, DW_AT_decl_file("../bts_main.c")
     349                      .dwattr $C$DW$35, DW_AT_decl_line(0x28)
     350                      .dwattr $C$DW$35, DW_AT_decl_column(0x08)
     351              
     352              
     353              $C$DW$36        .dwtag  DW_TAG_subprogram
     354                      .dwattr $C$DW$36, DW_AT_name("__eallow")
     355                      .dwattr $C$DW$36, DW_AT_linkage_name("__eallow")
     356                      .dwattr $C$DW$36, DW_AT_declaration
     357                      .dwattr $C$DW$36, DW_AT_external
     358                      .dwendtag $C$DW$36
     359              
     360              
     361              $C$DW$37        .dwtag  DW_TAG_subprogram
     362                      .dwattr $C$DW$37, DW_AT_name("__edis")
     363                      .dwattr $C$DW$37, DW_AT_linkage_name("__edis")
     364                      .dwattr $C$DW$37, DW_AT_declaration
     365                      .dwattr $C$DW$37, DW_AT_external
     366                      .dwendtag $C$DW$37
     367              
     368                      .global ||vTimer0||
     369 00000000       ||vTimer0||:    .usect  ".bss:vTimer0",4,0,0
     370              $C$DW$38        .dwtag  DW_TAG_variable
     371                      .dwattr $C$DW$38, DW_AT_name("vTimer0")
     372                      .dwattr $C$DW$38, DW_AT_linkage_name("vTimer0")
     373                      .dwattr $C$DW$38, DW_AT_location[DW_OP_addr ||vTimer0||]
     374                      .dwattr $C$DW$38, DW_AT_type(*$C$DW$T$117)
     375                      .dwattr $C$DW$38, DW_AT_external
     376                      .dwattr $C$DW$38, DW_AT_decl_file("../bts_main.c")
     377                      .dwattr $C$DW$38, DW_AT_decl_line(0x1e)
     378                      .dwattr $C$DW$38, DW_AT_decl_column(0x0a)
     379              
     380                      .global ||vTimer1||
     381 00000000       ||vTimer1||:    .usect  ".bss:vTimer1",4,0,0
     382              $C$DW$39        .dwtag  DW_TAG_variable
     383                      .dwattr $C$DW$39, DW_AT_name("vTimer1")
     384                      .dwattr $C$DW$39, DW_AT_linkage_name("vTimer1")
     385                      .dwattr $C$DW$39, DW_AT_location[DW_OP_addr ||vTimer1||]
TMS320C2000 Assembler PC v20.2.1 Mon Nov  2 17:14:28 2020

Copyright (c) 1996-2018 Texas Instruments Incorporated
bts_main.asm                                                         PAGE    8

     386                      .dwattr $C$DW$39, DW_AT_type(*$C$DW$T$117)
     387                      .dwattr $C$DW$39, DW_AT_external
     388                      .dwattr $C$DW$39, DW_AT_decl_file("../bts_main.c")
     389                      .dwattr $C$DW$39, DW_AT_decl_line(0x1f)
     390                      .dwattr $C$DW$39, DW_AT_decl_column(0x0a)
     391              
     392                      .global ||vTimer2||
     393 00000000       ||vTimer2||:    .usect  ".bss:vTimer2",4,0,0
     394              $C$DW$40        .dwtag  DW_TAG_variable
     395                      .dwattr $C$DW$40, DW_AT_name("vTimer2")
     396                      .dwattr $C$DW$40, DW_AT_linkage_name("vTimer2")
     397                      .dwattr $C$DW$40, DW_AT_location[DW_OP_addr ||vTimer2||]
     398                      .dwattr $C$DW$40, DW_AT_type(*$C$DW$T$117)
     399                      .dwattr $C$DW$40, DW_AT_external
     400                      .dwattr $C$DW$40, DW_AT_decl_file("../bts_main.c")
     401                      .dwattr $C$DW$40, DW_AT_decl_line(0x20)
     402                      .dwattr $C$DW$40, DW_AT_decl_column(0x0a)
     403              
     404              $C$DW$41        .dwtag  DW_TAG_variable
     405                      .dwattr $C$DW$41, DW_AT_name("BTS_ADC1")
     406                      .dwattr $C$DW$41, DW_AT_linkage_name("BTS_ADC1")
     407                      .dwattr $C$DW$41, DW_AT_type(*$C$DW$T$63)
     408                      .dwattr $C$DW$41, DW_AT_declaration
     409                      .dwattr $C$DW$41, DW_AT_external
     410                      .dwattr $C$DW$41, DW_AT_decl_file("C:\Users\a0230328\workspace_v10\bts_F2800x_4ch_v2\bts_hal.h")
     411                      .dwattr $C$DW$41, DW_AT_decl_line(0x40)
     412                      .dwattr $C$DW$41, DW_AT_decl_column(0x12)
     413              
     414              $C$DW$42        .dwtag  DW_TAG_variable
     415                      .dwattr $C$DW$42, DW_AT_name("BTS_ctrl_cc_ch1")
     416                      .dwattr $C$DW$42, DW_AT_linkage_name("BTS_ctrl_cc_ch1")
     417                      .dwattr $C$DW$42, DW_AT_type(*$C$DW$T$94)
     418                      .dwattr $C$DW$42, DW_AT_declaration
     419                      .dwattr $C$DW$42, DW_AT_external
     420                      .dwattr $C$DW$42, DW_AT_decl_file("C:/Users/a0230328/workspace_v10/bts_F2800x_4ch_v2/bts.h")
     421                      .dwattr $C$DW$42, DW_AT_decl_line(0xb3)
     422                      .dwattr $C$DW$42, DW_AT_decl_column(0x25)
     423              
     424              $C$DW$43        .dwtag  DW_TAG_variable
     425                      .dwattr $C$DW$43, DW_AT_name("BTS_ctrl_cc_ch2")
     426                      .dwattr $C$DW$43, DW_AT_linkage_name("BTS_ctrl_cc_ch2")
     427                      .dwattr $C$DW$43, DW_AT_type(*$C$DW$T$94)
     428                      .dwattr $C$DW$43, DW_AT_declaration
     429                      .dwattr $C$DW$43, DW_AT_external
     430                      .dwattr $C$DW$43, DW_AT_decl_file("C:/Users/a0230328/workspace_v10/bts_F2800x_4ch_v2/bts.h")
     431                      .dwattr $C$DW$43, DW_AT_decl_line(0xb4)
     432                      .dwattr $C$DW$43, DW_AT_decl_column(0x25)
     433              
     434              $C$DW$44        .dwtag  DW_TAG_variable
     435                      .dwattr $C$DW$44, DW_AT_name("BTS_ctrl_cc_ch3")
     436                      .dwattr $C$DW$44, DW_AT_linkage_name("BTS_ctrl_cc_ch3")
     437                      .dwattr $C$DW$44, DW_AT_type(*$C$DW$T$94)
     438                      .dwattr $C$DW$44, DW_AT_declaration
     439                      .dwattr $C$DW$44, DW_AT_external
     440                      .dwattr $C$DW$44, DW_AT_decl_file("C:/Users/a0230328/workspace_v10/bts_F2800x_4ch_v2/bts.h")
TMS320C2000 Assembler PC v20.2.1 Mon Nov  2 17:14:28 2020

Copyright (c) 1996-2018 Texas Instruments Incorporated
bts_main.asm                                                         PAGE    9

     441                      .dwattr $C$DW$44, DW_AT_decl_line(0xb5)
     442                      .dwattr $C$DW$44, DW_AT_decl_column(0x25)
     443              
     444              $C$DW$45        .dwtag  DW_TAG_variable
     445                      .dwattr $C$DW$45, DW_AT_name("BTS_ctrl_cc_ch4")
     446                      .dwattr $C$DW$45, DW_AT_linkage_name("BTS_ctrl_cc_ch4")
     447                      .dwattr $C$DW$45, DW_AT_type(*$C$DW$T$94)
     448                      .dwattr $C$DW$45, DW_AT_declaration
     449                      .dwattr $C$DW$45, DW_AT_external
     450                      .dwattr $C$DW$45, DW_AT_decl_file("C:/Users/a0230328/workspace_v10/bts_F2800x_4ch_v2/bts.h")
     451                      .dwattr $C$DW$45, DW_AT_decl_line(0xb6)
     452                      .dwattr $C$DW$45, DW_AT_decl_column(0x25)
     453              
     454              $C$DW$46        .dwtag  DW_TAG_variable
     455                      .dwattr $C$DW$46, DW_AT_name("BTS_ctrl_cv_ch1")
     456                      .dwattr $C$DW$46, DW_AT_linkage_name("BTS_ctrl_cv_ch1")
     457                      .dwattr $C$DW$46, DW_AT_type(*$C$DW$T$94)
     458                      .dwattr $C$DW$46, DW_AT_declaration
     459                      .dwattr $C$DW$46, DW_AT_external
     460                      .dwattr $C$DW$46, DW_AT_decl_file("C:/Users/a0230328/workspace_v10/bts_F2800x_4ch_v2/bts.h")
     461                      .dwattr $C$DW$46, DW_AT_decl_line(0xb9)
     462                      .dwattr $C$DW$46, DW_AT_decl_column(0x25)
     463              
     464              $C$DW$47        .dwtag  DW_TAG_variable
     465                      .dwattr $C$DW$47, DW_AT_name("BTS_ctrl_cv_ch2")
     466                      .dwattr $C$DW$47, DW_AT_linkage_name("BTS_ctrl_cv_ch2")
     467                      .dwattr $C$DW$47, DW_AT_type(*$C$DW$T$94)
     468                      .dwattr $C$DW$47, DW_AT_declaration
     469                      .dwattr $C$DW$47, DW_AT_external
     470                      .dwattr $C$DW$47, DW_AT_decl_file("C:/Users/a0230328/workspace_v10/bts_F2800x_4ch_v2/bts.h")
     471                      .dwattr $C$DW$47, DW_AT_decl_line(0xba)
     472                      .dwattr $C$DW$47, DW_AT_decl_column(0x25)
     473              
     474              $C$DW$48        .dwtag  DW_TAG_variable
     475                      .dwattr $C$DW$48, DW_AT_name("BTS_ctrl_cv_ch3")
     476                      .dwattr $C$DW$48, DW_AT_linkage_name("BTS_ctrl_cv_ch3")
     477                      .dwattr $C$DW$48, DW_AT_type(*$C$DW$T$94)
     478                      .dwattr $C$DW$48, DW_AT_declaration
     479                      .dwattr $C$DW$48, DW_AT_external
     480                      .dwattr $C$DW$48, DW_AT_decl_file("C:/Users/a0230328/workspace_v10/bts_F2800x_4ch_v2/bts.h")
     481                      .dwattr $C$DW$48, DW_AT_decl_line(0xbb)
     482                      .dwattr $C$DW$48, DW_AT_decl_column(0x25)
     483              
     484              $C$DW$49        .dwtag  DW_TAG_variable
     485                      .dwattr $C$DW$49, DW_AT_name("BTS_ctrl_cv_ch4")
     486                      .dwattr $C$DW$49, DW_AT_linkage_name("BTS_ctrl_cv_ch4")
     487                      .dwattr $C$DW$49, DW_AT_type(*$C$DW$T$94)
     488                      .dwattr $C$DW$49, DW_AT_declaration
     489                      .dwattr $C$DW$49, DW_AT_external
     490                      .dwattr $C$DW$49, DW_AT_decl_file("C:/Users/a0230328/workspace_v10/bts_F2800x_4ch_v2/bts.h")
     491                      .dwattr $C$DW$49, DW_AT_decl_line(0xbc)
     492                      .dwattr $C$DW$49, DW_AT_decl_column(0x25)
     493              
     494              $C$DW$50        .dwtag  DW_TAG_variable
     495                      .dwattr $C$DW$50, DW_AT_name("BTS_userInput_ch1")
TMS320C2000 Assembler PC v20.2.1 Mon Nov  2 17:14:28 2020

Copyright (c) 1996-2018 Texas Instruments Incorporated
bts_main.asm                                                         PAGE   10

     496                      .dwattr $C$DW$50, DW_AT_linkage_name("BTS_userInput_ch1")
     497                      .dwattr $C$DW$50, DW_AT_type(*$C$DW$T$65)
     498                      .dwattr $C$DW$50, DW_AT_declaration
     499                      .dwattr $C$DW$50, DW_AT_external
     500                      .dwattr $C$DW$50, DW_AT_decl_file("C:/Users/a0230328/workspace_v10/bts_F2800x_4ch_v2/bts.h")
     501                      .dwattr $C$DW$50, DW_AT_decl_line(0x88)
     502                      .dwattr $C$DW$50, DW_AT_decl_column(0x16)
     503              
     504              $C$DW$51        .dwtag  DW_TAG_variable
     505                      .dwattr $C$DW$51, DW_AT_name("BTS_userInput_ch2")
     506                      .dwattr $C$DW$51, DW_AT_linkage_name("BTS_userInput_ch2")
     507                      .dwattr $C$DW$51, DW_AT_type(*$C$DW$T$65)
     508                      .dwattr $C$DW$51, DW_AT_declaration
     509                      .dwattr $C$DW$51, DW_AT_external
     510                      .dwattr $C$DW$51, DW_AT_decl_file("C:/Users/a0230328/workspace_v10/bts_F2800x_4ch_v2/bts.h")
     511                      .dwattr $C$DW$51, DW_AT_decl_line(0x89)
     512                      .dwattr $C$DW$51, DW_AT_decl_column(0x16)
     513              
     514              $C$DW$52        .dwtag  DW_TAG_variable
     515                      .dwattr $C$DW$52, DW_AT_name("BTS_userInput_ch3")
     516                      .dwattr $C$DW$52, DW_AT_linkage_name("BTS_userInput_ch3")
     517                      .dwattr $C$DW$52, DW_AT_type(*$C$DW$T$65)
     518                      .dwattr $C$DW$52, DW_AT_declaration
     519                      .dwattr $C$DW$52, DW_AT_external
     520                      .dwattr $C$DW$52, DW_AT_decl_file("C:/Users/a0230328/workspace_v10/bts_F2800x_4ch_v2/bts.h")
     521                      .dwattr $C$DW$52, DW_AT_decl_line(0x8a)
     522                      .dwattr $C$DW$52, DW_AT_decl_column(0x16)
     523              
     524              $C$DW$53        .dwtag  DW_TAG_variable
     525                      .dwattr $C$DW$53, DW_AT_name("BTS_userInput_ch4")
     526                      .dwattr $C$DW$53, DW_AT_linkage_name("BTS_userInput_ch4")
     527                      .dwattr $C$DW$53, DW_AT_type(*$C$DW$T$65)
     528                      .dwattr $C$DW$53, DW_AT_declaration
     529                      .dwattr $C$DW$53, DW_AT_external
     530                      .dwattr $C$DW$53, DW_AT_decl_file("C:/Users/a0230328/workspace_v10/bts_F2800x_4ch_v2/bts.h")
     531                      .dwattr $C$DW$53, DW_AT_decl_line(0x8b)
     532                      .dwattr $C$DW$53, DW_AT_decl_column(0x16)
     533              
     534              $C$DW$54        .dwtag  DW_TAG_variable
     535                      .dwattr $C$DW$54, DW_AT_name("BTS_ctrlLoopVariable_ch1")
     536                      .dwattr $C$DW$54, DW_AT_linkage_name("BTS_ctrlLoopVariable_ch1")
     537                      .dwattr $C$DW$54, DW_AT_type(*$C$DW$T$68)
     538                      .dwattr $C$DW$54, DW_AT_declaration
     539                      .dwattr $C$DW$54, DW_AT_external
     540                      .dwattr $C$DW$54, DW_AT_decl_file("C:/Users/a0230328/workspace_v10/bts_F2800x_4ch_v2/bts.h")
     541                      .dwattr $C$DW$54, DW_AT_decl_line(0xac)
     542                      .dwattr $C$DW$54, DW_AT_decl_column(0x1d)
     543              
     544              $C$DW$55        .dwtag  DW_TAG_variable
     545                      .dwattr $C$DW$55, DW_AT_name("BTS_ctrlLoopVariable_ch2")
     546                      .dwattr $C$DW$55, DW_AT_linkage_name("BTS_ctrlLoopVariable_ch2")
     547                      .dwattr $C$DW$55, DW_AT_type(*$C$DW$T$68)
     548                      .dwattr $C$DW$55, DW_AT_declaration
     549                      .dwattr $C$DW$55, DW_AT_external
     550                      .dwattr $C$DW$55, DW_AT_decl_file("C:/Users/a0230328/workspace_v10/bts_F2800x_4ch_v2/bts.h")
TMS320C2000 Assembler PC v20.2.1 Mon Nov  2 17:14:28 2020

Copyright (c) 1996-2018 Texas Instruments Incorporated
bts_main.asm                                                         PAGE   11

     551                      .dwattr $C$DW$55, DW_AT_decl_line(0xad)
     552                      .dwattr $C$DW$55, DW_AT_decl_column(0x1d)
     553              
     554              $C$DW$56        .dwtag  DW_TAG_variable
     555                      .dwattr $C$DW$56, DW_AT_name("BTS_ctrlLoopVariable_ch3")
     556                      .dwattr $C$DW$56, DW_AT_linkage_name("BTS_ctrlLoopVariable_ch3")
     557                      .dwattr $C$DW$56, DW_AT_type(*$C$DW$T$68)
     558                      .dwattr $C$DW$56, DW_AT_declaration
     559                      .dwattr $C$DW$56, DW_AT_external
     560                      .dwattr $C$DW$56, DW_AT_decl_file("C:/Users/a0230328/workspace_v10/bts_F2800x_4ch_v2/bts.h")
     561                      .dwattr $C$DW$56, DW_AT_decl_line(0xae)
     562                      .dwattr $C$DW$56, DW_AT_decl_column(0x1d)
     563              
     564              $C$DW$57        .dwtag  DW_TAG_variable
     565                      .dwattr $C$DW$57, DW_AT_name("BTS_ctrlLoopVariable_ch4")
     566                      .dwattr $C$DW$57, DW_AT_linkage_name("BTS_ctrlLoopVariable_ch4")
     567                      .dwattr $C$DW$57, DW_AT_type(*$C$DW$T$68)
     568                      .dwattr $C$DW$57, DW_AT_declaration
     569                      .dwattr $C$DW$57, DW_AT_external
     570                      .dwattr $C$DW$57, DW_AT_decl_file("C:/Users/a0230328/workspace_v10/bts_F2800x_4ch_v2/bts.h")
     571                      .dwattr $C$DW$57, DW_AT_decl_line(0xaf)
     572                      .dwattr $C$DW$57, DW_AT_decl_column(0x1d)
     573              
     574              $C$DW$58        .dwtag  DW_TAG_variable
     575                      .dwattr $C$DW$58, DW_AT_name("BTS_measValues_ch1")
     576                      .dwattr $C$DW$58, DW_AT_linkage_name("BTS_measValues_ch1")
     577                      .dwattr $C$DW$58, DW_AT_type(*$C$DW$T$71)
     578                      .dwattr $C$DW$58, DW_AT_declaration
     579                      .dwattr $C$DW$58, DW_AT_external
     580                      .dwattr $C$DW$58, DW_AT_decl_file("C:/Users/a0230328/workspace_v10/bts_F2800x_4ch_v2/bts.h")
     581                      .dwattr $C$DW$58, DW_AT_decl_line(0x6d)
     582                      .dwattr $C$DW$58, DW_AT_decl_column(0x17)
     583              
     584              $C$DW$59        .dwtag  DW_TAG_variable
     585                      .dwattr $C$DW$59, DW_AT_name("BTS_measValues_ch2")
     586                      .dwattr $C$DW$59, DW_AT_linkage_name("BTS_measValues_ch2")
     587                      .dwattr $C$DW$59, DW_AT_type(*$C$DW$T$71)
     588                      .dwattr $C$DW$59, DW_AT_declaration
     589                      .dwattr $C$DW$59, DW_AT_external
     590                      .dwattr $C$DW$59, DW_AT_decl_file("C:/Users/a0230328/workspace_v10/bts_F2800x_4ch_v2/bts.h")
     591                      .dwattr $C$DW$59, DW_AT_decl_line(0x6e)
     592                      .dwattr $C$DW$59, DW_AT_decl_column(0x17)
     593              
     594              $C$DW$60        .dwtag  DW_TAG_variable
     595                      .dwattr $C$DW$60, DW_AT_name("BTS_measValues_ch3")
     596                      .dwattr $C$DW$60, DW_AT_linkage_name("BTS_measValues_ch3")
     597                      .dwattr $C$DW$60, DW_AT_type(*$C$DW$T$71)
     598                      .dwattr $C$DW$60, DW_AT_declaration
     599                      .dwattr $C$DW$60, DW_AT_external
     600                      .dwattr $C$DW$60, DW_AT_decl_file("C:/Users/a0230328/workspace_v10/bts_F2800x_4ch_v2/bts.h")
     601                      .dwattr $C$DW$60, DW_AT_decl_line(0x6f)
     602                      .dwattr $C$DW$60, DW_AT_decl_column(0x17)
     603              
     604              $C$DW$61        .dwtag  DW_TAG_variable
     605                      .dwattr $C$DW$61, DW_AT_name("BTS_measValues_ch4")
TMS320C2000 Assembler PC v20.2.1 Mon Nov  2 17:14:28 2020

Copyright (c) 1996-2018 Texas Instruments Incorporated
bts_main.asm                                                         PAGE   12

     606                      .dwattr $C$DW$61, DW_AT_linkage_name("BTS_measValues_ch4")
     607                      .dwattr $C$DW$61, DW_AT_type(*$C$DW$T$71)
     608                      .dwattr $C$DW$61, DW_AT_declaration
     609                      .dwattr $C$DW$61, DW_AT_external
     610                      .dwattr $C$DW$61, DW_AT_decl_file("C:/Users/a0230328/workspace_v10/bts_F2800x_4ch_v2/bts.h")
     611                      .dwattr $C$DW$61, DW_AT_decl_line(0x70)
     612                      .dwattr $C$DW$61, DW_AT_decl_column(0x17)
     613              
     614                      .sblock ".bss"
     615              ;       C:\ti\ccs1010\ccs\tools\compiler\ti-cgt-c2000_20.2.1.LTS\bin\opt2000.exe C:\\Users\\a0230328\\AppData
     616              ;       C:\ti\ccs1010\ccs\tools\compiler\ti-cgt-c2000_20.2.1.LTS\bin\acia2000.exe -@C:\\Users\\a0230328\\AppD
     617 00000000               .sect   ".text"
     618                      .clink
     619                      .global ||C3||
     620              
     621              $C$DW$62        .dwtag  DW_TAG_subprogram
     622                      .dwattr $C$DW$62, DW_AT_name("C3")
     623                      .dwattr $C$DW$62, DW_AT_low_pc(||C3||)
     624                      .dwattr $C$DW$62, DW_AT_high_pc(0x00)
     625                      .dwattr $C$DW$62, DW_AT_linkage_name("C3")
     626                      .dwattr $C$DW$62, DW_AT_external
     627                      .dwattr $C$DW$62, DW_AT_decl_file("../bts_main.c")
     628                      .dwattr $C$DW$62, DW_AT_decl_line(0x182)
     629                      .dwattr $C$DW$62, DW_AT_decl_column(0x06)
     630                      .dwattr $C$DW$62, DW_AT_TI_max_frame_size(-2)
     631                      .dwpsn  file "../bts_main.c",line 387,column 1,is_stmt,address ||C3||,isa 0
     632              
     633                      .dwfde $C$DW$CIE, ||C3||
     634              
     635              ;***************************************************************
     636              ;* FNAME: C3                            FR SIZE:   0           *
     637              ;*                                                             *
     638              ;* FUNCTION ENVIRONMENT                                        *
     639              ;*                                                             *
     640              ;* FUNCTION PROPERTIES                                         *
     641              ;*                            0 Parameter,  0 Auto,  0 SOE     *
     642              ;***************************************************************
     643              
     644 00000000       ||C3||:
     645                      .dwcfi  cfa_offset, -2
     646                      .dwcfi  save_reg_to_mem, 26, 0
     647                      .dwpsn  file "../bts_main.c",line 393,column 5,is_stmt,isa 0
     648 00000000 8F00!         MOVL      XAR4,#||C1||          ; [CPU_ARAU] |393| 
         00000001 0000 
     649 00000002 761F!         MOVW      DP,#||C_Task_Ptr||    ; [CPU_ARAU] 
         00000003 0000 
     650 00000004 A800!         MOVL      @||C_Task_Ptr||,XAR4  ; [CPU_ALU] |393| 
     651              $C$DW$63        .dwtag  DW_TAG_TI_branch
     652                      .dwattr $C$DW$63, DW_AT_low_pc(0x00)
     653                      .dwattr $C$DW$63, DW_AT_TI_return
     654              
     655 00000005 0006          LRETR     ; [CPU_ALU] 
     656                      ; return occurs ; [] 
     657                      .dwattr $C$DW$62, DW_AT_TI_end_file("../bts_main.c")
     658                      .dwattr $C$DW$62, DW_AT_TI_end_line(0x18a)
TMS320C2000 Assembler PC v20.2.1 Mon Nov  2 17:14:28 2020

Copyright (c) 1996-2018 Texas Instruments Incorporated
bts_main.asm                                                         PAGE   13

     659                      .dwattr $C$DW$62, DW_AT_TI_end_column(0x01)
     660                      .dwendentry
     661                      .dwendtag $C$DW$62
     662              
     663 00000006               .sect   ".text"
     664                      .clink
     665                      .global ||C2||
     666              
     667              $C$DW$64        .dwtag  DW_TAG_subprogram
     668                      .dwattr $C$DW$64, DW_AT_name("C2")
     669                      .dwattr $C$DW$64, DW_AT_low_pc(||C2||)
     670                      .dwattr $C$DW$64, DW_AT_high_pc(0x00)
     671                      .dwattr $C$DW$64, DW_AT_linkage_name("C2")
     672                      .dwattr $C$DW$64, DW_AT_external
     673                      .dwattr $C$DW$64, DW_AT_decl_file("../bts_main.c")
     674                      .dwattr $C$DW$64, DW_AT_decl_line(0x178)
     675                      .dwattr $C$DW$64, DW_AT_decl_column(0x06)
     676                      .dwattr $C$DW$64, DW_AT_TI_max_frame_size(-2)
     677                      .dwpsn  file "../bts_main.c",line 377,column 1,is_stmt,address ||C2||,isa 0
     678              
     679                      .dwfde $C$DW$CIE, ||C2||
     680              
     681              ;***************************************************************
     682              ;* FNAME: C2                            FR SIZE:   0           *
     683              ;*                                                             *
     684              ;* FUNCTION ENVIRONMENT                                        *
     685              ;*                                                             *
     686              ;* FUNCTION PROPERTIES                                         *
     687              ;*                            0 Parameter,  0 Auto,  0 SOE     *
     688              ;***************************************************************
     689              
     690 00000006       ||C2||:
     691                      .dwcfi  cfa_offset, -2
     692                      .dwcfi  save_reg_to_mem, 26, 0
     693                      .dwpsn  file "../bts_main.c",line 383,column 5,is_stmt,isa 0
     694 00000006 8F00!         MOVL      XAR4,#||C3||          ; [CPU_ARAU] |383| 
         00000007 0000 
     695 00000008 761F!         MOVW      DP,#||C_Task_Ptr||    ; [CPU_ARAU] 
         00000009 0000 
     696 0000000a A800!         MOVL      @||C_Task_Ptr||,XAR4  ; [CPU_ALU] |383| 
     697              $C$DW$65        .dwtag  DW_TAG_TI_branch
     698                      .dwattr $C$DW$65, DW_AT_low_pc(0x00)
     699                      .dwattr $C$DW$65, DW_AT_TI_return
     700              
     701 0000000b 0006          LRETR     ; [CPU_ALU] 
     702                      ; return occurs ; [] 
     703                      .dwattr $C$DW$64, DW_AT_TI_end_file("../bts_main.c")
     704                      .dwattr $C$DW$64, DW_AT_TI_end_line(0x180)
     705                      .dwattr $C$DW$64, DW_AT_TI_end_column(0x01)
     706                      .dwendentry
     707                      .dwendtag $C$DW$64
     708              
     709 0000000c               .sect   ".text"
     710                      .clink
     711                      .global ||B3||
TMS320C2000 Assembler PC v20.2.1 Mon Nov  2 17:14:28 2020

Copyright (c) 1996-2018 Texas Instruments Incorporated
bts_main.asm                                                         PAGE   14

     712              
     713              $C$DW$66        .dwtag  DW_TAG_subprogram
     714                      .dwattr $C$DW$66, DW_AT_name("B3")
     715                      .dwattr $C$DW$66, DW_AT_low_pc(||B3||)
     716                      .dwattr $C$DW$66, DW_AT_high_pc(0x00)
     717                      .dwattr $C$DW$66, DW_AT_linkage_name("B3")
     718                      .dwattr $C$DW$66, DW_AT_external
     719                      .dwattr $C$DW$66, DW_AT_decl_file("../bts_main.c")
     720                      .dwattr $C$DW$66, DW_AT_decl_line(0x157)
     721                      .dwattr $C$DW$66, DW_AT_decl_column(0x06)
     722                      .dwattr $C$DW$66, DW_AT_TI_max_frame_size(-2)
     723                      .dwpsn  file "../bts_main.c",line 344,column 1,is_stmt,address ||B3||,isa 0
     724              
     725                      .dwfde $C$DW$CIE, ||B3||
     726              
     727              ;***************************************************************
     728              ;* FNAME: B3                            FR SIZE:   0           *
     729              ;*                                                             *
     730              ;* FUNCTION ENVIRONMENT                                        *
     731              ;*                                                             *
     732              ;* FUNCTION PROPERTIES                                         *
     733              ;*                            0 Parameter,  0 Auto,  0 SOE     *
     734              ;***************************************************************
     735              
     736 0000000c       ||B3||:
     737                      .dwcfi  cfa_offset, -2
     738                      .dwcfi  save_reg_to_mem, 26, 0
     739                      .dwpsn  file "../bts_main.c",line 352,column 5,is_stmt,isa 0
     740 0000000c 8F00!         MOVL      XAR4,#||B1||          ; [CPU_ARAU] |352| 
         0000000d 0000 
     741 0000000e 761F!         MOVW      DP,#||B_Task_Ptr||    ; [CPU_ARAU] 
         0000000f 0000 
     742 00000010 A800!         MOVL      @||B_Task_Ptr||,XAR4  ; [CPU_ALU] |352| 
     743              $C$DW$67        .dwtag  DW_TAG_TI_branch
     744                      .dwattr $C$DW$67, DW_AT_low_pc(0x00)
     745                      .dwattr $C$DW$67, DW_AT_TI_return
     746              
     747 00000011 0006          LRETR     ; [CPU_ALU] 
     748                      ; return occurs ; [] 
     749                      .dwattr $C$DW$66, DW_AT_TI_end_file("../bts_main.c")
     750                      .dwattr $C$DW$66, DW_AT_TI_end_line(0x161)
     751                      .dwattr $C$DW$66, DW_AT_TI_end_column(0x01)
     752                      .dwendentry
     753                      .dwendtag $C$DW$66
     754              
     755 00000012               .sect   ".text"
     756                      .clink
     757                      .global ||B2||
     758              
     759              $C$DW$68        .dwtag  DW_TAG_subprogram
     760                      .dwattr $C$DW$68, DW_AT_name("B2")
     761                      .dwattr $C$DW$68, DW_AT_low_pc(||B2||)
     762                      .dwattr $C$DW$68, DW_AT_high_pc(0x00)
     763                      .dwattr $C$DW$68, DW_AT_linkage_name("B2")
     764                      .dwattr $C$DW$68, DW_AT_external
TMS320C2000 Assembler PC v20.2.1 Mon Nov  2 17:14:28 2020

Copyright (c) 1996-2018 Texas Instruments Incorporated
bts_main.asm                                                         PAGE   15

     765                      .dwattr $C$DW$68, DW_AT_decl_file("../bts_main.c")
     766                      .dwattr $C$DW$68, DW_AT_decl_line(0x14a)
     767                      .dwattr $C$DW$68, DW_AT_decl_column(0x06)
     768                      .dwattr $C$DW$68, DW_AT_TI_max_frame_size(-2)
     769                      .dwpsn  file "../bts_main.c",line 331,column 1,is_stmt,address ||B2||,isa 0
     770              
     771                      .dwfde $C$DW$CIE, ||B2||
     772              
     773              ;***************************************************************
     774              ;* FNAME: B2                            FR SIZE:   0           *
     775              ;*                                                             *
     776              ;* FUNCTION ENVIRONMENT                                        *
     777              ;*                                                             *
     778              ;* FUNCTION PROPERTIES                                         *
     779              ;*                            0 Parameter,  0 Auto,  0 SOE     *
     780              ;***************************************************************
     781              
     782 00000012       ||B2||:
     783                      .dwcfi  cfa_offset, -2
     784                      .dwcfi  save_reg_to_mem, 26, 0
     785                      .dwpsn  file "../bts_main.c",line 340,column 5,is_stmt,isa 0
     786 00000012 8F00!         MOVL      XAR4,#||B3||          ; [CPU_ARAU] |340| 
         00000013 0000 
     787 00000014 761F!         MOVW      DP,#||B_Task_Ptr||    ; [CPU_ARAU] 
         00000015 0000 
     788 00000016 A800!         MOVL      @||B_Task_Ptr||,XAR4  ; [CPU_ALU] |340| 
     789              $C$DW$69        .dwtag  DW_TAG_TI_branch
     790                      .dwattr $C$DW$69, DW_AT_low_pc(0x00)
     791                      .dwattr $C$DW$69, DW_AT_TI_return
     792              
     793 00000017 0006          LRETR     ; [CPU_ALU] 
     794                      ; return occurs ; [] 
     795                      .dwattr $C$DW$68, DW_AT_TI_end_file("../bts_main.c")
     796                      .dwattr $C$DW$68, DW_AT_TI_end_line(0x155)
     797                      .dwattr $C$DW$68, DW_AT_TI_end_column(0x01)
     798                      .dwendentry
     799                      .dwendtag $C$DW$68
     800              
     801 00000018               .sect   ".text"
     802                      .clink
     803                      .global ||A3||
     804              
     805              $C$DW$70        .dwtag  DW_TAG_subprogram
     806                      .dwattr $C$DW$70, DW_AT_name("A3")
     807                      .dwattr $C$DW$70, DW_AT_low_pc(||A3||)
     808                      .dwattr $C$DW$70, DW_AT_high_pc(0x00)
     809                      .dwattr $C$DW$70, DW_AT_linkage_name("A3")
     810                      .dwattr $C$DW$70, DW_AT_external
     811                      .dwattr $C$DW$70, DW_AT_decl_file("../bts_main.c")
     812                      .dwattr $C$DW$70, DW_AT_decl_line(0x12c)
     813                      .dwattr $C$DW$70, DW_AT_decl_column(0x06)
     814                      .dwattr $C$DW$70, DW_AT_TI_max_frame_size(-2)
     815                      .dwpsn  file "../bts_main.c",line 301,column 1,is_stmt,address ||A3||,isa 0
     816              
     817                      .dwfde $C$DW$CIE, ||A3||
TMS320C2000 Assembler PC v20.2.1 Mon Nov  2 17:14:28 2020

Copyright (c) 1996-2018 Texas Instruments Incorporated
bts_main.asm                                                         PAGE   16

     818              
     819              ;***************************************************************
     820              ;* FNAME: A3                            FR SIZE:   0           *
     821              ;*                                                             *
     822              ;* FUNCTION ENVIRONMENT                                        *
     823              ;*                                                             *
     824              ;* FUNCTION PROPERTIES                                         *
     825              ;*                            0 Parameter,  0 Auto,  0 SOE     *
     826              ;***************************************************************
     827              
     828 00000018       ||A3||:
     829                      .dwcfi  cfa_offset, -2
     830                      .dwcfi  save_reg_to_mem, 26, 0
     831                      .dwpsn  file "C:/Users/a0230328/workspace_v10/bts_F2800x_4ch_v2/bts.h",line 307,column 9,is_stmt,isa 
     832              $C$DW$71        .dwtag  DW_TAG_TI_branch
     833                      .dwattr $C$DW$71, DW_AT_low_pc(0x00)
     834                      .dwattr $C$DW$71, DW_AT_name("SFO")
     835                      .dwattr $C$DW$71, DW_AT_TI_call
     836              
     837 00000018 7640!         LCR       #||SFO||              ; [CPU_ALU] |307| 
         00000019 0000 
     838                      ; call occurs [#||SFO||] ; [] |307| 
     839 0000001a 761F!         MOVW      DP,#||A_Task_Ptr||    ; [CPU_ARAU] 
         0000001b 0000 
     840                      .dwpsn  file "../bts_main.c",line 310,column 5,is_stmt,isa 0
     841 0000001c 8F00!         MOVL      XAR4,#||A1||          ; [CPU_ARAU] |310| 
         0000001d 0000 
     842 0000001e A800!         MOVL      @||A_Task_Ptr||,XAR4  ; [CPU_ALU] |310| 
     843 0000001f 761F!         MOVW      DP,#||BTS_sfoStatus|| ; [CPU_ARAU] 
         00000020 0000 
     844                      .dwpsn  file "C:/Users/a0230328/workspace_v10/bts_F2800x_4ch_v2/bts.h",line 307,column 9,is_stmt,isa 
     845 00000021 9600!         MOV       @||BTS_sfoStatus||,AL ; [CPU_ALU] |307| 
     846              $C$DW$72        .dwtag  DW_TAG_TI_branch
     847                      .dwattr $C$DW$72, DW_AT_low_pc(0x00)
     848                      .dwattr $C$DW$72, DW_AT_TI_return
     849              
     850 00000022 0006          LRETR     ; [CPU_ALU] 
     851                      ; return occurs ; [] 
     852                      .dwattr $C$DW$70, DW_AT_TI_end_file("../bts_main.c")
     853                      .dwattr $C$DW$70, DW_AT_TI_end_line(0x137)
     854                      .dwattr $C$DW$70, DW_AT_TI_end_column(0x01)
     855                      .dwendentry
     856                      .dwendtag $C$DW$70
     857              
     858 00000023               .sect   ".text"
     859                      .clink
     860                      .global ||A2||
     861              
     862              $C$DW$73        .dwtag  DW_TAG_subprogram
     863                      .dwattr $C$DW$73, DW_AT_name("A2")
     864                      .dwattr $C$DW$73, DW_AT_low_pc(||A2||)
     865                      .dwattr $C$DW$73, DW_AT_high_pc(0x00)
     866                      .dwattr $C$DW$73, DW_AT_linkage_name("A2")
     867                      .dwattr $C$DW$73, DW_AT_external
     868                      .dwattr $C$DW$73, DW_AT_decl_file("../bts_main.c")
TMS320C2000 Assembler PC v20.2.1 Mon Nov  2 17:14:28 2020

Copyright (c) 1996-2018 Texas Instruments Incorporated
bts_main.asm                                                         PAGE   17

     869                      .dwattr $C$DW$73, DW_AT_decl_line(0x11f)
     870                      .dwattr $C$DW$73, DW_AT_decl_column(0x06)
     871                      .dwattr $C$DW$73, DW_AT_TI_max_frame_size(-2)
     872                      .dwpsn  file "../bts_main.c",line 288,column 1,is_stmt,address ||A2||,isa 0
     873              
     874                      .dwfde $C$DW$CIE, ||A2||
     875              
     876              ;***************************************************************
     877              ;* FNAME: A2                            FR SIZE:   0           *
     878              ;*                                                             *
     879              ;* FUNCTION ENVIRONMENT                                        *
     880              ;*                                                             *
     881              ;* FUNCTION PROPERTIES                                         *
     882              ;*                            0 Parameter,  0 Auto,  0 SOE     *
     883              ;***************************************************************
     884              
     885 00000023       ||A2||:
     886                      .dwcfi  cfa_offset, -2
     887                      .dwcfi  save_reg_to_mem, 26, 0
     888                      .dwpsn  file "../bts_main.c",line 297,column 5,is_stmt,isa 0
     889 00000023 8F00!         MOVL      XAR4,#||A3||          ; [CPU_ARAU] |297| 
         00000024 0000 
     890 00000025 761F!         MOVW      DP,#||A_Task_Ptr||    ; [CPU_ARAU] 
         00000026 0000 
     891 00000027 A800!         MOVL      @||A_Task_Ptr||,XAR4  ; [CPU_ALU] |297| 
     892              $C$DW$74        .dwtag  DW_TAG_TI_branch
     893                      .dwattr $C$DW$74, DW_AT_low_pc(0x00)
     894                      .dwattr $C$DW$74, DW_AT_TI_return
     895              
     896 00000028 0006          LRETR     ; [CPU_ALU] 
     897                      ; return occurs ; [] 
     898                      .dwattr $C$DW$73, DW_AT_TI_end_file("../bts_main.c")
     899                      .dwattr $C$DW$73, DW_AT_TI_end_line(0x12a)
     900                      .dwattr $C$DW$73, DW_AT_TI_end_column(0x01)
     901                      .dwendentry
     902                      .dwendtag $C$DW$73
     903              
     904 00000029               .sect   ".text"
     905                      .clink
     906                      .global ||C1||
     907              
     908              $C$DW$75        .dwtag  DW_TAG_subprogram
     909                      .dwattr $C$DW$75, DW_AT_name("C1")
     910                      .dwattr $C$DW$75, DW_AT_low_pc(||C1||)
     911                      .dwattr $C$DW$75, DW_AT_high_pc(0x00)
     912                      .dwattr $C$DW$75, DW_AT_linkage_name("C1")
     913                      .dwattr $C$DW$75, DW_AT_external
     914                      .dwattr $C$DW$75, DW_AT_decl_file("../bts_main.c")
     915                      .dwattr $C$DW$75, DW_AT_decl_line(0x168)
     916                      .dwattr $C$DW$75, DW_AT_decl_column(0x06)
     917                      .dwattr $C$DW$75, DW_AT_TI_max_frame_size(-2)
     918                      .dwpsn  file "../bts_main.c",line 361,column 1,is_stmt,address ||C1||,isa 0
     919              
     920                      .dwfde $C$DW$CIE, ||C1||
     921              
TMS320C2000 Assembler PC v20.2.1 Mon Nov  2 17:14:28 2020

Copyright (c) 1996-2018 Texas Instruments Incorporated
bts_main.asm                                                         PAGE   18

     922              ;***************************************************************
     923              ;* FNAME: C1                            FR SIZE:   0           *
     924              ;*                                                             *
     925              ;* FUNCTION ENVIRONMENT                                        *
     926              ;*                                                             *
     927              ;* FUNCTION PROPERTIES                                         *
     928              ;*                            0 Parameter,  0 Auto,  0 SOE     *
     929              ;***************************************************************
     930              
     931 00000029       ||C1||:
     932                      .dwcfi  cfa_offset, -2
     933                      .dwcfi  save_reg_to_mem, 26, 0
     934                      .dwpsn  file "../bts_main.c",line 364,column 5,is_stmt,isa 0
     935 00000029 8F00!         MOVL      XAR4,#||BTS_measValues_ch1|| ; [CPU_ARAU] |364| 
         0000002a 0000 
     936              $C$DW$76        .dwtag  DW_TAG_TI_branch
     937                      .dwattr $C$DW$76, DW_AT_low_pc(0x00)
     938                      .dwattr $C$DW$76, DW_AT_name("BTS_monitor_Iout_Vout")
     939                      .dwattr $C$DW$76, DW_AT_TI_call
     940              
     941 0000002b 7640!         LCR       #||BTS_monitor_Iout_Vout|| ; [CPU_ALU] |364| 
         0000002c 0000 
     942                      ; call occurs [#||BTS_monitor_Iout_Vout||] ; [] |364| 
     943                      .dwpsn  file "../bts_main.c",line 365,column 5,is_stmt,isa 0
     944 0000002d 8F00!         MOVL      XAR4,#||BTS_measValues_ch2|| ; [CPU_ARAU] |365| 
         0000002e 0000 
     945              $C$DW$77        .dwtag  DW_TAG_TI_branch
     946                      .dwattr $C$DW$77, DW_AT_low_pc(0x00)
     947                      .dwattr $C$DW$77, DW_AT_name("BTS_monitor_Iout_Vout")
     948                      .dwattr $C$DW$77, DW_AT_TI_call
     949              
     950 0000002f 7640!         LCR       #||BTS_monitor_Iout_Vout|| ; [CPU_ALU] |365| 
         00000030 0000 
     951                      ; call occurs [#||BTS_monitor_Iout_Vout||] ; [] |365| 
     952                      .dwpsn  file "../bts_main.c",line 366,column 5,is_stmt,isa 0
     953 00000031 8F00!         MOVL      XAR4,#||BTS_measValues_ch3|| ; [CPU_ARAU] |366| 
         00000032 0000 
     954              $C$DW$78        .dwtag  DW_TAG_TI_branch
     955                      .dwattr $C$DW$78, DW_AT_low_pc(0x00)
     956                      .dwattr $C$DW$78, DW_AT_name("BTS_monitor_Iout_Vout")
     957                      .dwattr $C$DW$78, DW_AT_TI_call
     958              
     959 00000033 7640!         LCR       #||BTS_monitor_Iout_Vout|| ; [CPU_ALU] |366| 
         00000034 0000 
     960                      ; call occurs [#||BTS_monitor_Iout_Vout||] ; [] |366| 
     961                      .dwpsn  file "../bts_main.c",line 367,column 5,is_stmt,isa 0
     962 00000035 8F00!         MOVL      XAR4,#||BTS_measValues_ch4|| ; [CPU_ARAU] |367| 
         00000036 0000 
     963              $C$DW$79        .dwtag  DW_TAG_TI_branch
     964                      .dwattr $C$DW$79, DW_AT_low_pc(0x00)
     965                      .dwattr $C$DW$79, DW_AT_name("BTS_monitor_Iout_Vout")
     966                      .dwattr $C$DW$79, DW_AT_TI_call
     967              
     968 00000037 7640!         LCR       #||BTS_monitor_Iout_Vout|| ; [CPU_ALU] |367| 
         00000038 0000 
TMS320C2000 Assembler PC v20.2.1 Mon Nov  2 17:14:28 2020

Copyright (c) 1996-2018 Texas Instruments Incorporated
bts_main.asm                                                         PAGE   19

     969                      ; call occurs [#||BTS_monitor_Iout_Vout||] ; [] |367| 
     970 00000039 761F!         MOVW      DP,#||C_Task_Ptr||    ; [CPU_ARAU] 
         0000003a 0000 
     971                      .dwpsn  file "../bts_main.c",line 373,column 5,is_stmt,isa 0
     972 0000003b 8F00!         MOVL      XAR4,#||C2||          ; [CPU_ARAU] |373| 
         0000003c 0000 
     973 0000003d A800!         MOVL      @||C_Task_Ptr||,XAR4  ; [CPU_ALU] |373| 
     974              $C$DW$80        .dwtag  DW_TAG_TI_branch
     975                      .dwattr $C$DW$80, DW_AT_low_pc(0x00)
     976                      .dwattr $C$DW$80, DW_AT_TI_return
     977              
     978 0000003e 0006          LRETR     ; [CPU_ALU] 
     979                      ; return occurs ; [] 
     980                      .dwattr $C$DW$75, DW_AT_TI_end_file("../bts_main.c")
     981                      .dwattr $C$DW$75, DW_AT_TI_end_line(0x176)
     982                      .dwattr $C$DW$75, DW_AT_TI_end_column(0x01)
     983                      .dwendentry
     984                      .dwendtag $C$DW$75
     985              
     986 0000003f               .sect   ".text"
     987                      .clink
     988                      .global ||B1||
     989              
     990              $C$DW$81        .dwtag  DW_TAG_subprogram
     991                      .dwattr $C$DW$81, DW_AT_name("B1")
     992                      .dwattr $C$DW$81, DW_AT_low_pc(||B1||)
     993                      .dwattr $C$DW$81, DW_AT_high_pc(0x00)
     994                      .dwattr $C$DW$81, DW_AT_linkage_name("B1")
     995                      .dwattr $C$DW$81, DW_AT_external
     996                      .dwattr $C$DW$81, DW_AT_decl_file("../bts_main.c")
     997                      .dwattr $C$DW$81, DW_AT_decl_line(0x13e)
     998                      .dwattr $C$DW$81, DW_AT_decl_column(0x06)
     999                      .dwattr $C$DW$81, DW_AT_TI_max_frame_size(-2)
    1000                      .dwpsn  file "../bts_main.c",line 319,column 1,is_stmt,address ||B1||,isa 0
    1001              
    1002                      .dwfde $C$DW$CIE, ||B1||
    1003              
    1004              ;***************************************************************
    1005              ;* FNAME: B1                            FR SIZE:   0           *
    1006              ;*                                                             *
    1007              ;* FUNCTION ENVIRONMENT                                        *
    1008              ;*                                                             *
    1009              ;* FUNCTION PROPERTIES                                         *
    1010              ;*                            0 Parameter,  0 Auto,  0 SOE     *
    1011              ;***************************************************************
    1012              
    1013 0000003f       ||B1||:
    1014                      .dwcfi  cfa_offset, -2
    1015                      .dwcfi  save_reg_to_mem, 26, 0
    1016                      .dwpsn  file "../bts_main.c",line 327,column 5,is_stmt,isa 0
    1017 0000003f 8F00!         MOVL      XAR4,#||B2||          ; [CPU_ARAU] |327| 
         00000040 0000 
    1018 00000041 761F!         MOVW      DP,#||B_Task_Ptr||    ; [CPU_ARAU] 
         00000042 0000 
    1019 00000043 A800!         MOVL      @||B_Task_Ptr||,XAR4  ; [CPU_ALU] |327| 
TMS320C2000 Assembler PC v20.2.1 Mon Nov  2 17:14:28 2020

Copyright (c) 1996-2018 Texas Instruments Incorporated
bts_main.asm                                                         PAGE   20

    1020              $C$DW$82        .dwtag  DW_TAG_TI_branch
    1021                      .dwattr $C$DW$82, DW_AT_low_pc(0x00)
    1022                      .dwattr $C$DW$82, DW_AT_TI_return
    1023              
    1024 00000044 0006          LRETR     ; [CPU_ALU] 
    1025                      ; return occurs ; [] 
    1026                      .dwattr $C$DW$81, DW_AT_TI_end_file("../bts_main.c")
    1027                      .dwattr $C$DW$81, DW_AT_TI_end_line(0x148)
    1028                      .dwattr $C$DW$81, DW_AT_TI_end_column(0x01)
    1029                      .dwendentry
    1030                      .dwendtag $C$DW$81
    1031              
    1032 00000045               .sect   ".text"
    1033                      .clink
    1034                      .global ||A1||
    1035              
    1036              $C$DW$83        .dwtag  DW_TAG_subprogram
    1037                      .dwattr $C$DW$83, DW_AT_name("A1")
    1038                      .dwattr $C$DW$83, DW_AT_low_pc(||A1||)
    1039                      .dwattr $C$DW$83, DW_AT_high_pc(0x00)
    1040                      .dwattr $C$DW$83, DW_AT_linkage_name("A1")
    1041                      .dwattr $C$DW$83, DW_AT_external
    1042                      .dwattr $C$DW$83, DW_AT_decl_file("../bts_main.c")
    1043                      .dwattr $C$DW$83, DW_AT_decl_line(0x10d)
    1044                      .dwattr $C$DW$83, DW_AT_decl_column(0x06)
    1045                      .dwattr $C$DW$83, DW_AT_TI_max_frame_size(-2)
    1046                      .dwpsn  file "../bts_main.c",line 270,column 1,is_stmt,address ||A1||,isa 0
    1047              
    1048                      .dwfde $C$DW$CIE, ||A1||
    1049              
    1050              ;***************************************************************
    1051              ;* FNAME: A1                            FR SIZE:   0           *
    1052              ;*                                                             *
    1053              ;* FUNCTION ENVIRONMENT                                        *
    1054              ;*                                                             *
    1055              ;* FUNCTION PROPERTIES                                         *
    1056              ;*                            0 Parameter,  0 Auto,  0 SOE     *
    1057              ;***************************************************************
    1058              
    1059 00000045       ||A1||:
    1060                      .dwcfi  cfa_offset, -2
    1061                      .dwcfi  save_reg_to_mem, 26, 0
    1062                      .dwpsn  file "../bts_main.c",line 276,column 5,is_stmt,isa 0
    1063 00000045 8F00!         MOVL      XAR4,#||BTS_userInput_ch1|| ; [CPU_ARAU] |276| 
         00000046 0000 
    1064 00000047 8F40!         MOVL      XAR5,#||BTS_ctrlLoopVariable_ch1|| ; [CPU_ARAU] |276| 
         00000048 0000 
    1065              $C$DW$84        .dwtag  DW_TAG_TI_branch
    1066                      .dwattr $C$DW$84, DW_AT_low_pc(0x00)
    1067                      .dwattr $C$DW$84, DW_AT_name("BTS_updateReference")
    1068                      .dwattr $C$DW$84, DW_AT_TI_call
    1069              
    1070 00000049 7640!         LCR       #||BTS_updateReference|| ; [CPU_ALU] |276| 
         0000004a 0000 
    1071                      ; call occurs [#||BTS_updateReference||] ; [] |276| 
TMS320C2000 Assembler PC v20.2.1 Mon Nov  2 17:14:28 2020

Copyright (c) 1996-2018 Texas Instruments Incorporated
bts_main.asm                                                         PAGE   21

    1072                      .dwpsn  file "../bts_main.c",line 277,column 5,is_stmt,isa 0
    1073 0000004b 8F00!         MOVL      XAR4,#||BTS_userInput_ch2|| ; [CPU_ARAU] |277| 
         0000004c 0000 
    1074 0000004d 8F40!         MOVL      XAR5,#||BTS_ctrlLoopVariable_ch2|| ; [CPU_ARAU] |277| 
         0000004e 0000 
    1075              $C$DW$85        .dwtag  DW_TAG_TI_branch
    1076                      .dwattr $C$DW$85, DW_AT_low_pc(0x00)
    1077                      .dwattr $C$DW$85, DW_AT_name("BTS_updateReference")
    1078                      .dwattr $C$DW$85, DW_AT_TI_call
    1079              
    1080 0000004f 7640!         LCR       #||BTS_updateReference|| ; [CPU_ALU] |277| 
         00000050 0000 
    1081                      ; call occurs [#||BTS_updateReference||] ; [] |277| 
    1082                      .dwpsn  file "../bts_main.c",line 278,column 5,is_stmt,isa 0
    1083 00000051 8F00!         MOVL      XAR4,#||BTS_userInput_ch3|| ; [CPU_ARAU] |278| 
         00000052 0000 
    1084 00000053 8F40!         MOVL      XAR5,#||BTS_ctrlLoopVariable_ch3|| ; [CPU_ARAU] |278| 
         00000054 0000 
    1085              $C$DW$86        .dwtag  DW_TAG_TI_branch
    1086                      .dwattr $C$DW$86, DW_AT_low_pc(0x00)
    1087                      .dwattr $C$DW$86, DW_AT_name("BTS_updateReference")
    1088                      .dwattr $C$DW$86, DW_AT_TI_call
    1089              
    1090 00000055 7640!         LCR       #||BTS_updateReference|| ; [CPU_ALU] |278| 
         00000056 0000 
    1091                      ; call occurs [#||BTS_updateReference||] ; [] |278| 
    1092                      .dwpsn  file "../bts_main.c",line 279,column 5,is_stmt,isa 0
    1093 00000057 8F00!         MOVL      XAR4,#||BTS_userInput_ch4|| ; [CPU_ARAU] |279| 
         00000058 0000 
    1094 00000059 8F40!         MOVL      XAR5,#||BTS_ctrlLoopVariable_ch4|| ; [CPU_ARAU] |279| 
         0000005a 0000 
    1095              $C$DW$87        .dwtag  DW_TAG_TI_branch
    1096                      .dwattr $C$DW$87, DW_AT_low_pc(0x00)
    1097                      .dwattr $C$DW$87, DW_AT_name("BTS_updateReference")
    1098                      .dwattr $C$DW$87, DW_AT_TI_call
    1099              
    1100 0000005b 7640!         LCR       #||BTS_updateReference|| ; [CPU_ALU] |279| 
         0000005c 0000 
    1101                      ; call occurs [#||BTS_updateReference||] ; [] |279| 
    1102 0000005d 761F!         MOVW      DP,#||A_Task_Ptr||    ; [CPU_ARAU] 
         0000005e 0000 
    1103                      .dwpsn  file "../bts_main.c",line 284,column 5,is_stmt,isa 0
    1104 0000005f 8F00!         MOVL      XAR4,#||A2||          ; [CPU_ARAU] |284| 
         00000060 0000 
    1105 00000061 A800!         MOVL      @||A_Task_Ptr||,XAR4  ; [CPU_ALU] |284| 
    1106              $C$DW$88        .dwtag  DW_TAG_TI_branch
    1107                      .dwattr $C$DW$88, DW_AT_low_pc(0x00)
    1108                      .dwattr $C$DW$88, DW_AT_TI_return
    1109              
    1110 00000062 0006          LRETR     ; [CPU_ALU] 
    1111                      ; return occurs ; [] 
    1112                      .dwattr $C$DW$83, DW_AT_TI_end_file("../bts_main.c")
    1113                      .dwattr $C$DW$83, DW_AT_TI_end_line(0x11d)
    1114                      .dwattr $C$DW$83, DW_AT_TI_end_column(0x01)
    1115                      .dwendentry
TMS320C2000 Assembler PC v20.2.1 Mon Nov  2 17:14:28 2020

Copyright (c) 1996-2018 Texas Instruments Incorporated
bts_main.asm                                                         PAGE   22

    1116                      .dwendtag $C$DW$83
    1117              
    1118 00000063               .sect   ".text"
    1119                      .clink
    1120                      .global ||A0||
    1121              
    1122              $C$DW$89        .dwtag  DW_TAG_subprogram
    1123                      .dwattr $C$DW$89, DW_AT_name("A0")
    1124                      .dwattr $C$DW$89, DW_AT_low_pc(||A0||)
    1125                      .dwattr $C$DW$89, DW_AT_high_pc(0x00)
    1126                      .dwattr $C$DW$89, DW_AT_linkage_name("A0")
    1127                      .dwattr $C$DW$89, DW_AT_external
    1128                      .dwattr $C$DW$89, DW_AT_decl_file("../bts_main.c")
    1129                      .dwattr $C$DW$89, DW_AT_decl_line(0xcd)
    1130                      .dwattr $C$DW$89, DW_AT_decl_column(0x06)
    1131                      .dwattr $C$DW$89, DW_AT_TI_max_frame_size(-2)
    1132                      .dwpsn  file "../bts_main.c",line 206,column 1,is_stmt,address ||A0||,isa 0
    1133              
    1134                      .dwfde $C$DW$CIE, ||A0||
    1135              
    1136              ;***************************************************************
    1137              ;* FNAME: A0                            FR SIZE:   0           *
    1138              ;*                                                             *
    1139              ;* FUNCTION ENVIRONMENT                                        *
    1140              ;*                                                             *
    1141              ;* FUNCTION PROPERTIES                                         *
    1142              ;*                            0 Parameter,  0 Auto,  0 SOE     *
    1143              ;***************************************************************
    1144              
    1145 00000063       ||A0||:
    1146              ;* AL    assigned to $O$R1
    1147                      .dwcfi  cfa_offset, -2
    1148                      .dwcfi  save_reg_to_mem, 26, 0
    1149                      .dwpsn  file "C:/ti/C2000Ware_DigitalPower_SDK_3_00_01_00/c2000ware/driverlib/f28004x/driverlib/cputi
    1150 00000063 F5A9          MOV       AL,*(0:0x0c04)        ; [CPU_ALU] |391| 
         00000064 0C04 
    1151 00000065 FFCE          LSR       AL,15                 ; [CPU_ALU] |391| 
    1152                      .dwpsn  file "../bts_main.c",line 210,column 5,is_stmt,isa 0
    1153 00000066 5201          CMPB      AL,#1                 ; [CPU_ALU] |210| 
    1154 00000067 600E          B         ||$C$L1||,NEQ         ; [CPU_ALU] |210| 
    1155                      ; branchcc occurs ; [] |210| 
    1156 00000068 761F!         MOVW      DP,#||A_Task_Ptr||    ; [CPU_ARAU] 
         00000069 0000 
    1157                      .dwpsn  file "C:/ti/C2000Ware_DigitalPower_SDK_3_00_01_00/c2000ware/driverlib/f28004x/driverlib/cputi
    1158 0000006a F5A9          MOV       AL,*(0:0x0c04)        ; [CPU_ALU] |167| 
         0000006b 0C04 
    1159                      .dwpsn  file "../bts_main.c",line 217,column 9,is_stmt,isa 0
    1160 0000006c C500!         MOVL      XAR7,@||A_Task_Ptr||  ; [CPU_ALU] |217| 
    1161                      .dwpsn  file "C:/ti/C2000Ware_DigitalPower_SDK_3_00_01_00/c2000ware/driverlib/f28004x/driverlib/cputi
    1162 0000006d 1AA9          OR        AL,#0x8000            ; [CPU_ALU] |167| 
         0000006e 8000 
    1163 0000006f F4A9          MOV       *(0:0x0c04),AL        ; [CPU_ALU] |167| 
         00000070 0C04 
    1164                      .dwpsn  file "../bts_main.c",line 217,column 9,is_stmt,isa 0
    1165              $C$DW$90        .dwtag  DW_TAG_TI_branch
TMS320C2000 Assembler PC v20.2.1 Mon Nov  2 17:14:28 2020

Copyright (c) 1996-2018 Texas Instruments Incorporated
bts_main.asm                                                         PAGE   23

    1166                      .dwattr $C$DW$90, DW_AT_low_pc(0x00)
    1167                      .dwattr $C$DW$90, DW_AT_TI_call
    1168                      .dwattr $C$DW$90, DW_AT_TI_indirect
    1169              
    1170 00000071 3E67          LCR       *XAR7                 ; [CPU_ALU] |217| 
    1171                      ; call occurs [XAR7] ; [] |217| 
    1172 00000072 761F!         MOVW      DP,#||vTimer0||       ; [CPU_ARAU] 
         00000073 0000 
    1173                      .dwpsn  file "../bts_main.c",line 219,column 9,is_stmt,isa 0
    1174 00000074 0A00!         INC       @||vTimer0||          ; [CPU_ALU] |219| 
    1175 00000075       ||$C$L1||:    
    1176                      .dwpsn  file "../bts_main.c",line 221,column 5,is_stmt,isa 0
    1177 00000075 8F00!         MOVL      XAR4,#||B0||          ; [CPU_ARAU] |221| 
         00000076 0000 
    1178 00000077 761F!         MOVW      DP,#||Alpha_State_Ptr|| ; [CPU_ARAU] 
         00000078 0000 
    1179 00000079 A800!         MOVL      @||Alpha_State_Ptr||,XAR4 ; [CPU_ALU] |221| 
    1180              $C$DW$91        .dwtag  DW_TAG_TI_branch
    1181                      .dwattr $C$DW$91, DW_AT_low_pc(0x00)
    1182                      .dwattr $C$DW$91, DW_AT_TI_return
    1183              
    1184 0000007a 0006          LRETR     ; [CPU_ALU] 
    1185                      ; return occurs ; [] 
    1186                      .dwattr $C$DW$89, DW_AT_TI_end_file("../bts_main.c")
    1187                      .dwattr $C$DW$89, DW_AT_TI_end_line(0xde)
    1188                      .dwattr $C$DW$89, DW_AT_TI_end_column(0x01)
    1189                      .dwendentry
    1190                      .dwendtag $C$DW$89
    1191              
    1192 0000007b               .sect   ".text"
    1193                      .clink
    1194                      .global ||B0||
    1195              
    1196              $C$DW$92        .dwtag  DW_TAG_subprogram
    1197                      .dwattr $C$DW$92, DW_AT_name("B0")
    1198                      .dwattr $C$DW$92, DW_AT_low_pc(||B0||)
    1199                      .dwattr $C$DW$92, DW_AT_high_pc(0x00)
    1200                      .dwattr $C$DW$92, DW_AT_linkage_name("B0")
    1201                      .dwattr $C$DW$92, DW_AT_external
    1202                      .dwattr $C$DW$92, DW_AT_decl_file("../bts_main.c")
    1203                      .dwattr $C$DW$92, DW_AT_decl_line(0xe0)
    1204                      .dwattr $C$DW$92, DW_AT_decl_column(0x06)
    1205                      .dwattr $C$DW$92, DW_AT_TI_max_frame_size(-2)
    1206                      .dwpsn  file "../bts_main.c",line 225,column 1,is_stmt,address ||B0||,isa 0
    1207              
    1208                      .dwfde $C$DW$CIE, ||B0||
    1209              
    1210              ;***************************************************************
    1211              ;* FNAME: B0                            FR SIZE:   0           *
    1212              ;*                                                             *
    1213              ;* FUNCTION ENVIRONMENT                                        *
    1214              ;*                                                             *
    1215              ;* FUNCTION PROPERTIES                                         *
    1216              ;*                            0 Parameter,  0 Auto,  0 SOE     *
    1217              ;***************************************************************
TMS320C2000 Assembler PC v20.2.1 Mon Nov  2 17:14:28 2020

Copyright (c) 1996-2018 Texas Instruments Incorporated
bts_main.asm                                                         PAGE   24

    1218              
    1219 0000007b       ||B0||:
    1220              ;* AL    assigned to $O$R1
    1221                      .dwcfi  cfa_offset, -2
    1222                      .dwcfi  save_reg_to_mem, 26, 0
    1223                      .dwpsn  file "C:/ti/C2000Ware_DigitalPower_SDK_3_00_01_00/c2000ware/driverlib/f28004x/driverlib/cputi
    1224 0000007b F5A9          MOV       AL,*(0:0x0c0c)        ; [CPU_ALU] |391| 
         0000007c 0C0C 
    1225 0000007d FFCE          LSR       AL,15                 ; [CPU_ALU] |391| 
    1226                      .dwpsn  file "../bts_main.c",line 229,column 5,is_stmt,isa 0
    1227 0000007e 5201          CMPB      AL,#1                 ; [CPU_ALU] |229| 
    1228 0000007f 600E          B         ||$C$L2||,NEQ         ; [CPU_ALU] |229| 
    1229                      ; branchcc occurs ; [] |229| 
    1230 00000080 761F!         MOVW      DP,#||B_Task_Ptr||    ; [CPU_ARAU] 
         00000081 0000 
    1231                      .dwpsn  file "C:/ti/C2000Ware_DigitalPower_SDK_3_00_01_00/c2000ware/driverlib/f28004x/driverlib/cputi
    1232 00000082 F5A9          MOV       AL,*(0:0x0c0c)        ; [CPU_ALU] |167| 
         00000083 0C0C 
    1233                      .dwpsn  file "../bts_main.c",line 236,column 9,is_stmt,isa 0
    1234 00000084 C500!         MOVL      XAR7,@||B_Task_Ptr||  ; [CPU_ALU] |236| 
    1235                      .dwpsn  file "C:/ti/C2000Ware_DigitalPower_SDK_3_00_01_00/c2000ware/driverlib/f28004x/driverlib/cputi
    1236 00000085 1AA9          OR        AL,#0x8000            ; [CPU_ALU] |167| 
         00000086 8000 
    1237 00000087 F4A9          MOV       *(0:0x0c0c),AL        ; [CPU_ALU] |167| 
         00000088 0C0C 
    1238                      .dwpsn  file "../bts_main.c",line 236,column 9,is_stmt,isa 0
    1239              $C$DW$93        .dwtag  DW_TAG_TI_branch
    1240                      .dwattr $C$DW$93, DW_AT_low_pc(0x00)
    1241                      .dwattr $C$DW$93, DW_AT_TI_call
    1242                      .dwattr $C$DW$93, DW_AT_TI_indirect
    1243              
    1244 00000089 3E67          LCR       *XAR7                 ; [CPU_ALU] |236| 
    1245                      ; call occurs [XAR7] ; [] |236| 
    1246 0000008a 761F!         MOVW      DP,#||vTimer1||       ; [CPU_ARAU] 
         0000008b 0000 
    1247                      .dwpsn  file "../bts_main.c",line 238,column 9,is_stmt,isa 0
    1248 0000008c 0A00!         INC       @||vTimer1||          ; [CPU_ALU] |238| 
    1249 0000008d       ||$C$L2||:    
    1250                      .dwpsn  file "../bts_main.c",line 241,column 5,is_stmt,isa 0
    1251 0000008d 8F00!         MOVL      XAR4,#||C0||          ; [CPU_ARAU] |241| 
         0000008e 0000 
    1252 0000008f 761F!         MOVW      DP,#||Alpha_State_Ptr|| ; [CPU_ARAU] 
         00000090 0000 
    1253 00000091 A800!         MOVL      @||Alpha_State_Ptr||,XAR4 ; [CPU_ALU] |241| 
    1254              $C$DW$94        .dwtag  DW_TAG_TI_branch
    1255                      .dwattr $C$DW$94, DW_AT_low_pc(0x00)
    1256                      .dwattr $C$DW$94, DW_AT_TI_return
    1257              
    1258 00000092 0006          LRETR     ; [CPU_ALU] 
    1259                      ; return occurs ; [] 
    1260                      .dwattr $C$DW$92, DW_AT_TI_end_file("../bts_main.c")
    1261                      .dwattr $C$DW$92, DW_AT_TI_end_line(0xf2)
    1262                      .dwattr $C$DW$92, DW_AT_TI_end_column(0x01)
    1263                      .dwendentry
    1264                      .dwendtag $C$DW$92
TMS320C2000 Assembler PC v20.2.1 Mon Nov  2 17:14:28 2020

Copyright (c) 1996-2018 Texas Instruments Incorporated
bts_main.asm                                                         PAGE   25

    1265              
    1266 00000093               .sect   ".text"
    1267                      .clink
    1268                      .global ||C0||
    1269              
    1270              $C$DW$95        .dwtag  DW_TAG_subprogram
    1271                      .dwattr $C$DW$95, DW_AT_name("C0")
    1272                      .dwattr $C$DW$95, DW_AT_low_pc(||C0||)
    1273                      .dwattr $C$DW$95, DW_AT_high_pc(0x00)
    1274                      .dwattr $C$DW$95, DW_AT_linkage_name("C0")
    1275                      .dwattr $C$DW$95, DW_AT_external
    1276                      .dwattr $C$DW$95, DW_AT_decl_file("../bts_main.c")
    1277                      .dwattr $C$DW$95, DW_AT_decl_line(0xf4)
    1278                      .dwattr $C$DW$95, DW_AT_decl_column(0x06)
    1279                      .dwattr $C$DW$95, DW_AT_TI_max_frame_size(-2)
    1280                      .dwpsn  file "../bts_main.c",line 245,column 1,is_stmt,address ||C0||,isa 0
    1281              
    1282                      .dwfde $C$DW$CIE, ||C0||
    1283              
    1284              ;***************************************************************
    1285              ;* FNAME: C0                            FR SIZE:   0           *
    1286              ;*                                                             *
    1287              ;* FUNCTION ENVIRONMENT                                        *
    1288              ;*                                                             *
    1289              ;* FUNCTION PROPERTIES                                         *
    1290              ;*                            0 Parameter,  0 Auto,  0 SOE     *
    1291              ;***************************************************************
    1292              
    1293 00000093       ||C0||:
    1294              ;* AL    assigned to $O$R1
    1295                      .dwcfi  cfa_offset, -2
    1296                      .dwcfi  save_reg_to_mem, 26, 0
    1297                      .dwpsn  file "C:/ti/C2000Ware_DigitalPower_SDK_3_00_01_00/c2000ware/driverlib/f28004x/driverlib/cputi
    1298 00000093 F5A9          MOV       AL,*(0:0x0c14)        ; [CPU_ALU] |391| 
         00000094 0C14 
    1299 00000095 FFCE          LSR       AL,15                 ; [CPU_ALU] |391| 
    1300                      .dwpsn  file "../bts_main.c",line 249,column 5,is_stmt,isa 0
    1301 00000096 5201          CMPB      AL,#1                 ; [CPU_ALU] |249| 
    1302 00000097 600E          B         ||$C$L3||,NEQ         ; [CPU_ALU] |249| 
    1303                      ; branchcc occurs ; [] |249| 
    1304 00000098 761F!         MOVW      DP,#||C_Task_Ptr||    ; [CPU_ARAU] 
         00000099 0000 
    1305                      .dwpsn  file "C:/ti/C2000Ware_DigitalPower_SDK_3_00_01_00/c2000ware/driverlib/f28004x/driverlib/cputi
    1306 0000009a F5A9          MOV       AL,*(0:0x0c14)        ; [CPU_ALU] |167| 
         0000009b 0C14 
    1307                      .dwpsn  file "../bts_main.c",line 256,column 9,is_stmt,isa 0
    1308 0000009c C500!         MOVL      XAR7,@||C_Task_Ptr||  ; [CPU_ALU] |256| 
    1309                      .dwpsn  file "C:/ti/C2000Ware_DigitalPower_SDK_3_00_01_00/c2000ware/driverlib/f28004x/driverlib/cputi
    1310 0000009d 1AA9          OR        AL,#0x8000            ; [CPU_ALU] |167| 
         0000009e 8000 
    1311 0000009f F4A9          MOV       *(0:0x0c14),AL        ; [CPU_ALU] |167| 
         000000a0 0C14 
    1312                      .dwpsn  file "../bts_main.c",line 256,column 9,is_stmt,isa 0
    1313              $C$DW$96        .dwtag  DW_TAG_TI_branch
    1314                      .dwattr $C$DW$96, DW_AT_low_pc(0x00)
TMS320C2000 Assembler PC v20.2.1 Mon Nov  2 17:14:28 2020

Copyright (c) 1996-2018 Texas Instruments Incorporated
bts_main.asm                                                         PAGE   26

    1315                      .dwattr $C$DW$96, DW_AT_TI_call
    1316                      .dwattr $C$DW$96, DW_AT_TI_indirect
    1317              
    1318 000000a1 3E67          LCR       *XAR7                 ; [CPU_ALU] |256| 
    1319                      ; call occurs [XAR7] ; [] |256| 
    1320 000000a2 761F!         MOVW      DP,#||vTimer2||       ; [CPU_ARAU] 
         000000a3 0000 
    1321                      .dwpsn  file "../bts_main.c",line 258,column 9,is_stmt,isa 0
    1322 000000a4 0A00!         INC       @||vTimer2||          ; [CPU_ALU] |258| 
    1323 000000a5       ||$C$L3||:    
    1324                      .dwpsn  file "../bts_main.c",line 261,column 5,is_stmt,isa 0
    1325 000000a5 8F00!         MOVL      XAR4,#||A0||          ; [CPU_ARAU] |261| 
         000000a6 0000 
    1326 000000a7 761F!         MOVW      DP,#||Alpha_State_Ptr|| ; [CPU_ARAU] 
         000000a8 0000 
    1327 000000a9 A800!         MOVL      @||Alpha_State_Ptr||,XAR4 ; [CPU_ALU] |261| 
    1328              $C$DW$97        .dwtag  DW_TAG_TI_branch
    1329                      .dwattr $C$DW$97, DW_AT_low_pc(0x00)
    1330                      .dwattr $C$DW$97, DW_AT_TI_return
    1331              
    1332 000000aa 0006          LRETR     ; [CPU_ALU] 
    1333                      ; return occurs ; [] 
    1334                      .dwattr $C$DW$95, DW_AT_TI_end_file("../bts_main.c")
    1335                      .dwattr $C$DW$95, DW_AT_TI_end_line(0x106)
    1336                      .dwattr $C$DW$95, DW_AT_TI_end_column(0x01)
    1337                      .dwendentry
    1338                      .dwendtag $C$DW$95
    1339              
    1340 000000ab               .sect   ".text"
    1341                      .clink
    1342                      .global ||main||
    1343              
    1344              $C$DW$98        .dwtag  DW_TAG_subprogram
    1345                      .dwattr $C$DW$98, DW_AT_name("main")
    1346                      .dwattr $C$DW$98, DW_AT_low_pc(||main||)
    1347                      .dwattr $C$DW$98, DW_AT_high_pc(0x00)
    1348                      .dwattr $C$DW$98, DW_AT_linkage_name("main")
    1349                      .dwattr $C$DW$98, DW_AT_external
    1350                      .dwattr $C$DW$98, DW_AT_decl_file("../bts_main.c")
    1351                      .dwattr $C$DW$98, DW_AT_decl_line(0x4b)
    1352                      .dwattr $C$DW$98, DW_AT_decl_column(0x06)
    1353                      .dwattr $C$DW$98, DW_AT_TI_max_frame_size(-2)
    1354                      .dwpsn  file "../bts_main.c",line 76,column 1,is_stmt,address ||main||,isa 0
    1355              
    1356                      .dwfde $C$DW$CIE, ||main||
    1357              
    1358              ;***************************************************************
    1359              ;* FNAME: main                          FR SIZE:   0           *
    1360              ;*                                                             *
    1361              ;* FUNCTION ENVIRONMENT                                        *
    1362              ;*                                                             *
    1363              ;* FUNCTION PROPERTIES                                         *
    1364              ;*                            0 Parameter,  0 Auto,  0 SOE     *
    1365              ;***************************************************************
    1366              
TMS320C2000 Assembler PC v20.2.1 Mon Nov  2 17:14:28 2020

Copyright (c) 1996-2018 Texas Instruments Incorporated
bts_main.asm                                                         PAGE   27

    1367 000000ab       ||main||:
    1368                      .dwcfi  cfa_offset, -2
    1369                      .dwcfi  save_reg_to_mem, 26, 0
    1370                      .dwpsn  file "../bts_main.c",line 82,column 5,is_stmt,isa 0
    1371              $C$DW$99        .dwtag  DW_TAG_TI_branch
    1372                      .dwattr $C$DW$99, DW_AT_low_pc(0x00)
    1373                      .dwattr $C$DW$99, DW_AT_name("BTS_HAL_setupDevice")
    1374                      .dwattr $C$DW$99, DW_AT_TI_call
    1375              
    1376 000000ab 7640!         LCR       #||BTS_HAL_setupDevice|| ; [CPU_ALU] |82| 
         000000ac 0000 
    1377                      ; call occurs [#||BTS_HAL_setupDevice||] ; [] |82| 
    1378                      .dwpsn  file "../bts_main.c",line 90,column 5,is_stmt,isa 0
    1379              $C$DW$100       .dwtag  DW_TAG_TI_branch
    1380                      .dwattr $C$DW$100, DW_AT_low_pc(0x00)
    1381                      .dwattr $C$DW$100, DW_AT_name("BTS_HAL_setupSyncBuckPinsGpio")
    1382                      .dwattr $C$DW$100, DW_AT_TI_call
    1383              
    1384 000000ad 7640!         LCR       #||BTS_HAL_setupSyncBuckPinsGpio|| ; [CPU_ALU] |90| 
         000000ae 0000 
    1385                      ; call occurs [#||BTS_HAL_setupSyncBuckPinsGpio||] ; [] |90| 
    1386 000000af 761F!         MOVW      DP,#||Alpha_State_Ptr|| ; [CPU_ARAU] 
         000000b0 0000 
    1387                      .dwpsn  file "../bts_main.c",line 95,column 5,is_stmt,isa 0
    1388 000000b1 76C0!         MOVL      XAR7,#||A0||          ; [CPU_ARAU] |95| 
         000000b2 0000 
    1389                      .dwpsn  file "../bts_main.c",line 96,column 5,is_stmt,isa 0
    1390 000000b3 7680!         MOVL      XAR6,#||A1||          ; [CPU_ARAU] |96| 
         000000b4 0000 
    1391                      .dwpsn  file "../bts_main.c",line 97,column 5,is_stmt,isa 0
    1392 000000b5 8F40!         MOVL      XAR5,#||B1||          ; [CPU_ARAU] |97| 
         000000b6 0000 
    1393                      .dwpsn  file "../bts_main.c",line 98,column 5,is_stmt,isa 0
    1394 000000b7 8F00!         MOVL      XAR4,#||C1||          ; [CPU_ARAU] |98| 
         000000b8 0000 
    1395                      .dwpsn  file "../bts_main.c",line 95,column 5,is_stmt,isa 0
    1396 000000b9 C300!         MOVL      @||Alpha_State_Ptr||,XAR7 ; [CPU_ALU] |95| 
    1397                      .dwpsn  file "../bts_main.c",line 96,column 5,is_stmt,isa 0
    1398 000000ba C200!         MOVL      @||A_Task_Ptr||,XAR6  ; [CPU_ALU] |96| 
    1399                      .dwpsn  file "../bts_main.c",line 97,column 5,is_stmt,isa 0
    1400 000000bb A000!         MOVL      @||B_Task_Ptr||,XAR5  ; [CPU_ALU] |97| 
    1401                      .dwpsn  file "../bts_main.c",line 98,column 5,is_stmt,isa 0
    1402 000000bc A800!         MOVL      @||C_Task_Ptr||,XAR4  ; [CPU_ALU] |98| 
    1403                      .dwpsn  file "../bts_main.c",line 103,column 5,is_stmt,isa 0
    1404              $C$DW$101       .dwtag  DW_TAG_TI_branch
    1405                      .dwattr $C$DW$101, DW_AT_low_pc(0x00)
    1406                      .dwattr $C$DW$101, DW_AT_name("BTS_HAL_disableEpwmCounting")
    1407                      .dwattr $C$DW$101, DW_AT_TI_call
    1408              
    1409 000000bd 7640!         LCR       #||BTS_HAL_disableEpwmCounting|| ; [CPU_ALU] |103| 
         000000be 0000 
    1410                      ; call occurs [#||BTS_HAL_disableEpwmCounting||] ; [] |103| 
    1411                      .dwpsn  file "../bts_main.c",line 110,column 5,is_stmt,isa 0
    1412 000000bf 8F00          MOVL      XAR4,#16384           ; [CPU_ARAU] |110| 
         000000c0 4000 
TMS320C2000 Assembler PC v20.2.1 Mon Nov  2 17:14:28 2020

Copyright (c) 1996-2018 Texas Instruments Incorporated
bts_main.asm                                                         PAGE   28

    1413 000000c1 A8A9          MOVL      ACC,XAR4              ; [CPU_ALU] |110| 
    1414              $C$DW$102       .dwtag  DW_TAG_TI_branch
    1415                      .dwattr $C$DW$102, DW_AT_low_pc(0x00)
    1416                      .dwattr $C$DW$102, DW_AT_name("BTS_HAL_setupSyncBuckPwm")
    1417                      .dwattr $C$DW$102, DW_AT_TI_call
    1418              
    1419 000000c2 7640!         LCR       #||BTS_HAL_setupSyncBuckPwm|| ; [CPU_ALU] |110| 
         000000c3 0000 
    1420                      ; call occurs [#||BTS_HAL_setupSyncBuckPwm||] ; [] |110| 
    1421                      .dwpsn  file "../bts_main.c",line 111,column 5,is_stmt,isa 0
    1422 000000c4 8F00          MOVL      XAR4,#16640           ; [CPU_ARAU] |111| 
         000000c5 4100 
    1423 000000c6 A8A9          MOVL      ACC,XAR4              ; [CPU_ALU] |111| 
    1424              $C$DW$103       .dwtag  DW_TAG_TI_branch
    1425                      .dwattr $C$DW$103, DW_AT_low_pc(0x00)
    1426                      .dwattr $C$DW$103, DW_AT_name("BTS_HAL_setupSyncBuckPwm")
    1427                      .dwattr $C$DW$103, DW_AT_TI_call
    1428              
    1429 000000c7 7640!         LCR       #||BTS_HAL_setupSyncBuckPwm|| ; [CPU_ALU] |111| 
         000000c8 0000 
    1430                      ; call occurs [#||BTS_HAL_setupSyncBuckPwm||] ; [] |111| 
    1431                      .dwpsn  file "../bts_main.c",line 112,column 5,is_stmt,isa 0
    1432 000000c9 8F00          MOVL      XAR4,#16896           ; [CPU_ARAU] |112| 
         000000ca 4200 
    1433 000000cb A8A9          MOVL      ACC,XAR4              ; [CPU_ALU] |112| 
    1434              $C$DW$104       .dwtag  DW_TAG_TI_branch
    1435                      .dwattr $C$DW$104, DW_AT_low_pc(0x00)
    1436                      .dwattr $C$DW$104, DW_AT_name("BTS_HAL_setupSyncBuckPwm")
    1437                      .dwattr $C$DW$104, DW_AT_TI_call
    1438              
    1439 000000cc 7640!         LCR       #||BTS_HAL_setupSyncBuckPwm|| ; [CPU_ALU] |112| 
         000000cd 0000 
    1440                      ; call occurs [#||BTS_HAL_setupSyncBuckPwm||] ; [] |112| 
    1441                      .dwpsn  file "../bts_main.c",line 113,column 5,is_stmt,isa 0
    1442 000000ce 8F00          MOVL      XAR4,#17152           ; [CPU_ARAU] |113| 
         000000cf 4300 
    1443 000000d0 A8A9          MOVL      ACC,XAR4              ; [CPU_ALU] |113| 
    1444              $C$DW$105       .dwtag  DW_TAG_TI_branch
    1445                      .dwattr $C$DW$105, DW_AT_low_pc(0x00)
    1446                      .dwattr $C$DW$105, DW_AT_name("BTS_HAL_setupSyncBuckPwm")
    1447                      .dwattr $C$DW$105, DW_AT_TI_call
    1448              
    1449 000000d1 7640!         LCR       #||BTS_HAL_setupSyncBuckPwm|| ; [CPU_ALU] |113| 
         000000d2 0000 
    1450                      ; call occurs [#||BTS_HAL_setupSyncBuckPwm||] ; [] |113| 
    1451                      .dwpsn  file "../bts_main.c",line 114,column 5,is_stmt,isa 0
    1452              $C$DW$106       .dwtag  DW_TAG_TI_branch
    1453                      .dwattr $C$DW$106, DW_AT_low_pc(0x00)
    1454                      .dwattr $C$DW$106, DW_AT_name("BTS_setupHrpwmMepScaleFactor")
    1455                      .dwattr $C$DW$106, DW_AT_TI_call
    1456              
    1457 000000d3 7640!         LCR       #||BTS_setupHrpwmMepScaleFactor|| ; [CPU_ALU] |114| 
         000000d4 0000 
    1458                      ; call occurs [#||BTS_setupHrpwmMepScaleFactor||] ; [] |114| 
    1459                      .dwpsn  file "../bts_main.c",line 120,column 5,is_stmt,isa 0
TMS320C2000 Assembler PC v20.2.1 Mon Nov  2 17:14:28 2020

Copyright (c) 1996-2018 Texas Instruments Incorporated
bts_main.asm                                                         PAGE   29

    1460              $C$DW$107       .dwtag  DW_TAG_TI_branch
    1461                      .dwattr $C$DW$107, DW_AT_low_pc(0x00)
    1462                      .dwattr $C$DW$107, DW_AT_name("BTS_HAL_SetupSpiPinsGpio")
    1463                      .dwattr $C$DW$107, DW_AT_TI_call
    1464              
    1465 000000d5 7640!         LCR       #||BTS_HAL_SetupSpiPinsGpio|| ; [CPU_ALU] |120| 
         000000d6 0000 
    1466                      ; call occurs [#||BTS_HAL_SetupSpiPinsGpio||] ; [] |120| 
    1467                      .dwpsn  file "../bts_main.c",line 121,column 5,is_stmt,isa 0
    1468              $C$DW$108       .dwtag  DW_TAG_TI_branch
    1469                      .dwattr $C$DW$108, DW_AT_low_pc(0x00)
    1470                      .dwattr $C$DW$108, DW_AT_name("BTS_HAL_SetupSpi")
    1471                      .dwattr $C$DW$108, DW_AT_TI_call
    1472              
    1473 000000d7 7640!         LCR       #||BTS_HAL_SetupSpi|| ; [CPU_ALU] |121| 
         000000d8 0000 
    1474                      ; call occurs [#||BTS_HAL_SetupSpi||] ; [] |121| 
    1475                      .dwpsn  file "../bts_main.c",line 123,column 5,is_stmt,isa 0
    1476              $C$DW$109       .dwtag  DW_TAG_TI_branch
    1477                      .dwattr $C$DW$109, DW_AT_low_pc(0x00)
    1478                      .dwattr $C$DW$109, DW_AT_name("BTS_HAL_setupExAdcGpio")
    1479                      .dwattr $C$DW$109, DW_AT_TI_call
    1480              
    1481 000000d9 7640!         LCR       #||BTS_HAL_setupExAdcGpio|| ; [CPU_ALU] |123| 
         000000da 0000 
    1482                      ; call occurs [#||BTS_HAL_setupExAdcGpio||] ; [] |123| 
    1483                      .dwpsn  file "../bts_main.c",line 124,column 5,is_stmt,isa 0
    1484              $C$DW$110       .dwtag  DW_TAG_TI_branch
    1485                      .dwattr $C$DW$110, DW_AT_low_pc(0x00)
    1486                      .dwattr $C$DW$110, DW_AT_name("BTS_HAL_setupExAdc")
    1487                      .dwattr $C$DW$110, DW_AT_TI_call
    1488              
    1489 000000db 7640!         LCR       #||BTS_HAL_setupExAdc|| ; [CPU_ALU] |124| 
         000000dc 0000 
    1490                      ; call occurs [#||BTS_HAL_setupExAdc||] ; [] |124| 
    1491                      .dwpsn  file "../bts_main.c",line 131,column 5,is_stmt,isa 0
    1492              $C$DW$111       .dwtag  DW_TAG_TI_branch
    1493                      .dwattr $C$DW$111, DW_AT_low_pc(0x00)
    1494                      .dwattr $C$DW$111, DW_AT_name("BTS_initUserVariables")
    1495                      .dwattr $C$DW$111, DW_AT_TI_call
    1496              
    1497 000000dd 7640!         LCR       #||BTS_initUserVariables|| ; [CPU_ALU] |131| 
         000000de 0000 
    1498                      ; call occurs [#||BTS_initUserVariables||] ; [] |131| 
    1499                      .dwpsn  file "../bts_main.c",line 132,column 5,is_stmt,isa 0
    1500              $C$DW$112       .dwtag  DW_TAG_TI_branch
    1501                      .dwattr $C$DW$112, DW_AT_low_pc(0x00)
    1502                      .dwattr $C$DW$112, DW_AT_name("BTS_initProgramVariables")
    1503                      .dwattr $C$DW$112, DW_AT_TI_call
    1504              
    1505 000000df 7640!         LCR       #||BTS_initProgramVariables|| ; [CPU_ALU] |132| 
         000000e0 0000 
    1506                      ; call occurs [#||BTS_initProgramVariables||] ; [] |132| 
    1507                      .dwpsn  file "../bts_main.c",line 133,column 5,is_stmt,isa 0
    1508              $C$DW$113       .dwtag  DW_TAG_TI_branch
TMS320C2000 Assembler PC v20.2.1 Mon Nov  2 17:14:28 2020

Copyright (c) 1996-2018 Texas Instruments Incorporated
bts_main.asm                                                         PAGE   30

    1509                      .dwattr $C$DW$113, DW_AT_low_pc(0x00)
    1510                      .dwattr $C$DW$113, DW_AT_name("BTS_initController")
    1511                      .dwattr $C$DW$113, DW_AT_TI_call
    1512              
    1513 000000e1 7640!         LCR       #||BTS_initController|| ; [CPU_ALU] |133| 
         000000e2 0000 
    1514                      ; call occurs [#||BTS_initController||] ; [] |133| 
    1515                      .dwpsn  file "../bts_main.c",line 138,column 5,is_stmt,isa 0
    1516              $C$DW$114       .dwtag  DW_TAG_TI_branch
    1517                      .dwattr $C$DW$114, DW_AT_low_pc(0x00)
    1518                      .dwattr $C$DW$114, DW_AT_name("BTS_setupSfra")
    1519                      .dwattr $C$DW$114, DW_AT_TI_call
    1520              
    1521 000000e3 7640!         LCR       #||BTS_setupSfra||    ; [CPU_ALU] |138| 
         000000e4 0000 
    1522                      ; call occurs [#||BTS_setupSfra||] ; [] |138| 
    1523                      .dwpsn  file "../bts_main.c",line 139,column 5,is_stmt,isa 0
    1524              $C$DW$115       .dwtag  DW_TAG_TI_branch
    1525                      .dwattr $C$DW$115, DW_AT_low_pc(0x00)
    1526                      .dwattr $C$DW$115, DW_AT_name("BTS_setupSfraGui")
    1527                      .dwattr $C$DW$115, DW_AT_TI_call
    1528              
    1529 000000e5 7640!         LCR       #||BTS_setupSfraGui|| ; [CPU_ALU] |139| 
         000000e6 0000 
    1530                      ; call occurs [#||BTS_setupSfraGui||] ; [] |139| 
    1531                      .dwpsn  file "../bts_main.c",line 144,column 5,is_stmt,isa 0
    1532              $C$DW$116       .dwtag  DW_TAG_TI_branch
    1533                      .dwattr $C$DW$116, DW_AT_low_pc(0x00)
    1534                      .dwattr $C$DW$116, DW_AT_name("BTS_HAL_setupInterruptTrigger")
    1535                      .dwattr $C$DW$116, DW_AT_TI_call
    1536              
    1537 000000e7 7640!         LCR       #||BTS_HAL_setupInterruptTrigger|| ; [CPU_ALU] |144| 
         000000e8 0000 
    1538                      ; call occurs [#||BTS_HAL_setupInterruptTrigger||] ; [] |144| 
    1539                      .dwpsn  file "../bts_main.c",line 145,column 5,is_stmt,isa 0
    1540              $C$DW$117       .dwtag  DW_TAG_TI_branch
    1541                      .dwattr $C$DW$117, DW_AT_low_pc(0x00)
    1542                      .dwattr $C$DW$117, DW_AT_name("BTS_HAL_setupInterrupt")
    1543                      .dwattr $C$DW$117, DW_AT_TI_call
    1544              
    1545 000000e9 7640!         LCR       #||BTS_HAL_setupInterrupt|| ; [CPU_ALU] |145| 
         000000ea 0000 
    1546                      ; call occurs [#||BTS_HAL_setupInterrupt||] ; [] |145| 
    1547                      .dwpsn  file "../bts_main.c",line 150,column 5,is_stmt,isa 0
    1548              $C$DW$118       .dwtag  DW_TAG_TI_branch
    1549                      .dwattr $C$DW$118, DW_AT_low_pc(0x00)
    1550                      .dwattr $C$DW$118, DW_AT_name("BTS_HAL_enableEpwmCounting")
    1551                      .dwattr $C$DW$118, DW_AT_TI_call
    1552              
    1553 000000eb 7640!         LCR       #||BTS_HAL_enableEpwmCounting|| ; [CPU_ALU] |150| 
         000000ec 0000 
    1554                      ; call occurs [#||BTS_HAL_enableEpwmCounting||] ; [] |150| 
    1555                      .dwpsn  file "../bts_main.c",line 155,column 5,is_stmt,isa 0
    1556              $C$DW$119       .dwtag  DW_TAG_TI_branch
    1557                      .dwattr $C$DW$119, DW_AT_low_pc(0x00)
TMS320C2000 Assembler PC v20.2.1 Mon Nov  2 17:14:28 2020

Copyright (c) 1996-2018 Texas Instruments Incorporated
bts_main.asm                                                         PAGE   31

    1558                      .dwattr $C$DW$119, DW_AT_name("BTS_HAL_setupSyncBuckPinsEpwm")
    1559                      .dwattr $C$DW$119, DW_AT_TI_call
    1560              
    1561 000000ed 7640!         LCR       #||BTS_HAL_setupSyncBuckPinsEpwm|| ; [CPU_ALU] |155| 
         000000ee 0000 
    1562                      ; call occurs [#||BTS_HAL_setupSyncBuckPinsEpwm||] ; [] |155| 
    1563                      .dwpsn  file "C:\Users\a0230328\workspace_v10\bts_F2800x_4ch_v2\bts_hal.h",line 115,column 5,is_stmt,
    1564 000000ef FF20          MOV       ACC,#0                ; [CPU_ALU] |115| 
         000000f0 0000 
    1565                      .dwpsn  file "C:\Users\a0230328\workspace_v10\bts_F2800x_4ch_v2\bts_hal.h",line 119,column 8,is_stmt,
    1566 000000f1 BE00          MOVB      XAR6,#0               ; [CPU_ALU] |119| 
    1567 000000f2 B600          MOVB      XAR7,#0               ; [CPU_ALU] |119| 
    1568                      .dwpsn  file "C:\Users\a0230328\workspace_v10\bts_F2800x_4ch_v2\bts_hal.h",line 112,column 5,is_stmt,
    1569 000000f3 F4A9          MOV       *(0:0x6108),AL        ; [CPU_ALU] |112| 
         000000f4 6108 
    1570                      .dwpsn  file "C:\Users\a0230328\workspace_v10\bts_F2800x_4ch_v2\bts_hal.h",line 115,column 5,is_stmt,
    1571 000000f5 F4A8          MOV       *(0:0x6108),AH        ; [CPU_ALU] |115| 
         000000f6 6108 
    1572                      .dwpsn  file "C:\Users\a0230328\workspace_v10\bts_F2800x_4ch_v2\bts_hal.h",line 119,column 8,is_stmt,
    1573 000000f7 F4A9          MOV       *(0:0x6108),AL        ; [CPU_ALU] |119| 
         000000f8 6108 
    1574 000000f9 F4A6          MOV       *(0:0x6108),AR6       ; [CPU_ALU] |119| 
         000000fa 6108 
    1575 000000fb F4A8          MOV       *(0:0x6108),AH        ; [CPU_ALU] |119| 
         000000fc 6108 
    1576 000000fd F4A9          MOV       *(0:0x6108),AL        ; [CPU_ALU] |119| 
         000000fe 6108 
    1577 000000ff F4A7          MOV       *(0:0x6108),AR7       ; [CPU_ALU] |119| 
         00000100 6108 
    1578 00000101 F4A6          MOV       *(0:0x6108),AR6       ; [CPU_ALU] |119| 
         00000102 6108 
    1579 00000103 F4A8          MOV       *(0:0x6108),AH        ; [CPU_ALU] |119| 
         00000104 6108 
    1580 00000105 F4A9          MOV       *(0:0x6108),AL        ; [CPU_ALU] |119| 
         00000106 6108 
    1581 00000107       ||$C$L4||:    
    1582 00000107 761F!         MOVW      DP,#||Alpha_State_Ptr|| ; [CPU_ARAU] 
         00000108 0000 
    1583                      .dwpsn  file "../bts_main.c",line 168,column 9,is_stmt,isa 0
    1584 00000109 C500!         MOVL      XAR7,@||Alpha_State_Ptr|| ; [CPU_ALU] |168| 
    1585              $C$DW$120       .dwtag  DW_TAG_TI_branch
    1586                      .dwattr $C$DW$120, DW_AT_low_pc(0x00)
    1587                      .dwattr $C$DW$120, DW_AT_TI_call
    1588                      .dwattr $C$DW$120, DW_AT_TI_indirect
    1589              
    1590 0000010a 3E67          LCR       *XAR7                 ; [CPU_ALU] |168| 
    1591                      ; call occurs [XAR7] ; [] |168| 
    1592                      .dwpsn  file "../bts_main.c",line 169,column 5,is_stmt,isa 0
    1593 0000010b 6FFC          B         ||$C$L4||,UNC         ; [CPU_ALU] |169| 
    1594                      ; branch occurs ; [] |169| 
    1595                      .dwattr $C$DW$98, DW_AT_TI_end_file("../bts_main.c")
    1596                      .dwattr $C$DW$98, DW_AT_TI_end_line(0xaa)
    1597                      .dwattr $C$DW$98, DW_AT_TI_end_column(0x01)
    1598                      .dwendentry
    1599                      .dwendtag $C$DW$98
TMS320C2000 Assembler PC v20.2.1 Mon Nov  2 17:14:28 2020

Copyright (c) 1996-2018 Texas Instruments Incorporated
bts_main.asm                                                         PAGE   32

    1600              
    1601 00000000               .sect   ".text:__signbitl"
    1602                      .clink
    1603                      .global ||__signbitl||
    1604              
    1605              $C$DW$121       .dwtag  DW_TAG_subprogram
    1606                      .dwattr $C$DW$121, DW_AT_name("__signbitl")
    1607                      .dwattr $C$DW$121, DW_AT_low_pc(||__signbitl||)
    1608                      .dwattr $C$DW$121, DW_AT_high_pc(0x00)
    1609                      .dwattr $C$DW$121, DW_AT_linkage_name("__signbitl")
    1610                      .dwattr $C$DW$121, DW_AT_external
    1611                      .dwattr $C$DW$121, DW_AT_type(*$C$DW$T$10)
    1612                      .dwattr $C$DW$121, DW_AT_decl_file("C:/ti/ccs1010/ccs/tools/compiler/ti-cgt-c2000_20.2.1.LTS/include/
    1613                      .dwattr $C$DW$121, DW_AT_decl_line(0x16e)
    1614                      .dwattr $C$DW$121, DW_AT_decl_column(0x25)
    1615                      .dwattr $C$DW$121, DW_AT_TI_max_frame_size(-6)
    1616                      .dwpsn  file "C:/ti/ccs1010/ccs/tools/compiler/ti-cgt-c2000_20.2.1.LTS/include/_defs.h",line 367,colu
    1617              
    1618                      .dwfde $C$DW$CIE, ||__signbitl||
    1619              $C$DW$122       .dwtag  DW_TAG_formal_parameter
    1620                      .dwattr $C$DW$122, DW_AT_name("e")
    1621                      .dwattr $C$DW$122, DW_AT_type(*$C$DW$T$131)
    1622                      .dwattr $C$DW$122, DW_AT_location[DW_OP_reg12]
    1623              
    1624              
    1625              ;***************************************************************
    1626              ;* FNAME: __signbitl                    FR SIZE:   4           *
    1627              ;*                                                             *
    1628              ;* FUNCTION ENVIRONMENT                                        *
    1629              ;*                                                             *
    1630              ;* FUNCTION PROPERTIES                                         *
    1631              ;*                            4 Parameter,  0 Auto,  0 SOE     *
    1632              ;***************************************************************
    1633              
    1634              ||__signbitl||:
    1635              ;* AR4   assigned to e
    1636              $C$DW$123       .dwtag  DW_TAG_variable
    1637                      .dwattr $C$DW$123, DW_AT_name("e")
    1638                      .dwattr $C$DW$123, DW_AT_type(*$C$DW$T$132)
    1639                      .dwattr $C$DW$123, DW_AT_location[DW_OP_reg12]
    1640              
    1641                      .dwcfi  cfa_offset, -2
    1642                      .dwcfi  save_reg_to_mem, 26, 0
    1643 00000000 FE04          ADDB      SP,#4                 ; [CPU_ARAU] 
    1644                      .dwcfi  cfa_offset, -6
    1645                      .dwpsn  file "C:/ti/ccs1010/ccs/tools/compiler/ti-cgt-c2000_20.2.1.LTS/include/_defs.h",line 367,colu
    1646 00000001 0200          MOVB      ACC,#0                ; [CPU_ALU] |367| 
    1647 00000002 1E44          MOVL      *-SP[4],ACC           ; [CPU_ALU] |367| 
    1648 00000003 2B42          MOV       *-SP[2],#0            ; [CPU_ALU] |367| 
    1649 00000004 2B41          MOV       *-SP[1],#0            ; [CPU_ALU] |367| 
    1650 00000005 A3C4          MOVL      P,*+XAR4[0]           ; [CPU_ALU] |367| 
    1651 00000006 06D4          MOVL      ACC,*+XAR4[2]         ; [CPU_ALU] |367| 
    1652 00000007 18AB          AND       PL,#0                 ; [CPU_ALU] |367| 
         00000008 0000 
    1653 00000009 18AA          AND       PH,#0                 ; [CPU_ALU] |367| 
TMS320C2000 Assembler PC v20.2.1 Mon Nov  2 17:14:28 2020

Copyright (c) 1996-2018 Texas Instruments Incorporated
bts_main.asm                                                         PAGE   33

         0000000a 0000 
    1654 0000000b 9000          ANDB      AL,#0                 ; [CPU_ALU] |367| 
    1655 0000000c 18A8          AND       AH,#32768             ; [CPU_ALU] |367| 
         0000000d 8000 
    1656              $C$DW$124       .dwtag  DW_TAG_TI_branch
    1657                      .dwattr $C$DW$124, DW_AT_low_pc(0x00)
    1658                      .dwattr $C$DW$124, DW_AT_name("__c28xabi_cmpull")
    1659                      .dwattr $C$DW$124, DW_AT_TI_call
    1660              
    1661 0000000e 7640!         LCR       #||__c28xabi_cmpull|| ; [CPU_ALU] |367| 
         0000000f 0000 
    1662                      ; call occurs [#||__c28xabi_cmpull||] ; [] |367| 
    1663 00000010 9B00          MOVB      AH,#0                 ; [CPU_ALU] |367| 
    1664 00000011 5200          CMPB      AL,#0                 ; [CPU_ALU] |367| 
    1665 00000012 56B0          MOVB      AH,#1,NEQ             ; [CPU_ALU] |367| 
         00000013 01A8 
    1666 00000014 92A8          MOV       AL,AH                 ; [CPU_ALU] |367| 
    1667 00000015 FE84          SUBB      SP,#4                 ; [CPU_ARAU] 
    1668                      .dwcfi  cfa_offset, -2
    1669              $C$DW$125       .dwtag  DW_TAG_TI_branch
    1670                      .dwattr $C$DW$125, DW_AT_low_pc(0x00)
    1671                      .dwattr $C$DW$125, DW_AT_TI_return
    1672              
    1673 00000016 0006          LRETR     ; [CPU_ALU] 
    1674                      ; return occurs ; [] 
    1675                      .dwattr $C$DW$121, DW_AT_TI_end_file("C:/ti/ccs1010/ccs/tools/compiler/ti-cgt-c2000_20.2.1.LTS/includ
    1676                      .dwattr $C$DW$121, DW_AT_TI_end_line(0x16f)
    1677                      .dwattr $C$DW$121, DW_AT_TI_end_column(0x2b)
    1678                      .dwendentry
    1679                      .dwendtag $C$DW$121
    1680              
    1681 00000000               .sect   ".text:__signbitf"
    1682                      .clink
    1683                      .global ||__signbitf||
    1684              
    1685              $C$DW$126       .dwtag  DW_TAG_subprogram
    1686                      .dwattr $C$DW$126, DW_AT_name("__signbitf")
    1687                      .dwattr $C$DW$126, DW_AT_low_pc(||__signbitf||)
    1688                      .dwattr $C$DW$126, DW_AT_high_pc(0x00)
    1689                      .dwattr $C$DW$126, DW_AT_linkage_name("__signbitf")
    1690                      .dwattr $C$DW$126, DW_AT_external
    1691                      .dwattr $C$DW$126, DW_AT_type(*$C$DW$T$10)
    1692                      .dwattr $C$DW$126, DW_AT_decl_file("C:/ti/ccs1010/ccs/tools/compiler/ti-cgt-c2000_20.2.1.LTS/include/
    1693                      .dwattr $C$DW$126, DW_AT_decl_line(0x16c)
    1694                      .dwattr $C$DW$126, DW_AT_decl_column(0x25)
    1695                      .dwattr $C$DW$126, DW_AT_TI_max_frame_size(-2)
    1696                      .dwpsn  file "C:/ti/ccs1010/ccs/tools/compiler/ti-cgt-c2000_20.2.1.LTS/include/_defs.h",line 365,colu
    1697              
    1698                      .dwfde $C$DW$CIE, ||__signbitf||
    1699              $C$DW$127       .dwtag  DW_TAG_formal_parameter
    1700                      .dwattr $C$DW$127, DW_AT_name("f")
    1701                      .dwattr $C$DW$127, DW_AT_type(*$C$DW$T$16)
    1702                      .dwattr $C$DW$127, DW_AT_location[DW_OP_regx 0x2b]
    1703              
    1704              
TMS320C2000 Assembler PC v20.2.1 Mon Nov  2 17:14:28 2020

Copyright (c) 1996-2018 Texas Instruments Incorporated
bts_main.asm                                                         PAGE   34

    1705              ;***************************************************************
    1706              ;* FNAME: __signbitf                    FR SIZE:   0           *
    1707              ;*                                                             *
    1708              ;* FUNCTION ENVIRONMENT                                        *
    1709              ;*                                                             *
    1710              ;* FUNCTION PROPERTIES                                         *
    1711              ;*                            0 Parameter,  0 Auto,  0 SOE     *
    1712              ;***************************************************************
    1713              
    1714              ||__signbitf||:
    1715              ;* R0    assigned to f
    1716              $C$DW$128       .dwtag  DW_TAG_variable
    1717                      .dwattr $C$DW$128, DW_AT_name("f")
    1718                      .dwattr $C$DW$128, DW_AT_type(*$C$DW$T$125)
    1719                      .dwattr $C$DW$128, DW_AT_location[DW_OP_regx 0x2b]
    1720              
    1721                      .dwcfi  cfa_offset, -2
    1722                      .dwcfi  save_reg_to_mem, 26, 0
    1723                      .dwpsn  file "C:/ti/ccs1010/ccs/tools/compiler/ti-cgt-c2000_20.2.1.LTS/include/_defs.h",line 365,colu
    1724 00000000 BFA9          MOV32     ACC,R0H               ; [CPU_FPU] |365| 
         00000001 0F12 
    1725 00000002 BE00          MOVB      XAR6,#0               ; [CPU_ALU] |365| 
    1726 00000003 9000          ANDB      AL,#0                 ; [CPU_ALU] |365| 
    1727 00000004 18A8          AND       AH,#32768             ; [CPU_ALU] |365| 
         00000005 8000 
    1728 00000006 FF58          TEST      ACC                   ; [CPU_ALU] |365| 
    1729 00000007 56B0          MOVB      XAR6,#1,NEQ           ; [CPU_ALU] |365| 
         00000008 01A6 
    1730 00000009 92A6          MOV       AL,AR6                ; [CPU_ALU] |365| 
    1731              $C$DW$129       .dwtag  DW_TAG_TI_branch
    1732                      .dwattr $C$DW$129, DW_AT_low_pc(0x00)
    1733                      .dwattr $C$DW$129, DW_AT_TI_return
    1734              
    1735 0000000a 0006          LRETR     ; [CPU_ALU] 
    1736                      ; return occurs ; [] 
    1737                      .dwattr $C$DW$126, DW_AT_TI_end_file("C:/ti/ccs1010/ccs/tools/compiler/ti-cgt-c2000_20.2.1.LTS/includ
    1738                      .dwattr $C$DW$126, DW_AT_TI_end_line(0x16d)
    1739                      .dwattr $C$DW$126, DW_AT_TI_end_column(0x29)
    1740                      .dwendentry
    1741                      .dwendtag $C$DW$126
    1742              
    1743 00000000               .sect   ".text:__signbit"
    1744                      .clink
    1745                      .global ||__signbit||
    1746              
    1747              $C$DW$130       .dwtag  DW_TAG_subprogram
    1748                      .dwattr $C$DW$130, DW_AT_name("__signbit")
    1749                      .dwattr $C$DW$130, DW_AT_low_pc(||__signbit||)
    1750                      .dwattr $C$DW$130, DW_AT_high_pc(0x00)
    1751                      .dwattr $C$DW$130, DW_AT_linkage_name("__signbit")
    1752                      .dwattr $C$DW$130, DW_AT_external
    1753                      .dwattr $C$DW$130, DW_AT_type(*$C$DW$T$10)
    1754                      .dwattr $C$DW$130, DW_AT_decl_file("C:/ti/ccs1010/ccs/tools/compiler/ti-cgt-c2000_20.2.1.LTS/include/
    1755                      .dwattr $C$DW$130, DW_AT_decl_line(0x16a)
    1756                      .dwattr $C$DW$130, DW_AT_decl_column(0x25)
TMS320C2000 Assembler PC v20.2.1 Mon Nov  2 17:14:28 2020

Copyright (c) 1996-2018 Texas Instruments Incorporated
bts_main.asm                                                         PAGE   35

    1757                      .dwattr $C$DW$130, DW_AT_TI_max_frame_size(-6)
    1758                      .dwpsn  file "C:/ti/ccs1010/ccs/tools/compiler/ti-cgt-c2000_20.2.1.LTS/include/_defs.h",line 363,colu
    1759              
    1760                      .dwfde $C$DW$CIE, ||__signbit||
    1761              $C$DW$131       .dwtag  DW_TAG_formal_parameter
    1762                      .dwattr $C$DW$131, DW_AT_name("d")
    1763                      .dwattr $C$DW$131, DW_AT_type(*$C$DW$T$128)
    1764                      .dwattr $C$DW$131, DW_AT_location[DW_OP_reg12]
    1765              
    1766              
    1767              ;***************************************************************
    1768              ;* FNAME: __signbit                     FR SIZE:   4           *
    1769              ;*                                                             *
    1770              ;* FUNCTION ENVIRONMENT                                        *
    1771              ;*                                                             *
    1772              ;* FUNCTION PROPERTIES                                         *
    1773              ;*                            4 Parameter,  0 Auto,  0 SOE     *
    1774              ;***************************************************************
    1775              
    1776              ||__signbit||:
    1777              ;* AR4   assigned to d
    1778              $C$DW$132       .dwtag  DW_TAG_variable
    1779                      .dwattr $C$DW$132, DW_AT_name("d")
    1780                      .dwattr $C$DW$132, DW_AT_type(*$C$DW$T$129)
    1781                      .dwattr $C$DW$132, DW_AT_location[DW_OP_reg12]
    1782              
    1783                      .dwcfi  cfa_offset, -2
    1784                      .dwcfi  save_reg_to_mem, 26, 0
    1785 00000000 FE04          ADDB      SP,#4                 ; [CPU_ARAU] 
    1786                      .dwcfi  cfa_offset, -6
    1787                      .dwpsn  file "C:/ti/ccs1010/ccs/tools/compiler/ti-cgt-c2000_20.2.1.LTS/include/_defs.h",line 363,colu
    1788 00000001 0200          MOVB      ACC,#0                ; [CPU_ALU] |363| 
    1789 00000002 1E44          MOVL      *-SP[4],ACC           ; [CPU_ALU] |363| 
    1790 00000003 2B42          MOV       *-SP[2],#0            ; [CPU_ALU] |363| 
    1791 00000004 2B41          MOV       *-SP[1],#0            ; [CPU_ALU] |363| 
    1792 00000005 A3C4          MOVL      P,*+XAR4[0]           ; [CPU_ALU] |363| 
    1793 00000006 06D4          MOVL      ACC,*+XAR4[2]         ; [CPU_ALU] |363| 
    1794 00000007 18AB          AND       PL,#0                 ; [CPU_ALU] |363| 
         00000008 0000 
    1795 00000009 18AA          AND       PH,#0                 ; [CPU_ALU] |363| 
         0000000a 0000 
    1796 0000000b 9000          ANDB      AL,#0                 ; [CPU_ALU] |363| 
    1797 0000000c 18A8          AND       AH,#32768             ; [CPU_ALU] |363| 
         0000000d 8000 
    1798              $C$DW$133       .dwtag  DW_TAG_TI_branch
    1799                      .dwattr $C$DW$133, DW_AT_low_pc(0x00)
    1800                      .dwattr $C$DW$133, DW_AT_name("__c28xabi_cmpull")
    1801                      .dwattr $C$DW$133, DW_AT_TI_call
    1802              
    1803 0000000e 7640!         LCR       #||__c28xabi_cmpull|| ; [CPU_ALU] |363| 
         0000000f 0000 
    1804                      ; call occurs [#||__c28xabi_cmpull||] ; [] |363| 
    1805 00000010 9B00          MOVB      AH,#0                 ; [CPU_ALU] |363| 
    1806 00000011 5200          CMPB      AL,#0                 ; [CPU_ALU] |363| 
    1807 00000012 56B0          MOVB      AH,#1,NEQ             ; [CPU_ALU] |363| 
TMS320C2000 Assembler PC v20.2.1 Mon Nov  2 17:14:28 2020

Copyright (c) 1996-2018 Texas Instruments Incorporated
bts_main.asm                                                         PAGE   36

         00000013 01A8 
    1808 00000014 92A8          MOV       AL,AH                 ; [CPU_ALU] |363| 
    1809 00000015 FE84          SUBB      SP,#4                 ; [CPU_ARAU] 
    1810                      .dwcfi  cfa_offset, -2
    1811              $C$DW$134       .dwtag  DW_TAG_TI_branch
    1812                      .dwattr $C$DW$134, DW_AT_low_pc(0x00)
    1813                      .dwattr $C$DW$134, DW_AT_TI_return
    1814              
    1815 00000016 0006          LRETR     ; [CPU_ALU] 
    1816                      ; return occurs ; [] 
    1817                      .dwattr $C$DW$130, DW_AT_TI_end_file("C:/ti/ccs1010/ccs/tools/compiler/ti-cgt-c2000_20.2.1.LTS/includ
    1818                      .dwattr $C$DW$130, DW_AT_TI_end_line(0x16b)
    1819                      .dwattr $C$DW$130, DW_AT_TI_end_column(0x2a)
    1820                      .dwendentry
    1821                      .dwendtag $C$DW$130
    1822              
    1823 00000000               .sect   ".text:__relaxed_sqrtf"
    1824                      .clink
    1825                      .global ||__relaxed_sqrtf||
    1826              
    1827              $C$DW$135       .dwtag  DW_TAG_subprogram
    1828                      .dwattr $C$DW$135, DW_AT_name("__relaxed_sqrtf")
    1829                      .dwattr $C$DW$135, DW_AT_low_pc(||__relaxed_sqrtf||)
    1830                      .dwattr $C$DW$135, DW_AT_high_pc(0x00)
    1831                      .dwattr $C$DW$135, DW_AT_linkage_name("__relaxed_sqrtf")
    1832                      .dwattr $C$DW$135, DW_AT_external
    1833                      .dwattr $C$DW$135, DW_AT_type(*$C$DW$T$16)
    1834                      .dwattr $C$DW$135, DW_AT_decl_file("C:/ti/ccs1010/ccs/tools/compiler/ti-cgt-c2000_20.2.1.LTS/include/
    1835                      .dwattr $C$DW$135, DW_AT_decl_line(0xe3)
    1836                      .dwattr $C$DW$135, DW_AT_decl_column(0x10)
    1837                      .dwattr $C$DW$135, DW_AT_TI_max_frame_size(-2)
    1838                      .dwpsn  file "C:/ti/ccs1010/ccs/tools/compiler/ti-cgt-c2000_20.2.1.LTS/include/math.h",line 228,colum
    1839              
    1840                      .dwfde $C$DW$CIE, ||__relaxed_sqrtf||
    1841              $C$DW$136       .dwtag  DW_TAG_formal_parameter
    1842                      .dwattr $C$DW$136, DW_AT_name("x")
    1843                      .dwattr $C$DW$136, DW_AT_type(*$C$DW$T$16)
    1844                      .dwattr $C$DW$136, DW_AT_location[DW_OP_regx 0x2b]
    1845              
    1846              
    1847              ;***************************************************************
    1848              ;* FNAME: __relaxed_sqrtf               FR SIZE:   0           *
    1849              ;*                                                             *
    1850              ;* FUNCTION ENVIRONMENT                                        *
    1851              ;*                                                             *
    1852              ;* FUNCTION PROPERTIES                                         *
    1853              ;*                            0 Parameter,  0 Auto,  0 SOE     *
    1854              ;***************************************************************
    1855              
    1856              ||__relaxed_sqrtf||:
    1857              ;* R0    assigned to x
    1858              $C$DW$137       .dwtag  DW_TAG_variable
    1859                      .dwattr $C$DW$137, DW_AT_name("x")
    1860                      .dwattr $C$DW$137, DW_AT_type(*$C$DW$T$125)
    1861                      .dwattr $C$DW$137, DW_AT_location[DW_OP_regx 0x2b]
TMS320C2000 Assembler PC v20.2.1 Mon Nov  2 17:14:28 2020

Copyright (c) 1996-2018 Texas Instruments Incorporated
bts_main.asm                                                         PAGE   37

    1862              
    1863                      .dwcfi  cfa_offset, -2
    1864                      .dwcfi  save_reg_to_mem, 26, 0
    1865                      .dwpsn  file "C:/ti/ccs1010/ccs/tools/compiler/ti-cgt-c2000_20.2.1.LTS/include/math.h",line 229,colum
    1866 00000000 E277          SQRTF32   R0H,R0H               ; [CPU_FPU] |229| 
         00000001 0000 
    1867 00000002 7700          NOP       ; [CPU_ALU] 
    1868 00000003 7700          NOP       ; [CPU_ALU] 
    1869 00000004 7700          NOP       ; [CPU_ALU] 
    1870              $C$DW$138       .dwtag  DW_TAG_TI_branch
    1871                      .dwattr $C$DW$138, DW_AT_low_pc(0x00)
    1872                      .dwattr $C$DW$138, DW_AT_TI_return
    1873              
    1874 00000005 0006          LRETR     ; [CPU_ALU] 
    1875                      ; return occurs ; [] 
    1876                      .dwattr $C$DW$135, DW_AT_TI_end_file("C:/ti/ccs1010/ccs/tools/compiler/ti-cgt-c2000_20.2.1.LTS/includ
    1877                      .dwattr $C$DW$135, DW_AT_TI_end_line(0xe6)
    1878                      .dwattr $C$DW$135, DW_AT_TI_end_column(0x01)
    1879                      .dwendentry
    1880                      .dwendtag $C$DW$135
    1881              
    1882 00000000               .sect   ".text:__relaxed_sinf"
    1883                      .clink
    1884                      .global ||__relaxed_sinf||
    1885              
    1886              $C$DW$139       .dwtag  DW_TAG_subprogram
    1887                      .dwattr $C$DW$139, DW_AT_name("__relaxed_sinf")
    1888                      .dwattr $C$DW$139, DW_AT_low_pc(||__relaxed_sinf||)
    1889                      .dwattr $C$DW$139, DW_AT_high_pc(0x00)
    1890                      .dwattr $C$DW$139, DW_AT_linkage_name("__relaxed_sinf")
    1891                      .dwattr $C$DW$139, DW_AT_external
    1892                      .dwattr $C$DW$139, DW_AT_type(*$C$DW$T$16)
    1893                      .dwattr $C$DW$139, DW_AT_decl_file("C:/ti/ccs1010/ccs/tools/compiler/ti-cgt-c2000_20.2.1.LTS/include/
    1894                      .dwattr $C$DW$139, DW_AT_decl_line(0xe8)
    1895                      .dwattr $C$DW$139, DW_AT_decl_column(0x10)
    1896                      .dwattr $C$DW$139, DW_AT_TI_max_frame_size(-2)
    1897                      .dwpsn  file "C:/ti/ccs1010/ccs/tools/compiler/ti-cgt-c2000_20.2.1.LTS/include/math.h",line 233,colum
    1898              
    1899                      .dwfde $C$DW$CIE, ||__relaxed_sinf||
    1900              $C$DW$140       .dwtag  DW_TAG_formal_parameter
    1901                      .dwattr $C$DW$140, DW_AT_name("x")
    1902                      .dwattr $C$DW$140, DW_AT_type(*$C$DW$T$16)
    1903                      .dwattr $C$DW$140, DW_AT_location[DW_OP_regx 0x2b]
    1904              
    1905              
    1906              ;***************************************************************
    1907              ;* FNAME: __relaxed_sinf                FR SIZE:   0           *
    1908              ;*                                                             *
    1909              ;* FUNCTION ENVIRONMENT                                        *
    1910              ;*                                                             *
    1911              ;* FUNCTION PROPERTIES                                         *
    1912              ;*                            0 Parameter,  0 Auto,  0 SOE     *
    1913              ;***************************************************************
    1914              
    1915              ||__relaxed_sinf||:
TMS320C2000 Assembler PC v20.2.1 Mon Nov  2 17:14:28 2020

Copyright (c) 1996-2018 Texas Instruments Incorporated
bts_main.asm                                                         PAGE   38

    1916              ;* R0    assigned to x
    1917              $C$DW$141       .dwtag  DW_TAG_variable
    1918                      .dwattr $C$DW$141, DW_AT_name("x")
    1919                      .dwattr $C$DW$141, DW_AT_type(*$C$DW$T$125)
    1920                      .dwattr $C$DW$141, DW_AT_location[DW_OP_regx 0x2b]
    1921              
    1922                      .dwcfi  cfa_offset, -2
    1923                      .dwcfi  save_reg_to_mem, 26, 0
    1924                      .dwpsn  file "C:/ti/ccs1010/ccs/tools/compiler/ti-cgt-c2000_20.2.1.LTS/include/math.h",line 234,colum
    1925 00000000 E271          DIV2PIF32 R0H,R0H               ; [CPU_FPU] |234| 
         00000001 0000 
    1926 00000002 7700          NOP       ; [CPU_ALU] 
    1927 00000003 E278          SINPUF32  R0H,R0H               ; [CPU_FPU] |234| 
         00000004 0000 
    1928 00000005 7700          NOP       ; [CPU_ALU] 
    1929 00000006 7700          NOP       ; [CPU_ALU] 
    1930              $C$DW$142       .dwtag  DW_TAG_TI_branch
    1931                      .dwattr $C$DW$142, DW_AT_low_pc(0x00)
    1932                      .dwattr $C$DW$142, DW_AT_TI_return
    1933              
    1934 00000007 0006          LRETR     ; [CPU_ALU] 
    1935                      ; return occurs ; [] 
    1936                      .dwattr $C$DW$139, DW_AT_TI_end_file("C:/ti/ccs1010/ccs/tools/compiler/ti-cgt-c2000_20.2.1.LTS/includ
    1937                      .dwattr $C$DW$139, DW_AT_TI_end_line(0xeb)
    1938                      .dwattr $C$DW$139, DW_AT_TI_end_column(0x01)
    1939                      .dwendentry
    1940                      .dwendtag $C$DW$139
    1941              
    1942 00000000               .sect   ".text:__relaxed_cosf"
    1943                      .clink
    1944                      .global ||__relaxed_cosf||
    1945              
    1946              $C$DW$143       .dwtag  DW_TAG_subprogram
    1947                      .dwattr $C$DW$143, DW_AT_name("__relaxed_cosf")
    1948                      .dwattr $C$DW$143, DW_AT_low_pc(||__relaxed_cosf||)
    1949                      .dwattr $C$DW$143, DW_AT_high_pc(0x00)
    1950                      .dwattr $C$DW$143, DW_AT_linkage_name("__relaxed_cosf")
    1951                      .dwattr $C$DW$143, DW_AT_external
    1952                      .dwattr $C$DW$143, DW_AT_type(*$C$DW$T$16)
    1953                      .dwattr $C$DW$143, DW_AT_decl_file("C:/ti/ccs1010/ccs/tools/compiler/ti-cgt-c2000_20.2.1.LTS/include/
    1954                      .dwattr $C$DW$143, DW_AT_decl_line(0xed)
    1955                      .dwattr $C$DW$143, DW_AT_decl_column(0x10)
    1956                      .dwattr $C$DW$143, DW_AT_TI_max_frame_size(-2)
    1957                      .dwpsn  file "C:/ti/ccs1010/ccs/tools/compiler/ti-cgt-c2000_20.2.1.LTS/include/math.h",line 238,colum
    1958              
    1959                      .dwfde $C$DW$CIE, ||__relaxed_cosf||
    1960              $C$DW$144       .dwtag  DW_TAG_formal_parameter
    1961                      .dwattr $C$DW$144, DW_AT_name("x")
    1962                      .dwattr $C$DW$144, DW_AT_type(*$C$DW$T$16)
    1963                      .dwattr $C$DW$144, DW_AT_location[DW_OP_regx 0x2b]
    1964              
    1965              
    1966              ;***************************************************************
    1967              ;* FNAME: __relaxed_cosf                FR SIZE:   0           *
    1968              ;*                                                             *
TMS320C2000 Assembler PC v20.2.1 Mon Nov  2 17:14:28 2020

Copyright (c) 1996-2018 Texas Instruments Incorporated
bts_main.asm                                                         PAGE   39

    1969              ;* FUNCTION ENVIRONMENT                                        *
    1970              ;*                                                             *
    1971              ;* FUNCTION PROPERTIES                                         *
    1972              ;*                            0 Parameter,  0 Auto,  0 SOE     *
    1973              ;***************************************************************
    1974              
    1975              ||__relaxed_cosf||:
    1976              ;* R0    assigned to x
    1977              $C$DW$145       .dwtag  DW_TAG_variable
    1978                      .dwattr $C$DW$145, DW_AT_name("x")
    1979                      .dwattr $C$DW$145, DW_AT_type(*$C$DW$T$125)
    1980                      .dwattr $C$DW$145, DW_AT_location[DW_OP_regx 0x2b]
    1981              
    1982                      .dwcfi  cfa_offset, -2
    1983                      .dwcfi  save_reg_to_mem, 26, 0
    1984                      .dwpsn  file "C:/ti/ccs1010/ccs/tools/compiler/ti-cgt-c2000_20.2.1.LTS/include/math.h",line 239,colum
    1985 00000000 E271          DIV2PIF32 R0H,R0H               ; [CPU_FPU] |239| 
         00000001 0000 
    1986 00000002 7700          NOP       ; [CPU_ALU] 
    1987 00000003 E279          COSPUF32  R0H,R0H               ; [CPU_FPU] |239| 
         00000004 0000 
    1988 00000005 7700          NOP       ; [CPU_ALU] 
    1989 00000006 7700          NOP       ; [CPU_ALU] 
    1990              $C$DW$146       .dwtag  DW_TAG_TI_branch
    1991                      .dwattr $C$DW$146, DW_AT_low_pc(0x00)
    1992                      .dwattr $C$DW$146, DW_AT_TI_return
    1993              
    1994 00000007 0006          LRETR     ; [CPU_ALU] 
    1995                      ; return occurs ; [] 
    1996                      .dwattr $C$DW$143, DW_AT_TI_end_file("C:/ti/ccs1010/ccs/tools/compiler/ti-cgt-c2000_20.2.1.LTS/includ
    1997                      .dwattr $C$DW$143, DW_AT_TI_end_line(0xf0)
    1998                      .dwattr $C$DW$143, DW_AT_TI_end_column(0x01)
    1999                      .dwendentry
    2000                      .dwendtag $C$DW$143
    2001              
    2002 00000000               .sect   ".text:__relaxed_atanf"
    2003                      .clink
    2004                      .global ||__relaxed_atanf||
    2005              
    2006              $C$DW$147       .dwtag  DW_TAG_subprogram
    2007                      .dwattr $C$DW$147, DW_AT_name("__relaxed_atanf")
    2008                      .dwattr $C$DW$147, DW_AT_low_pc(||__relaxed_atanf||)
    2009                      .dwattr $C$DW$147, DW_AT_high_pc(0x00)
    2010                      .dwattr $C$DW$147, DW_AT_linkage_name("__relaxed_atanf")
    2011                      .dwattr $C$DW$147, DW_AT_external
    2012                      .dwattr $C$DW$147, DW_AT_type(*$C$DW$T$16)
    2013                      .dwattr $C$DW$147, DW_AT_decl_file("C:/ti/ccs1010/ccs/tools/compiler/ti-cgt-c2000_20.2.1.LTS/include/
    2014                      .dwattr $C$DW$147, DW_AT_decl_line(0xf2)
    2015                      .dwattr $C$DW$147, DW_AT_decl_column(0x10)
    2016                      .dwattr $C$DW$147, DW_AT_TI_max_frame_size(-2)
    2017                      .dwpsn  file "C:/ti/ccs1010/ccs/tools/compiler/ti-cgt-c2000_20.2.1.LTS/include/math.h",line 243,colum
    2018              
    2019                      .dwfde $C$DW$CIE, ||__relaxed_atanf||
    2020              $C$DW$148       .dwtag  DW_TAG_formal_parameter
    2021                      .dwattr $C$DW$148, DW_AT_name("x")
TMS320C2000 Assembler PC v20.2.1 Mon Nov  2 17:14:28 2020

Copyright (c) 1996-2018 Texas Instruments Incorporated
bts_main.asm                                                         PAGE   40

    2022                      .dwattr $C$DW$148, DW_AT_type(*$C$DW$T$16)
    2023                      .dwattr $C$DW$148, DW_AT_location[DW_OP_regx 0x2b]
    2024              
    2025              
    2026              ;***************************************************************
    2027              ;* FNAME: __relaxed_atanf               FR SIZE:   0           *
    2028              ;*                                                             *
    2029              ;* FUNCTION ENVIRONMENT                                        *
    2030              ;*                                                             *
    2031              ;* FUNCTION PROPERTIES                                         *
    2032              ;*                            0 Parameter,  0 Auto,  0 SOE     *
    2033              ;***************************************************************
    2034              
    2035              ||__relaxed_atanf||:
    2036              ;* R0    assigned to x
    2037              $C$DW$149       .dwtag  DW_TAG_variable
    2038                      .dwattr $C$DW$149, DW_AT_name("x")
    2039                      .dwattr $C$DW$149, DW_AT_type(*$C$DW$T$125)
    2040                      .dwattr $C$DW$149, DW_AT_location[DW_OP_regx 0x2b]
    2041              
    2042                      .dwcfi  cfa_offset, -2
    2043                      .dwcfi  save_reg_to_mem, 26, 0
    2044                      .dwpsn  file "C:/ti/ccs1010/ccs/tools/compiler/ti-cgt-c2000_20.2.1.LTS/include/math.h",line 244,colum
    2045 00000000 E801          MOVIZ     R1H,#16256            ; [CPU_FPU] |244| 
         00000001 FC01 
    2046 00000002 E27C          QUADF32   R1H,R0H,R0H,R1H       ; [CPU_FPU] |244| 
         00000003 0201 
    2047 00000004 7700          NOP       ; [CPU_ALU] 
    2048 00000005 7700          NOP       ; [CPU_ALU] 
    2049 00000006 7700          NOP       ; [CPU_ALU] 
    2050 00000007 7700          NOP       ; [CPU_ALU] 
    2051 00000008 E27A          ATANPUF32 R0H,R0H               ; [CPU_FPU] |244| 
         00000009 0000 
    2052 0000000a 7700          NOP       ; [CPU_ALU] 
    2053 0000000b 7700          NOP       ; [CPU_ALU] 
    2054 0000000c 7700          NOP       ; [CPU_ALU] 
    2055 0000000d E710          ADDF32    R0H,R0H,R1H           ; [CPU_FPU] |244| 
         0000000e 0040 
    2056 0000000f 7700          NOP       ; [CPU_ALU] 
    2057 00000010 7700          NOP       ; [CPU_ALU] 
    2058 00000011 E270          MPY2PIF32 R0H,R0H               ; [CPU_FPU] |244| 
         00000012 0000 
    2059 00000013 7700          NOP       ; [CPU_ALU] 
    2060              $C$DW$150       .dwtag  DW_TAG_TI_branch
    2061                      .dwattr $C$DW$150, DW_AT_low_pc(0x00)
    2062                      .dwattr $C$DW$150, DW_AT_TI_return
    2063              
    2064 00000014 0006          LRETR     ; [CPU_ALU] 
    2065                      ; return occurs ; [] 
    2066                      .dwattr $C$DW$147, DW_AT_TI_end_file("C:/ti/ccs1010/ccs/tools/compiler/ti-cgt-c2000_20.2.1.LTS/includ
    2067                      .dwattr $C$DW$147, DW_AT_TI_end_line(0xf5)
    2068                      .dwattr $C$DW$147, DW_AT_TI_end_column(0x01)
    2069                      .dwendentry
    2070                      .dwendtag $C$DW$147
    2071              
TMS320C2000 Assembler PC v20.2.1 Mon Nov  2 17:14:28 2020

Copyright (c) 1996-2018 Texas Instruments Incorporated
bts_main.asm                                                         PAGE   41

    2072 00000000               .sect   ".text:__relaxed_atan2f"
    2073                      .clink
    2074                      .global ||__relaxed_atan2f||
    2075              
    2076              $C$DW$151       .dwtag  DW_TAG_subprogram
    2077                      .dwattr $C$DW$151, DW_AT_name("__relaxed_atan2f")
    2078                      .dwattr $C$DW$151, DW_AT_low_pc(||__relaxed_atan2f||)
    2079                      .dwattr $C$DW$151, DW_AT_high_pc(0x00)
    2080                      .dwattr $C$DW$151, DW_AT_linkage_name("__relaxed_atan2f")
    2081                      .dwattr $C$DW$151, DW_AT_external
    2082                      .dwattr $C$DW$151, DW_AT_type(*$C$DW$T$16)
    2083                      .dwattr $C$DW$151, DW_AT_decl_file("C:/ti/ccs1010/ccs/tools/compiler/ti-cgt-c2000_20.2.1.LTS/include/
    2084                      .dwattr $C$DW$151, DW_AT_decl_line(0xf7)
    2085                      .dwattr $C$DW$151, DW_AT_decl_column(0x10)
    2086                      .dwattr $C$DW$151, DW_AT_TI_max_frame_size(-2)
    2087                      .dwpsn  file "C:/ti/ccs1010/ccs/tools/compiler/ti-cgt-c2000_20.2.1.LTS/include/math.h",line 248,colum
    2088              
    2089                      .dwfde $C$DW$CIE, ||__relaxed_atan2f||
    2090              $C$DW$152       .dwtag  DW_TAG_formal_parameter
    2091                      .dwattr $C$DW$152, DW_AT_name("y")
    2092                      .dwattr $C$DW$152, DW_AT_type(*$C$DW$T$16)
    2093                      .dwattr $C$DW$152, DW_AT_location[DW_OP_regx 0x2b]
    2094              
    2095              $C$DW$153       .dwtag  DW_TAG_formal_parameter
    2096                      .dwattr $C$DW$153, DW_AT_name("x")
    2097                      .dwattr $C$DW$153, DW_AT_type(*$C$DW$T$16)
    2098                      .dwattr $C$DW$153, DW_AT_location[DW_OP_regx 0x2f]
    2099              
    2100              
    2101              ;***************************************************************
    2102              ;* FNAME: __relaxed_atan2f              FR SIZE:   0           *
    2103              ;*                                                             *
    2104              ;* FUNCTION ENVIRONMENT                                        *
    2105              ;*                                                             *
    2106              ;* FUNCTION PROPERTIES                                         *
    2107              ;*                            0 Parameter,  0 Auto,  0 SOE     *
    2108              ;***************************************************************
    2109              
    2110              ||__relaxed_atan2f||:
    2111              ;* R0    assigned to y
    2112              $C$DW$154       .dwtag  DW_TAG_variable
    2113                      .dwattr $C$DW$154, DW_AT_name("y")
    2114                      .dwattr $C$DW$154, DW_AT_type(*$C$DW$T$125)
    2115                      .dwattr $C$DW$154, DW_AT_location[DW_OP_regx 0x2b]
    2116              
    2117              ;* R1    assigned to x
    2118              $C$DW$155       .dwtag  DW_TAG_variable
    2119                      .dwattr $C$DW$155, DW_AT_name("x")
    2120                      .dwattr $C$DW$155, DW_AT_type(*$C$DW$T$125)
    2121                      .dwattr $C$DW$155, DW_AT_location[DW_OP_regx 0x2f]
    2122              
    2123                      .dwcfi  cfa_offset, -2
    2124                      .dwcfi  save_reg_to_mem, 26, 0
    2125                      .dwpsn  file "C:/ti/ccs1010/ccs/tools/compiler/ti-cgt-c2000_20.2.1.LTS/include/math.h",line 249,colum
    2126 00000000 E27C          QUADF32   R1H,R0H,R0H,R1H       ; [CPU_FPU] |249| 
TMS320C2000 Assembler PC v20.2.1 Mon Nov  2 17:14:28 2020

Copyright (c) 1996-2018 Texas Instruments Incorporated
bts_main.asm                                                         PAGE   42

         00000001 0201 
    2127 00000002 7700          NOP       ; [CPU_ALU] 
    2128 00000003 7700          NOP       ; [CPU_ALU] 
    2129 00000004 7700          NOP       ; [CPU_ALU] 
    2130 00000005 7700          NOP       ; [CPU_ALU] 
    2131 00000006 E27A          ATANPUF32 R0H,R0H               ; [CPU_FPU] |249| 
         00000007 0000 
    2132 00000008 7700          NOP       ; [CPU_ALU] 
    2133 00000009 7700          NOP       ; [CPU_ALU] 
    2134 0000000a 7700          NOP       ; [CPU_ALU] 
    2135 0000000b E710          ADDF32    R0H,R0H,R1H           ; [CPU_FPU] |249| 
         0000000c 0040 
    2136 0000000d 7700          NOP       ; [CPU_ALU] 
    2137 0000000e 7700          NOP       ; [CPU_ALU] 
    2138 0000000f E270          MPY2PIF32 R0H,R0H               ; [CPU_FPU] |249| 
         00000010 0000 
    2139 00000011 7700          NOP       ; [CPU_ALU] 
    2140              $C$DW$156       .dwtag  DW_TAG_TI_branch
    2141                      .dwattr $C$DW$156, DW_AT_low_pc(0x00)
    2142                      .dwattr $C$DW$156, DW_AT_TI_return
    2143              
    2144 00000012 0006          LRETR     ; [CPU_ALU] 
    2145                      ; return occurs ; [] 
    2146                      .dwattr $C$DW$151, DW_AT_TI_end_file("C:/ti/ccs1010/ccs/tools/compiler/ti-cgt-c2000_20.2.1.LTS/includ
    2147                      .dwattr $C$DW$151, DW_AT_TI_end_line(0xfa)
    2148                      .dwattr $C$DW$151, DW_AT_TI_end_column(0x01)
    2149                      .dwendentry
    2150                      .dwendtag $C$DW$151
    2151              
    2152 00000000               .sect   ".text:__isnormall"
    2153                      .clink
    2154                      .global ||__isnormall||
    2155              
    2156              $C$DW$157       .dwtag  DW_TAG_subprogram
    2157                      .dwattr $C$DW$157, DW_AT_name("__isnormall")
    2158                      .dwattr $C$DW$157, DW_AT_low_pc(||__isnormall||)
    2159                      .dwattr $C$DW$157, DW_AT_high_pc(0x00)
    2160                      .dwattr $C$DW$157, DW_AT_linkage_name("__isnormall")
    2161                      .dwattr $C$DW$157, DW_AT_external
    2162                      .dwattr $C$DW$157, DW_AT_type(*$C$DW$T$10)
    2163                      .dwattr $C$DW$157, DW_AT_decl_file("C:/ti/ccs1010/ccs/tools/compiler/ti-cgt-c2000_20.2.1.LTS/include/
    2164                      .dwattr $C$DW$157, DW_AT_decl_line(0x166)
    2165                      .dwattr $C$DW$157, DW_AT_decl_column(0x25)
    2166                      .dwattr $C$DW$157, DW_AT_TI_max_frame_size(-6)
    2167                      .dwpsn  file "C:/ti/ccs1010/ccs/tools/compiler/ti-cgt-c2000_20.2.1.LTS/include/_defs.h",line 359,colu
    2168              
    2169                      .dwfde $C$DW$CIE, ||__isnormall||
    2170              $C$DW$158       .dwtag  DW_TAG_formal_parameter
    2171                      .dwattr $C$DW$158, DW_AT_name("e")
    2172                      .dwattr $C$DW$158, DW_AT_type(*$C$DW$T$131)
    2173                      .dwattr $C$DW$158, DW_AT_location[DW_OP_reg12]
    2174              
    2175              
    2176              ;***************************************************************
    2177              ;* FNAME: __isnormall                   FR SIZE:   4           *
TMS320C2000 Assembler PC v20.2.1 Mon Nov  2 17:14:28 2020

Copyright (c) 1996-2018 Texas Instruments Incorporated
bts_main.asm                                                         PAGE   43

    2178              ;*                                                             *
    2179              ;* FUNCTION ENVIRONMENT                                        *
    2180              ;*                                                             *
    2181              ;* FUNCTION PROPERTIES                                         *
    2182              ;*                            4 Parameter,  0 Auto,  0 SOE     *
    2183              ;***************************************************************
    2184              
    2185              ||__isnormall||:
    2186              ;* AR5   assigned to $O$C2
    2187              ;* AR6   assigned to $O$S1
    2188              ;* AR4   assigned to e
    2189              $C$DW$159       .dwtag  DW_TAG_variable
    2190                      .dwattr $C$DW$159, DW_AT_name("e")
    2191                      .dwattr $C$DW$159, DW_AT_type(*$C$DW$T$132)
    2192                      .dwattr $C$DW$159, DW_AT_location[DW_OP_reg12]
    2193              
    2194                      .dwcfi  cfa_offset, -2
    2195                      .dwcfi  save_reg_to_mem, 26, 0
    2196 00000000 FE04          ADDB      SP,#4                 ; [CPU_ARAU] 
    2197                      .dwcfi  cfa_offset, -6
    2198                      .dwpsn  file "C:/ti/ccs1010/ccs/tools/compiler/ti-cgt-c2000_20.2.1.LTS/include/_defs.h",line 359,colu
    2199 00000001 83C4          MOVL      XAR5,*+XAR4[0]        ; [CPU_ALU] |359| 
    2200 00000002 8AD4          MOVL      XAR4,*+XAR4[2]        ; [CPU_ALU] |359| 
    2201 00000003 BE00          MOVB      XAR6,#0               ; [CPU_ALU] |359| 
    2202 00000004 28AC          MOV       T,#52                 ; [CPU_ALU] |359| 
         00000005 0034 
    2203 00000006 A0AB          MOVL      P,XAR5                ; [CPU_ALU] |359| 
    2204 00000007 A8A9          MOVL      ACC,XAR4              ; [CPU_ALU] |359| 
    2205 00000008 C244          MOVL      *-SP[4],XAR6          ; [CPU_ALU] |359| 
    2206 00000009 2B42          MOV       *-SP[2],#0            ; [CPU_ALU] |359| 
    2207 0000000a 565B          LSR64     ACC:P,T               ; [CPU_ALU] |359| 
    2208 0000000b 2B41          MOV       *-SP[1],#0            ; [CPU_FPU] |359| 
    2209 0000000c 9000          ANDB      AL,#0                 ; [CPU_ALU] |359| 
    2210 0000000d 9100          ANDB      AH,#0                 ; [CPU_ALU] |359| 
    2211 0000000e 18AB          AND       PL,#2047              ; [CPU_ALU] |359| 
         0000000f 07FF 
    2212 00000010 18AA          AND       PH,#0                 ; [CPU_ALU] |359| 
         00000011 0000 
    2213              $C$DW$160       .dwtag  DW_TAG_TI_branch
    2214                      .dwattr $C$DW$160, DW_AT_low_pc(0x00)
    2215                      .dwattr $C$DW$160, DW_AT_name("__c28xabi_cmpull")
    2216                      .dwattr $C$DW$160, DW_AT_TI_call
    2217              
    2218 00000012 7640!         LCR       #||__c28xabi_cmpull|| ; [CPU_ALU] |359| 
         00000013 0000 
    2219                      ; call occurs [#||__c28xabi_cmpull||] ; [] |359| 
    2220 00000014 BE00          MOVB      XAR6,#0               ; [CPU_ALU] |359| 
    2221 00000015 5200          CMPB      AL,#0                 ; [CPU_ALU] |359| 
    2222 00000016 610F          B         ||$C$L5||,EQ          ; [CPU_ALU] |359| 
    2223                      ; branchcc occurs ; [] |359| 
    2224 00000017 A0AB          MOVL      P,XAR5                ; [CPU_ALU] |359| 
    2225 00000018 A8A9          MOVL      ACC,XAR4              ; [CPU_ALU] |359| 
    2226 00000019 28AC          MOV       T,#48                 ; [CPU_ALU] |359| 
         0000001a 0030 
    2227 0000001b 565B          LSR64     ACC:P,T               ; [CPU_ALU] |359| 
TMS320C2000 Assembler PC v20.2.1 Mon Nov  2 17:14:28 2020

Copyright (c) 1996-2018 Texas Instruments Incorporated
bts_main.asm                                                         PAGE   44

    2228 0000001c 18AB          AND       PL,#0x7ff0            ; [CPU_ALU] |359| 
         0000001d 7FF0 
    2229 0000001e 80AB          MOVZ      AR7,PL                ; [CPU_ALU] |359| 
    2230 0000001f 8F00          MOVL      XAR4,#32752           ; [CPU_ARAU] |359| 
         00000020 7FF0 
    2231 00000021 A8A9          MOVL      ACC,XAR4              ; [CPU_ALU] |359| 
    2232 00000022 0FA7          CMPL      ACC,XAR7              ; [CPU_ALU] |359| 
    2233 00000023 56B0          MOVB      XAR6,#1,NEQ           ; [CPU_ALU] |359| 
         00000024 01A6 
    2234 00000025       ||$C$L5||:    
    2235 00000025 FE84          SUBB      SP,#4                 ; [CPU_ARAU] 
    2236                      .dwcfi  cfa_offset, -2
    2237 00000026 92A6          MOV       AL,AR6                ; [CPU_ALU] |359| 
    2238              $C$DW$161       .dwtag  DW_TAG_TI_branch
    2239                      .dwattr $C$DW$161, DW_AT_low_pc(0x00)
    2240                      .dwattr $C$DW$161, DW_AT_TI_return
    2241              
    2242 00000027 0006          LRETR     ; [CPU_ALU] 
    2243                      ; return occurs ; [] 
    2244                      .dwattr $C$DW$157, DW_AT_TI_end_file("C:/ti/ccs1010/ccs/tools/compiler/ti-cgt-c2000_20.2.1.LTS/includ
    2245                      .dwattr $C$DW$157, DW_AT_TI_end_line(0x168)
    2246                      .dwattr $C$DW$157, DW_AT_TI_end_column(0x31)
    2247                      .dwendentry
    2248                      .dwendtag $C$DW$157
    2249              
    2250 00000000               .sect   ".text:__isnormalf"
    2251                      .clink
    2252                      .global ||__isnormalf||
    2253              
    2254              $C$DW$162       .dwtag  DW_TAG_subprogram
    2255                      .dwattr $C$DW$162, DW_AT_name("__isnormalf")
    2256                      .dwattr $C$DW$162, DW_AT_low_pc(||__isnormalf||)
    2257                      .dwattr $C$DW$162, DW_AT_high_pc(0x00)
    2258                      .dwattr $C$DW$162, DW_AT_linkage_name("__isnormalf")
    2259                      .dwattr $C$DW$162, DW_AT_external
    2260                      .dwattr $C$DW$162, DW_AT_type(*$C$DW$T$10)
    2261                      .dwattr $C$DW$162, DW_AT_decl_file("C:/ti/ccs1010/ccs/tools/compiler/ti-cgt-c2000_20.2.1.LTS/include/
    2262                      .dwattr $C$DW$162, DW_AT_decl_line(0x162)
    2263                      .dwattr $C$DW$162, DW_AT_decl_column(0x25)
    2264                      .dwattr $C$DW$162, DW_AT_TI_max_frame_size(-2)
    2265                      .dwpsn  file "C:/ti/ccs1010/ccs/tools/compiler/ti-cgt-c2000_20.2.1.LTS/include/_defs.h",line 355,colu
    2266              
    2267                      .dwfde $C$DW$CIE, ||__isnormalf||
    2268              $C$DW$163       .dwtag  DW_TAG_formal_parameter
    2269                      .dwattr $C$DW$163, DW_AT_name("f")
    2270                      .dwattr $C$DW$163, DW_AT_type(*$C$DW$T$16)
    2271                      .dwattr $C$DW$163, DW_AT_location[DW_OP_regx 0x2b]
    2272              
    2273              
    2274              ;***************************************************************
    2275              ;* FNAME: __isnormalf                   FR SIZE:   0           *
    2276              ;*                                                             *
    2277              ;* FUNCTION ENVIRONMENT                                        *
    2278              ;*                                                             *
    2279              ;* FUNCTION PROPERTIES                                         *
TMS320C2000 Assembler PC v20.2.1 Mon Nov  2 17:14:28 2020

Copyright (c) 1996-2018 Texas Instruments Incorporated
bts_main.asm                                                         PAGE   45

    2280              ;*                            0 Parameter,  0 Auto,  0 SOE     *
    2281              ;***************************************************************
    2282              
    2283              ||__isnormalf||:
    2284              ;* PL    assigned to $O$K3
    2285              ;* AR6   assigned to $O$S1
    2286              ;* R0    assigned to f
    2287              $C$DW$164       .dwtag  DW_TAG_variable
    2288                      .dwattr $C$DW$164, DW_AT_name("f")
    2289                      .dwattr $C$DW$164, DW_AT_type(*$C$DW$T$125)
    2290                      .dwattr $C$DW$164, DW_AT_location[DW_OP_regx 0x2b]
    2291              
    2292                      .dwcfi  cfa_offset, -2
    2293                      .dwcfi  save_reg_to_mem, 26, 0
    2294                      .dwpsn  file "C:/ti/ccs1010/ccs/tools/compiler/ti-cgt-c2000_20.2.1.LTS/include/_defs.h",line 355,colu
    2295 00000000 BFAB          MOV32     P,R0H                 ; [CPU_FPU] |355| 
         00000001 0F12 
    2296 00000002 28AC          MOV       T,#23                 ; [CPU_ALU] |355| 
         00000003 0017 
    2297 00000004 A9A9          MOVL      ACC,P                 ; [CPU_ALU] |355| 
    2298 00000005 BE00          MOVB      XAR6,#0               ; [CPU_ALU] |355| 
    2299 00000006 5622          LSRL      ACC,T                 ; [CPU_ALU] |355| 
    2300 00000007 90FF          ANDB      AL,#0xff              ; [CPU_ALU] |355| 
    2301 00000008 610A          B         ||$C$L6||,EQ          ; [CPU_ALU] |355| 
    2302                      ; branchcc occurs ; [] |355| 
    2303 00000009 CCAA          AND       AL,PH,#0x7f80         ; [CPU_ALU] |355| 
         0000000a 7F80 
    2304 0000000b 80A9          MOVZ      AR7,AL                ; [CPU_ALU] |355| 
    2305 0000000c 8F00          MOVL      XAR4,#32640           ; [CPU_ARAU] |355| 
         0000000d 7F80 
    2306 0000000e A8A9          MOVL      ACC,XAR4              ; [CPU_ALU] |355| 
    2307 0000000f 0FA7          CMPL      ACC,XAR7              ; [CPU_ALU] |355| 
    2308 00000010 56B0          MOVB      XAR6,#1,NEQ           ; [CPU_ALU] |355| 
         00000011 01A6 
    2309 00000012       ||$C$L6||:    
    2310 00000012 92A6          MOV       AL,AR6                ; [CPU_ALU] |355| 
    2311              $C$DW$165       .dwtag  DW_TAG_TI_branch
    2312                      .dwattr $C$DW$165, DW_AT_low_pc(0x00)
    2313                      .dwattr $C$DW$165, DW_AT_TI_return
    2314              
    2315 00000013 0006          LRETR     ; [CPU_ALU] 
    2316                      ; return occurs ; [] 
    2317                      .dwattr $C$DW$162, DW_AT_TI_end_file("C:/ti/ccs1010/ccs/tools/compiler/ti-cgt-c2000_20.2.1.LTS/includ
    2318                      .dwattr $C$DW$162, DW_AT_TI_end_line(0x164)
    2319                      .dwattr $C$DW$162, DW_AT_TI_end_column(0x2f)
    2320                      .dwendentry
    2321                      .dwendtag $C$DW$162
    2322              
    2323 00000000               .sect   ".text:__isnormal"
    2324                      .clink
    2325                      .global ||__isnormal||
    2326              
    2327              $C$DW$166       .dwtag  DW_TAG_subprogram
    2328                      .dwattr $C$DW$166, DW_AT_name("__isnormal")
    2329                      .dwattr $C$DW$166, DW_AT_low_pc(||__isnormal||)
TMS320C2000 Assembler PC v20.2.1 Mon Nov  2 17:14:28 2020

Copyright (c) 1996-2018 Texas Instruments Incorporated
bts_main.asm                                                         PAGE   46

    2330                      .dwattr $C$DW$166, DW_AT_high_pc(0x00)
    2331                      .dwattr $C$DW$166, DW_AT_linkage_name("__isnormal")
    2332                      .dwattr $C$DW$166, DW_AT_external
    2333                      .dwattr $C$DW$166, DW_AT_type(*$C$DW$T$10)
    2334                      .dwattr $C$DW$166, DW_AT_decl_file("C:/ti/ccs1010/ccs/tools/compiler/ti-cgt-c2000_20.2.1.LTS/include/
    2335                      .dwattr $C$DW$166, DW_AT_decl_line(0x15e)
    2336                      .dwattr $C$DW$166, DW_AT_decl_column(0x25)
    2337                      .dwattr $C$DW$166, DW_AT_TI_max_frame_size(-6)
    2338                      .dwpsn  file "C:/ti/ccs1010/ccs/tools/compiler/ti-cgt-c2000_20.2.1.LTS/include/_defs.h",line 351,colu
    2339              
    2340                      .dwfde $C$DW$CIE, ||__isnormal||
    2341              $C$DW$167       .dwtag  DW_TAG_formal_parameter
    2342                      .dwattr $C$DW$167, DW_AT_name("d")
    2343                      .dwattr $C$DW$167, DW_AT_type(*$C$DW$T$128)
    2344                      .dwattr $C$DW$167, DW_AT_location[DW_OP_reg12]
    2345              
    2346              
    2347              ;***************************************************************
    2348              ;* FNAME: __isnormal                    FR SIZE:   4           *
    2349              ;*                                                             *
    2350              ;* FUNCTION ENVIRONMENT                                        *
    2351              ;*                                                             *
    2352              ;* FUNCTION PROPERTIES                                         *
    2353              ;*                            4 Parameter,  0 Auto,  0 SOE     *
    2354              ;***************************************************************
    2355              
    2356              ||__isnormal||:
    2357              ;* AR5   assigned to $O$C2
    2358              ;* AR6   assigned to $O$S1
    2359              ;* AR4   assigned to d
    2360              $C$DW$168       .dwtag  DW_TAG_variable
    2361                      .dwattr $C$DW$168, DW_AT_name("d")
    2362                      .dwattr $C$DW$168, DW_AT_type(*$C$DW$T$129)
    2363                      .dwattr $C$DW$168, DW_AT_location[DW_OP_reg12]
    2364              
    2365                      .dwcfi  cfa_offset, -2
    2366                      .dwcfi  save_reg_to_mem, 26, 0
    2367 00000000 FE04          ADDB      SP,#4                 ; [CPU_ARAU] 
    2368                      .dwcfi  cfa_offset, -6
    2369                      .dwpsn  file "C:/ti/ccs1010/ccs/tools/compiler/ti-cgt-c2000_20.2.1.LTS/include/_defs.h",line 351,colu
    2370 00000001 83C4          MOVL      XAR5,*+XAR4[0]        ; [CPU_ALU] |351| 
    2371 00000002 8AD4          MOVL      XAR4,*+XAR4[2]        ; [CPU_ALU] |351| 
    2372 00000003 BE00          MOVB      XAR6,#0               ; [CPU_ALU] |351| 
    2373 00000004 28AC          MOV       T,#52                 ; [CPU_ALU] |351| 
         00000005 0034 
    2374 00000006 A0AB          MOVL      P,XAR5                ; [CPU_ALU] |351| 
    2375 00000007 A8A9          MOVL      ACC,XAR4              ; [CPU_ALU] |351| 
    2376 00000008 C244          MOVL      *-SP[4],XAR6          ; [CPU_ALU] |351| 
    2377 00000009 2B42          MOV       *-SP[2],#0            ; [CPU_ALU] |351| 
    2378 0000000a 565B          LSR64     ACC:P,T               ; [CPU_ALU] |351| 
    2379 0000000b 2B41          MOV       *-SP[1],#0            ; [CPU_FPU] |351| 
    2380 0000000c 9000          ANDB      AL,#0                 ; [CPU_ALU] |351| 
    2381 0000000d 9100          ANDB      AH,#0                 ; [CPU_ALU] |351| 
    2382 0000000e 18AB          AND       PL,#2047              ; [CPU_ALU] |351| 
         0000000f 07FF 
TMS320C2000 Assembler PC v20.2.1 Mon Nov  2 17:14:28 2020

Copyright (c) 1996-2018 Texas Instruments Incorporated
bts_main.asm                                                         PAGE   47

    2383 00000010 18AA          AND       PH,#0                 ; [CPU_ALU] |351| 
         00000011 0000 
    2384              $C$DW$169       .dwtag  DW_TAG_TI_branch
    2385                      .dwattr $C$DW$169, DW_AT_low_pc(0x00)
    2386                      .dwattr $C$DW$169, DW_AT_name("__c28xabi_cmpull")
    2387                      .dwattr $C$DW$169, DW_AT_TI_call
    2388              
    2389 00000012 7640!         LCR       #||__c28xabi_cmpull|| ; [CPU_ALU] |351| 
         00000013 0000 
    2390                      ; call occurs [#||__c28xabi_cmpull||] ; [] |351| 
    2391 00000014 BE00          MOVB      XAR6,#0               ; [CPU_ALU] |351| 
    2392 00000015 5200          CMPB      AL,#0                 ; [CPU_ALU] |351| 
    2393 00000016 610F          B         ||$C$L7||,EQ          ; [CPU_ALU] |351| 
    2394                      ; branchcc occurs ; [] |351| 
    2395 00000017 A0AB          MOVL      P,XAR5                ; [CPU_ALU] |351| 
    2396 00000018 A8A9          MOVL      ACC,XAR4              ; [CPU_ALU] |351| 
    2397 00000019 28AC          MOV       T,#48                 ; [CPU_ALU] |351| 
         0000001a 0030 
    2398 0000001b 565B          LSR64     ACC:P,T               ; [CPU_ALU] |351| 
    2399 0000001c 18AB          AND       PL,#0x7ff0            ; [CPU_ALU] |351| 
         0000001d 7FF0 
    2400 0000001e 80AB          MOVZ      AR7,PL                ; [CPU_ALU] |351| 
    2401 0000001f 8F00          MOVL      XAR4,#32752           ; [CPU_ARAU] |351| 
         00000020 7FF0 
    2402 00000021 A8A9          MOVL      ACC,XAR4              ; [CPU_ALU] |351| 
    2403 00000022 0FA7          CMPL      ACC,XAR7              ; [CPU_ALU] |351| 
    2404 00000023 56B0          MOVB      XAR6,#1,NEQ           ; [CPU_ALU] |351| 
         00000024 01A6 
    2405 00000025       ||$C$L7||:    
    2406 00000025 FE84          SUBB      SP,#4                 ; [CPU_ARAU] 
    2407                      .dwcfi  cfa_offset, -2
    2408 00000026 92A6          MOV       AL,AR6                ; [CPU_ALU] |351| 
    2409              $C$DW$170       .dwtag  DW_TAG_TI_branch
    2410                      .dwattr $C$DW$170, DW_AT_low_pc(0x00)
    2411                      .dwattr $C$DW$170, DW_AT_TI_return
    2412              
    2413 00000027 0006          LRETR     ; [CPU_ALU] 
    2414                      ; return occurs ; [] 
    2415                      .dwattr $C$DW$166, DW_AT_TI_end_file("C:/ti/ccs1010/ccs/tools/compiler/ti-cgt-c2000_20.2.1.LTS/includ
    2416                      .dwattr $C$DW$166, DW_AT_TI_end_line(0x160)
    2417                      .dwattr $C$DW$166, DW_AT_TI_end_column(0x30)
    2418                      .dwendentry
    2419                      .dwendtag $C$DW$166
    2420              
    2421 00000000               .sect   ".text:__isnanl"
    2422                      .clink
    2423                      .global ||__isnanl||
    2424              
    2425              $C$DW$171       .dwtag  DW_TAG_subprogram
    2426                      .dwattr $C$DW$171, DW_AT_name("__isnanl")
    2427                      .dwattr $C$DW$171, DW_AT_low_pc(||__isnanl||)
    2428                      .dwattr $C$DW$171, DW_AT_high_pc(0x00)
    2429                      .dwattr $C$DW$171, DW_AT_linkage_name("__isnanl")
    2430                      .dwattr $C$DW$171, DW_AT_external
    2431                      .dwattr $C$DW$171, DW_AT_type(*$C$DW$T$10)
TMS320C2000 Assembler PC v20.2.1 Mon Nov  2 17:14:28 2020

Copyright (c) 1996-2018 Texas Instruments Incorporated
bts_main.asm                                                         PAGE   48

    2432                      .dwattr $C$DW$171, DW_AT_decl_file("C:/ti/ccs1010/ccs/tools/compiler/ti-cgt-c2000_20.2.1.LTS/include/
    2433                      .dwattr $C$DW$171, DW_AT_decl_line(0x15a)
    2434                      .dwattr $C$DW$171, DW_AT_decl_column(0x25)
    2435                      .dwattr $C$DW$171, DW_AT_TI_max_frame_size(-6)
    2436                      .dwpsn  file "C:/ti/ccs1010/ccs/tools/compiler/ti-cgt-c2000_20.2.1.LTS/include/_defs.h",line 347,colu
    2437              
    2438                      .dwfde $C$DW$CIE, ||__isnanl||
    2439              $C$DW$172       .dwtag  DW_TAG_formal_parameter
    2440                      .dwattr $C$DW$172, DW_AT_name("e")
    2441                      .dwattr $C$DW$172, DW_AT_type(*$C$DW$T$131)
    2442                      .dwattr $C$DW$172, DW_AT_location[DW_OP_reg12]
    2443              
    2444              
    2445              ;***************************************************************
    2446              ;* FNAME: __isnanl                      FR SIZE:   4           *
    2447              ;*                                                             *
    2448              ;* FUNCTION ENVIRONMENT                                        *
    2449              ;*                                                             *
    2450              ;* FUNCTION PROPERTIES                                         *
    2451              ;*                            4 Parameter,  0 Auto,  0 SOE     *
    2452              ;***************************************************************
    2453              
    2454              ||__isnanl||:
    2455              ;* AR7   assigned to $O$C2
    2456              ;* AR4   assigned to $O$S1
    2457              ;* AR4   assigned to e
    2458              $C$DW$173       .dwtag  DW_TAG_variable
    2459                      .dwattr $C$DW$173, DW_AT_name("e")
    2460                      .dwattr $C$DW$173, DW_AT_type(*$C$DW$T$132)
    2461                      .dwattr $C$DW$173, DW_AT_location[DW_OP_reg12]
    2462              
    2463                      .dwcfi  cfa_offset, -2
    2464                      .dwcfi  save_reg_to_mem, 26, 0
    2465 00000000 FE04          ADDB      SP,#4                 ; [CPU_ARAU] 
    2466                      .dwcfi  cfa_offset, -6
    2467                      .dwpsn  file "C:/ti/ccs1010/ccs/tools/compiler/ti-cgt-c2000_20.2.1.LTS/include/_defs.h",line 347,colu
    2468 00000001 06D4          MOVL      ACC,*+XAR4[2]         ; [CPU_ALU] |347| 
    2469 00000002 C5C4          MOVL      XAR7,*+XAR4[0]        ; [CPU_ALU] |347| 
    2470 00000003 28AC          MOV       T,#48                 ; [CPU_ALU] |347| 
         00000004 0030 
    2471 00000005 8F40          MOVL      XAR5,#32752           ; [CPU_ARAU] |347| 
         00000006 7FF0 
    2472 00000007 1EA6          MOVL      XAR6,ACC              ; [CPU_ALU] |347| 
    2473 00000008 A3A7          MOVL      P,XAR7                ; [CPU_ALU] |347| 
    2474 00000009 D400          MOVB      XAR4,#0               ; [CPU_ALU] |347| 
    2475 0000000a 565B          LSR64     ACC:P,T               ; [CPU_ALU] |347| 
    2476 0000000b 2BAA          MOV       PH,#0                 ; [CPU_ALU] |347| 
    2477 0000000c 18AB          AND       PL,#0x7ff0            ; [CPU_ALU] |347| 
         0000000d 7FF0 
    2478 0000000e A0A9          MOVL      ACC,XAR5              ; [CPU_ALU] |347| 
    2479 0000000f 0FAB          CMPL      ACC,P                 ; [CPU_ALU] |347| 
    2480 00000010 6013          B         ||$C$L8||,NEQ         ; [CPU_ALU] |347| 
    2481                      ; branchcc occurs ; [] |347| 
    2482 00000011 06A6          MOVL      ACC,XAR6              ; [CPU_ALU] |347| 
    2483 00000012 A3A7          MOVL      P,XAR7                ; [CPU_ALU] |347| 
TMS320C2000 Assembler PC v20.2.1 Mon Nov  2 17:14:28 2020

Copyright (c) 1996-2018 Texas Instruments Incorporated
bts_main.asm                                                         PAGE   49

    2484 00000013 BE00          MOVB      XAR6,#0               ; [CPU_ALU] |347| 
    2485 00000014 18A9          AND       AL,#65535             ; [CPU_ALU] |347| 
         00000015 FFFF 
    2486 00000016 910F          ANDB      AH,#15                ; [CPU_ALU] |347| 
    2487 00000017 18AB          AND       PL,#65535             ; [CPU_ALU] |347| 
         00000018 FFFF 
    2488 00000019 18AA          AND       PH,#65535             ; [CPU_ALU] |347| 
         0000001a FFFF 
    2489 0000001b C244          MOVL      *-SP[4],XAR6          ; [CPU_FPU] |347| 
    2490 0000001c 2B42          MOV       *-SP[2],#0            ; [CPU_FPU] |347| 
    2491 0000001d 2B41          MOV       *-SP[1],#0            ; [CPU_FPU] |347| 
    2492              $C$DW$174       .dwtag  DW_TAG_TI_branch
    2493                      .dwattr $C$DW$174, DW_AT_low_pc(0x00)
    2494                      .dwattr $C$DW$174, DW_AT_name("__c28xabi_cmpull")
    2495                      .dwattr $C$DW$174, DW_AT_TI_call
    2496              
    2497 0000001e 7640!         LCR       #||__c28xabi_cmpull|| ; [CPU_ALU] |347| 
         0000001f 0000 
    2498                      ; call occurs [#||__c28xabi_cmpull||] ; [] |347| 
    2499 00000020 5200          CMPB      AL,#0                 ; [CPU_ALU] |347| 
    2500 00000021 56B0          MOVB      XAR4,#1,NEQ           ; [CPU_ALU] |347| 
         00000022 01A4 
    2501 00000023       ||$C$L8||:    
    2502 00000023 FE84          SUBB      SP,#4                 ; [CPU_ARAU] 
    2503                      .dwcfi  cfa_offset, -2
    2504 00000024 92A4          MOV       AL,AR4                ; [CPU_ALU] |347| 
    2505              $C$DW$175       .dwtag  DW_TAG_TI_branch
    2506                      .dwattr $C$DW$175, DW_AT_low_pc(0x00)
    2507                      .dwattr $C$DW$175, DW_AT_TI_return
    2508              
    2509 00000025 0006          LRETR     ; [CPU_ALU] 
    2510                      ; return occurs ; [] 
    2511                      .dwattr $C$DW$171, DW_AT_TI_end_file("C:/ti/ccs1010/ccs/tools/compiler/ti-cgt-c2000_20.2.1.LTS/includ
    2512                      .dwattr $C$DW$171, DW_AT_TI_end_line(0x15c)
    2513                      .dwattr $C$DW$171, DW_AT_TI_end_column(0x30)
    2514                      .dwendentry
    2515                      .dwendtag $C$DW$171
    2516              
    2517 00000000               .sect   ".text:__isnanf"
    2518                      .clink
    2519                      .global ||__isnanf||
    2520              
    2521              $C$DW$176       .dwtag  DW_TAG_subprogram
    2522                      .dwattr $C$DW$176, DW_AT_name("__isnanf")
    2523                      .dwattr $C$DW$176, DW_AT_low_pc(||__isnanf||)
    2524                      .dwattr $C$DW$176, DW_AT_high_pc(0x00)
    2525                      .dwattr $C$DW$176, DW_AT_linkage_name("__isnanf")
    2526                      .dwattr $C$DW$176, DW_AT_external
    2527                      .dwattr $C$DW$176, DW_AT_type(*$C$DW$T$10)
    2528                      .dwattr $C$DW$176, DW_AT_decl_file("C:/ti/ccs1010/ccs/tools/compiler/ti-cgt-c2000_20.2.1.LTS/include/
    2529                      .dwattr $C$DW$176, DW_AT_decl_line(0x157)
    2530                      .dwattr $C$DW$176, DW_AT_decl_column(0x25)
    2531                      .dwattr $C$DW$176, DW_AT_TI_max_frame_size(-2)
    2532                      .dwpsn  file "C:/ti/ccs1010/ccs/tools/compiler/ti-cgt-c2000_20.2.1.LTS/include/_defs.h",line 344,colu
    2533              
TMS320C2000 Assembler PC v20.2.1 Mon Nov  2 17:14:28 2020

Copyright (c) 1996-2018 Texas Instruments Incorporated
bts_main.asm                                                         PAGE   50

    2534                      .dwfde $C$DW$CIE, ||__isnanf||
    2535              $C$DW$177       .dwtag  DW_TAG_formal_parameter
    2536                      .dwattr $C$DW$177, DW_AT_name("f")
    2537                      .dwattr $C$DW$177, DW_AT_type(*$C$DW$T$16)
    2538                      .dwattr $C$DW$177, DW_AT_location[DW_OP_regx 0x2b]
    2539              
    2540              
    2541              ;***************************************************************
    2542              ;* FNAME: __isnanf                      FR SIZE:   0           *
    2543              ;*                                                             *
    2544              ;* FUNCTION ENVIRONMENT                                        *
    2545              ;*                                                             *
    2546              ;* FUNCTION PROPERTIES                                         *
    2547              ;*                            0 Parameter,  0 Auto,  0 SOE     *
    2548              ;***************************************************************
    2549              
    2550              ||__isnanf||:
    2551              ;* PL    assigned to $O$K3
    2552              ;* AR6   assigned to $O$S1
    2553              ;* R0    assigned to f
    2554              $C$DW$178       .dwtag  DW_TAG_variable
    2555                      .dwattr $C$DW$178, DW_AT_name("f")
    2556                      .dwattr $C$DW$178, DW_AT_type(*$C$DW$T$125)
    2557                      .dwattr $C$DW$178, DW_AT_location[DW_OP_regx 0x2b]
    2558              
    2559                      .dwcfi  cfa_offset, -2
    2560                      .dwcfi  save_reg_to_mem, 26, 0
    2561                      .dwpsn  file "C:/ti/ccs1010/ccs/tools/compiler/ti-cgt-c2000_20.2.1.LTS/include/_defs.h",line 344,colu
    2562 00000000 BFAB          MOV32     P,R0H                 ; [CPU_FPU] |344| 
         00000001 0F12 
    2563 00000002 CCAA          AND       AL,PH,#0x7f80         ; [CPU_ALU] |344| 
         00000003 7F80 
    2564 00000004 80A9          MOVZ      AR7,AL                ; [CPU_ALU] |344| 
    2565 00000005 8F00          MOVL      XAR4,#32640           ; [CPU_ARAU] |344| 
         00000006 7F80 
    2566 00000007 BE00          MOVB      XAR6,#0               ; [CPU_ALU] |344| 
    2567 00000008 A8A9          MOVL      ACC,XAR4              ; [CPU_ALU] |344| 
    2568 00000009 0FA7          CMPL      ACC,XAR7              ; [CPU_ALU] |344| 
    2569 0000000a 6006          B         ||$C$L9||,NEQ         ; [CPU_ALU] |344| 
    2570                      ; branchcc occurs ; [] |344| 
    2571 0000000b A9A9          MOVL      ACC,P                 ; [CPU_ALU] |344| 
    2572 0000000c 917F          ANDB      AH,#127               ; [CPU_ALU] |344| 
    2573 0000000d FF58          TEST      ACC                   ; [CPU_ALU] |344| 
    2574 0000000e 56B0          MOVB      XAR6,#1,NEQ           ; [CPU_ALU] |344| 
         0000000f 01A6 
    2575 00000010       ||$C$L9||:    
    2576 00000010 92A6          MOV       AL,AR6                ; [CPU_ALU] |344| 
    2577              $C$DW$179       .dwtag  DW_TAG_TI_branch
    2578                      .dwattr $C$DW$179, DW_AT_low_pc(0x00)
    2579                      .dwattr $C$DW$179, DW_AT_TI_return
    2580              
    2581 00000011 0006          LRETR     ; [CPU_ALU] 
    2582                      ; return occurs ; [] 
    2583                      .dwattr $C$DW$176, DW_AT_TI_end_file("C:/ti/ccs1010/ccs/tools/compiler/ti-cgt-c2000_20.2.1.LTS/includ
    2584                      .dwattr $C$DW$176, DW_AT_TI_end_line(0x159)
TMS320C2000 Assembler PC v20.2.1 Mon Nov  2 17:14:28 2020

Copyright (c) 1996-2018 Texas Instruments Incorporated
bts_main.asm                                                         PAGE   51

    2585                      .dwattr $C$DW$176, DW_AT_TI_end_column(0x2e)
    2586                      .dwendentry
    2587                      .dwendtag $C$DW$176
    2588              
    2589 00000000               .sect   ".text:__isnan"
    2590                      .clink
    2591                      .global ||__isnan||
    2592              
    2593              $C$DW$180       .dwtag  DW_TAG_subprogram
    2594                      .dwattr $C$DW$180, DW_AT_name("__isnan")
    2595                      .dwattr $C$DW$180, DW_AT_low_pc(||__isnan||)
    2596                      .dwattr $C$DW$180, DW_AT_high_pc(0x00)
    2597                      .dwattr $C$DW$180, DW_AT_linkage_name("__isnan")
    2598                      .dwattr $C$DW$180, DW_AT_external
    2599                      .dwattr $C$DW$180, DW_AT_type(*$C$DW$T$10)
    2600                      .dwattr $C$DW$180, DW_AT_decl_file("C:/ti/ccs1010/ccs/tools/compiler/ti-cgt-c2000_20.2.1.LTS/include/
    2601                      .dwattr $C$DW$180, DW_AT_decl_line(0x154)
    2602                      .dwattr $C$DW$180, DW_AT_decl_column(0x25)
    2603                      .dwattr $C$DW$180, DW_AT_TI_max_frame_size(-6)
    2604                      .dwpsn  file "C:/ti/ccs1010/ccs/tools/compiler/ti-cgt-c2000_20.2.1.LTS/include/_defs.h",line 341,colu
    2605              
    2606                      .dwfde $C$DW$CIE, ||__isnan||
    2607              $C$DW$181       .dwtag  DW_TAG_formal_parameter
    2608                      .dwattr $C$DW$181, DW_AT_name("d")
    2609                      .dwattr $C$DW$181, DW_AT_type(*$C$DW$T$128)
    2610                      .dwattr $C$DW$181, DW_AT_location[DW_OP_reg12]
    2611              
    2612              
    2613              ;***************************************************************
    2614              ;* FNAME: __isnan                       FR SIZE:   4           *
    2615              ;*                                                             *
    2616              ;* FUNCTION ENVIRONMENT                                        *
    2617              ;*                                                             *
    2618              ;* FUNCTION PROPERTIES                                         *
    2619              ;*                            4 Parameter,  0 Auto,  0 SOE     *
    2620              ;***************************************************************
    2621              
    2622              ||__isnan||:
    2623              ;* AR7   assigned to $O$C2
    2624              ;* AR4   assigned to $O$S1
    2625              ;* AR4   assigned to d
    2626              $C$DW$182       .dwtag  DW_TAG_variable
    2627                      .dwattr $C$DW$182, DW_AT_name("d")
    2628                      .dwattr $C$DW$182, DW_AT_type(*$C$DW$T$129)
    2629                      .dwattr $C$DW$182, DW_AT_location[DW_OP_reg12]
    2630              
    2631                      .dwcfi  cfa_offset, -2
    2632                      .dwcfi  save_reg_to_mem, 26, 0
    2633 00000000 FE04          ADDB      SP,#4                 ; [CPU_ARAU] 
    2634                      .dwcfi  cfa_offset, -6
    2635                      .dwpsn  file "C:/ti/ccs1010/ccs/tools/compiler/ti-cgt-c2000_20.2.1.LTS/include/_defs.h",line 341,colu
    2636 00000001 06D4          MOVL      ACC,*+XAR4[2]         ; [CPU_ALU] |341| 
    2637 00000002 C5C4          MOVL      XAR7,*+XAR4[0]        ; [CPU_ALU] |341| 
    2638 00000003 28AC          MOV       T,#48                 ; [CPU_ALU] |341| 
         00000004 0030 
TMS320C2000 Assembler PC v20.2.1 Mon Nov  2 17:14:28 2020

Copyright (c) 1996-2018 Texas Instruments Incorporated
bts_main.asm                                                         PAGE   52

    2639 00000005 8F40          MOVL      XAR5,#32752           ; [CPU_ARAU] |341| 
         00000006 7FF0 
    2640 00000007 1EA6          MOVL      XAR6,ACC              ; [CPU_ALU] |341| 
    2641 00000008 A3A7          MOVL      P,XAR7                ; [CPU_ALU] |341| 
    2642 00000009 D400          MOVB      XAR4,#0               ; [CPU_ALU] |341| 
    2643 0000000a 565B          LSR64     ACC:P,T               ; [CPU_ALU] |341| 
    2644 0000000b 2BAA          MOV       PH,#0                 ; [CPU_ALU] |341| 
    2645 0000000c 18AB          AND       PL,#0x7ff0            ; [CPU_ALU] |341| 
         0000000d 7FF0 
    2646 0000000e A0A9          MOVL      ACC,XAR5              ; [CPU_ALU] |341| 
    2647 0000000f 0FAB          CMPL      ACC,P                 ; [CPU_ALU] |341| 
    2648 00000010 6013          B         ||$C$L10||,NEQ        ; [CPU_ALU] |341| 
    2649                      ; branchcc occurs ; [] |341| 
    2650 00000011 06A6          MOVL      ACC,XAR6              ; [CPU_ALU] |341| 
    2651 00000012 A3A7          MOVL      P,XAR7                ; [CPU_ALU] |341| 
    2652 00000013 BE00          MOVB      XAR6,#0               ; [CPU_ALU] |341| 
    2653 00000014 18A9          AND       AL,#65535             ; [CPU_ALU] |341| 
         00000015 FFFF 
    2654 00000016 910F          ANDB      AH,#15                ; [CPU_ALU] |341| 
    2655 00000017 18AB          AND       PL,#65535             ; [CPU_ALU] |341| 
         00000018 FFFF 
    2656 00000019 18AA          AND       PH,#65535             ; [CPU_ALU] |341| 
         0000001a FFFF 
    2657 0000001b C244          MOVL      *-SP[4],XAR6          ; [CPU_FPU] |341| 
    2658 0000001c 2B42          MOV       *-SP[2],#0            ; [CPU_FPU] |341| 
    2659 0000001d 2B41          MOV       *-SP[1],#0            ; [CPU_FPU] |341| 
    2660              $C$DW$183       .dwtag  DW_TAG_TI_branch
    2661                      .dwattr $C$DW$183, DW_AT_low_pc(0x00)
    2662                      .dwattr $C$DW$183, DW_AT_name("__c28xabi_cmpull")
    2663                      .dwattr $C$DW$183, DW_AT_TI_call
    2664              
    2665 0000001e 7640!         LCR       #||__c28xabi_cmpull|| ; [CPU_ALU] |341| 
         0000001f 0000 
    2666                      ; call occurs [#||__c28xabi_cmpull||] ; [] |341| 
    2667 00000020 5200          CMPB      AL,#0                 ; [CPU_ALU] |341| 
    2668 00000021 56B0          MOVB      XAR4,#1,NEQ           ; [CPU_ALU] |341| 
         00000022 01A4 
    2669 00000023       ||$C$L10||:    
    2670 00000023 FE84          SUBB      SP,#4                 ; [CPU_ARAU] 
    2671                      .dwcfi  cfa_offset, -2
    2672 00000024 92A4          MOV       AL,AR4                ; [CPU_ALU] |341| 
    2673              $C$DW$184       .dwtag  DW_TAG_TI_branch
    2674                      .dwattr $C$DW$184, DW_AT_low_pc(0x00)
    2675                      .dwattr $C$DW$184, DW_AT_TI_return
    2676              
    2677 00000025 0006          LRETR     ; [CPU_ALU] 
    2678                      ; return occurs ; [] 
    2679                      .dwattr $C$DW$180, DW_AT_TI_end_file("C:/ti/ccs1010/ccs/tools/compiler/ti-cgt-c2000_20.2.1.LTS/includ
    2680                      .dwattr $C$DW$180, DW_AT_TI_end_line(0x156)
    2681                      .dwattr $C$DW$180, DW_AT_TI_end_column(0x2f)
    2682                      .dwendentry
    2683                      .dwendtag $C$DW$180
    2684              
    2685 00000000               .sect   ".text:__isinfl"
    2686                      .clink
TMS320C2000 Assembler PC v20.2.1 Mon Nov  2 17:14:28 2020

Copyright (c) 1996-2018 Texas Instruments Incorporated
bts_main.asm                                                         PAGE   53

    2687                      .global ||__isinfl||
    2688              
    2689              $C$DW$185       .dwtag  DW_TAG_subprogram
    2690                      .dwattr $C$DW$185, DW_AT_name("__isinfl")
    2691                      .dwattr $C$DW$185, DW_AT_low_pc(||__isinfl||)
    2692                      .dwattr $C$DW$185, DW_AT_high_pc(0x00)
    2693                      .dwattr $C$DW$185, DW_AT_linkage_name("__isinfl")
    2694                      .dwattr $C$DW$185, DW_AT_external
    2695                      .dwattr $C$DW$185, DW_AT_type(*$C$DW$T$10)
    2696                      .dwattr $C$DW$185, DW_AT_decl_file("C:/ti/ccs1010/ccs/tools/compiler/ti-cgt-c2000_20.2.1.LTS/include/
    2697                      .dwattr $C$DW$185, DW_AT_decl_line(0x179)
    2698                      .dwattr $C$DW$185, DW_AT_decl_column(0x25)
    2699                      .dwattr $C$DW$185, DW_AT_TI_max_frame_size(-6)
    2700                      .dwpsn  file "C:/ti/ccs1010/ccs/tools/compiler/ti-cgt-c2000_20.2.1.LTS/include/_defs.h",line 378,colu
    2701              
    2702                      .dwfde $C$DW$CIE, ||__isinfl||
    2703              $C$DW$186       .dwtag  DW_TAG_formal_parameter
    2704                      .dwattr $C$DW$186, DW_AT_name("e")
    2705                      .dwattr $C$DW$186, DW_AT_type(*$C$DW$T$131)
    2706                      .dwattr $C$DW$186, DW_AT_location[DW_OP_reg12]
    2707              
    2708              
    2709              ;***************************************************************
    2710              ;* FNAME: __isinfl                      FR SIZE:   4           *
    2711              ;*                                                             *
    2712              ;* FUNCTION ENVIRONMENT                                        *
    2713              ;*                                                             *
    2714              ;* FUNCTION PROPERTIES                                         *
    2715              ;*                            4 Parameter,  0 Auto,  0 SOE     *
    2716              ;***************************************************************
    2717              
    2718              ||__isinfl||:
    2719              ;* AR7   assigned to $O$C2
    2720              ;* AR4   assigned to $O$S1
    2721              ;* AR4   assigned to e
    2722              $C$DW$187       .dwtag  DW_TAG_variable
    2723                      .dwattr $C$DW$187, DW_AT_name("e")
    2724                      .dwattr $C$DW$187, DW_AT_type(*$C$DW$T$132)
    2725                      .dwattr $C$DW$187, DW_AT_location[DW_OP_reg12]
    2726              
    2727                      .dwcfi  cfa_offset, -2
    2728                      .dwcfi  save_reg_to_mem, 26, 0
    2729 00000000 FE04          ADDB      SP,#4                 ; [CPU_ARAU] 
    2730                      .dwcfi  cfa_offset, -6
    2731                      .dwpsn  file "C:/ti/ccs1010/ccs/tools/compiler/ti-cgt-c2000_20.2.1.LTS/include/_defs.h",line 378,colu
    2732 00000001 06D4          MOVL      ACC,*+XAR4[2]         ; [CPU_ALU] |378| 
    2733 00000002 C5C4          MOVL      XAR7,*+XAR4[0]        ; [CPU_ALU] |378| 
    2734 00000003 28AC          MOV       T,#48                 ; [CPU_ALU] |378| 
         00000004 0030 
    2735 00000005 8F40          MOVL      XAR5,#32752           ; [CPU_ARAU] |378| 
         00000006 7FF0 
    2736 00000007 1EA6          MOVL      XAR6,ACC              ; [CPU_ALU] |378| 
    2737 00000008 A3A7          MOVL      P,XAR7                ; [CPU_ALU] |378| 
    2738 00000009 D400          MOVB      XAR4,#0               ; [CPU_ALU] |378| 
    2739 0000000a 565B          LSR64     ACC:P,T               ; [CPU_ALU] |378| 
TMS320C2000 Assembler PC v20.2.1 Mon Nov  2 17:14:28 2020

Copyright (c) 1996-2018 Texas Instruments Incorporated
bts_main.asm                                                         PAGE   54

    2740 0000000b 2BAA          MOV       PH,#0                 ; [CPU_ALU] |378| 
    2741 0000000c 18AB          AND       PL,#0x7ff0            ; [CPU_ALU] |378| 
         0000000d 7FF0 
    2742 0000000e A0A9          MOVL      ACC,XAR5              ; [CPU_ALU] |378| 
    2743 0000000f 0FAB          CMPL      ACC,P                 ; [CPU_ALU] |378| 
    2744 00000010 6013          B         ||$C$L11||,NEQ        ; [CPU_ALU] |378| 
    2745                      ; branchcc occurs ; [] |378| 
    2746 00000011 06A6          MOVL      ACC,XAR6              ; [CPU_ALU] |378| 
    2747 00000012 A3A7          MOVL      P,XAR7                ; [CPU_ALU] |378| 
    2748 00000013 BE00          MOVB      XAR6,#0               ; [CPU_ALU] |378| 
    2749 00000014 18A9          AND       AL,#65535             ; [CPU_ALU] |378| 
         00000015 FFFF 
    2750 00000016 910F          ANDB      AH,#15                ; [CPU_ALU] |378| 
    2751 00000017 18AB          AND       PL,#65535             ; [CPU_ALU] |378| 
         00000018 FFFF 
    2752 00000019 18AA          AND       PH,#65535             ; [CPU_ALU] |378| 
         0000001a FFFF 
    2753 0000001b C244          MOVL      *-SP[4],XAR6          ; [CPU_FPU] |378| 
    2754 0000001c 2B42          MOV       *-SP[2],#0            ; [CPU_FPU] |378| 
    2755 0000001d 2B41          MOV       *-SP[1],#0            ; [CPU_FPU] |378| 
    2756              $C$DW$188       .dwtag  DW_TAG_TI_branch
    2757                      .dwattr $C$DW$188, DW_AT_low_pc(0x00)
    2758                      .dwattr $C$DW$188, DW_AT_name("__c28xabi_cmpull")
    2759                      .dwattr $C$DW$188, DW_AT_TI_call
    2760              
    2761 0000001e 7640!         LCR       #||__c28xabi_cmpull|| ; [CPU_ALU] |378| 
         0000001f 0000 
    2762                      ; call occurs [#||__c28xabi_cmpull||] ; [] |378| 
    2763 00000020 5200          CMPB      AL,#0                 ; [CPU_ALU] |378| 
    2764 00000021 56B1          MOVB      XAR4,#1,EQ            ; [CPU_ALU] |378| 
         00000022 01A4 
    2765 00000023       ||$C$L11||:    
    2766 00000023 FE84          SUBB      SP,#4                 ; [CPU_ARAU] 
    2767                      .dwcfi  cfa_offset, -2
    2768 00000024 92A4          MOV       AL,AR4                ; [CPU_ALU] |378| 
    2769              $C$DW$189       .dwtag  DW_TAG_TI_branch
    2770                      .dwattr $C$DW$189, DW_AT_low_pc(0x00)
    2771                      .dwattr $C$DW$189, DW_AT_TI_return
    2772              
    2773 00000025 0006          LRETR     ; [CPU_ALU] 
    2774                      ; return occurs ; [] 
    2775                      .dwattr $C$DW$185, DW_AT_TI_end_file("C:/ti/ccs1010/ccs/tools/compiler/ti-cgt-c2000_20.2.1.LTS/includ
    2776                      .dwattr $C$DW$185, DW_AT_TI_end_line(0x17a)
    2777                      .dwattr $C$DW$185, DW_AT_TI_end_column(0x4c)
    2778                      .dwendentry
    2779                      .dwendtag $C$DW$185
    2780              
    2781 00000000               .sect   ".text:__isinff"
    2782                      .clink
    2783                      .global ||__isinff||
    2784              
    2785              $C$DW$190       .dwtag  DW_TAG_subprogram
    2786                      .dwattr $C$DW$190, DW_AT_name("__isinff")
    2787                      .dwattr $C$DW$190, DW_AT_low_pc(||__isinff||)
    2788                      .dwattr $C$DW$190, DW_AT_high_pc(0x00)
TMS320C2000 Assembler PC v20.2.1 Mon Nov  2 17:14:28 2020

Copyright (c) 1996-2018 Texas Instruments Incorporated
bts_main.asm                                                         PAGE   55

    2789                      .dwattr $C$DW$190, DW_AT_linkage_name("__isinff")
    2790                      .dwattr $C$DW$190, DW_AT_external
    2791                      .dwattr $C$DW$190, DW_AT_type(*$C$DW$T$10)
    2792                      .dwattr $C$DW$190, DW_AT_decl_file("C:/ti/ccs1010/ccs/tools/compiler/ti-cgt-c2000_20.2.1.LTS/include/
    2793                      .dwattr $C$DW$190, DW_AT_decl_line(0x175)
    2794                      .dwattr $C$DW$190, DW_AT_decl_column(0x25)
    2795                      .dwattr $C$DW$190, DW_AT_TI_max_frame_size(-2)
    2796                      .dwpsn  file "C:/ti/ccs1010/ccs/tools/compiler/ti-cgt-c2000_20.2.1.LTS/include/_defs.h",line 374,colu
    2797              
    2798                      .dwfde $C$DW$CIE, ||__isinff||
    2799              $C$DW$191       .dwtag  DW_TAG_formal_parameter
    2800                      .dwattr $C$DW$191, DW_AT_name("f")
    2801                      .dwattr $C$DW$191, DW_AT_type(*$C$DW$T$16)
    2802                      .dwattr $C$DW$191, DW_AT_location[DW_OP_regx 0x2b]
    2803              
    2804              
    2805              ;***************************************************************
    2806              ;* FNAME: __isinff                      FR SIZE:   0           *
    2807              ;*                                                             *
    2808              ;* FUNCTION ENVIRONMENT                                        *
    2809              ;*                                                             *
    2810              ;* FUNCTION PROPERTIES                                         *
    2811              ;*                            0 Parameter,  0 Auto,  0 SOE     *
    2812              ;***************************************************************
    2813              
    2814              ||__isinff||:
    2815              ;* PL    assigned to $O$K3
    2816              ;* AR6   assigned to $O$S1
    2817              ;* R0    assigned to f
    2818              $C$DW$192       .dwtag  DW_TAG_variable
    2819                      .dwattr $C$DW$192, DW_AT_name("f")
    2820                      .dwattr $C$DW$192, DW_AT_type(*$C$DW$T$125)
    2821                      .dwattr $C$DW$192, DW_AT_location[DW_OP_regx 0x2b]
    2822              
    2823                      .dwcfi  cfa_offset, -2
    2824                      .dwcfi  save_reg_to_mem, 26, 0
    2825                      .dwpsn  file "C:/ti/ccs1010/ccs/tools/compiler/ti-cgt-c2000_20.2.1.LTS/include/_defs.h",line 374,colu
    2826 00000000 BFAB          MOV32     P,R0H                 ; [CPU_FPU] |374| 
         00000001 0F12 
    2827 00000002 CCAA          AND       AL,PH,#0x7f80         ; [CPU_ALU] |374| 
         00000003 7F80 
    2828 00000004 80A9          MOVZ      AR7,AL                ; [CPU_ALU] |374| 
    2829 00000005 8F00          MOVL      XAR4,#32640           ; [CPU_ARAU] |374| 
         00000006 7F80 
    2830 00000007 BE00          MOVB      XAR6,#0               ; [CPU_ALU] |374| 
    2831 00000008 A8A9          MOVL      ACC,XAR4              ; [CPU_ALU] |374| 
    2832 00000009 0FA7          CMPL      ACC,XAR7              ; [CPU_ALU] |374| 
    2833 0000000a 6006          B         ||$C$L12||,NEQ        ; [CPU_ALU] |374| 
    2834                      ; branchcc occurs ; [] |374| 
    2835 0000000b A9A9          MOVL      ACC,P                 ; [CPU_ALU] |374| 
    2836 0000000c 917F          ANDB      AH,#127               ; [CPU_ALU] |374| 
    2837 0000000d FF58          TEST      ACC                   ; [CPU_ALU] |374| 
    2838 0000000e 56B1          MOVB      XAR6,#1,EQ            ; [CPU_ALU] |374| 
         0000000f 01A6 
    2839 00000010       ||$C$L12||:    
TMS320C2000 Assembler PC v20.2.1 Mon Nov  2 17:14:28 2020

Copyright (c) 1996-2018 Texas Instruments Incorporated
bts_main.asm                                                         PAGE   56

    2840 00000010 92A6          MOV       AL,AR6                ; [CPU_ALU] |374| 
    2841              $C$DW$193       .dwtag  DW_TAG_TI_branch
    2842                      .dwattr $C$DW$193, DW_AT_low_pc(0x00)
    2843                      .dwattr $C$DW$193, DW_AT_TI_return
    2844              
    2845 00000011 0006          LRETR     ; [CPU_ALU] 
    2846                      ; return occurs ; [] 
    2847                      .dwattr $C$DW$190, DW_AT_TI_end_file("C:/ti/ccs1010/ccs/tools/compiler/ti-cgt-c2000_20.2.1.LTS/includ
    2848                      .dwattr $C$DW$190, DW_AT_TI_end_line(0x176)
    2849                      .dwattr $C$DW$190, DW_AT_TI_end_column(0x48)
    2850                      .dwendentry
    2851                      .dwendtag $C$DW$190
    2852              
    2853 00000000               .sect   ".text:__isinf"
    2854                      .clink
    2855                      .global ||__isinf||
    2856              
    2857              $C$DW$194       .dwtag  DW_TAG_subprogram
    2858                      .dwattr $C$DW$194, DW_AT_name("__isinf")
    2859                      .dwattr $C$DW$194, DW_AT_low_pc(||__isinf||)
    2860                      .dwattr $C$DW$194, DW_AT_high_pc(0x00)
    2861                      .dwattr $C$DW$194, DW_AT_linkage_name("__isinf")
    2862                      .dwattr $C$DW$194, DW_AT_external
    2863                      .dwattr $C$DW$194, DW_AT_type(*$C$DW$T$10)
    2864                      .dwattr $C$DW$194, DW_AT_decl_file("C:/ti/ccs1010/ccs/tools/compiler/ti-cgt-c2000_20.2.1.LTS/include/
    2865                      .dwattr $C$DW$194, DW_AT_decl_line(0x177)
    2866                      .dwattr $C$DW$194, DW_AT_decl_column(0x25)
    2867                      .dwattr $C$DW$194, DW_AT_TI_max_frame_size(-6)
    2868                      .dwpsn  file "C:/ti/ccs1010/ccs/tools/compiler/ti-cgt-c2000_20.2.1.LTS/include/_defs.h",line 376,colu
    2869              
    2870                      .dwfde $C$DW$CIE, ||__isinf||
    2871              $C$DW$195       .dwtag  DW_TAG_formal_parameter
    2872                      .dwattr $C$DW$195, DW_AT_name("d")
    2873                      .dwattr $C$DW$195, DW_AT_type(*$C$DW$T$128)
    2874                      .dwattr $C$DW$195, DW_AT_location[DW_OP_reg12]
    2875              
    2876              
    2877              ;***************************************************************
    2878              ;* FNAME: __isinf                       FR SIZE:   4           *
    2879              ;*                                                             *
    2880              ;* FUNCTION ENVIRONMENT                                        *
    2881              ;*                                                             *
    2882              ;* FUNCTION PROPERTIES                                         *
    2883              ;*                            4 Parameter,  0 Auto,  0 SOE     *
    2884              ;***************************************************************
    2885              
    2886              ||__isinf||:
    2887              ;* AR7   assigned to $O$C2
    2888              ;* AR4   assigned to $O$S1
    2889              ;* AR4   assigned to d
    2890              $C$DW$196       .dwtag  DW_TAG_variable
    2891                      .dwattr $C$DW$196, DW_AT_name("d")
    2892                      .dwattr $C$DW$196, DW_AT_type(*$C$DW$T$129)
    2893                      .dwattr $C$DW$196, DW_AT_location[DW_OP_reg12]
    2894              
TMS320C2000 Assembler PC v20.2.1 Mon Nov  2 17:14:28 2020

Copyright (c) 1996-2018 Texas Instruments Incorporated
bts_main.asm                                                         PAGE   57

    2895                      .dwcfi  cfa_offset, -2
    2896                      .dwcfi  save_reg_to_mem, 26, 0
    2897 00000000 FE04          ADDB      SP,#4                 ; [CPU_ARAU] 
    2898                      .dwcfi  cfa_offset, -6
    2899                      .dwpsn  file "C:/ti/ccs1010/ccs/tools/compiler/ti-cgt-c2000_20.2.1.LTS/include/_defs.h",line 376,colu
    2900 00000001 06D4          MOVL      ACC,*+XAR4[2]         ; [CPU_ALU] |376| 
    2901 00000002 C5C4          MOVL      XAR7,*+XAR4[0]        ; [CPU_ALU] |376| 
    2902 00000003 28AC          MOV       T,#48                 ; [CPU_ALU] |376| 
         00000004 0030 
    2903 00000005 8F40          MOVL      XAR5,#32752           ; [CPU_ARAU] |376| 
         00000006 7FF0 
    2904 00000007 1EA6          MOVL      XAR6,ACC              ; [CPU_ALU] |376| 
    2905 00000008 A3A7          MOVL      P,XAR7                ; [CPU_ALU] |376| 
    2906 00000009 D400          MOVB      XAR4,#0               ; [CPU_ALU] |376| 
    2907 0000000a 565B          LSR64     ACC:P,T               ; [CPU_ALU] |376| 
    2908 0000000b 2BAA          MOV       PH,#0                 ; [CPU_ALU] |376| 
    2909 0000000c 18AB          AND       PL,#0x7ff0            ; [CPU_ALU] |376| 
         0000000d 7FF0 
    2910 0000000e A0A9          MOVL      ACC,XAR5              ; [CPU_ALU] |376| 
    2911 0000000f 0FAB          CMPL      ACC,P                 ; [CPU_ALU] |376| 
    2912 00000010 6013          B         ||$C$L13||,NEQ        ; [CPU_ALU] |376| 
    2913                      ; branchcc occurs ; [] |376| 
    2914 00000011 06A6          MOVL      ACC,XAR6              ; [CPU_ALU] |376| 
    2915 00000012 A3A7          MOVL      P,XAR7                ; [CPU_ALU] |376| 
    2916 00000013 BE00          MOVB      XAR6,#0               ; [CPU_ALU] |376| 
    2917 00000014 18A9          AND       AL,#65535             ; [CPU_ALU] |376| 
         00000015 FFFF 
    2918 00000016 910F          ANDB      AH,#15                ; [CPU_ALU] |376| 
    2919 00000017 18AB          AND       PL,#65535             ; [CPU_ALU] |376| 
         00000018 FFFF 
    2920 00000019 18AA          AND       PH,#65535             ; [CPU_ALU] |376| 
         0000001a FFFF 
    2921 0000001b C244          MOVL      *-SP[4],XAR6          ; [CPU_FPU] |376| 
    2922 0000001c 2B42          MOV       *-SP[2],#0            ; [CPU_FPU] |376| 
    2923 0000001d 2B41          MOV       *-SP[1],#0            ; [CPU_FPU] |376| 
    2924              $C$DW$197       .dwtag  DW_TAG_TI_branch
    2925                      .dwattr $C$DW$197, DW_AT_low_pc(0x00)
    2926                      .dwattr $C$DW$197, DW_AT_name("__c28xabi_cmpull")
    2927                      .dwattr $C$DW$197, DW_AT_TI_call
    2928              
    2929 0000001e 7640!         LCR       #||__c28xabi_cmpull|| ; [CPU_ALU] |376| 
         0000001f 0000 
    2930                      ; call occurs [#||__c28xabi_cmpull||] ; [] |376| 
    2931 00000020 5200          CMPB      AL,#0                 ; [CPU_ALU] |376| 
    2932 00000021 56B1          MOVB      XAR4,#1,EQ            ; [CPU_ALU] |376| 
         00000022 01A4 
    2933 00000023       ||$C$L13||:    
    2934 00000023 FE84          SUBB      SP,#4                 ; [CPU_ARAU] 
    2935                      .dwcfi  cfa_offset, -2
    2936 00000024 92A4          MOV       AL,AR4                ; [CPU_ALU] |376| 
    2937              $C$DW$198       .dwtag  DW_TAG_TI_branch
    2938                      .dwattr $C$DW$198, DW_AT_low_pc(0x00)
    2939                      .dwattr $C$DW$198, DW_AT_TI_return
    2940              
    2941 00000025 0006          LRETR     ; [CPU_ALU] 
TMS320C2000 Assembler PC v20.2.1 Mon Nov  2 17:14:28 2020

Copyright (c) 1996-2018 Texas Instruments Incorporated
bts_main.asm                                                         PAGE   58

    2942                      ; return occurs ; [] 
    2943                      .dwattr $C$DW$194, DW_AT_TI_end_file("C:/ti/ccs1010/ccs/tools/compiler/ti-cgt-c2000_20.2.1.LTS/includ
    2944                      .dwattr $C$DW$194, DW_AT_TI_end_line(0x178)
    2945                      .dwattr $C$DW$194, DW_AT_TI_end_column(0x4a)
    2946                      .dwendentry
    2947                      .dwendtag $C$DW$194
    2948              
    2949 00000000               .sect   ".text:__isfinitel"
    2950                      .clink
    2951                      .global ||__isfinitel||
    2952              
    2953              $C$DW$199       .dwtag  DW_TAG_subprogram
    2954                      .dwattr $C$DW$199, DW_AT_name("__isfinitel")
    2955                      .dwattr $C$DW$199, DW_AT_low_pc(||__isfinitel||)
    2956                      .dwattr $C$DW$199, DW_AT_high_pc(0x00)
    2957                      .dwattr $C$DW$199, DW_AT_linkage_name("__isfinitel")
    2958                      .dwattr $C$DW$199, DW_AT_external
    2959                      .dwattr $C$DW$199, DW_AT_type(*$C$DW$T$10)
    2960                      .dwattr $C$DW$199, DW_AT_decl_file("C:/ti/ccs1010/ccs/tools/compiler/ti-cgt-c2000_20.2.1.LTS/include/
    2961                      .dwattr $C$DW$199, DW_AT_decl_line(0x151)
    2962                      .dwattr $C$DW$199, DW_AT_decl_column(0x25)
    2963                      .dwattr $C$DW$199, DW_AT_TI_max_frame_size(-2)
    2964                      .dwpsn  file "C:/ti/ccs1010/ccs/tools/compiler/ti-cgt-c2000_20.2.1.LTS/include/_defs.h",line 338,colu
    2965              
    2966                      .dwfde $C$DW$CIE, ||__isfinitel||
    2967              $C$DW$200       .dwtag  DW_TAG_formal_parameter
    2968                      .dwattr $C$DW$200, DW_AT_name("e")
    2969                      .dwattr $C$DW$200, DW_AT_type(*$C$DW$T$131)
    2970                      .dwattr $C$DW$200, DW_AT_location[DW_OP_reg12]
    2971              
    2972              
    2973              ;***************************************************************
    2974              ;* FNAME: __isfinitel                   FR SIZE:   0           *
    2975              ;*                                                             *
    2976              ;* FUNCTION ENVIRONMENT                                        *
    2977              ;*                                                             *
    2978              ;* FUNCTION PROPERTIES                                         *
    2979              ;*                            0 Parameter,  0 Auto,  0 SOE     *
    2980              ;***************************************************************
    2981              
    2982              ||__isfinitel||:
    2983              ;* AR4   assigned to e
    2984              $C$DW$201       .dwtag  DW_TAG_variable
    2985                      .dwattr $C$DW$201, DW_AT_name("e")
    2986                      .dwattr $C$DW$201, DW_AT_type(*$C$DW$T$132)
    2987                      .dwattr $C$DW$201, DW_AT_location[DW_OP_reg12]
    2988              
    2989                      .dwcfi  cfa_offset, -2
    2990                      .dwcfi  save_reg_to_mem, 26, 0
    2991                      .dwpsn  file "C:/ti/ccs1010/ccs/tools/compiler/ti-cgt-c2000_20.2.1.LTS/include/_defs.h",line 338,colu
    2992 00000000 A3C4          MOVL      P,*+XAR4[0]           ; [CPU_ALU] |338| 
    2993 00000001 06D4          MOVL      ACC,*+XAR4[2]         ; [CPU_ALU] |338| 
    2994 00000002 28AC          MOV       T,#48                 ; [CPU_ALU] |338| 
         00000003 0030 
    2995 00000004 565B          LSR64     ACC:P,T               ; [CPU_ALU] |338| 
TMS320C2000 Assembler PC v20.2.1 Mon Nov  2 17:14:28 2020

Copyright (c) 1996-2018 Texas Instruments Incorporated
bts_main.asm                                                         PAGE   59

    2996 00000005 18AB          AND       PL,#0x7ff0            ; [CPU_ALU] |338| 
         00000006 7FF0 
    2997 00000007 80AB          MOVZ      AR7,PL                ; [CPU_ALU] |338| 
    2998 00000008 8F00          MOVL      XAR4,#32752           ; [CPU_ARAU] |338| 
         00000009 7FF0 
    2999 0000000a BE00          MOVB      XAR6,#0               ; [CPU_ALU] |338| 
    3000 0000000b A8A9          MOVL      ACC,XAR4              ; [CPU_ALU] |338| 
    3001 0000000c 0FA7          CMPL      ACC,XAR7              ; [CPU_ALU] |338| 
    3002 0000000d 56B0          MOVB      XAR6,#1,NEQ           ; [CPU_ALU] |338| 
         0000000e 01A6 
    3003 0000000f 92A6          MOV       AL,AR6                ; [CPU_ALU] |338| 
    3004              $C$DW$202       .dwtag  DW_TAG_TI_branch
    3005                      .dwattr $C$DW$202, DW_AT_low_pc(0x00)
    3006                      .dwattr $C$DW$202, DW_AT_TI_return
    3007              
    3008 00000010 0006          LRETR     ; [CPU_ALU] 
    3009                      ; return occurs ; [] 
    3010                      .dwattr $C$DW$199, DW_AT_TI_end_file("C:/ti/ccs1010/ccs/tools/compiler/ti-cgt-c2000_20.2.1.LTS/includ
    3011                      .dwattr $C$DW$199, DW_AT_TI_end_line(0x152)
    3012                      .dwattr $C$DW$199, DW_AT_TI_end_column(0x2f)
    3013                      .dwendentry
    3014                      .dwendtag $C$DW$199
    3015              
    3016 00000000               .sect   ".text:__isfinitef"
    3017                      .clink
    3018                      .global ||__isfinitef||
    3019              
    3020              $C$DW$203       .dwtag  DW_TAG_subprogram
    3021                      .dwattr $C$DW$203, DW_AT_name("__isfinitef")
    3022                      .dwattr $C$DW$203, DW_AT_low_pc(||__isfinitef||)
    3023                      .dwattr $C$DW$203, DW_AT_high_pc(0x00)
    3024                      .dwattr $C$DW$203, DW_AT_linkage_name("__isfinitef")
    3025                      .dwattr $C$DW$203, DW_AT_external
    3026                      .dwattr $C$DW$203, DW_AT_type(*$C$DW$T$10)
    3027                      .dwattr $C$DW$203, DW_AT_decl_file("C:/ti/ccs1010/ccs/tools/compiler/ti-cgt-c2000_20.2.1.LTS/include/
    3028                      .dwattr $C$DW$203, DW_AT_decl_line(0x14f)
    3029                      .dwattr $C$DW$203, DW_AT_decl_column(0x25)
    3030                      .dwattr $C$DW$203, DW_AT_TI_max_frame_size(-2)
    3031                      .dwpsn  file "C:/ti/ccs1010/ccs/tools/compiler/ti-cgt-c2000_20.2.1.LTS/include/_defs.h",line 336,colu
    3032              
    3033                      .dwfde $C$DW$CIE, ||__isfinitef||
    3034              $C$DW$204       .dwtag  DW_TAG_formal_parameter
    3035                      .dwattr $C$DW$204, DW_AT_name("f")
    3036                      .dwattr $C$DW$204, DW_AT_type(*$C$DW$T$16)
    3037                      .dwattr $C$DW$204, DW_AT_location[DW_OP_regx 0x2b]
    3038              
    3039              
    3040              ;***************************************************************
    3041              ;* FNAME: __isfinitef                   FR SIZE:   0           *
    3042              ;*                                                             *
    3043              ;* FUNCTION ENVIRONMENT                                        *
    3044              ;*                                                             *
    3045              ;* FUNCTION PROPERTIES                                         *
    3046              ;*                            0 Parameter,  0 Auto,  0 SOE     *
    3047              ;***************************************************************
TMS320C2000 Assembler PC v20.2.1 Mon Nov  2 17:14:28 2020

Copyright (c) 1996-2018 Texas Instruments Incorporated
bts_main.asm                                                         PAGE   60

    3048              
    3049              ||__isfinitef||:
    3050              ;* R0    assigned to f
    3051              $C$DW$205       .dwtag  DW_TAG_variable
    3052                      .dwattr $C$DW$205, DW_AT_name("f")
    3053                      .dwattr $C$DW$205, DW_AT_type(*$C$DW$T$125)
    3054                      .dwattr $C$DW$205, DW_AT_location[DW_OP_regx 0x2b]
    3055              
    3056                      .dwcfi  cfa_offset, -2
    3057                      .dwcfi  save_reg_to_mem, 26, 0
    3058                      .dwpsn  file "C:/ti/ccs1010/ccs/tools/compiler/ti-cgt-c2000_20.2.1.LTS/include/_defs.h",line 336,colu
    3059 00000000 BFA9          MOV32     ACC,R0H               ; [CPU_FPU] |336| 
         00000001 0F12 
    3060 00000002 18A8          AND       AH,#0x7f80            ; [CPU_ALU] |336| 
         00000003 7F80 
    3061 00000004 80A8          MOVZ      AR7,AH                ; [CPU_ALU] |336| 
    3062 00000005 8F00          MOVL      XAR4,#32640           ; [CPU_ARAU] |336| 
         00000006 7F80 
    3063 00000007 BE00          MOVB      XAR6,#0               ; [CPU_ALU] |336| 
    3064 00000008 A8A9          MOVL      ACC,XAR4              ; [CPU_ALU] |336| 
    3065 00000009 0FA7          CMPL      ACC,XAR7              ; [CPU_ALU] |336| 
    3066 0000000a 56B0          MOVB      XAR6,#1,NEQ           ; [CPU_ALU] |336| 
         0000000b 01A6 
    3067 0000000c 92A6          MOV       AL,AR6                ; [CPU_ALU] |336| 
    3068              $C$DW$206       .dwtag  DW_TAG_TI_branch
    3069                      .dwattr $C$DW$206, DW_AT_low_pc(0x00)
    3070                      .dwattr $C$DW$206, DW_AT_TI_return
    3071              
    3072 0000000d 0006          LRETR     ; [CPU_ALU] 
    3073                      ; return occurs ; [] 
    3074                      .dwattr $C$DW$203, DW_AT_TI_end_file("C:/ti/ccs1010/ccs/tools/compiler/ti-cgt-c2000_20.2.1.LTS/includ
    3075                      .dwattr $C$DW$203, DW_AT_TI_end_line(0x150)
    3076                      .dwattr $C$DW$203, DW_AT_TI_end_column(0x2d)
    3077                      .dwendentry
    3078                      .dwendtag $C$DW$203
    3079              
    3080 00000000               .sect   ".text:__isfinite"
    3081                      .clink
    3082                      .global ||__isfinite||
    3083              
    3084              $C$DW$207       .dwtag  DW_TAG_subprogram
    3085                      .dwattr $C$DW$207, DW_AT_name("__isfinite")
    3086                      .dwattr $C$DW$207, DW_AT_low_pc(||__isfinite||)
    3087                      .dwattr $C$DW$207, DW_AT_high_pc(0x00)
    3088                      .dwattr $C$DW$207, DW_AT_linkage_name("__isfinite")
    3089                      .dwattr $C$DW$207, DW_AT_external
    3090                      .dwattr $C$DW$207, DW_AT_type(*$C$DW$T$10)
    3091                      .dwattr $C$DW$207, DW_AT_decl_file("C:/ti/ccs1010/ccs/tools/compiler/ti-cgt-c2000_20.2.1.LTS/include/
    3092                      .dwattr $C$DW$207, DW_AT_decl_line(0x14d)
    3093                      .dwattr $C$DW$207, DW_AT_decl_column(0x25)
    3094                      .dwattr $C$DW$207, DW_AT_TI_max_frame_size(-2)
    3095                      .dwpsn  file "C:/ti/ccs1010/ccs/tools/compiler/ti-cgt-c2000_20.2.1.LTS/include/_defs.h",line 334,colu
    3096              
    3097                      .dwfde $C$DW$CIE, ||__isfinite||
    3098              $C$DW$208       .dwtag  DW_TAG_formal_parameter
TMS320C2000 Assembler PC v20.2.1 Mon Nov  2 17:14:28 2020

Copyright (c) 1996-2018 Texas Instruments Incorporated
bts_main.asm                                                         PAGE   61

    3099                      .dwattr $C$DW$208, DW_AT_name("d")
    3100                      .dwattr $C$DW$208, DW_AT_type(*$C$DW$T$128)
    3101                      .dwattr $C$DW$208, DW_AT_location[DW_OP_reg12]
    3102              
    3103              
    3104              ;***************************************************************
    3105              ;* FNAME: __isfinite                    FR SIZE:   0           *
    3106              ;*                                                             *
    3107              ;* FUNCTION ENVIRONMENT                                        *
    3108              ;*                                                             *
    3109              ;* FUNCTION PROPERTIES                                         *
    3110              ;*                            0 Parameter,  0 Auto,  0 SOE     *
    3111              ;***************************************************************
    3112              
    3113              ||__isfinite||:
    3114              ;* AR4   assigned to d
    3115              $C$DW$209       .dwtag  DW_TAG_variable
    3116                      .dwattr $C$DW$209, DW_AT_name("d")
    3117                      .dwattr $C$DW$209, DW_AT_type(*$C$DW$T$129)
    3118                      .dwattr $C$DW$209, DW_AT_location[DW_OP_reg12]
    3119              
    3120                      .dwcfi  cfa_offset, -2
    3121                      .dwcfi  save_reg_to_mem, 26, 0
    3122                      .dwpsn  file "C:/ti/ccs1010/ccs/tools/compiler/ti-cgt-c2000_20.2.1.LTS/include/_defs.h",line 334,colu
    3123 00000000 A3C4          MOVL      P,*+XAR4[0]           ; [CPU_ALU] |334| 
    3124 00000001 06D4          MOVL      ACC,*+XAR4[2]         ; [CPU_ALU] |334| 
    3125 00000002 28AC          MOV       T,#48                 ; [CPU_ALU] |334| 
         00000003 0030 
    3126 00000004 565B          LSR64     ACC:P,T               ; [CPU_ALU] |334| 
    3127 00000005 18AB          AND       PL,#0x7ff0            ; [CPU_ALU] |334| 
         00000006 7FF0 
    3128 00000007 80AB          MOVZ      AR7,PL                ; [CPU_ALU] |334| 
    3129 00000008 8F00          MOVL      XAR4,#32752           ; [CPU_ARAU] |334| 
         00000009 7FF0 
    3130 0000000a BE00          MOVB      XAR6,#0               ; [CPU_ALU] |334| 
    3131 0000000b A8A9          MOVL      ACC,XAR4              ; [CPU_ALU] |334| 
    3132 0000000c 0FA7          CMPL      ACC,XAR7              ; [CPU_ALU] |334| 
    3133 0000000d 56B0          MOVB      XAR6,#1,NEQ           ; [CPU_ALU] |334| 
         0000000e 01A6 
    3134 0000000f 92A6          MOV       AL,AR6                ; [CPU_ALU] |334| 
    3135              $C$DW$210       .dwtag  DW_TAG_TI_branch
    3136                      .dwattr $C$DW$210, DW_AT_low_pc(0x00)
    3137                      .dwattr $C$DW$210, DW_AT_TI_return
    3138              
    3139 00000010 0006          LRETR     ; [CPU_ALU] 
    3140                      ; return occurs ; [] 
    3141                      .dwattr $C$DW$207, DW_AT_TI_end_file("C:/ti/ccs1010/ccs/tools/compiler/ti-cgt-c2000_20.2.1.LTS/includ
    3142                      .dwattr $C$DW$207, DW_AT_TI_end_line(0x14e)
    3143                      .dwattr $C$DW$207, DW_AT_TI_end_column(0x2e)
    3144                      .dwendentry
    3145                      .dwendtag $C$DW$207
    3146              
    3147 00000000               .sect   ".text:__fpclassifyl"
    3148                      .clink
    3149                      .global ||__fpclassifyl||
TMS320C2000 Assembler PC v20.2.1 Mon Nov  2 17:14:28 2020

Copyright (c) 1996-2018 Texas Instruments Incorporated
bts_main.asm                                                         PAGE   62

    3150              
    3151              $C$DW$211       .dwtag  DW_TAG_subprogram
    3152                      .dwattr $C$DW$211, DW_AT_name("__fpclassifyl")
    3153                      .dwattr $C$DW$211, DW_AT_low_pc(||__fpclassifyl||)
    3154                      .dwattr $C$DW$211, DW_AT_high_pc(0x00)
    3155                      .dwattr $C$DW$211, DW_AT_linkage_name("__fpclassifyl")
    3156                      .dwattr $C$DW$211, DW_AT_external
    3157                      .dwattr $C$DW$211, DW_AT_type(*$C$DW$T$10)
    3158                      .dwattr $C$DW$211, DW_AT_decl_file("C:/ti/ccs1010/ccs/tools/compiler/ti-cgt-c2000_20.2.1.LTS/include/
    3159                      .dwattr $C$DW$211, DW_AT_decl_line(0x1ad)
    3160                      .dwattr $C$DW$211, DW_AT_decl_column(0x25)
    3161                      .dwattr $C$DW$211, DW_AT_TI_max_frame_size(-10)
    3162                      .dwpsn  file "C:/ti/ccs1010/ccs/tools/compiler/ti-cgt-c2000_20.2.1.LTS/include/_defs.h",line 430,colu
    3163              
    3164                      .dwfde $C$DW$CIE, ||__fpclassifyl||
    3165              $C$DW$212       .dwtag  DW_TAG_formal_parameter
    3166                      .dwattr $C$DW$212, DW_AT_name("e")
    3167                      .dwattr $C$DW$212, DW_AT_type(*$C$DW$T$131)
    3168                      .dwattr $C$DW$212, DW_AT_location[DW_OP_reg12]
    3169              
    3170              
    3171              ;***************************************************************
    3172              ;* FNAME: __fpclassifyl                 FR SIZE:   8           *
    3173              ;*                                                             *
    3174              ;* FUNCTION ENVIRONMENT                                        *
    3175              ;*                                                             *
    3176              ;* FUNCTION PROPERTIES                                         *
    3177              ;*                            4 Parameter,  4 Auto,  0 SOE     *
    3178              ;***************************************************************
    3179              
    3180              ||__fpclassifyl||:
    3181              $C$DW$213       .dwtag  DW_TAG_variable
    3182                      .dwattr $C$DW$213, DW_AT_name("e")
    3183                      .dwattr $C$DW$213, DW_AT_type(*$C$DW$T$18)
    3184                      .dwattr $C$DW$213, DW_AT_location[DW_OP_breg20 -8]
    3185              
    3186              ;* AR5   assigned to $O$C1
    3187              ;* AR4   assigned to e
    3188              $C$DW$214       .dwtag  DW_TAG_variable
    3189                      .dwattr $C$DW$214, DW_AT_name("e")
    3190                      .dwattr $C$DW$214, DW_AT_type(*$C$DW$T$132)
    3191                      .dwattr $C$DW$214, DW_AT_location[DW_OP_reg12]
    3192              
    3193                      .dwcfi  cfa_offset, -2
    3194                      .dwcfi  save_reg_to_mem, 26, 0
    3195 00000000 FE08          ADDB      SP,#8                 ; [CPU_ARAU] 
    3196                      .dwcfi  cfa_offset, -10
    3197 00000001 C4D4          MOVL      XAR6,*+XAR4[2]        ; [CPU_ALU] |430| 
    3198 00000002 06C4          MOVL      ACC,*+XAR4[0]         ; [CPU_ALU] |430| 
    3199 00000003 1E48          MOVL      *-SP[8],ACC           ; [CPU_ALU] |430| 
    3200 00000004 C246          MOVL      *-SP[6],XAR6          ; [CPU_ALU] |430| 
    3201                      .dwpsn  file "C:/ti/ccs1010/ccs/tools/compiler/ti-cgt-c2000_20.2.1.LTS/include/_defs.h",line 431,colu
    3202 00000005 8348          MOVL      XAR5,*-SP[8]          ; [CPU_ALU] |431| 
    3203 00000006 8A46          MOVL      XAR4,*-SP[6]          ; [CPU_ALU] |431| 
    3204                      .dwpsn  file "C:/ti/ccs1010/ccs/tools/compiler/ti-cgt-c2000_20.2.1.LTS/include/_defs.h",line 435,colu
TMS320C2000 Assembler PC v20.2.1 Mon Nov  2 17:14:28 2020

Copyright (c) 1996-2018 Texas Instruments Incorporated
bts_main.asm                                                         PAGE   63

    3205 00000007 28AC          MOV       T,#48                 ; [CPU_ALU] |435| 
         00000008 0030 
    3206 00000009 A0AB          MOVL      P,XAR5                ; [CPU_ALU] |435| 
    3207 0000000a A8A9          MOVL      ACC,XAR4              ; [CPU_ALU] |435| 
    3208 0000000b 565B          LSR64     ACC:P,T               ; [CPU_ALU] |435| 
    3209 0000000c 18AB          AND       PL,#0x7ff0            ; [CPU_ALU] |435| 
         0000000d 7FF0 
    3210 0000000e 80AB          MOVZ      AR7,PL                ; [CPU_ALU] |435| 
    3211 0000000f 7680          MOVL      XAR6,#32752           ; [CPU_ARAU] |435| 
         00000010 7FF0 
    3212 00000011 06A6          MOVL      ACC,XAR6              ; [CPU_ALU] |435| 
    3213 00000012 0FA7          CMPL      ACC,XAR7              ; [CPU_ALU] |435| 
    3214 00000013 6016          B         ||$C$L15||,NEQ        ; [CPU_ALU] |435| 
    3215                      ; branchcc occurs ; [] |435| 
    3216 00000014 0200          MOVB      ACC,#0                ; [CPU_ALU] |435| 
    3217 00000015 1E44          MOVL      *-SP[4],ACC           ; [CPU_ALU] |435| 
    3218 00000016 2B42          MOV       *-SP[2],#0            ; [CPU_ALU] |435| 
    3219 00000017 2B41          MOV       *-SP[1],#0            ; [CPU_ALU] |435| 
    3220 00000018 A348          MOVL      P,*-SP[8]             ; [CPU_ALU] |435| 
    3221 00000019 0646          MOVL      ACC,*-SP[6]           ; [CPU_ALU] |435| 
    3222 0000001a 18AB          AND       PL,#65535             ; [CPU_ALU] |435| 
         0000001b FFFF 
    3223 0000001c 18AA          AND       PH,#65535             ; [CPU_ALU] |435| 
         0000001d FFFF 
    3224 0000001e 18A9          AND       AL,#65535             ; [CPU_ALU] |435| 
         0000001f FFFF 
    3225 00000020 910F          ANDB      AH,#15                ; [CPU_ALU] |435| 
    3226              $C$DW$215       .dwtag  DW_TAG_TI_branch
    3227                      .dwattr $C$DW$215, DW_AT_low_pc(0x00)
    3228                      .dwattr $C$DW$215, DW_AT_name("__c28xabi_cmpull")
    3229                      .dwattr $C$DW$215, DW_AT_TI_call
    3230              
    3231 00000021 7640!         LCR       #||__c28xabi_cmpull|| ; [CPU_ALU] |435| 
         00000022 0000 
    3232                      ; call occurs [#||__c28xabi_cmpull||] ; [] |435| 
    3233 00000023 5200          CMPB      AL,#0                 ; [CPU_ALU] |435| 
    3234 00000024 6103          B         ||$C$L14||,EQ         ; [CPU_ALU] |435| 
    3235                      ; branchcc occurs ; [] |435| 
    3236 00000025 9A02          MOVB      AL,#2                 ; [CPU_ALU] |435| 
    3237 00000026 6F2D          B         ||$C$L18||,UNC        ; [CPU_ALU] |435| 
    3238                      ; branch occurs ; [] |435| 
    3239 00000027       ||$C$L14||:    
    3240 00000027 9A01          MOVB      AL,#1                 ; [CPU_ALU] |435| 
    3241 00000028 6F2B          B         ||$C$L18||,UNC        ; [CPU_ALU] |435| 
    3242                      ; branch occurs ; [] |435| 
    3243 00000029       ||$C$L15||:    
    3244 00000029 BE00          MOVB      XAR6,#0               ; [CPU_ALU] |435| 
    3245 0000002a A0AB          MOVL      P,XAR5                ; [CPU_ALU] |435| 
    3246 0000002b A8A9          MOVL      ACC,XAR4              ; [CPU_ALU] |435| 
    3247 0000002c 28AC          MOV       T,#52                 ; [CPU_ALU] |435| 
         0000002d 0034 
    3248 0000002e C244          MOVL      *-SP[4],XAR6          ; [CPU_ALU] |435| 
    3249 0000002f 2B42          MOV       *-SP[2],#0            ; [CPU_ALU] |435| 
    3250 00000030 565B          LSR64     ACC:P,T               ; [CPU_ALU] |435| 
    3251 00000031 2B41          MOV       *-SP[1],#0            ; [CPU_FPU] |435| 
TMS320C2000 Assembler PC v20.2.1 Mon Nov  2 17:14:28 2020

Copyright (c) 1996-2018 Texas Instruments Incorporated
bts_main.asm                                                         PAGE   64

    3252 00000032 9000          ANDB      AL,#0                 ; [CPU_ALU] |435| 
    3253 00000033 9100          ANDB      AH,#0                 ; [CPU_ALU] |435| 
    3254 00000034 18AB          AND       PL,#2047              ; [CPU_ALU] |435| 
         00000035 07FF 
    3255 00000036 18AA          AND       PH,#0                 ; [CPU_ALU] |435| 
         00000037 0000 
    3256              $C$DW$216       .dwtag  DW_TAG_TI_branch
    3257                      .dwattr $C$DW$216, DW_AT_low_pc(0x00)
    3258                      .dwattr $C$DW$216, DW_AT_name("__c28xabi_cmpull")
    3259                      .dwattr $C$DW$216, DW_AT_TI_call
    3260              
    3261 00000038 7640!         LCR       #||__c28xabi_cmpull|| ; [CPU_ALU] |435| 
         00000039 0000 
    3262                      ; call occurs [#||__c28xabi_cmpull||] ; [] |435| 
    3263 0000003a 5200          CMPB      AL,#0                 ; [CPU_ALU] |435| 
    3264 0000003b 6104          B         ||$C$L16||,EQ         ; [CPU_ALU] |435| 
    3265                      ; branchcc occurs ; [] |435| 
    3266 0000003c 28A9          MOV       AL,#-1                ; [CPU_ALU] |435| 
         0000003d FFFF 
    3267 0000003e 6F15          B         ||$C$L18||,UNC        ; [CPU_ALU] |435| 
    3268                      ; branch occurs ; [] |435| 
    3269 0000003f       ||$C$L16||:    
    3270 0000003f C244          MOVL      *-SP[4],XAR6          ; [CPU_ALU] |435| 
    3271 00000040 A8A9          MOVL      ACC,XAR4              ; [CPU_ALU] |435| 
    3272 00000041 A0AB          MOVL      P,XAR5                ; [CPU_ALU] |435| 
    3273 00000042 2B42          MOV       *-SP[2],#0            ; [CPU_ALU] |435| 
    3274 00000043 18A9          AND       AL,#65535             ; [CPU_ALU] |435| 
         00000044 FFFF 
    3275 00000045 910F          ANDB      AH,#15                ; [CPU_ALU] |435| 
    3276 00000046 18AB          AND       PL,#65535             ; [CPU_ALU] |435| 
         00000047 FFFF 
    3277 00000048 18AA          AND       PH,#65535             ; [CPU_ALU] |435| 
         00000049 FFFF 
    3278 0000004a 2B41          MOV       *-SP[1],#0            ; [CPU_FPU] |435| 
    3279              $C$DW$217       .dwtag  DW_TAG_TI_branch
    3280                      .dwattr $C$DW$217, DW_AT_low_pc(0x00)
    3281                      .dwattr $C$DW$217, DW_AT_name("__c28xabi_cmpull")
    3282                      .dwattr $C$DW$217, DW_AT_TI_call
    3283              
    3284 0000004b 7640!         LCR       #||__c28xabi_cmpull|| ; [CPU_ALU] |435| 
         0000004c 0000 
    3285                      ; call occurs [#||__c28xabi_cmpull||] ; [] |435| 
    3286 0000004d 5200          CMPB      AL,#0                 ; [CPU_ALU] |435| 
    3287 0000004e 6104          B         ||$C$L17||,EQ         ; [CPU_ALU] |435| 
    3288                      ; branchcc occurs ; [] |435| 
    3289 0000004f 28A9          MOV       AL,#-2                ; [CPU_ALU] |435| 
         00000050 FFFE 
    3290 00000051 6F02          B         ||$C$L18||,UNC        ; [CPU_ALU] |435| 
    3291                      ; branch occurs ; [] |435| 
    3292 00000052       ||$C$L17||:    
    3293 00000052 9A00          MOVB      AL,#0                 ; [CPU_ALU] |435| 
    3294 00000053       ||$C$L18||:    
    3295 00000053 FE88          SUBB      SP,#8                 ; [CPU_ARAU] 
    3296                      .dwcfi  cfa_offset, -2
    3297              $C$DW$218       .dwtag  DW_TAG_TI_branch
TMS320C2000 Assembler PC v20.2.1 Mon Nov  2 17:14:28 2020

Copyright (c) 1996-2018 Texas Instruments Incorporated
bts_main.asm                                                         PAGE   65

    3298                      .dwattr $C$DW$218, DW_AT_low_pc(0x00)
    3299                      .dwattr $C$DW$218, DW_AT_TI_return
    3300              
    3301 00000054 0006          LRETR     ; [CPU_ALU] 
    3302                      ; return occurs ; [] 
    3303                      .dwattr $C$DW$211, DW_AT_TI_end_file("C:/ti/ccs1010/ccs/tools/compiler/ti-cgt-c2000_20.2.1.LTS/includ
    3304                      .dwattr $C$DW$211, DW_AT_TI_end_line(0x1bc)
    3305                      .dwattr $C$DW$211, DW_AT_TI_end_column(0x01)
    3306                      .dwendentry
    3307                      .dwendtag $C$DW$211
    3308              
    3309 00000000               .sect   ".text:__fpclassifyf"
    3310                      .clink
    3311                      .global ||__fpclassifyf||
    3312              
    3313              $C$DW$219       .dwtag  DW_TAG_subprogram
    3314                      .dwattr $C$DW$219, DW_AT_name("__fpclassifyf")
    3315                      .dwattr $C$DW$219, DW_AT_low_pc(||__fpclassifyf||)
    3316                      .dwattr $C$DW$219, DW_AT_high_pc(0x00)
    3317                      .dwattr $C$DW$219, DW_AT_linkage_name("__fpclassifyf")
    3318                      .dwattr $C$DW$219, DW_AT_external
    3319                      .dwattr $C$DW$219, DW_AT_type(*$C$DW$T$10)
    3320                      .dwattr $C$DW$219, DW_AT_decl_file("C:/ti/ccs1010/ccs/tools/compiler/ti-cgt-c2000_20.2.1.LTS/include/
    3321                      .dwattr $C$DW$219, DW_AT_decl_line(0x18b)
    3322                      .dwattr $C$DW$219, DW_AT_decl_column(0x25)
    3323                      .dwattr $C$DW$219, DW_AT_TI_max_frame_size(-2)
    3324                      .dwpsn  file "C:/ti/ccs1010/ccs/tools/compiler/ti-cgt-c2000_20.2.1.LTS/include/_defs.h",line 396,colu
    3325              
    3326                      .dwfde $C$DW$CIE, ||__fpclassifyf||
    3327              $C$DW$220       .dwtag  DW_TAG_formal_parameter
    3328                      .dwattr $C$DW$220, DW_AT_name("f")
    3329                      .dwattr $C$DW$220, DW_AT_type(*$C$DW$T$16)
    3330                      .dwattr $C$DW$220, DW_AT_location[DW_OP_regx 0x2b]
    3331              
    3332              
    3333              ;***************************************************************
    3334              ;* FNAME: __fpclassifyf                 FR SIZE:   0           *
    3335              ;*                                                             *
    3336              ;* FUNCTION ENVIRONMENT                                        *
    3337              ;*                                                             *
    3338              ;* FUNCTION PROPERTIES                                         *
    3339              ;*                            0 Parameter,  0 Auto,  0 SOE     *
    3340              ;***************************************************************
    3341              
    3342              ||__fpclassifyf||:
    3343              ;* PL    assigned to $O$K1
    3344              ;* R0    assigned to f
    3345              $C$DW$221       .dwtag  DW_TAG_variable
    3346                      .dwattr $C$DW$221, DW_AT_name("f")
    3347                      .dwattr $C$DW$221, DW_AT_type(*$C$DW$T$125)
    3348                      .dwattr $C$DW$221, DW_AT_location[DW_OP_regx 0x2b]
    3349              
    3350                      .dwcfi  cfa_offset, -2
    3351                      .dwcfi  save_reg_to_mem, 26, 0
    3352                      .dwpsn  file "C:/ti/ccs1010/ccs/tools/compiler/ti-cgt-c2000_20.2.1.LTS/include/_defs.h",line 397,colu
TMS320C2000 Assembler PC v20.2.1 Mon Nov  2 17:14:28 2020

Copyright (c) 1996-2018 Texas Instruments Incorporated
bts_main.asm                                                         PAGE   66

    3353 00000000 BFAB          MOV32     P,R0H                 ; [CPU_FPU] |397| 
         00000001 0F12 
    3354                      .dwpsn  file "C:/ti/ccs1010/ccs/tools/compiler/ti-cgt-c2000_20.2.1.LTS/include/_defs.h",line 401,colu
    3355 00000002 CCAA          AND       AL,PH,#0x7f80         ; [CPU_ALU] |401| 
         00000003 7F80 
    3356 00000004 88A9          MOVZ      AR6,AL                ; [CPU_ALU] |401| 
    3357 00000005 8F00          MOVL      XAR4,#32640           ; [CPU_ARAU] |401| 
         00000006 7F80 
    3358 00000007 A8A9          MOVL      ACC,XAR4              ; [CPU_ALU] |401| 
    3359 00000008 0FA6          CMPL      ACC,XAR6              ; [CPU_ALU] |401| 
    3360 00000009 6009          B         ||$C$L20||,NEQ        ; [CPU_ALU] |401| 
    3361                      ; branchcc occurs ; [] |401| 
    3362 0000000a A9A9          MOVL      ACC,P                 ; [CPU_ALU] |401| 
    3363 0000000b 917F          ANDB      AH,#127               ; [CPU_ALU] |401| 
    3364 0000000c FF58          TEST      ACC                   ; [CPU_ALU] |401| 
    3365 0000000d 6103          B         ||$C$L19||,EQ         ; [CPU_ALU] |401| 
    3366                      ; branchcc occurs ; [] |401| 
    3367                      .dwcfi  remember_state
    3368 0000000e 9A02          MOVB      AL,#2                 ; [CPU_ALU] |401| 
    3369              $C$DW$222       .dwtag  DW_TAG_TI_branch
    3370                      .dwattr $C$DW$222, DW_AT_low_pc(0x00)
    3371                      .dwattr $C$DW$222, DW_AT_TI_return
    3372              
    3373 0000000f 0006          LRETR     ; [CPU_ALU] 
    3374                      ; return occurs ; [] 
    3375                      .dwcfi  restore_state
    3376 00000010       ||$C$L19||:    
    3377                      .dwcfi  remember_state
    3378 00000010 9A01          MOVB      AL,#1                 ; [CPU_ALU] |401| 
    3379              $C$DW$223       .dwtag  DW_TAG_TI_branch
    3380                      .dwattr $C$DW$223, DW_AT_low_pc(0x00)
    3381                      .dwattr $C$DW$223, DW_AT_TI_return
    3382              
    3383 00000011 0006          LRETR     ; [CPU_ALU] 
    3384                      ; return occurs ; [] 
    3385                      .dwcfi  restore_state
    3386 00000012       ||$C$L20||:    
    3387 00000012 A9A9          MOVL      ACC,P                 ; [CPU_ALU] |401| 
    3388 00000013 28AC          MOV       T,#23                 ; [CPU_ALU] |401| 
         00000014 0017 
    3389 00000015 5622          LSRL      ACC,T                 ; [CPU_ALU] |401| 
    3390 00000016 90FF          ANDB      AL,#0xff              ; [CPU_ALU] |401| 
    3391 00000017 6104          B         ||$C$L21||,EQ         ; [CPU_ALU] |401| 
    3392                      ; branchcc occurs ; [] |401| 
    3393                      .dwcfi  remember_state
    3394 00000018 28A9          MOV       AL,#-1                ; [CPU_ALU] |401| 
         00000019 FFFF 
    3395              $C$DW$224       .dwtag  DW_TAG_TI_branch
    3396                      .dwattr $C$DW$224, DW_AT_low_pc(0x00)
    3397                      .dwattr $C$DW$224, DW_AT_TI_return
    3398              
    3399 0000001a 0006          LRETR     ; [CPU_ALU] 
    3400                      ; return occurs ; [] 
    3401                      .dwcfi  restore_state
    3402 0000001b       ||$C$L21||:    
TMS320C2000 Assembler PC v20.2.1 Mon Nov  2 17:14:28 2020

Copyright (c) 1996-2018 Texas Instruments Incorporated
bts_main.asm                                                         PAGE   67

    3403 0000001b A9A9          MOVL      ACC,P                 ; [CPU_ALU] |401| 
    3404 0000001c 917F          ANDB      AH,#127               ; [CPU_ALU] |401| 
    3405 0000001d FF58          TEST      ACC                   ; [CPU_ALU] |401| 
    3406 0000001e 6104          B         ||$C$L22||,EQ         ; [CPU_ALU] |401| 
    3407                      ; branchcc occurs ; [] |401| 
    3408                      .dwcfi  remember_state
    3409 0000001f 28A9          MOV       AL,#-2                ; [CPU_ALU] |401| 
         00000020 FFFE 
    3410              $C$DW$225       .dwtag  DW_TAG_TI_branch
    3411                      .dwattr $C$DW$225, DW_AT_low_pc(0x00)
    3412                      .dwattr $C$DW$225, DW_AT_TI_return
    3413              
    3414 00000021 0006          LRETR     ; [CPU_ALU] 
    3415                      ; return occurs ; [] 
    3416                      .dwcfi  restore_state
    3417 00000022       ||$C$L22||:    
    3418 00000022 9A00          MOVB      AL,#0                 ; [CPU_ALU] |401| 
    3419              $C$DW$226       .dwtag  DW_TAG_TI_branch
    3420                      .dwattr $C$DW$226, DW_AT_low_pc(0x00)
    3421                      .dwattr $C$DW$226, DW_AT_TI_return
    3422              
    3423 00000023 0006          LRETR     ; [CPU_ALU] 
    3424                      ; return occurs ; [] 
    3425                      .dwattr $C$DW$219, DW_AT_TI_end_file("C:/ti/ccs1010/ccs/tools/compiler/ti-cgt-c2000_20.2.1.LTS/includ
    3426                      .dwattr $C$DW$219, DW_AT_TI_end_line(0x19a)
    3427                      .dwattr $C$DW$219, DW_AT_TI_end_column(0x01)
    3428                      .dwendentry
    3429                      .dwendtag $C$DW$219
    3430              
    3431 00000000               .sect   ".text:__fpclassify"
    3432                      .clink
    3433                      .global ||__fpclassify||
    3434              
    3435              $C$DW$227       .dwtag  DW_TAG_subprogram
    3436                      .dwattr $C$DW$227, DW_AT_name("__fpclassify")
    3437                      .dwattr $C$DW$227, DW_AT_low_pc(||__fpclassify||)
    3438                      .dwattr $C$DW$227, DW_AT_high_pc(0x00)
    3439                      .dwattr $C$DW$227, DW_AT_linkage_name("__fpclassify")
    3440                      .dwattr $C$DW$227, DW_AT_external
    3441                      .dwattr $C$DW$227, DW_AT_type(*$C$DW$T$10)
    3442                      .dwattr $C$DW$227, DW_AT_decl_file("C:/ti/ccs1010/ccs/tools/compiler/ti-cgt-c2000_20.2.1.LTS/include/
    3443                      .dwattr $C$DW$227, DW_AT_decl_line(0x19c)
    3444                      .dwattr $C$DW$227, DW_AT_decl_column(0x25)
    3445                      .dwattr $C$DW$227, DW_AT_TI_max_frame_size(-10)
    3446                      .dwpsn  file "C:/ti/ccs1010/ccs/tools/compiler/ti-cgt-c2000_20.2.1.LTS/include/_defs.h",line 413,colu
    3447              
    3448                      .dwfde $C$DW$CIE, ||__fpclassify||
    3449              $C$DW$228       .dwtag  DW_TAG_formal_parameter
    3450                      .dwattr $C$DW$228, DW_AT_name("d")
    3451                      .dwattr $C$DW$228, DW_AT_type(*$C$DW$T$128)
    3452                      .dwattr $C$DW$228, DW_AT_location[DW_OP_reg12]
    3453              
    3454              
    3455              ;***************************************************************
    3456              ;* FNAME: __fpclassify                  FR SIZE:   8           *
TMS320C2000 Assembler PC v20.2.1 Mon Nov  2 17:14:28 2020

Copyright (c) 1996-2018 Texas Instruments Incorporated
bts_main.asm                                                         PAGE   68

    3457              ;*                                                             *
    3458              ;* FUNCTION ENVIRONMENT                                        *
    3459              ;*                                                             *
    3460              ;* FUNCTION PROPERTIES                                         *
    3461              ;*                            4 Parameter,  4 Auto,  0 SOE     *
    3462              ;***************************************************************
    3463              
    3464              ||__fpclassify||:
    3465              $C$DW$229       .dwtag  DW_TAG_variable
    3466                      .dwattr $C$DW$229, DW_AT_name("d")
    3467                      .dwattr $C$DW$229, DW_AT_type(*$C$DW$T$17)
    3468                      .dwattr $C$DW$229, DW_AT_location[DW_OP_breg20 -8]
    3469              
    3470              ;* AR5   assigned to $O$C1
    3471              ;* AR4   assigned to d
    3472              $C$DW$230       .dwtag  DW_TAG_variable
    3473                      .dwattr $C$DW$230, DW_AT_name("d")
    3474                      .dwattr $C$DW$230, DW_AT_type(*$C$DW$T$129)
    3475                      .dwattr $C$DW$230, DW_AT_location[DW_OP_reg12]
    3476              
    3477                      .dwcfi  cfa_offset, -2
    3478                      .dwcfi  save_reg_to_mem, 26, 0
    3479 00000000 FE08          ADDB      SP,#8                 ; [CPU_ARAU] 
    3480                      .dwcfi  cfa_offset, -10
    3481 00000001 C4D4          MOVL      XAR6,*+XAR4[2]        ; [CPU_ALU] |413| 
    3482 00000002 06C4          MOVL      ACC,*+XAR4[0]         ; [CPU_ALU] |413| 
    3483 00000003 1E48          MOVL      *-SP[8],ACC           ; [CPU_ALU] |413| 
    3484 00000004 C246          MOVL      *-SP[6],XAR6          ; [CPU_ALU] |413| 
    3485                      .dwpsn  file "C:/ti/ccs1010/ccs/tools/compiler/ti-cgt-c2000_20.2.1.LTS/include/_defs.h",line 414,colu
    3486 00000005 8348          MOVL      XAR5,*-SP[8]          ; [CPU_ALU] |414| 
    3487 00000006 8A46          MOVL      XAR4,*-SP[6]          ; [CPU_ALU] |414| 
    3488                      .dwpsn  file "C:/ti/ccs1010/ccs/tools/compiler/ti-cgt-c2000_20.2.1.LTS/include/_defs.h",line 418,colu
    3489 00000007 28AC          MOV       T,#48                 ; [CPU_ALU] |418| 
         00000008 0030 
    3490 00000009 A0AB          MOVL      P,XAR5                ; [CPU_ALU] |418| 
    3491 0000000a A8A9          MOVL      ACC,XAR4              ; [CPU_ALU] |418| 
    3492 0000000b 565B          LSR64     ACC:P,T               ; [CPU_ALU] |418| 
    3493 0000000c 18AB          AND       PL,#0x7ff0            ; [CPU_ALU] |418| 
         0000000d 7FF0 
    3494 0000000e 80AB          MOVZ      AR7,PL                ; [CPU_ALU] |418| 
    3495 0000000f 7680          MOVL      XAR6,#32752           ; [CPU_ARAU] |418| 
         00000010 7FF0 
    3496 00000011 06A6          MOVL      ACC,XAR6              ; [CPU_ALU] |418| 
    3497 00000012 0FA7          CMPL      ACC,XAR7              ; [CPU_ALU] |418| 
    3498 00000013 6016          B         ||$C$L24||,NEQ        ; [CPU_ALU] |418| 
    3499                      ; branchcc occurs ; [] |418| 
    3500 00000014 0200          MOVB      ACC,#0                ; [CPU_ALU] |418| 
    3501 00000015 1E44          MOVL      *-SP[4],ACC           ; [CPU_ALU] |418| 
    3502 00000016 2B42          MOV       *-SP[2],#0            ; [CPU_ALU] |418| 
    3503 00000017 2B41          MOV       *-SP[1],#0            ; [CPU_ALU] |418| 
    3504 00000018 A348          MOVL      P,*-SP[8]             ; [CPU_ALU] |418| 
    3505 00000019 0646          MOVL      ACC,*-SP[6]           ; [CPU_ALU] |418| 
    3506 0000001a 18AB          AND       PL,#65535             ; [CPU_ALU] |418| 
         0000001b FFFF 
    3507 0000001c 18AA          AND       PH,#65535             ; [CPU_ALU] |418| 
TMS320C2000 Assembler PC v20.2.1 Mon Nov  2 17:14:28 2020

Copyright (c) 1996-2018 Texas Instruments Incorporated
bts_main.asm                                                         PAGE   69

         0000001d FFFF 
    3508 0000001e 18A9          AND       AL,#65535             ; [CPU_ALU] |418| 
         0000001f FFFF 
    3509 00000020 910F          ANDB      AH,#15                ; [CPU_ALU] |418| 
    3510              $C$DW$231       .dwtag  DW_TAG_TI_branch
    3511                      .dwattr $C$DW$231, DW_AT_low_pc(0x00)
    3512                      .dwattr $C$DW$231, DW_AT_name("__c28xabi_cmpull")
    3513                      .dwattr $C$DW$231, DW_AT_TI_call
    3514              
    3515 00000021 7640!         LCR       #||__c28xabi_cmpull|| ; [CPU_ALU] |418| 
         00000022 0000 
    3516                      ; call occurs [#||__c28xabi_cmpull||] ; [] |418| 
    3517 00000023 5200          CMPB      AL,#0                 ; [CPU_ALU] |418| 
    3518 00000024 6103          B         ||$C$L23||,EQ         ; [CPU_ALU] |418| 
    3519                      ; branchcc occurs ; [] |418| 
    3520 00000025 9A02          MOVB      AL,#2                 ; [CPU_ALU] |418| 
    3521 00000026 6F2D          B         ||$C$L27||,UNC        ; [CPU_ALU] |418| 
    3522                      ; branch occurs ; [] |418| 
    3523 00000027       ||$C$L23||:    
    3524 00000027 9A01          MOVB      AL,#1                 ; [CPU_ALU] |418| 
    3525 00000028 6F2B          B         ||$C$L27||,UNC        ; [CPU_ALU] |418| 
    3526                      ; branch occurs ; [] |418| 
    3527 00000029       ||$C$L24||:    
    3528 00000029 BE00          MOVB      XAR6,#0               ; [CPU_ALU] |418| 
    3529 0000002a A0AB          MOVL      P,XAR5                ; [CPU_ALU] |418| 
    3530 0000002b A8A9          MOVL      ACC,XAR4              ; [CPU_ALU] |418| 
    3531 0000002c 28AC          MOV       T,#52                 ; [CPU_ALU] |418| 
         0000002d 0034 
    3532 0000002e C244          MOVL      *-SP[4],XAR6          ; [CPU_ALU] |418| 
    3533 0000002f 2B42          MOV       *-SP[2],#0            ; [CPU_ALU] |418| 
    3534 00000030 565B          LSR64     ACC:P,T               ; [CPU_ALU] |418| 
    3535 00000031 2B41          MOV       *-SP[1],#0            ; [CPU_FPU] |418| 
    3536 00000032 9000          ANDB      AL,#0                 ; [CPU_ALU] |418| 
    3537 00000033 9100          ANDB      AH,#0                 ; [CPU_ALU] |418| 
    3538 00000034 18AB          AND       PL,#2047              ; [CPU_ALU] |418| 
         00000035 07FF 
    3539 00000036 18AA          AND       PH,#0                 ; [CPU_ALU] |418| 
         00000037 0000 
    3540              $C$DW$232       .dwtag  DW_TAG_TI_branch
    3541                      .dwattr $C$DW$232, DW_AT_low_pc(0x00)
    3542                      .dwattr $C$DW$232, DW_AT_name("__c28xabi_cmpull")
    3543                      .dwattr $C$DW$232, DW_AT_TI_call
    3544              
    3545 00000038 7640!         LCR       #||__c28xabi_cmpull|| ; [CPU_ALU] |418| 
         00000039 0000 
    3546                      ; call occurs [#||__c28xabi_cmpull||] ; [] |418| 
    3547 0000003a 5200          CMPB      AL,#0                 ; [CPU_ALU] |418| 
    3548 0000003b 6104          B         ||$C$L25||,EQ         ; [CPU_ALU] |418| 
    3549                      ; branchcc occurs ; [] |418| 
    3550 0000003c 28A9          MOV       AL,#-1                ; [CPU_ALU] |418| 
         0000003d FFFF 
    3551 0000003e 6F15          B         ||$C$L27||,UNC        ; [CPU_ALU] |418| 
    3552                      ; branch occurs ; [] |418| 
    3553 0000003f       ||$C$L25||:    
    3554 0000003f C244          MOVL      *-SP[4],XAR6          ; [CPU_ALU] |418| 
TMS320C2000 Assembler PC v20.2.1 Mon Nov  2 17:14:28 2020

Copyright (c) 1996-2018 Texas Instruments Incorporated
bts_main.asm                                                         PAGE   70

    3555 00000040 A8A9          MOVL      ACC,XAR4              ; [CPU_ALU] |418| 
    3556 00000041 A0AB          MOVL      P,XAR5                ; [CPU_ALU] |418| 
    3557 00000042 2B42          MOV       *-SP[2],#0            ; [CPU_ALU] |418| 
    3558 00000043 18A9          AND       AL,#65535             ; [CPU_ALU] |418| 
         00000044 FFFF 
    3559 00000045 910F          ANDB      AH,#15                ; [CPU_ALU] |418| 
    3560 00000046 18AB          AND       PL,#65535             ; [CPU_ALU] |418| 
         00000047 FFFF 
    3561 00000048 18AA          AND       PH,#65535             ; [CPU_ALU] |418| 
         00000049 FFFF 
    3562 0000004a 2B41          MOV       *-SP[1],#0            ; [CPU_FPU] |418| 
    3563              $C$DW$233       .dwtag  DW_TAG_TI_branch
    3564                      .dwattr $C$DW$233, DW_AT_low_pc(0x00)
    3565                      .dwattr $C$DW$233, DW_AT_name("__c28xabi_cmpull")
    3566                      .dwattr $C$DW$233, DW_AT_TI_call
    3567              
    3568 0000004b 7640!         LCR       #||__c28xabi_cmpull|| ; [CPU_ALU] |418| 
         0000004c 0000 
    3569                      ; call occurs [#||__c28xabi_cmpull||] ; [] |418| 
    3570 0000004d 5200          CMPB      AL,#0                 ; [CPU_ALU] |418| 
    3571 0000004e 6104          B         ||$C$L26||,EQ         ; [CPU_ALU] |418| 
    3572                      ; branchcc occurs ; [] |418| 
    3573 0000004f 28A9          MOV       AL,#-2                ; [CPU_ALU] |418| 
         00000050 FFFE 
    3574 00000051 6F02          B         ||$C$L27||,UNC        ; [CPU_ALU] |418| 
    3575                      ; branch occurs ; [] |418| 
    3576 00000052       ||$C$L26||:    
    3577 00000052 9A00          MOVB      AL,#0                 ; [CPU_ALU] |418| 
    3578 00000053       ||$C$L27||:    
    3579 00000053 FE88          SUBB      SP,#8                 ; [CPU_ARAU] 
    3580                      .dwcfi  cfa_offset, -2
    3581              $C$DW$234       .dwtag  DW_TAG_TI_branch
    3582                      .dwattr $C$DW$234, DW_AT_low_pc(0x00)
    3583                      .dwattr $C$DW$234, DW_AT_TI_return
    3584              
    3585 00000054 0006          LRETR     ; [CPU_ALU] 
    3586                      ; return occurs ; [] 
    3587                      .dwattr $C$DW$227, DW_AT_TI_end_file("C:/ti/ccs1010/ccs/tools/compiler/ti-cgt-c2000_20.2.1.LTS/includ
    3588                      .dwattr $C$DW$227, DW_AT_TI_end_line(0x1ab)
    3589                      .dwattr $C$DW$227, DW_AT_TI_end_column(0x01)
    3590                      .dwendentry
    3591                      .dwendtag $C$DW$227
    3592              
    3593 00000000               .sect   "isrcodefuncs:retain"
    3594                      .retain
    3595                      .retainrefs
    3596                      .global ||ISR2||
    3597              
    3598              $C$DW$235       .dwtag  DW_TAG_subprogram
    3599                      .dwattr $C$DW$235, DW_AT_name("ISR2")
    3600                      .dwattr $C$DW$235, DW_AT_low_pc(||ISR2||)
    3601                      .dwattr $C$DW$235, DW_AT_high_pc(0x00)
    3602                      .dwattr $C$DW$235, DW_AT_linkage_name("ISR2")
    3603                      .dwattr $C$DW$235, DW_AT_external
    3604                      .dwattr $C$DW$235, DW_AT_decl_file("../bts_main.c")
TMS320C2000 Assembler PC v20.2.1 Mon Nov  2 17:14:28 2020

Copyright (c) 1996-2018 Texas Instruments Incorporated
bts_main.asm                                                         PAGE   71

    3605                      .dwattr $C$DW$235, DW_AT_decl_line(0xc0)
    3606                      .dwattr $C$DW$235, DW_AT_decl_column(0x10)
    3607                      .dwattr $C$DW$235, DW_AT_TI_interrupt
    3608                      .dwattr $C$DW$235, DW_AT_TI_max_frame_size(-18)
    3609                      .dwpsn  file "../bts_main.c",line 193,column 1,is_stmt,address ||ISR2||,isa 0
    3610              
    3611                      .dwfde $C$DW$CIE, ||ISR2||
    3612              
    3613              ;***************************************************************
    3614              ;* FNAME: ISR2                          FR SIZE:  16           *
    3615              ;*                                                             *
    3616              ;* FUNCTION ENVIRONMENT                                        *
    3617              ;*                                                             *
    3618              ;* FUNCTION PROPERTIES                                         *
    3619              ;*                            2 Parameter,  0 Auto, 14 SOE     *
    3620              ;***************************************************************
    3621              
    3622 00000000       ||ISR2||:
    3623                      .dwcfi  cfa_offset, -2
    3624                      .dwcfi  save_reg_to_mem, 26, 0
    3625 00000000 761B          ASP       ; [CPU_ALU] 
    3626 00000001 0005          PUSH      AR1H:AR0H             ; [CPU_ALU] 
    3627                      .dwcfi  save_reg_to_mem, 5, 2
    3628                      .dwcfi  save_reg_to_mem, 7, 3
    3629                      .dwcfi  cfa_offset, -4
    3630 00000002 ABBD          MOVL      *SP++,XT              ; [CPU_ALU] 
    3631                      .dwcfi  save_reg_to_mem, 21, 4
    3632                      .dwcfi  save_reg_to_mem, 22, 5
    3633                      .dwcfi  cfa_offset, -6
    3634 00000003 A8BD          MOVL      *SP++,XAR4            ; [CPU_ALU] 
    3635                      .dwcfi  save_reg_to_mem, 12, 6
    3636                      .dwcfi  save_reg_to_mem, 13, 7
    3637                      .dwcfi  cfa_offset, -8
    3638 00000004 A0BD          MOVL      *SP++,XAR5            ; [CPU_ALU] 
    3639                      .dwcfi  save_reg_to_mem, 14, 8
    3640                      .dwcfi  save_reg_to_mem, 15, 9
    3641                      .dwcfi  cfa_offset, -10
    3642 00000005 C2BD          MOVL      *SP++,XAR6            ; [CPU_ALU] 
    3643                      .dwcfi  save_reg_to_mem, 16, 10
    3644                      .dwcfi  save_reg_to_mem, 17, 11
    3645                      .dwcfi  cfa_offset, -12
    3646 00000006 C3BD          MOVL      *SP++,XAR7            ; [CPU_ALU] 
    3647                      .dwcfi  save_reg_to_mem, 18, 12
    3648                      .dwcfi  save_reg_to_mem, 19, 13
    3649                      .dwcfi  cfa_offset, -14
    3650 00000007 FFF0          PUSH      RB                    ; [CPU_FPU] 
    3651                      .dwcfi  save_reg_to_mem, 74, 16
    3652                      .dwcfi  cfa_offset, -16
    3653 00000008 E670          SAVE      RNDF32=1, RNDF64=1    ; [CPU_FPU] 
         00000009 0600 
    3654 0000000a FE02          ADDB      SP,#2                 ; [CPU_ARAU] 
    3655                      .dwcfi  cfa_offset, -18
    3656 0000000b FF69          SPM       0                     ; [CPU_ALU] 
    3657 0000000c 2942          CLRC      PAGE0,OVM             ; [CPU_ALU] 
    3658 0000000d 5616          CLRC      AMODE                 ; [CPU_ALU] 
TMS320C2000 Assembler PC v20.2.1 Mon Nov  2 17:14:28 2020

Copyright (c) 1996-2018 Texas Instruments Incorporated
bts_main.asm                                                         PAGE   72

    3659                      .dwpsn  file "C:/ti/C2000Ware_DigitalPower_SDK_3_00_01_00/c2000ware/driverlib/f28004x/driverlib/gpio.
    3660 0000000e FF2F          MOV       ACC,#1024 << 15       ; [CPU_ALU] |467| 
         0000000f 0400 
    3661 00000010 761F!         MOVW      DP,#||BTS_ADC1||      ; [CPU_ARAU] 
         00000011 0000 
    3662 00000012 8F00          MOVL      XAR4,#32522           ; [CPU_ARAU] |467| 
         00000013 7F0A 
    3663 00000014 1EC4          MOVL      *+XAR4[0],ACC         ; [CPU_ALU] |467| 
    3664                      .dwpsn  file "C:\Users\a0230328\workspace_v10\bts_F2800x_4ch_v2\bts_hal.h",line 129,column 5,is_stmt,
    3665 00000015 F500!         MOV       @$BLOCKED(||BTS_ADC1||),*(0:0x6107) ; [CPU_ALU] |129| 
         00000016 6107 
    3666                      .dwpsn  file "C:\Users\a0230328\workspace_v10\bts_F2800x_4ch_v2\bts_hal.h",line 131,column 5,is_stmt,
    3667 00000017 F5A9          MOV       AL,*(0:0x6107)        ; [CPU_ALU] |131| 
         00000018 6107 
    3668 00000019 0EA9          MOVU      ACC,AL                ; [CPU_ALU] |131| 
    3669 0000001a 1E02!         MOVL      @$BLOCKED(||BTS_ADC1||)+2,ACC ; [CPU_ALU] |131| 
    3670                      .dwpsn  file "C:\Users\a0230328\workspace_v10\bts_F2800x_4ch_v2\bts_hal.h",line 132,column 5,is_stmt,
    3671 0000001b F5A9          MOV       AL,*(0:0x6107)        ; [CPU_ALU] |132| 
         0000001c 6107 
    3672 0000001d 0EA9          MOVU      ACC,AL                ; [CPU_ALU] |132| 
    3673 0000001e 1E04!         MOVL      @$BLOCKED(||BTS_ADC1||)+4,ACC ; [CPU_ALU] |132| 
    3674                      .dwpsn  file "C:\Users\a0230328\workspace_v10\bts_F2800x_4ch_v2\bts_hal.h",line 133,column 5,is_stmt,
    3675 0000001f F5A9          MOV       AL,*(0:0x6107)        ; [CPU_ALU] |133| 
         00000020 6107 
    3676 00000021 0EA9          MOVU      ACC,AL                ; [CPU_ALU] |133| 
    3677 00000022 1E06!         MOVL      @$BLOCKED(||BTS_ADC1||)+6,ACC ; [CPU_ALU] |133| 
    3678                      .dwpsn  file "C:\Users\a0230328\workspace_v10\bts_F2800x_4ch_v2\bts_hal.h",line 134,column 5,is_stmt,
    3679 00000023 F5A9          MOV       AL,*(0:0x6107)        ; [CPU_ALU] |134| 
         00000024 6107 
    3680 00000025 0EA9          MOVU      ACC,AL                ; [CPU_ALU] |134| 
    3681 00000026 1E08!         MOVL      @$BLOCKED(||BTS_ADC1||)+8,ACC ; [CPU_ALU] |134| 
    3682                      .dwpsn  file "C:\Users\a0230328\workspace_v10\bts_F2800x_4ch_v2\bts_hal.h",line 135,column 5,is_stmt,
    3683 00000027 F5A9          MOV       AL,*(0:0x6107)        ; [CPU_ALU] |135| 
         00000028 6107 
    3684 00000029 0EA9          MOVU      ACC,AL                ; [CPU_ALU] |135| 
    3685 0000002a 1E0A!         MOVL      @$BLOCKED(||BTS_ADC1||)+10,ACC ; [CPU_ALU] |135| 
    3686                      .dwpsn  file "C:\Users\a0230328\workspace_v10\bts_F2800x_4ch_v2\bts_hal.h",line 136,column 5,is_stmt,
    3687 0000002b F5A9          MOV       AL,*(0:0x6107)        ; [CPU_ALU] |136| 
         0000002c 6107 
    3688 0000002d 0EA9          MOVU      ACC,AL                ; [CPU_ALU] |136| 
    3689 0000002e 1E0C!         MOVL      @$BLOCKED(||BTS_ADC1||)+12,ACC ; [CPU_ALU] |136| 
    3690                      .dwpsn  file "C:\Users\a0230328\workspace_v10\bts_F2800x_4ch_v2\bts_hal.h",line 137,column 5,is_stmt,
    3691 0000002f F5A9          MOV       AL,*(0:0x6107)        ; [CPU_ALU] |137| 
         00000030 6107 
    3692 00000031 0EA9          MOVU      ACC,AL                ; [CPU_ALU] |137| 
    3693 00000032 1E0E!         MOVL      @$BLOCKED(||BTS_ADC1||)+14,ACC ; [CPU_ALU] |137| 
    3694                      .dwpsn  file "C:\Users\a0230328\workspace_v10\bts_F2800x_4ch_v2\bts_hal.h",line 138,column 5,is_stmt,
    3695 00000033 F5A9          MOV       AL,*(0:0x6107)        ; [CPU_ALU] |138| 
         00000034 6107 
    3696 00000035 88A9          MOVZ      AR6,AL                ; [CPU_ALU] |138| 
    3697                      .dwpsn  file "C:\Users\a0230328\workspace_v10\bts_F2800x_4ch_v2\bts_hal.h",line 166,column 5,is_stmt,
    3698 00000036 8F00          MOVL      XAR4,#24832           ; [CPU_ARAU] |166| 
         00000037 6100 
    3699 00000038 0204          MOVB      ACC,#4                ; [CPU_ALU] |166| 
    3700 00000039 1E42          MOVL      *-SP[2],ACC           ; [CPU_ALU] |166| 
TMS320C2000 Assembler PC v20.2.1 Mon Nov  2 17:14:28 2020

Copyright (c) 1996-2018 Texas Instruments Incorporated
bts_main.asm                                                         PAGE   73

    3701                      .dwpsn  file "C:\Users\a0230328\workspace_v10\bts_F2800x_4ch_v2\bts_hal.h",line 138,column 5,is_stmt,
    3702 0000003a C210!         MOVL      @$BLOCKED(||BTS_ADC1||)+16,XAR6 ; [CPU_ALU] |138| 
    3703                      .dwpsn  file "C:\Users\a0230328\workspace_v10\bts_F2800x_4ch_v2\bts_hal.h",line 166,column 5,is_stmt,
    3704 0000003b A8A9          MOVL      ACC,XAR4              ; [CPU_ALU] |166| 
    3705                      .dwpsn  file "C:\Users\a0230328\workspace_v10\bts_F2800x_4ch_v2\bts_hal.h",line 139,column 5,is_stmt,
    3706 0000003c F501!         MOV       @$BLOCKED(||BTS_ADC1||)+1,*(0:0x6107) ; [CPU_ALU] |139| 
         0000003d 6107 
    3707 0000003e 761F!         MOVW      DP,#||BTS_ExAdcRxflag|| ; [CPU_ARAU] 
         0000003f 0000 
    3708                      .dwpsn  file "C:\Users\a0230328\workspace_v10\bts_F2800x_4ch_v2\bts_hal.h",line 163,column 5,is_stmt,
    3709 00000040 56BF!         MOVB      @||BTS_ExAdcRxflag||,#1,UNC ; [CPU_ALU] |163| 
         00000041 0100 
    3710                      .dwpsn  file "C:\Users\a0230328\workspace_v10\bts_F2800x_4ch_v2\bts_hal.h",line 166,column 5,is_stmt,
    3711              $C$DW$236       .dwtag  DW_TAG_TI_branch
    3712                      .dwattr $C$DW$236, DW_AT_low_pc(0x00)
    3713                      .dwattr $C$DW$236, DW_AT_name("SPI_clearInterruptStatus")
    3714                      .dwattr $C$DW$236, DW_AT_TI_call
    3715              
    3716 00000042 7640!         LCR       #||SPI_clearInterruptStatus|| ; [CPU_ALU] |166| 
         00000043 0000 
    3717                      ; call occurs [#||SPI_clearInterruptStatus||] ; [] |166| 
    3718                      .dwpsn  file "C:\ti\C2000Ware_DigitalPower_SDK_3_00_01_00\c2000ware\driverlib\f28004x\driverlib\inter
    3719 00000044 9A20          MOVB      AL,#32                ; [CPU_ALU] |429| 
    3720 00000045 F4A9          MOV       *(0:0x0ce1),AL        ; [CPU_ALU] |429| 
         00000046 0CE1 
    3721 00000047 FE82          SUBB      SP,#2                 ; [CPU_ARAU] 
    3722                      .dwcfi  cfa_offset, -16
    3723 00000048 E562          RESTORE   ; [CPU_FPU] 
    3724 00000049 FFF1          POP       RB                    ; [CPU_FPU] 
    3725                      .dwcfi  cfa_offset, -14
    3726                      .dwcfi  restore_reg, 74
    3727 0000004a C5BE          MOVL      XAR7,*--SP            ; [CPU_ALU] 
    3728                      .dwcfi  cfa_offset, -12
    3729                      .dwcfi  restore_reg, 18
    3730 0000004b C4BE          MOVL      XAR6,*--SP            ; [CPU_ALU] 
    3731                      .dwcfi  cfa_offset, -10
    3732                      .dwcfi  restore_reg, 16
    3733 0000004c 83BE          MOVL      XAR5,*--SP            ; [CPU_ALU] 
    3734                      .dwcfi  cfa_offset, -8
    3735                      .dwcfi  restore_reg, 14
    3736 0000004d 8ABE          MOVL      XAR4,*--SP            ; [CPU_ALU] 
    3737                      .dwcfi  cfa_offset, -6
    3738                      .dwcfi  restore_reg, 12
    3739 0000004e 87BE          MOVL      XT,*--SP              ; [CPU_ALU] 
    3740                      .dwcfi  cfa_offset, -4
    3741                      .dwcfi  restore_reg, 22
    3742                      .dwcfi  restore_reg, 21
    3743 0000004f 0003          POP       AR1H:AR0H             ; [CPU_ALU] 
    3744                      .dwcfi  cfa_offset, -2
    3745                      .dwcfi  restore_reg, 5
    3746                      .dwcfi  restore_reg, 7
    3747 00000050 7617          NASP      ; [CPU_ALU] 
    3748              $C$DW$237       .dwtag  DW_TAG_TI_branch
    3749                      .dwattr $C$DW$237, DW_AT_low_pc(0x00)
    3750                      .dwattr $C$DW$237, DW_AT_TI_return
TMS320C2000 Assembler PC v20.2.1 Mon Nov  2 17:14:28 2020

Copyright (c) 1996-2018 Texas Instruments Incorporated
bts_main.asm                                                         PAGE   74

    3751              
    3752 00000051 7602          IRET      ; [CPU_ALU] 
    3753                      ; return occurs ; [] 
    3754                      .dwattr $C$DW$235, DW_AT_TI_end_file("../bts_main.c")
    3755                      .dwattr $C$DW$235, DW_AT_TI_end_line(0xc4)
    3756                      .dwattr $C$DW$235, DW_AT_TI_end_column(0x01)
    3757                      .dwendentry
    3758                      .dwendtag $C$DW$235
    3759              
    3760 00000052               .sect   "isrcodefuncs:retain"
    3761                      .retain
    3762                      .retainrefs
    3763                      .global ||ISR1||
    3764              
    3765              $C$DW$238       .dwtag  DW_TAG_subprogram
    3766                      .dwattr $C$DW$238, DW_AT_name("ISR1")
    3767                      .dwattr $C$DW$238, DW_AT_low_pc(||ISR1||)
    3768                      .dwattr $C$DW$238, DW_AT_high_pc(0x00)
    3769                      .dwattr $C$DW$238, DW_AT_linkage_name("ISR1")
    3770                      .dwattr $C$DW$238, DW_AT_external
    3771                      .dwattr $C$DW$238, DW_AT_decl_file("../bts_main.c")
    3772                      .dwattr $C$DW$238, DW_AT_decl_line(0xb1)
    3773                      .dwattr $C$DW$238, DW_AT_decl_column(0x10)
    3774                      .dwattr $C$DW$238, DW_AT_TI_interrupt
    3775                      .dwattr $C$DW$238, DW_AT_TI_max_frame_size(-24)
    3776                      .dwpsn  file "../bts_main.c",line 178,column 1,is_stmt,address ||ISR1||,isa 0
    3777              
    3778                      .dwfde $C$DW$CIE, ||ISR1||
    3779              
    3780              ;***************************************************************
    3781              ;* FNAME: ISR1                          FR SIZE:  22           *
    3782              ;*                                                             *
    3783              ;* FUNCTION ENVIRONMENT                                        *
    3784              ;*                                                             *
    3785              ;* FUNCTION PROPERTIES                                         *
    3786              ;*                            2 Parameter,  6 Auto, 14 SOE     *
    3787              ;***************************************************************
    3788              
    3789              ||ISR1||:
    3790              ;* AL    assigned to $O$C18
    3791              ;* AL    assigned to $O$C19
    3792              ;* AL    assigned to $O$C20
    3793              ;* AR6   assigned to $O$C21
    3794              ;* R2    assigned to $O$C22
    3795              ;* AR4   assigned to $O$C23
    3796              ;* AR4   assigned to $O$C24
    3797              ;* AL    assigned to $O$C26
    3798              ;* AL    assigned to $O$C27
    3799              ;* AL    assigned to $O$C28
    3800              ;* AR6   assigned to $O$C29
    3801              ;* R2    assigned to $O$C30
    3802              ;* AR4   assigned to $O$C31
    3803              ;* AR4   assigned to $O$C32
    3804              ;* AL    assigned to $O$C34
    3805              ;* AL    assigned to $O$C35
TMS320C2000 Assembler PC v20.2.1 Mon Nov  2 17:14:28 2020

Copyright (c) 1996-2018 Texas Instruments Incorporated
bts_main.asm                                                         PAGE   75

    3806              ;* AL    assigned to $O$C36
    3807              ;* AR6   assigned to $O$C37
    3808              ;* R2    assigned to $O$C38
    3809              ;* AR4   assigned to $O$C39
    3810              ;* AR4   assigned to $O$C40
    3811              ;* AL    assigned to $O$C42
    3812              ;* AL    assigned to $O$C43
    3813              ;* AL    assigned to $O$C44
    3814              ;* AR6   assigned to $O$C45
    3815              ;* R2    assigned to $O$C46
    3816              ;* AR4   assigned to $O$C47
    3817              ;* AR4   assigned to $O$C48
    3818              ;* AL    assigned to compHR
    3819              $C$DW$239       .dwtag  DW_TAG_variable
    3820                      .dwattr $C$DW$239, DW_AT_name("compHR")
    3821                      .dwattr $C$DW$239, DW_AT_type(*$C$DW$T$20)
    3822                      .dwattr $C$DW$239, DW_AT_location[DW_OP_reg0]
    3823              
    3824              ;* AL    assigned to compHR
    3825              $C$DW$240       .dwtag  DW_TAG_variable
    3826                      .dwattr $C$DW$240, DW_AT_name("compHR")
    3827                      .dwattr $C$DW$240, DW_AT_type(*$C$DW$T$20)
    3828                      .dwattr $C$DW$240, DW_AT_location[DW_OP_reg0]
    3829              
    3830              ;* AL    assigned to compHR
    3831              $C$DW$241       .dwtag  DW_TAG_variable
    3832                      .dwattr $C$DW$241, DW_AT_name("compHR")
    3833                      .dwattr $C$DW$241, DW_AT_type(*$C$DW$T$20)
    3834                      .dwattr $C$DW$241, DW_AT_location[DW_OP_reg0]
    3835              
    3836              ;* AL    assigned to compHR
    3837              $C$DW$242       .dwtag  DW_TAG_variable
    3838                      .dwattr $C$DW$242, DW_AT_name("compHR")
    3839                      .dwattr $C$DW$242, DW_AT_type(*$C$DW$T$20)
    3840                      .dwattr $C$DW$242, DW_AT_location[DW_OP_reg0]
    3841              
    3842              ;* AL    assigned to compHR
    3843              $C$DW$243       .dwtag  DW_TAG_variable
    3844                      .dwattr $C$DW$243, DW_AT_name("compHR")
    3845                      .dwattr $C$DW$243, DW_AT_type(*$C$DW$T$20)
    3846                      .dwattr $C$DW$243, DW_AT_location[DW_OP_reg0]
    3847              
    3848              ;* AL    assigned to compHR
    3849              $C$DW$244       .dwtag  DW_TAG_variable
    3850                      .dwattr $C$DW$244, DW_AT_name("compHR")
    3851                      .dwattr $C$DW$244, DW_AT_type(*$C$DW$T$20)
    3852                      .dwattr $C$DW$244, DW_AT_location[DW_OP_reg0]
    3853              
    3854              ;* AL    assigned to compHR
    3855              $C$DW$245       .dwtag  DW_TAG_variable
    3856                      .dwattr $C$DW$245, DW_AT_name("compHR")
    3857                      .dwattr $C$DW$245, DW_AT_type(*$C$DW$T$20)
    3858                      .dwattr $C$DW$245, DW_AT_location[DW_OP_reg0]
    3859              
    3860              ;* AL    assigned to compHR
TMS320C2000 Assembler PC v20.2.1 Mon Nov  2 17:14:28 2020

Copyright (c) 1996-2018 Texas Instruments Incorporated
bts_main.asm                                                         PAGE   76

    3861              $C$DW$246       .dwtag  DW_TAG_variable
    3862                      .dwattr $C$DW$246, DW_AT_name("compHR")
    3863                      .dwattr $C$DW$246, DW_AT_type(*$C$DW$T$20)
    3864                      .dwattr $C$DW$246, DW_AT_location[DW_OP_reg0]
    3865              
    3866              ;* AL    assigned to compHR
    3867              $C$DW$247       .dwtag  DW_TAG_variable
    3868                      .dwattr $C$DW$247, DW_AT_name("compHR")
    3869                      .dwattr $C$DW$247, DW_AT_type(*$C$DW$T$20)
    3870                      .dwattr $C$DW$247, DW_AT_location[DW_OP_reg0]
    3871              
    3872              ;* AL    assigned to compHR
    3873              $C$DW$248       .dwtag  DW_TAG_variable
    3874                      .dwattr $C$DW$248, DW_AT_name("compHR")
    3875                      .dwattr $C$DW$248, DW_AT_type(*$C$DW$T$20)
    3876                      .dwattr $C$DW$248, DW_AT_location[DW_OP_reg0]
    3877              
    3878              ;* AL    assigned to compHR
    3879              $C$DW$249       .dwtag  DW_TAG_variable
    3880                      .dwattr $C$DW$249, DW_AT_name("compHR")
    3881                      .dwattr $C$DW$249, DW_AT_type(*$C$DW$T$20)
    3882                      .dwattr $C$DW$249, DW_AT_location[DW_OP_reg0]
    3883              
    3884              ;* AL    assigned to compHR
    3885              $C$DW$250       .dwtag  DW_TAG_variable
    3886                      .dwattr $C$DW$250, DW_AT_name("compHR")
    3887                      .dwattr $C$DW$250, DW_AT_type(*$C$DW$T$20)
    3888                      .dwattr $C$DW$250, DW_AT_location[DW_OP_reg0]
    3889              
    3890              ;* AR4   assigned to $O$K19
    3891              ;* PL    assigned to $O$U21
    3892              ;* AR4   assigned to $O$K203
    3893              ;* PL    assigned to $O$U205
    3894              ;* AR4   assigned to $O$K346
    3895              ;* PL    assigned to $O$U348
    3896              ;* AR4   assigned to $O$K491
    3897              ;* PL    assigned to $O$U493
    3898              ;* R1    assigned to $O$v52
    3899              ;* R2    assigned to $O$v51
    3900              ;* R5    assigned to $O$v50
    3901              ;* R1    assigned to $O$v49
    3902              ;* R2    assigned to $O$v48
    3903              ;* R5    assigned to $O$v47
    3904              ;* R1    assigned to $O$v46
    3905              ;* R2    assigned to $O$v45
    3906              ;* R5    assigned to $O$v44
    3907              ;* R1    assigned to $O$v43
    3908              ;* R2    assigned to $O$v42
    3909              ;* R5    assigned to $O$v41
    3910              ;* R0    assigned to $O$v38
    3911              ;* R0    assigned to $O$v37
    3912              ;* R1    assigned to $O$v36
    3913              ;* R0    assigned to $O$v35
    3914              ;* R3    assigned to $O$v33
    3915              ;* R7    assigned to $O$v31
TMS320C2000 Assembler PC v20.2.1 Mon Nov  2 17:14:28 2020

Copyright (c) 1996-2018 Texas Instruments Incorporated
bts_main.asm                                                         PAGE   77

    3916              ;* R0    assigned to $O$v28
    3917              ;* R0    assigned to $O$v27
    3918              ;* R1    assigned to $O$v26
    3919              ;* R0    assigned to $O$v25
    3920              ;* R3    assigned to $O$v23
    3921              ;* R7    assigned to $O$v21
    3922              ;* R0    assigned to $O$v18
    3923              ;* R0    assigned to $O$v17
    3924              ;* R1    assigned to $O$v16
    3925              ;* R0    assigned to $O$v15
    3926              ;* R3    assigned to $O$v13
    3927              ;* R7    assigned to $O$v11
    3928              ;* R0    assigned to $O$v8
    3929              ;* R0    assigned to $O$v7
    3930              ;* R1    assigned to $O$v6
    3931              ;* R0    assigned to $O$v5
    3932              ;* R3    assigned to $O$v3
    3933              ;* R7    assigned to $O$v1
    3934              ;* R4    assigned to $O$R1
    3935              ;* R2    assigned to $O$R3
    3936              ;* R4    assigned to $O$R5
    3937              ;* R2    assigned to $O$R7
    3938              ;* R4    assigned to $O$R9
    3939              ;* R2    assigned to $O$R11
    3940              ;* R4    assigned to $O$R13
    3941              ;* R2    assigned to $O$R15
    3942              ;* AR7   assigned to current_16b
    3943              $C$DW$251       .dwtag  DW_TAG_variable
    3944                      .dwattr $C$DW$251, DW_AT_name("current_16b")
    3945                      .dwattr $C$DW$251, DW_AT_type(*$C$DW$T$30)
    3946                      .dwattr $C$DW$251, DW_AT_location[DW_OP_reg18]
    3947              
    3948              ;* AR6   assigned to voltage_16b
    3949              $C$DW$252       .dwtag  DW_TAG_variable
    3950                      .dwattr $C$DW$252, DW_AT_name("voltage_16b")
    3951                      .dwattr $C$DW$252, DW_AT_type(*$C$DW$T$30)
    3952                      .dwattr $C$DW$252, DW_AT_location[DW_OP_reg16]
    3953              
    3954              ;* AR6   assigned to current_16b
    3955              $C$DW$253       .dwtag  DW_TAG_variable
    3956                      .dwattr $C$DW$253, DW_AT_name("current_16b")
    3957                      .dwattr $C$DW$253, DW_AT_type(*$C$DW$T$30)
    3958                      .dwattr $C$DW$253, DW_AT_location[DW_OP_reg16]
    3959              
    3960              ;* AR7   assigned to voltage_16b
    3961              $C$DW$254       .dwtag  DW_TAG_variable
    3962                      .dwattr $C$DW$254, DW_AT_name("voltage_16b")
    3963                      .dwattr $C$DW$254, DW_AT_type(*$C$DW$T$30)
    3964                      .dwattr $C$DW$254, DW_AT_location[DW_OP_reg18]
    3965              
    3966              ;* AL    assigned to $O$S2
    3967              ;* R1    assigned to Umax
    3968              $C$DW$255       .dwtag  DW_TAG_variable
    3969                      .dwattr $C$DW$255, DW_AT_name("Umax")
    3970                      .dwattr $C$DW$255, DW_AT_type(*$C$DW$T$26)
TMS320C2000 Assembler PC v20.2.1 Mon Nov  2 17:14:28 2020

Copyright (c) 1996-2018 Texas Instruments Incorporated
bts_main.asm                                                         PAGE   78

    3971                      .dwattr $C$DW$255, DW_AT_location[DW_OP_regx 0x2f]
    3972              
    3973              $C$DW$256       .dwtag  DW_TAG_variable
    3974                      .dwattr $C$DW$256, DW_AT_name("Umin")
    3975                      .dwattr $C$DW$256, DW_AT_type(*$C$DW$T$26)
    3976                      .dwattr $C$DW$256, DW_AT_location[DW_OP_breg20 -8]
    3977              
    3978              ;* AL    assigned to $O$S2
    3979              ;* AR6   assigned to current_16b
    3980              $C$DW$257       .dwtag  DW_TAG_variable
    3981                      .dwattr $C$DW$257, DW_AT_name("current_16b")
    3982                      .dwattr $C$DW$257, DW_AT_type(*$C$DW$T$30)
    3983                      .dwattr $C$DW$257, DW_AT_location[DW_OP_reg16]
    3984              
    3985              ;* AR7   assigned to current_16b
    3986              $C$DW$258       .dwtag  DW_TAG_variable
    3987                      .dwattr $C$DW$258, DW_AT_name("current_16b")
    3988                      .dwattr $C$DW$258, DW_AT_type(*$C$DW$T$30)
    3989                      .dwattr $C$DW$258, DW_AT_location[DW_OP_reg18]
    3990              
    3991              ;* AR6   assigned to voltage_16b
    3992              $C$DW$259       .dwtag  DW_TAG_variable
    3993                      .dwattr $C$DW$259, DW_AT_name("voltage_16b")
    3994                      .dwattr $C$DW$259, DW_AT_type(*$C$DW$T$30)
    3995                      .dwattr $C$DW$259, DW_AT_location[DW_OP_reg16]
    3996              
    3997              ;* AR6   assigned to current_16b
    3998              $C$DW$260       .dwtag  DW_TAG_variable
    3999                      .dwattr $C$DW$260, DW_AT_name("current_16b")
    4000                      .dwattr $C$DW$260, DW_AT_type(*$C$DW$T$30)
    4001                      .dwattr $C$DW$260, DW_AT_location[DW_OP_reg16]
    4002              
    4003              ;* AR7   assigned to voltage_16b
    4004              $C$DW$261       .dwtag  DW_TAG_variable
    4005                      .dwattr $C$DW$261, DW_AT_name("voltage_16b")
    4006                      .dwattr $C$DW$261, DW_AT_type(*$C$DW$T$30)
    4007                      .dwattr $C$DW$261, DW_AT_location[DW_OP_reg18]
    4008              
    4009              ;* AL    assigned to $O$S2
    4010              ;* R1    assigned to Umax
    4011              $C$DW$262       .dwtag  DW_TAG_variable
    4012                      .dwattr $C$DW$262, DW_AT_name("Umax")
    4013                      .dwattr $C$DW$262, DW_AT_type(*$C$DW$T$26)
    4014                      .dwattr $C$DW$262, DW_AT_location[DW_OP_regx 0x2f]
    4015              
    4016              $C$DW$263       .dwtag  DW_TAG_variable
    4017                      .dwattr $C$DW$263, DW_AT_name("Umin")
    4018                      .dwattr $C$DW$263, DW_AT_type(*$C$DW$T$26)
    4019                      .dwattr $C$DW$263, DW_AT_location[DW_OP_breg20 -8]
    4020              
    4021              ;* AL    assigned to $O$S2
    4022              ;* AR6   assigned to current_16b
    4023              $C$DW$264       .dwtag  DW_TAG_variable
    4024                      .dwattr $C$DW$264, DW_AT_name("current_16b")
    4025                      .dwattr $C$DW$264, DW_AT_type(*$C$DW$T$30)
TMS320C2000 Assembler PC v20.2.1 Mon Nov  2 17:14:28 2020

Copyright (c) 1996-2018 Texas Instruments Incorporated
bts_main.asm                                                         PAGE   79

    4026                      .dwattr $C$DW$264, DW_AT_location[DW_OP_reg16]
    4027              
    4028              ;* AR7   assigned to current_16b
    4029              $C$DW$265       .dwtag  DW_TAG_variable
    4030                      .dwattr $C$DW$265, DW_AT_name("current_16b")
    4031                      .dwattr $C$DW$265, DW_AT_type(*$C$DW$T$30)
    4032                      .dwattr $C$DW$265, DW_AT_location[DW_OP_reg18]
    4033              
    4034              ;* AR6   assigned to voltage_16b
    4035              $C$DW$266       .dwtag  DW_TAG_variable
    4036                      .dwattr $C$DW$266, DW_AT_name("voltage_16b")
    4037                      .dwattr $C$DW$266, DW_AT_type(*$C$DW$T$30)
    4038                      .dwattr $C$DW$266, DW_AT_location[DW_OP_reg16]
    4039              
    4040              ;* AR6   assigned to current_16b
    4041              $C$DW$267       .dwtag  DW_TAG_variable
    4042                      .dwattr $C$DW$267, DW_AT_name("current_16b")
    4043                      .dwattr $C$DW$267, DW_AT_type(*$C$DW$T$30)
    4044                      .dwattr $C$DW$267, DW_AT_location[DW_OP_reg16]
    4045              
    4046              ;* AR7   assigned to voltage_16b
    4047              $C$DW$268       .dwtag  DW_TAG_variable
    4048                      .dwattr $C$DW$268, DW_AT_name("voltage_16b")
    4049                      .dwattr $C$DW$268, DW_AT_type(*$C$DW$T$30)
    4050                      .dwattr $C$DW$268, DW_AT_location[DW_OP_reg18]
    4051              
    4052              ;* AL    assigned to $O$S2
    4053              ;* R1    assigned to Umax
    4054              $C$DW$269       .dwtag  DW_TAG_variable
    4055                      .dwattr $C$DW$269, DW_AT_name("Umax")
    4056                      .dwattr $C$DW$269, DW_AT_type(*$C$DW$T$26)
    4057                      .dwattr $C$DW$269, DW_AT_location[DW_OP_regx 0x2f]
    4058              
    4059              $C$DW$270       .dwtag  DW_TAG_variable
    4060                      .dwattr $C$DW$270, DW_AT_name("Umin")
    4061                      .dwattr $C$DW$270, DW_AT_type(*$C$DW$T$26)
    4062                      .dwattr $C$DW$270, DW_AT_location[DW_OP_breg20 -8]
    4063              
    4064              ;* AL    assigned to $O$S2
    4065              ;* AR6   assigned to current_16b
    4066              $C$DW$271       .dwtag  DW_TAG_variable
    4067                      .dwattr $C$DW$271, DW_AT_name("current_16b")
    4068                      .dwattr $C$DW$271, DW_AT_type(*$C$DW$T$30)
    4069                      .dwattr $C$DW$271, DW_AT_location[DW_OP_reg16]
    4070              
    4071              ;* AR7   assigned to current_16b
    4072              $C$DW$272       .dwtag  DW_TAG_variable
    4073                      .dwattr $C$DW$272, DW_AT_name("current_16b")
    4074                      .dwattr $C$DW$272, DW_AT_type(*$C$DW$T$30)
    4075                      .dwattr $C$DW$272, DW_AT_location[DW_OP_reg18]
    4076              
    4077              ;* AR6   assigned to voltage_16b
    4078              $C$DW$273       .dwtag  DW_TAG_variable
    4079                      .dwattr $C$DW$273, DW_AT_name("voltage_16b")
    4080                      .dwattr $C$DW$273, DW_AT_type(*$C$DW$T$30)
TMS320C2000 Assembler PC v20.2.1 Mon Nov  2 17:14:28 2020

Copyright (c) 1996-2018 Texas Instruments Incorporated
bts_main.asm                                                         PAGE   80

    4081                      .dwattr $C$DW$273, DW_AT_location[DW_OP_reg16]
    4082              
    4083              ;* AR6   assigned to current_16b
    4084              $C$DW$274       .dwtag  DW_TAG_variable
    4085                      .dwattr $C$DW$274, DW_AT_name("current_16b")
    4086                      .dwattr $C$DW$274, DW_AT_type(*$C$DW$T$30)
    4087                      .dwattr $C$DW$274, DW_AT_location[DW_OP_reg16]
    4088              
    4089              ;* AR7   assigned to voltage_16b
    4090              $C$DW$275       .dwtag  DW_TAG_variable
    4091                      .dwattr $C$DW$275, DW_AT_name("voltage_16b")
    4092                      .dwattr $C$DW$275, DW_AT_type(*$C$DW$T$30)
    4093                      .dwattr $C$DW$275, DW_AT_location[DW_OP_reg18]
    4094              
    4095              ;* AL    assigned to $O$S2
    4096              ;* R1    assigned to Umax
    4097              $C$DW$276       .dwtag  DW_TAG_variable
    4098                      .dwattr $C$DW$276, DW_AT_name("Umax")
    4099                      .dwattr $C$DW$276, DW_AT_type(*$C$DW$T$26)
    4100                      .dwattr $C$DW$276, DW_AT_location[DW_OP_regx 0x2f]
    4101              
    4102              $C$DW$277       .dwtag  DW_TAG_variable
    4103                      .dwattr $C$DW$277, DW_AT_name("Umin")
    4104                      .dwattr $C$DW$277, DW_AT_type(*$C$DW$T$26)
    4105                      .dwattr $C$DW$277, DW_AT_location[DW_OP_breg20 -8]
    4106              
    4107              ;* AL    assigned to $O$S2
    4108              ;* AR6   assigned to current_16b
    4109              $C$DW$278       .dwtag  DW_TAG_variable
    4110                      .dwattr $C$DW$278, DW_AT_name("current_16b")
    4111                      .dwattr $C$DW$278, DW_AT_type(*$C$DW$T$30)
    4112                      .dwattr $C$DW$278, DW_AT_location[DW_OP_reg16]
    4113              
    4114                      .dwcfi  cfa_offset, -2
    4115                      .dwcfi  save_reg_to_mem, 26, 0
    4116 00000052 761B          ASP       ; [CPU_ALU] 
    4117 00000053 0005          PUSH      AR1H:AR0H             ; [CPU_ALU] 
    4118                      .dwcfi  save_reg_to_mem, 5, 2
    4119                      .dwcfi  save_reg_to_mem, 7, 3
    4120                      .dwcfi  cfa_offset, -4
    4121 00000054 ABBD          MOVL      *SP++,XT              ; [CPU_ALU] 
    4122                      .dwcfi  save_reg_to_mem, 21, 4
    4123                      .dwcfi  save_reg_to_mem, 22, 5
    4124                      .dwcfi  cfa_offset, -6
    4125 00000055 A8BD          MOVL      *SP++,XAR4            ; [CPU_ALU] 
    4126                      .dwcfi  save_reg_to_mem, 12, 6
    4127                      .dwcfi  save_reg_to_mem, 13, 7
    4128                      .dwcfi  cfa_offset, -8
    4129 00000056 A0BD          MOVL      *SP++,XAR5            ; [CPU_ALU] 
    4130                      .dwcfi  save_reg_to_mem, 14, 8
    4131                      .dwcfi  save_reg_to_mem, 15, 9
    4132                      .dwcfi  cfa_offset, -10
    4133 00000057 C2BD          MOVL      *SP++,XAR6            ; [CPU_ALU] 
    4134                      .dwcfi  save_reg_to_mem, 16, 10
    4135                      .dwcfi  save_reg_to_mem, 17, 11
TMS320C2000 Assembler PC v20.2.1 Mon Nov  2 17:14:28 2020

Copyright (c) 1996-2018 Texas Instruments Incorporated
bts_main.asm                                                         PAGE   81

    4136                      .dwcfi  cfa_offset, -12
    4137 00000058 C3BD          MOVL      *SP++,XAR7            ; [CPU_ALU] 
    4138                      .dwcfi  save_reg_to_mem, 18, 12
    4139                      .dwcfi  save_reg_to_mem, 19, 13
    4140                      .dwcfi  cfa_offset, -14
    4141 00000059 FFF0          PUSH      RB                    ; [CPU_FPU] 
    4142                      .dwcfi  save_reg_to_mem, 74, 16
    4143                      .dwcfi  cfa_offset, -16
    4144 0000005a E670          SAVE      RNDF32=1, RNDF64=1    ; [CPU_FPU] 
         0000005b 0600 
    4145 0000005c FE08          ADDB      SP,#8                 ; [CPU_ARAU] 
    4146                      .dwcfi  cfa_offset, -24
    4147 0000005d 2942          CLRC      PAGE0,OVM             ; [CPU_ALU] 
    4148 0000005e 5616          CLRC      AMODE                 ; [CPU_ALU] 
    4149 0000005f 761F!         MOVW      DP,#||BTS_ExAdcRxflag|| ; [CPU_ARAU] 
         00000060 0000 
    4150                      .dwpsn  file "C:\Users\a0230328\workspace_v10\bts_F2800x_4ch_v2\bts_hal.h",line 147,column 5,is_stmt,
    4151 00000061 9200!         MOV       AL,@||BTS_ExAdcRxflag|| ; [CPU_ALU] |147| 
    4152 00000062 5201          CMPB      AL,#1                 ; [CPU_ALU] |147| 
    4153 00000063 601F          B         ||$C$L28||,NEQ        ; [CPU_ALU] |147| 
    4154                      ; branchcc occurs ; [] |147| 
    4155                      .dwpsn  file "C:/ti/C2000Ware_DigitalPower_SDK_3_00_01_00/c2000ware/driverlib/f28004x/driverlib/gpio.
    4156 00000064 FF2F          MOV       ACC,#1024 << 15       ; [CPU_ALU] |463| 
         00000065 0400 
    4157                      .dwpsn  file "C:\Users\a0230328\workspace_v10\bts_F2800x_4ch_v2\bts_hal.h",line 149,column 9,is_stmt,
    4158 00000066 2B00!         MOV       @||BTS_ExAdcRxflag||,#0 ; [CPU_ALU] |149| 
    4159                      .dwpsn  file "C:/ti/C2000Ware_DigitalPower_SDK_3_00_01_00/c2000ware/driverlib/f28004x/driverlib/gpio.
    4160 00000067 8F00          MOVL      XAR4,#32524           ; [CPU_ARAU] |463| 
         00000068 7F0C 
    4161                      .dwpsn  file "C:\Users\a0230328\workspace_v10\bts_F2800x_4ch_v2\bts_hal.h",line 112,column 5,is_stmt,
    4162 00000069 B600          MOVB      XAR7,#0               ; [CPU_ALU] |112| 
    4163                      .dwpsn  file "C:\Users\a0230328\workspace_v10\bts_F2800x_4ch_v2\bts_hal.h",line 115,column 5,is_stmt,
    4164 0000006a BE00          MOVB      XAR6,#0               ; [CPU_ALU] |115| 
    4165                      .dwpsn  file "C:/ti/C2000Ware_DigitalPower_SDK_3_00_01_00/c2000ware/driverlib/f28004x/driverlib/gpio.
    4166 0000006b 1EC4          MOVL      *+XAR4[0],ACC         ; [CPU_ALU] |463| 
    4167                      .dwpsn  file "C:\Users\a0230328\workspace_v10\bts_F2800x_4ch_v2\bts_hal.h",line 119,column 8,is_stmt,
    4168 0000006c 9A00          MOVB      AL,#0                 ; [CPU_ALU] |119| 
    4169                      .dwpsn  file "C:\Users\a0230328\workspace_v10\bts_F2800x_4ch_v2\bts_hal.h",line 112,column 5,is_stmt,
    4170 0000006d F4A7          MOV       *(0:0x6108),AR7       ; [CPU_ALU] |112| 
         0000006e 6108 
    4171                      .dwpsn  file "C:\Users\a0230328\workspace_v10\bts_F2800x_4ch_v2\bts_hal.h",line 119,column 8,is_stmt,
    4172 0000006f 9B00          MOVB      AH,#0                 ; [CPU_ALU] |119| 
    4173                      .dwpsn  file "C:\Users\a0230328\workspace_v10\bts_F2800x_4ch_v2\bts_hal.h",line 115,column 5,is_stmt,
    4174 00000070 F4A6          MOV       *(0:0x6108),AR6       ; [CPU_ALU] |115| 
         00000071 6108 
    4175                      .dwpsn  file "C:\Users\a0230328\workspace_v10\bts_F2800x_4ch_v2\bts_hal.h",line 119,column 8,is_stmt,
    4176 00000072 F4A9          MOV       *(0:0x6108),AL        ; [CPU_ALU] |119| 
         00000073 6108 
    4177 00000074 F4A6          MOV       *(0:0x6108),AR6       ; [CPU_ALU] |119| 
         00000075 6108 
    4178 00000076 F4A8          MOV       *(0:0x6108),AH        ; [CPU_ALU] |119| 
         00000077 6108 
    4179 00000078 F4A9          MOV       *(0:0x6108),AL        ; [CPU_ALU] |119| 
         00000079 6108 
    4180 0000007a F4A7          MOV       *(0:0x6108),AR7       ; [CPU_ALU] |119| 
TMS320C2000 Assembler PC v20.2.1 Mon Nov  2 17:14:28 2020

Copyright (c) 1996-2018 Texas Instruments Incorporated
bts_main.asm                                                         PAGE   82

         0000007b 6108 
    4181 0000007c F4A6          MOV       *(0:0x6108),AR6       ; [CPU_ALU] |119| 
         0000007d 6108 
    4182 0000007e F4A8          MOV       *(0:0x6108),AH        ; [CPU_ALU] |119| 
         0000007f 6108 
    4183 00000080 F4A9          MOV       *(0:0x6108),AL        ; [CPU_ALU] |119| 
         00000081 6108 
    4184 00000082       ||$C$L28||:    
    4185 00000082 761F!         MOVW      DP,#||BTS_ADC1||+2    ; [CPU_ARAU] 
         00000083 0000 
    4186                      .dwpsn  file "C:/Users/a0230328/workspace_v10/bts_F2800x_4ch_v2/bts.h",line 349,column 5,is_stmt,isa 
    4187 00000084 D048          MOVB      XAR0,#72              ; [CPU_ALU] |349| 
    4188 00000085 8F00!         MOVL      XAR4,#||BTS_measValues_ch1|| ; [CPU_ARAU] |349| 
         00000086 0000 
    4189                      .dwpsn  file "C:/Users/a0230328/workspace_v10/bts_F2800x_4ch_v2/bts.h",line 348,column 105,is_stmt,is
    4190 00000087 C502!         MOVL      XAR7,@$BLOCKED(||BTS_ADC1||)+2 ; [CPU_ALU] |348| 
    4191                      .dwpsn  file "C:/Users/a0230328/workspace_v10/bts_F2800x_4ch_v2/bts.h",line 349,column 5,is_stmt,isa 
    4192 00000088 2794          MOV       PL,*+XAR4[AR0]        ; [CPU_ALU] |349| 
    4193                      .dwpsn  file "C:/Users/a0230328/workspace_v10/bts_F2800x_4ch_v2/bts.h",line 348,column 105,is_stmt,is
    4194 00000089 92AB          MOV       AL,PL                 ; [CPU_ALU] |348| 
    4195 0000008a C404!         MOVL      XAR6,@$BLOCKED(||BTS_ADC1||)+4 ; [CPU_ALU] |348| 
    4196                      .dwpsn  file "C:/Users/a0230328/workspace_v10/bts_F2800x_4ch_v2/bts.h",line 349,column 5,is_stmt,isa 
    4197 0000008b 5220          CMPB      AL,#32                ; [CPU_ALU] |349| 
    4198 0000008c 6804          B         ||$C$L29||,LO         ; [CPU_ALU] |349| 
    4199                      ; branchcc occurs ; [] |349| 
    4200                      .dwpsn  file "C:/Users/a0230328/workspace_v10/bts_F2800x_4ch_v2/bts.h",line 355,column 9,is_stmt,isa 
    4201 0000008d D048          MOVB      XAR0,#72              ; [CPU_ALU] |355| 
    4202 0000008e 2B94          MOV       *+XAR4[AR0],#0        ; [CPU_ALU] |355| 
    4203 0000008f 6F0D          B         ||$C$L30||,UNC        ; [CPU_ALU] |355| 
    4204                      ; branch occurs ; [] |355| 
    4205 00000090       ||$C$L29||:    
    4206                      .dwpsn  file "C:/Users/a0230328/workspace_v10/bts_F2800x_4ch_v2/bts.h",line 350,column 9,is_stmt,isa 
    4207 00000090 A8A9          MOVL      ACC,XAR4              ; [CPU_ALU] |350| 
    4208 00000091 0DAB          ADDU      ACC,PL                ; [CPU_ALU] |350| 
    4209 00000092 83A9          MOVL      XAR5,ACC              ; [CPU_ALU] |350| 
    4210 00000093 761F!         MOVW      DP,#||BTS_measValues_ch1||+72 ; [CPU_ARAU] 
         00000094 0001 
    4211                      .dwpsn  file "C:/Users/a0230328/workspace_v10/bts_F2800x_4ch_v2/bts.h",line 351,column 9,is_stmt,isa 
    4212 00000095 A8A9          MOVL      ACC,XAR4              ; [CPU_ALU] |351| 
    4213                      .dwpsn  file "C:/Users/a0230328/workspace_v10/bts_F2800x_4ch_v2/bts.h",line 350,column 9,is_stmt,isa 
    4214 00000096 7FE5          MOV       *+XAR5[4],AR7         ; [CPU_ALU] |350| 
    4215                      .dwpsn  file "C:/Users/a0230328/workspace_v10/bts_F2800x_4ch_v2/bts.h",line 351,column 9,is_stmt,isa 
    4216 00000097 0D08!         ADDU      ACC,@$BLOCKED(||BTS_measValues_ch1||)+72 ; [CPU_ALU] |351| 
    4217 00000098 8AA9          MOVL      XAR4,ACC              ; [CPU_ALU] |351| 
    4218 00000099 D024          MOVB      XAR0,#36              ; [CPU_ALU] |351| 
    4219 0000009a 7E94          MOV       *+XAR4[AR0],AR6       ; [CPU_ALU] |351| 
    4220                      .dwpsn  file "C:/Users/a0230328/workspace_v10/bts_F2800x_4ch_v2/bts.h",line 352,column 9,is_stmt,isa 
    4221 0000009b 0A08!         INC       @$BLOCKED(||BTS_measValues_ch1||)+72 ; [CPU_ALU] |352| 
    4222 0000009c       ||$C$L30||:    
    4223 0000009c 761F!         MOVW      DP,#||BTS_ADC1||+2    ; [CPU_ARAU] 
         0000009d 0000 
    4224                      .dwpsn  file "C:/Users/a0230328/workspace_v10/bts_F2800x_4ch_v2/bts.h",line 400,column 189,is_stmt,is
    4225 0000009e C402!         MOVL      XAR6,@$BLOCKED(||BTS_ADC1||)+2 ; [CPU_ALU] |400| 
    4226 0000009f C504!         MOVL      XAR7,@$BLOCKED(||BTS_ADC1||)+4 ; [CPU_ALU] |400| 
    4227 000000a0 761F!         MOVW      DP,#||BTS_ctrlLoopVariable_ch1||+34 ; [CPU_ARAU] 
TMS320C2000 Assembler PC v20.2.1 Mon Nov  2 17:14:28 2020

Copyright (c) 1996-2018 Texas Instruments Incorporated
bts_main.asm                                                         PAGE   83

         000000a1 0000 
    4228                      .dwpsn  file "C:/Users/a0230328/workspace_v10/bts_F2800x_4ch_v2/bts.h",line 323,column 5,is_stmt,isa 
    4229 000000a2 9322!         MOV       AH,@$BLOCKED(||BTS_ctrlLoopVariable_ch1||)+34 ; [CPU_ALU] |323| 
    4230 000000a3 6009          B         ||$C$L31||,NEQ        ; [CPU_ALU] |323| 
    4231                      ; branchcc occurs ; [] |323| 
    4232                      .dwpsn  file "C:/ti/C2000Ware_DigitalPower_SDK_3_00_01_00/c2000ware/driverlib/f28004x/driverlib/epwm.
    4233 000000a4 7622          EALLOW    ; [CPU_ALU] |4497| 
    4234                      .dwpsn  file "C:/ti/C2000Ware_DigitalPower_SDK_3_00_01_00/c2000ware/driverlib/f28004x/driverlib/epwm.
    4235 000000a5 F5A8          MOV       AH,*(0:0x4097)        ; [CPU_ALU] |4498| 
         000000a6 4097 
    4236 000000a7 5104          ORB       AH,#0x04              ; [CPU_ALU] |4498| 
    4237 000000a8 F4A8          MOV       *(0:0x4097),AH        ; [CPU_ALU] |4498| 
         000000a9 4097 
    4238                      .dwpsn  file "C:/ti/C2000Ware_DigitalPower_SDK_3_00_01_00/c2000ware/driverlib/f28004x/driverlib/epwm.
    4239 000000aa 761A          EDIS      ; [CPU_ALU] |4499| 
    4240                      .dwpsn  file "C:/Users/a0230328/workspace_v10/bts_F2800x_4ch_v2/bts.h",line 340,column 9,is_stmt,isa 
    4241 000000ab 6F23          B         ||$C$L32||,UNC        ; [CPU_ALU] |340| 
    4242                      ; branch occurs ; [] |340| 
    4243 000000ac       ||$C$L31||:    
    4244                      .dwpsn  file "C:/ti/C2000Ware_DigitalPower_SDK_3_00_01_00/c2000ware/driverlib/f28004x/driverlib/epwm.
    4245 000000ac 7622          EALLOW    ; [CPU_ALU] |4611| 
    4246                      .dwpsn  file "C:/ti/C2000Ware_DigitalPower_SDK_3_00_01_00/c2000ware/driverlib/f28004x/driverlib/epwm.
    4247 000000ad F5A8          MOV       AH,*(0:0x409b)        ; [CPU_ALU] |4612| 
         000000ae 409B 
    4248 000000af 5104          ORB       AH,#0x04              ; [CPU_ALU] |4612| 
    4249 000000b0 F4A8          MOV       *(0:0x409b),AH        ; [CPU_ALU] |4612| 
         000000b1 409B 
    4250                      .dwpsn  file "C:/ti/C2000Ware_DigitalPower_SDK_3_00_01_00/c2000ware/driverlib/f28004x/driverlib/epwm.
    4251 000000b2 F5A8          MOV       AH,*(0:0x4084)        ; [CPU_ALU] |4062| 
         000000b3 4084 
    4252 000000b4 CDA8          AND       AH,AH,#0xfffe         ; [CPU_ALU] |4062| 
         000000b5 FFFE 
    4253 000000b6 5102          ORB       AH,#0x02              ; [CPU_ALU] |4062| 
    4254 000000b7 F4A8          MOV       *(0:0x4084),AH        ; [CPU_ALU] |4062| 
         000000b8 4084 
    4255                      .dwpsn  file "C:/ti/C2000Ware_DigitalPower_SDK_3_00_01_00/c2000ware/driverlib/f28004x/driverlib/epwm.
    4256 000000b9 761A          EDIS      ; [CPU_ALU] |4065| 
    4257                      .dwpsn  file "C:/ti/C2000Ware_DigitalPower_SDK_3_00_01_00/c2000ware/driverlib/f28004x/driverlib/epwm.
    4258 000000ba 28A9          MOV       AL,#999               ; [CPU_ALU] |2409| 
         000000bb 03E7 
    4259 000000bc 9B00          MOVB      AH,#0                 ; [CPU_ALU] |2409| 
    4260                      .dwpsn  file "C:/Users/a0230328/workspace_v10/bts_F2800x_4ch_v2/bts.h",line 334,column 9,is_stmt,isa 
    4261 000000bd E591          ZERO      R1H                   ; [CPU_FPU] |334| 
    4262 000000be 761F!         MOVW      DP,#||BTS_ctrl_cc_ch1||+10 ; [CPU_ARAU] 
         000000bf 0000 
    4263                      .dwpsn  file "C:/Users/a0230328/workspace_v10/bts_F2800x_4ch_v2/bts.h",line 335,column 9,is_stmt,isa 
    4264 000000c0 E590          ZERO      R0H                   ; [CPU_FPU] |335| 
    4265                      .dwpsn  file "C:/ti/C2000Ware_DigitalPower_SDK_3_00_01_00/c2000ware/driverlib/f28004x/driverlib/epwm.
    4266 000000c1 F4A8          MOV       *(0:0x406b),AH        ; [CPU_ALU] |2409| 
         000000c2 406B 
    4267 000000c3 F4A9          MOV       *(0:0x406d),AL        ; [CPU_ALU] |2409| 
         000000c4 406D 
    4268                      .dwpsn  file "C:/ti/C2000Ware_DigitalPower_SDK_3_00_01_00/c2000ware/driverlib/f28004x/driverlib/hrpwm
    4269 000000c5 9A00          MOVB      AL,#0                 ; [CPU_ALU] |1262| 
    4270                      .dwpsn  file "C:/ti/C2000Ware_DigitalPower_SDK_3_00_01_00/c2000ware/driverlib/f28004x/driverlib/hrpwm
TMS320C2000 Assembler PC v20.2.1 Mon Nov  2 17:14:28 2020

Copyright (c) 1996-2018 Texas Instruments Incorporated
bts_main.asm                                                         PAGE   84

    4271 000000c6 F4A8          MOV       *(0:0x406a),AH        ; [CPU_ALU] |1255| 
         000000c7 406A 
    4272                      .dwpsn  file "C:/ti/C2000Ware_DigitalPower_SDK_3_00_01_00/c2000ware/driverlib/f28004x/driverlib/hrpwm
    4273 000000c8 F4A9          MOV       *(0:0x406c),AL        ; [CPU_ALU] |1262| 
         000000c9 406C 
    4274                      .dwpsn  file "C:/Users/a0230328/workspace_v10/bts_F2800x_4ch_v2/bts.h",line 334,column 9,is_stmt,isa 
    4275 000000ca E203!         MOV32     @$BLOCKED(||BTS_ctrl_cc_ch1||)+10,R1H ; [CPU_FPU] |334| 
         000000cb 010A 
    4276                      .dwpsn  file "C:/Users/a0230328/workspace_v10/bts_F2800x_4ch_v2/bts.h",line 335,column 9,is_stmt,isa 
    4277 000000cc E203!         MOV32     @$BLOCKED(||BTS_ctrl_cc_ch1||)+12,R0H ; [CPU_FPU] |335| 
         000000cd 000C 
    4278 000000ce       ||$C$L32||:    
    4279 000000ce 3B01          SETC      SXM                   ; [CPU_ALU] 
    4280 000000cf 761F!         MOVW      DP,#||BTS_ctrlLoopVariable_ch1||+4 ; [CPU_ARAU] 
         000000d0 0000 
    4281                      .dwpsn  file "C:/Users/a0230328/workspace_v10/bts_F2800x_4ch_v2/bts.h",line 408,column 5,is_stmt,isa 
    4282 000000d1 85A6          MOV       ACC,AR6               ; [CPU_ALU] |408| 
    4283                      .dwpsn  file "C:/Users/a0230328/workspace_v10/bts_F2800x_4ch_v2/libraries/DCL/DCLF32.h",line 1697,col
    4284 000000d2 E2AF!         MOV32     R1H,@$BLOCKED(||BTS_ctrlLoopVariable_ch1||)+4 ; [CPU_FPU] |1697| 
         000000d3 0104 
    4285                      .dwpsn  file "C:/Users/a0230328/workspace_v10/bts_F2800x_4ch_v2/bts.h",line 408,column 5,is_stmt,isa 
    4286 000000d4 BDA9          MOV32     R2H,ACC               ; [CPU_FPU] |408| 
         000000d5 0F1A 
    4287                      .dwpsn  file "C:/Users/a0230328/workspace_v10/bts_F2800x_4ch_v2/libraries/DCL/DCLF32.h",line 1697,col
    4288 000000d6 E6CF          MOV32     R6H,R1H               ; [CPU_FPU] |1697| 
         000000d7 000E 
    4289                      .dwpsn  file "C:/Users/a0230328/workspace_v10/bts_F2800x_4ch_v2/bts.h",line 418,column 5,is_stmt,isa 
    4290 000000d8 E2AF!         MOV32     R7H,@$BLOCKED(||BTS_ctrlLoopVariable_ch1||)+10 ; [CPU_FPU] |418| 
         000000d9 070A 
    4291                      .dwpsn  file "C:/Users/a0230328/workspace_v10/bts_F2800x_4ch_v2/bts.h",line 420,column 5,is_stmt,isa 
    4292 000000da E2AF!         MOV32     R5H,@$BLOCKED(||BTS_ctrlLoopVariable_ch1||)+24 ; [CPU_FPU] |420| 
         000000db 0518 
    4293                      .dwpsn  file "C:/Users/a0230328/workspace_v10/bts_F2800x_4ch_v2/bts.h",line 409,column 5,is_stmt,isa 
    4294 000000dc 85A7          MOV       ACC,AR7               ; [CPU_ALU] |409| 
    4295                      .dwpsn  file "C:/Users/a0230328/workspace_v10/bts_F2800x_4ch_v2/libraries/DCL/DCLF32.h",line 1697,col
    4296 000000dd E6AF          NEGF32    R6H,R6H               ; [CPU_FPU] |1697| 
         000000de 0036 
    4297                      .dwpsn  file "C:/Users/a0230328/workspace_v10/bts_F2800x_4ch_v2/bts.h",line 421,column 5,is_stmt,isa 
    4298 000000df D014          MOVB      XAR0,#20              ; [CPU_ALU] |421| 
    4299                      .dwpsn  file "C:/Users/a0230328/workspace_v10/bts_F2800x_4ch_v2/bts.h",line 408,column 5,is_stmt,isa 
    4300 000000e0 8F00!         MOVL      XAR4,#||BTS_ctrlLoopVariable_ch1|| ; [CPU_ARAU] |408| 
         000000e1 0000 
    4301                      .dwpsn  file "C:/Users/a0230328/workspace_v10/bts_F2800x_4ch_v2/bts.h",line 409,column 5,is_stmt,isa 
    4302 000000e2 BDA9          MOV32     R0H,ACC               ; [CPU_FPU] |409| 
         000000e3 0F12 
    4303 000000e4 761F!         MOVW      DP,#||BTS_ctrl_cv_ch1|| ; [CPU_ARAU] 
         000000e5 0000 
    4304                      .dwpsn  file "C:/Users/a0230328/workspace_v10/bts_F2800x_4ch_v2/libraries/DCL/DCLF32.h",line 1697,col
    4305 000000e6 E203          MOV32     *-SP[8],R6H           ; [CPU_FPU] |1697| 
         000000e7 0648 
    4306                      .dwpsn  file "C:/Users/a0230328/workspace_v10/bts_F2800x_4ch_v2/libraries/DCL/DCLF32.h",line 1700,col
    4307 000000e8 D114          MOVB      XAR1,#20              ; [CPU_ALU] |1700| 
    4308                      .dwpsn  file "C:/Users/a0230328/workspace_v10/bts_F2800x_4ch_v2/bts.h",line 408,column 5,is_stmt,isa 
    4309 000000e9 E689          I32TOF32  R2H,R2H               ; [CPU_FPU] |408| 
         000000ea 0012 
TMS320C2000 Assembler PC v20.2.1 Mon Nov  2 17:14:28 2020

Copyright (c) 1996-2018 Texas Instruments Incorporated
bts_main.asm                                                         PAGE   85

    4310                      .dwpsn  file "C:/Users/a0230328/workspace_v10/bts_F2800x_4ch_v2/bts.h",line 409,column 5,is_stmt,isa 
    4311 000000eb E689          I32TOF32  R0H,R0H               ; [CPU_FPU] |409| 
         000000ec 0000 
    4312                      .dwpsn  file "C:/Users/a0230328/workspace_v10/bts_F2800x_4ch_v2/libraries/DCL/DCLF32.h",line 1700,col
    4313 000000ed E6CF          MOV32     R6H,R1H               ; [CPU_FPU] |1700| 
         000000ee 000E 
    4314                      .dwpsn  file "C:/Users/a0230328/workspace_v10/bts_F2800x_4ch_v2/bts.h",line 409,column 5,is_stmt,isa 
    4315 000000ef E84E          MPYF32    R0H,R0H,#14336        ; [CPU_FPU] |409| 
         000000f0 0000 
    4316                      .dwpsn  file "C:/Users/a0230328/workspace_v10/bts_F2800x_4ch_v2/libraries/DCL/DCLF32.h",line 1703,col
    4317 000000f1 9A01          MOVB      AL,#1                 ; [CPU_ALU] |1703| 
    4318                      .dwpsn  file "C:/Users/a0230328/workspace_v10/bts_F2800x_4ch_v2/bts.h",line 420,column 5,is_stmt,isa 
    4319 000000f2 E720          SUBF32    R3H,R7H,R0H           ; [CPU_FPU] |420| 
         000000f3 003B 
    4320                      .dwpsn  file "C:/Users/a0230328/workspace_v10/bts_F2800x_4ch_v2/bts.h",line 408,column 5,is_stmt,isa 
    4321 000000f4 E84E          MPYF32    R2H,R2H,#14336        ; [CPU_FPU] |408| 
         000000f5 0012 
    4322                      .dwpsn  file "C:/Users/a0230328/workspace_v10/bts_F2800x_4ch_v2/bts.h",line 409,column 5,is_stmt,isa 
    4323              
    4324 000000f6 E007          MPYF32    R3H,R5H,R3H           ; [CPU_FPU] |420| 
         000000f7 5844 
    4325              ||      MOV32     *-SP[4],R0H           ; [CPU_FPU] |409| 
    4326              
    4327                      .dwpsn  file "C:/Users/a0230328/workspace_v10/bts_F2800x_4ch_v2/libraries/DCL/DCLF32.h",line 1447,col
    4328 000000f8 E2AF!         MOV32     R0H,@$BLOCKED(||BTS_ctrl_cv_ch1||) ; [CPU_FPU] |1447| 
         000000f9 0000 
    4329 000000fa E700          MPYF32    R0H,R3H,R0H           ; [CPU_FPU] |1447| 
         000000fb 0018 
    4330 000000fc E2AF!         MOV32     R4H,@$BLOCKED(||BTS_ctrl_cv_ch1||)+10 ; [CPU_FPU] |1447| 
         000000fd 040A 
    4331              
    4332 000000fe E011          ADDF32    R4H,R4H,R0H           ; [CPU_FPU] |1447| 
         000000ff 2146 
    4333              ||      MOV32     *-SP[6],R1H           ; [CPU_FPU] |1697| 
    4334              
    4335 00000100 E2AF          MOV32     R0H,*-SP[8]           ; [CPU_FPU] |1447| 
         00000101 0048 
    4336                      .dwpsn  file "C:/Users/a0230328/workspace_v10/bts_F2800x_4ch_v2/bts.h",line 421,column 5,is_stmt,isa 
    4337 00000102 E203          MOV32     *+XAR4[AR0],R4H       ; [CPU_FPU] |421| 
         00000103 0494 
    4338                      .dwpsn  file "C:/Users/a0230328/workspace_v10/bts_F2800x_4ch_v2/libraries/DCL/DCLF32.h",line 1700,col
    4339 00000104 E697          MINF32    R6H,R4H               ; [CPU_FPU] |1700| 
         00000105 0026 
    4340                      .dwpsn  file "C:/Users/a0230328/workspace_v10/bts_F2800x_4ch_v2/bts.h",line 418,column 5,is_stmt,isa 
    4341 00000106 D00C          MOVB      XAR0,#12              ; [CPU_ALU] |418| 
    4342 00000107 E203          MOV32     *+XAR4[AR0],R7H       ; [CPU_FPU] |418| 
         00000108 0794 
    4343                      .dwpsn  file "C:/Users/a0230328/workspace_v10/bts_F2800x_4ch_v2/libraries/DCL/DCLF32.h",line 1700,col
    4344 00000109 E696          MAXF32    R0H,R6H               ; [CPU_FPU] |1700| 
         0000010a 0030 
    4345                      .dwpsn  file "C:/Users/a0230328/workspace_v10/bts_F2800x_4ch_v2/bts.h",line 408,column 5,is_stmt,isa 
    4346 0000010b D008          MOVB      XAR0,#8               ; [CPU_ALU] |408| 
    4347                      .dwpsn  file "C:/Users/a0230328/workspace_v10/bts_F2800x_4ch_v2/bts.h",line 409,column 5,is_stmt,isa 
    4348 0000010c E2AF          MOV32     R6H,*-SP[4]           ; [CPU_FPU] |409| 
         0000010d 0644 
TMS320C2000 Assembler PC v20.2.1 Mon Nov  2 17:14:28 2020

Copyright (c) 1996-2018 Texas Instruments Incorporated
bts_main.asm                                                         PAGE   86

    4349                      .dwpsn  file "C:/Users/a0230328/workspace_v10/bts_F2800x_4ch_v2/bts.h",line 408,column 5,is_stmt,isa 
    4350 0000010e E203          MOV32     *+XAR4[AR0],R2H       ; [CPU_FPU] |408| 
         0000010f 0294 
    4351                      .dwpsn  file "C:/Users/a0230328/workspace_v10/bts_F2800x_4ch_v2/bts.h",line 409,column 5,is_stmt,isa 
    4352 00000110 D00E          MOVB      XAR0,#14              ; [CPU_ALU] |409| 
    4353                      .dwpsn  file "C:/Users/a0230328/workspace_v10/bts_F2800x_4ch_v2/libraries/DCL/DCLF32.h",line 1700,col
    4354 00000111 E203          MOV32     *+XAR4[AR1],R0H       ; [CPU_FPU] |1700| 
         00000112 009C 
    4355                      .dwpsn  file "C:/Users/a0230328/workspace_v10/bts_F2800x_4ch_v2/bts.h",line 409,column 5,is_stmt,isa 
    4356 00000113 E203          MOV32     *+XAR4[AR0],R6H       ; [CPU_FPU] |409| 
         00000114 0694 
    4357                      .dwpsn  file "C:/Users/a0230328/workspace_v10/bts_F2800x_4ch_v2/bts.h",line 420,column 5,is_stmt,isa 
    4358 00000115 D016          MOVB      XAR0,#22              ; [CPU_ALU] |420| 
    4359 00000116 E203          MOV32     *+XAR4[AR0],R3H       ; [CPU_FPU] |420| 
         00000117 0394 
    4360                      .dwpsn  file "C:/Users/a0230328/workspace_v10/bts_F2800x_4ch_v2/libraries/DCL/DCLF32.h",line 1703,col
    4361 00000118 E694          CMPF32    R4H,R1H               ; [CPU_FPU] |1703| 
         00000119 000C 
    4362 0000011a AD14          MOVST0    ZF, NF                ; [CPU_FPU] |1703| 
    4363 0000011b 6307          B         ||$C$L33||,GEQ        ; [CPU_ALU] |1703| 
    4364                      ; branchcc occurs ; [] |1703| 
    4365 0000011c E2AF          MOV32     R1H,*-SP[8]           ; [CPU_FPU] 
         0000011d 0148 
    4366 0000011e E694          CMPF32    R4H,R1H               ; [CPU_FPU] |1703| 
         0000011f 000C 
    4367 00000120 AD14          MOVST0    ZF, NF                ; [CPU_FPU] |1703| 
    4368 00000121 625A          B         ||$C$L36||,GT         ; [CPU_ALU] |1703| 
    4369                      ; branchcc occurs ; [] |1703| 
    4370 00000122       ||$C$L33||:    
    4371 00000122 5200          CMPB      AL,#0                 ; [CPU_ALU] |1703| 
    4372 00000123 6158          B         ||$C$L36||,EQ         ; [CPU_ALU] |1703| 
    4373                      ; branchcc occurs ; [] |1703| 
    4374                      .dwpsn  file "C:/Users/a0230328/workspace_v10/bts_F2800x_4ch_v2/bts.h",line 433,column 10,is_stmt,isa
    4375 00000124 E805          MOVIZ     R1H,#48955            ; [CPU_FPU] |433| 
         00000125 F9D9 
    4376 00000126 E80D          MOVXI     R1H,#46601            ; [CPU_FPU] |433| 
         00000127 B049 
    4377 00000128 E694          CMPF32    R0H,R1H               ; [CPU_FPU] |433| 
         00000129 0008 
    4378 0000012a AD14          MOVST0    ZF, NF                ; [CPU_FPU] |433| 
    4379 0000012b 650E          B         ||$C$L34||,LEQ        ; [CPU_ALU] |433| 
    4380                      ; branchcc occurs ; [] |433| 
    4381 0000012c 761F!         MOVW      DP,#||BTS_ctrlLoopVariable_ch1||+6 ; [CPU_ARAU] 
         0000012d 0000 
    4382                      .dwpsn  file "C:/Users/a0230328/workspace_v10/bts_F2800x_4ch_v2/bts.h",line 437,column 14,is_stmt,isa
    4383 0000012e E801          MOVIZ     R4H,#16187            ; [CPU_FPU] |437| 
         0000012f F9DC 
    4384 00000130 E2AF!         MOV32     R1H,@$BLOCKED(||BTS_ctrlLoopVariable_ch1||)+6 ; [CPU_FPU] 
         00000131 0106 
    4385 00000132 E80E          MOVXI     R4H,#50975            ; [CPU_FPU] |437| 
         00000133 38FC 
    4386 00000134 E694          CMPF32    R0H,R4H               ; [CPU_FPU] |437| 
         00000135 0020 
    4387 00000136 AD14          MOVST0    ZF, NF                ; [CPU_FPU] |437| 
    4388 00000137 6327          B         ||$C$L35||,GEQ        ; [CPU_ALU] |437| 
TMS320C2000 Assembler PC v20.2.1 Mon Nov  2 17:14:28 2020

Copyright (c) 1996-2018 Texas Instruments Incorporated
bts_main.asm                                                         PAGE   87

    4389                      ; branchcc occurs ; [] |437| 
    4390 00000138 6F67          B         ||$C$L37||,UNC        ; [CPU_ALU] |437| 
    4391                      ; branch occurs ; [] |437| 
    4392 00000139       ||$C$L34||:    
    4393 00000139 E801          MOVIZ     R1H,#16187            ; [CPU_FPU] |437| 
         0000013a F9D9 
    4394 0000013b E80E          MOVXI     R1H,#50975            ; [CPU_FPU] |437| 
         0000013c 38F9 
    4395 0000013d E694          CMPF32    R0H,R1H               ; [CPU_FPU] |437| 
         0000013e 0008 
    4396 0000013f AD14          MOVST0    ZF, NF                ; [CPU_FPU] |437| 
    4397 00000140 631E          B         ||$C$L35||,GEQ        ; [CPU_ALU] |437| 
    4398                      ; branchcc occurs ; [] |437| 
    4399                      .dwpsn  file "C:/Users/a0230328/workspace_v10/bts_F2800x_4ch_v2/bts.h",line 446,column 5,is_stmt,isa 
    4400 00000141 E805          MOVIZ     R1H,#47747            ; [CPU_FPU] |446| 
         00000142 D419 
    4401 00000143 E805          MOVIZ     R4H,#48955            ; [CPU_FPU] 
         00000144 F9DC 
    4402 00000145 761F!         MOVW      DP,#||BTS_ctrlLoopVariable_ch1||+6 ; [CPU_ARAU] 
         00000146 0000 
    4403 00000147 E808          MOVXI     R1H,#4719             ; [CPU_FPU] |446| 
         00000148 9379 
    4404 00000149 E80D          MOVXI     R4H,#46601            ; [CPU_FPU] 
         0000014a B04C 
    4405 0000014b E694          CMPF32    R3H,R1H               ; [CPU_FPU] |446| 
         0000014c 000B 
    4406 0000014d AD14          MOVST0    ZF, NF                ; [CPU_FPU] |446| 
    4407 0000014e E203!         MOV32     @$BLOCKED(||BTS_ctrlLoopVariable_ch1||)+6,R4H ; [CPU_FPU] 
         0000014f 0406 
    4408 00000150 6465          B         ||$C$L39||,LT         ; [CPU_ALU] |446| 
    4409                      ; branchcc occurs ; [] |446| 
    4410                      .dwpsn  file "C:/Users/a0230328/workspace_v10/bts_F2800x_4ch_v2/bts.h",line 450,column 10,is_stmt,isa
    4411 00000151 E801          MOVIZ     R0H,#15820            ; [CPU_FPU] |450| 
         00000152 EE60 
    4412 00000153 E80E          MOVXI     R0H,#52429            ; [CPU_FPU] |450| 
         00000154 6668 
    4413 00000155 E694          CMPF32    R3H,R0H               ; [CPU_FPU] |450| 
         00000156 0003 
    4414 00000157 AD14          MOVST0    ZF, NF                ; [CPU_FPU] |450| 
    4415 00000158 6257          B         ||$C$L38||,GT         ; [CPU_ALU] |450| 
    4416                      ; branchcc occurs ; [] |450| 
    4417                      .dwpsn  file "C:/Users/a0230328/workspace_v10/bts_F2800x_4ch_v2/bts.h",line 435,column 14,is_stmt,isa
    4418 00000159 E805          MOVIZ     R1H,#48955            ; [CPU_FPU] |435| 
         0000015a F9D9 
    4419 0000015b E80D          MOVXI     R1H,#46601            ; [CPU_FPU] |435| 
         0000015c B049 
    4420 0000015d 6F61          B         ||$C$L41||,UNC        ; [CPU_ALU] 
    4421                      ; branch occurs ; [] 
    4422 0000015e       ||$C$L35||:    
    4423                      .dwpsn  file "C:/Users/a0230328/workspace_v10/bts_F2800x_4ch_v2/bts.h",line 446,column 5,is_stmt,isa 
    4424 0000015e E805          MOVIZ     R1H,#47747            ; [CPU_FPU] |446| 
         0000015f D419 
    4425 00000160 E808          MOVXI     R1H,#4719             ; [CPU_FPU] |446| 
         00000161 9379 
    4426 00000162 E694          CMPF32    R3H,R1H               ; [CPU_FPU] |446| 
TMS320C2000 Assembler PC v20.2.1 Mon Nov  2 17:14:28 2020

Copyright (c) 1996-2018 Texas Instruments Incorporated
bts_main.asm                                                         PAGE   88

         00000163 000B 
    4427 00000164 AD14          MOVST0    ZF, NF                ; [CPU_FPU] |446| 
    4428 00000165 6450          B         ||$C$L39||,LT         ; [CPU_ALU] |446| 
    4429                      ; branchcc occurs ; [] |446| 
    4430                      .dwpsn  file "C:/Users/a0230328/workspace_v10/bts_F2800x_4ch_v2/bts.h",line 450,column 10,is_stmt,isa
    4431 00000166 E801          MOVIZ     R0H,#15820            ; [CPU_FPU] |450| 
         00000167 EE60 
    4432 00000168 E80E          MOVXI     R0H,#52429            ; [CPU_FPU] |450| 
         00000169 6668 
    4433 0000016a E694          CMPF32    R3H,R0H               ; [CPU_FPU] |450| 
         0000016b 0003 
    4434 0000016c AD14          MOVST0    ZF, NF                ; [CPU_FPU] |450| 
    4435 0000016d 6242          B         ||$C$L38||,GT         ; [CPU_ALU] |450| 
    4436                      ; branchcc occurs ; [] |450| 
    4437 0000016e E801          MOVIZ     R0H,#16187            ; [CPU_FPU] 
         0000016f F9D8 
    4438                      .dwpsn  file "C:/Users/a0230328/workspace_v10/bts_F2800x_4ch_v2/bts.h",line 439,column 18,is_stmt,isa
    4439 00000170 E801          MOVIZ     R1H,#16187            ; [CPU_FPU] |439| 
         00000171 F9D9 
    4440 00000172 761F!         MOVW      DP,#||BTS_ctrlLoopVariable_ch1||+6 ; [CPU_ARAU] 
         00000173 0000 
    4441 00000174 E80E          MOVXI     R0H,#50975            ; [CPU_FPU] 
         00000175 38F8 
    4442 00000176 E80E          MOVXI     R1H,#50975            ; [CPU_FPU] |439| 
         00000177 38F9 
    4443 00000178 E203!         MOV32     @$BLOCKED(||BTS_ctrlLoopVariable_ch1||)+6,R0H ; [CPU_FPU] 
         00000179 0006 
    4444 0000017a 6F44          B         ||$C$L41||,UNC        ; [CPU_ALU] 
    4445                      ; branch occurs ; [] 
    4446 0000017b       ||$C$L36||:    
    4447                      .dwpsn  file "C:/Users/a0230328/workspace_v10/bts_F2800x_4ch_v2/libraries/DCL/DCLF32.h",line 1458,col
    4448 0000017b E2AF!         MOV32     R4H,@$BLOCKED(||BTS_ctrl_cv_ch1||)+6 ; [CPU_FPU] |1458| 
         0000017c 0406 
    4449 0000017d 761F!         MOVW      DP,#||BTS_ctrlLoopVariable_ch1||+6 ; [CPU_ARAU] 
         0000017e 0000 
    4450                      .dwpsn  file "C:/Users/a0230328/workspace_v10/bts_F2800x_4ch_v2/bts.h",line 426,column 9,is_stmt,isa 
    4451 0000017f E6CF          MOV32     R1H,R0H               ; [CPU_FPU] |426| 
         00000180 0001 
    4452 00000181 E203!         MOV32     @$BLOCKED(||BTS_ctrlLoopVariable_ch1||)+6,R0H ; [CPU_FPU] |426| 
         00000182 0006 
    4453 00000183 761F!         MOVW      DP,#||BTS_ctrl_cv_ch1||+2 ; [CPU_ARAU] 
         00000184 0000 
    4454                      .dwpsn  file "C:/Users/a0230328/workspace_v10/bts_F2800x_4ch_v2/libraries/DCL/DCLF32.h",line 1458,col
    4455 00000185 E2AF!         MOV32     R6H,@$BLOCKED(||BTS_ctrl_cv_ch1||)+2 ; [CPU_FPU] |1458| 
         00000186 0602 
    4456 00000187 E700          MPYF32    R6H,R3H,R6H           ; [CPU_FPU] |1458| 
         00000188 019E 
    4457              
    4458                      MOV32     R7H,@$BLOCKED(||BTS_ctrl_cv_ch1||)+12 ; [CPU_FPU] |1458| 
    4459 00000189 E308! ||      MPYF32    R4H,R1H,R4H           ; [CPU_FPU] |1458| 
         0000018a 670C 
    4460              
    4461 0000018b E710          ADDF32    R6H,R6H,R7H           ; [CPU_FPU] |1458| 
         0000018c 01F6 
    4462 0000018d 7700          NOP       ; [CPU_ALU] 
TMS320C2000 Assembler PC v20.2.1 Mon Nov  2 17:14:28 2020

Copyright (c) 1996-2018 Texas Instruments Incorporated
bts_main.asm                                                         PAGE   89

    4463 0000018e E720          SUBF32    R4H,R6H,R4H           ; [CPU_FPU] |1458| 
         0000018f 0134 
    4464 00000190 7700          NOP       ; [CPU_ALU] 
    4465 00000191 E203!         MOV32     @$BLOCKED(||BTS_ctrl_cv_ch1||)+10,R4H ; [CPU_FPU] |1458| 
         00000192 040A 
    4466                      .dwpsn  file "C:/Users/a0230328/workspace_v10/bts_F2800x_4ch_v2/libraries/DCL/DCLF32.h",line 1459,col
    4467 00000193 E2AF!         MOV32     R4H,@$BLOCKED(||BTS_ctrl_cv_ch1||)+8 ; [CPU_FPU] |1459| 
         00000194 0408 
    4468              
    4469                      MOV32     R6H,@$BLOCKED(||BTS_ctrl_cv_ch1||)+4 ; [CPU_FPU] |1459| 
    4470 00000195 E308! ||      MPYF32    R4H,R1H,R4H           ; [CPU_FPU] |1459| 
         00000196 6604 
    4471              
    4472 00000197 E700          MPYF32    R6H,R3H,R6H           ; [CPU_FPU] |1459| 
         00000198 019E 
    4473 00000199 7700          NOP       ; [CPU_ALU] 
    4474 0000019a E720          SUBF32    R4H,R6H,R4H           ; [CPU_FPU] |1459| 
         0000019b 0134 
    4475 0000019c 7700          NOP       ; [CPU_ALU] 
    4476 0000019d E203!         MOV32     @$BLOCKED(||BTS_ctrl_cv_ch1||)+12,R4H ; [CPU_FPU] |1459| 
         0000019e 040C 
    4477 0000019f       ||$C$L37||:    
    4478                      .dwpsn  file "C:/Users/a0230328/workspace_v10/bts_F2800x_4ch_v2/bts.h",line 446,column 5,is_stmt,isa 
    4479 0000019f E805          MOVIZ     R4H,#47747            ; [CPU_FPU] |446| 
         000001a0 D41C 
    4480 000001a1 E808          MOVXI     R4H,#4719             ; [CPU_FPU] |446| 
         000001a2 937C 
    4481 000001a3 E694          CMPF32    R3H,R4H               ; [CPU_FPU] |446| 
         000001a4 0023 
    4482 000001a5 AD14          MOVST0    ZF, NF                ; [CPU_FPU] |446| 
    4483 000001a6 640F          B         ||$C$L39||,LT         ; [CPU_ALU] |446| 
    4484                      ; branchcc occurs ; [] |446| 
    4485                      .dwpsn  file "C:/Users/a0230328/workspace_v10/bts_F2800x_4ch_v2/bts.h",line 450,column 10,is_stmt,isa
    4486 000001a7 E801          MOVIZ     R0H,#15820            ; [CPU_FPU] |450| 
         000001a8 EE60 
    4487 000001a9 E80E          MOVXI     R0H,#52429            ; [CPU_FPU] |450| 
         000001aa 6668 
    4488 000001ab E694          CMPF32    R3H,R0H               ; [CPU_FPU] |450| 
         000001ac 0003 
    4489 000001ad AD14          MOVST0    ZF, NF                ; [CPU_FPU] |450| 
    4490 000001ae 6510          B         ||$C$L41||,LEQ        ; [CPU_ALU] |450| 
    4491                      ; branchcc occurs ; [] |450| 
    4492 000001af       ||$C$L38||:    
    4493 000001af 761F!         MOVW      DP,#||BTS_ctrlLoopVariable_ch1||+30 ; [CPU_ARAU] 
         000001b0 0000 
    4494 000001b1 E2AF          MOV32     R0H,*-SP[6]           ; [CPU_FPU] 
         000001b2 0046 
    4495                      .dwpsn  file "C:/Users/a0230328/workspace_v10/bts_F2800x_4ch_v2/bts.h",line 454,column 9,is_stmt,isa 
    4496 000001b3 2B1E!         MOV       @$BLOCKED(||BTS_ctrlLoopVariable_ch1||)+30,#0 ; [CPU_ALU] |454| 
    4497 000001b4 6F05          B         ||$C$L40||,UNC        ; [CPU_ALU] |454| 
    4498                      ; branch occurs ; [] |454| 
    4499 000001b5       ||$C$L39||:    
    4500 000001b5 761F!         MOVW      DP,#||BTS_ctrlLoopVariable_ch1||+30 ; [CPU_ARAU] 
         000001b6 0000 
    4501                      .dwpsn  file "C:/Users/a0230328/workspace_v10/bts_F2800x_4ch_v2/bts.h",line 448,column 9,is_stmt,isa 
TMS320C2000 Assembler PC v20.2.1 Mon Nov  2 17:14:28 2020

Copyright (c) 1996-2018 Texas Instruments Incorporated
bts_main.asm                                                         PAGE   90

    4502 000001b7 56BF!         MOVB      @$BLOCKED(||BTS_ctrlLoopVariable_ch1||)+30,#1,UNC ; [CPU_ALU] |448| 
         000001b8 011E 
    4503 000001b9       ||$C$L40||:    
    4504                      .dwpsn  file "C:/Users/a0230328/workspace_v10/bts_F2800x_4ch_v2/bts.h",line 447,column 9,is_stmt,isa 
    4505 000001b9 E700          MPYF32    R1H,R0H,R5H           ; [CPU_FPU] |447| 
         000001ba 0141 
    4506 000001bb 7700          NOP       ; [CPU_ALU] 
    4507 000001bc E203!         MOV32     @$BLOCKED(||BTS_ctrlLoopVariable_ch1||)+6,R1H ; [CPU_FPU] |447| 
         000001bd 0106 
    4508 000001be       ||$C$L41||:    
    4509 000001be 761F!         MOVW      DP,#||BTS_ctrl_cc_ch1|| ; [CPU_ARAU] 
         000001bf 0000 
    4510                      .dwpsn  file "C:/Users/a0230328/workspace_v10/bts_F2800x_4ch_v2/bts.h",line 473,column 5,is_stmt,isa 
    4511              
    4512                      MOV32     R3H,@$BLOCKED(||BTS_ctrl_cc_ch1||) ; [CPU_FPU] |1447| 
    4513 000001c0 E324! ||      SUBF32    R1H,R1H,R2H           ; [CPU_FPU] |473| 
         000001c1 4B00 
    4514              
    4515                      .dwpsn  file "C:/Users/a0230328/workspace_v10/bts_F2800x_4ch_v2/libraries/DCL/DCLF32.h",line 1700,col
    4516 000001c2 E801          MOVIZ     R0H,#16140            ; [CPU_FPU] |1700| 
         000001c3 F860 
    4517                      .dwpsn  file "C:/Users/a0230328/workspace_v10/bts_F2800x_4ch_v2/bts.h",line 475,column 5,is_stmt,isa 
    4518 000001c4 D010          MOVB      XAR0,#16              ; [CPU_ALU] |475| 
    4519                      .dwpsn  file "C:/Users/a0230328/workspace_v10/bts_F2800x_4ch_v2/libraries/DCL/DCLF32.h",line 1700,col
    4520 000001c5 D110          MOVB      XAR1,#16              ; [CPU_ALU] |1700| 
    4521                      .dwpsn  file "C:/Users/a0230328/workspace_v10/bts_F2800x_4ch_v2/libraries/DCL/DCLF32.h",line 1447,col
    4522              
    4523 000001c6 E306!         MPYF32    R3H,R1H,R3H           ; [CPU_FPU] |1447| 
         000001c7 5A0A 
    4524              ||      MOV32     R2H,@$BLOCKED(||BTS_ctrl_cc_ch1||)+10 ; [CPU_FPU] |1447| 
    4525              
    4526                      .dwpsn  file "C:/Users/a0230328/workspace_v10/bts_F2800x_4ch_v2/libraries/DCL/DCLF32.h",line 1703,col
    4527 000001c8 9A01          MOVB      AL,#1                 ; [CPU_ALU] |1703| 
    4528                      .dwpsn  file "C:/Users/a0230328/workspace_v10/bts_F2800x_4ch_v2/libraries/DCL/DCLF32.h",line 1447,col
    4529 000001c9 E710          ADDF32    R2H,R2H,R3H           ; [CPU_FPU] |1447| 
         000001ca 00D2 
    4530                      .dwpsn  file "C:/Users/a0230328/workspace_v10/bts_F2800x_4ch_v2/libraries/DCL/DCLF32.h",line 1700,col
    4531 000001cb E80E          MOVXI     R0H,#52429            ; [CPU_FPU] |1700| 
         000001cc 6668 
    4532                      .dwpsn  file "C:/Users/a0230328/workspace_v10/bts_F2800x_4ch_v2/bts.h",line 475,column 5,is_stmt,isa 
    4533 000001cd E203          MOV32     *+XAR4[AR0],R2H       ; [CPU_FPU] |475| 
         000001ce 0294 
    4534                      .dwpsn  file "C:/Users/a0230328/workspace_v10/bts_F2800x_4ch_v2/libraries/DCL/DCLF32.h",line 1703,col
    4535 000001cf E801          MOVIZ     R3H,#16140            ; [CPU_FPU] |1703| 
         000001d0 F863 
    4536                      .dwpsn  file "C:/Users/a0230328/workspace_v10/bts_F2800x_4ch_v2/bts.h",line 473,column 5,is_stmt,isa 
    4537 000001d1 D012          MOVB      XAR0,#18              ; [CPU_ALU] |473| 
    4538                      .dwpsn  file "C:/Users/a0230328/workspace_v10/bts_F2800x_4ch_v2/libraries/DCL/DCLF32.h",line 1700,col
    4539 000001d2 E697          MINF32    R0H,R2H               ; [CPU_FPU] |1700| 
         000001d3 0010 
    4540                      .dwpsn  file "C:/Users/a0230328/workspace_v10/bts_F2800x_4ch_v2/libraries/DCL/DCLF32.h",line 1703,col
    4541 000001d4 E80E          MOVXI     R3H,#52429            ; [CPU_FPU] |1703| 
         000001d5 666B 
    4542                      .dwpsn  file "C:/Users/a0230328/workspace_v10/bts_F2800x_4ch_v2/libraries/DCL/DCLF32.h",line 1700,col
    4543 000001d6 E820          MAXF32    R0H,#0                ; [CPU_FPU] |1700| 
TMS320C2000 Assembler PC v20.2.1 Mon Nov  2 17:14:28 2020

Copyright (c) 1996-2018 Texas Instruments Incorporated
bts_main.asm                                                         PAGE   91

         000001d7 0000 
    4544                      .dwpsn  file "C:/Users/a0230328/workspace_v10/bts_F2800x_4ch_v2/bts.h",line 473,column 5,is_stmt,isa 
    4545 000001d8 E203          MOV32     *+XAR4[AR0],R1H       ; [CPU_FPU] |473| 
         000001d9 0194 
    4546                      .dwpsn  file "C:/Users/a0230328/workspace_v10/bts_F2800x_4ch_v2/libraries/DCL/DCLF32.h",line 1700,col
    4547 000001da E203          MOV32     *+XAR4[AR1],R0H       ; [CPU_FPU] |1700| 
         000001db 009C 
    4548                      .dwpsn  file "C:/Users/a0230328/workspace_v10/bts_F2800x_4ch_v2/libraries/DCL/DCLF32.h",line 1703,col
    4549 000001dc E694          CMPF32    R2H,R3H               ; [CPU_FPU] |1703| 
         000001dd 001A 
    4550 000001de AD14          MOVST0    ZF, NF                ; [CPU_FPU] |1703| 
    4551 000001df 6304          B         ||$C$L42||,GEQ        ; [CPU_ALU] |1703| 
    4552                      ; branchcc occurs ; [] |1703| 
    4553 000001e0 E5A2          CMPF32    R2H,#0                ; [CPU_FPU] |1703| 
    4554 000001e1 AD14          MOVST0    ZF, NF                ; [CPU_FPU] |1703| 
    4555 000001e2 6250          B         ||$C$L44||,GT         ; [CPU_ALU] |1703| 
    4556                      ; branchcc occurs ; [] |1703| 
    4557 000001e3       ||$C$L42||:    
    4558 000001e3 5200          CMPB      AL,#0                 ; [CPU_ALU] |1703| 
    4559 000001e4 614E          B         ||$C$L44||,EQ         ; [CPU_ALU] |1703| 
    4560                      ; branchcc occurs ; [] |1703| 
    4561                      .dwpsn  file "C:/Users/a0230328/workspace_v10/bts_F2800x_4ch_v2/bts.h",line 488,column 13,is_stmt,isa
    4562 000001e5 E5A0          CMPF32    R0H,#0                ; [CPU_FPU] |488| 
    4563 000001e6 AD14          MOVST0    ZF, NF                ; [CPU_FPU] |488| 
    4564 000001e7 621D          B         ||$C$L43||,GT         ; [CPU_ALU] |488| 
    4565                      ; branchcc occurs ; [] |488| 
    4566 000001e8 761F!         MOVW      DP,#||MEP_ScaleFactor|| ; [CPU_ARAU] 
         000001e9 0000 
    4567                      .dwpsn  file "C:\Users\a0230328\workspace_v10\bts_F2800x_4ch_v2\bts_hal.h",line 192,column 21,is_stmt
    4568 000001ea E284!         UI32TOF32 R1H,@||MEP_ScaleFactor|| ; [CPU_FPU] |192| 
         000001eb 0100 
    4569 000001ec 7700          NOP       ; [CPU_ALU] 
    4570 000001ed E840          MPYF32    R1H,R1H,#0            ; [CPU_FPU] |192| 
         000001ee 0009 
    4571                      .dwpsn  file "C:/ti/C2000Ware_DigitalPower_SDK_3_00_01_00/c2000ware/driverlib/f28004x/driverlib/epwm.
    4572 000001ef BE00          MOVB      XAR6,#0               ; [CPU_ALU] |2409| 
    4573                      .dwpsn  file "C:\Users\a0230328\workspace_v10\bts_F2800x_4ch_v2\bts_hal.h",line 192,column 21,is_stmt
    4574 000001f0 E68E          F32TOUI16 R1H,R1H               ; [CPU_FPU] |192| 
         000001f1 0009 
    4575                      .dwpsn  file "C:/ti/C2000Ware_DigitalPower_SDK_3_00_01_00/c2000ware/driverlib/f28004x/driverlib/epwm.
    4576 000001f2 F4A6          MOV       *(0:0x406b),AR6       ; [CPU_ALU] |2409| 
         000001f3 406B 
    4577 000001f4 761F!         MOVW      DP,#||BTS_ctrlLoopVariable_ch1|| ; [CPU_ARAU] 
         000001f5 0000 
    4578                      .dwpsn  file "C:\Users\a0230328\workspace_v10\bts_F2800x_4ch_v2\bts_hal.h",line 192,column 21,is_stmt
    4579 000001f6 BFA9          MOV32     ACC,R1H               ; [CPU_FPU] |192| 
         000001f7 0F16 
    4580                      .dwpsn  file "C:/ti/C2000Ware_DigitalPower_SDK_3_00_01_00/c2000ware/driverlib/f28004x/driverlib/hrpwm
    4581 000001f8 5603          MOV       ACC,AL << #8          ; [CPU_ALU] |1255| 
         000001f9 08A9 
    4582                      .dwpsn  file "C:/Users/a0230328/workspace_v10/bts_F2800x_4ch_v2/bts.h",line 492,column 17,is_stmt,isa
    4583 000001fa E591          ZERO      R1H                   ; [CPU_FPU] |492| 
    4584                      .dwpsn  file "C:/ti/C2000Ware_DigitalPower_SDK_3_00_01_00/c2000ware/driverlib/f28004x/driverlib/epwm.
    4585 000001fb 9B00          MOVB      AH,#0                 ; [CPU_ALU] |2409| 
    4586                      .dwpsn  file "C:/ti/C2000Ware_DigitalPower_SDK_3_00_01_00/c2000ware/driverlib/f28004x/driverlib/hrpwm
TMS320C2000 Assembler PC v20.2.1 Mon Nov  2 17:14:28 2020

Copyright (c) 1996-2018 Texas Instruments Incorporated
bts_main.asm                                                         PAGE   92

    4587 000001fc F4A9          MOV       *(0:0x406a),AL        ; [CPU_ALU] |1255| 
         000001fd 406A 
    4588                      .dwpsn  file "C:/Users/a0230328/workspace_v10/bts_F2800x_4ch_v2/bts.h",line 492,column 17,is_stmt,isa
    4589 000001fe E203!         MOV32     @$BLOCKED(||BTS_ctrlLoopVariable_ch1||),R1H ; [CPU_FPU] |492| 
         000001ff 0100 
    4590                      .dwpsn  file "C:/ti/C2000Ware_DigitalPower_SDK_3_00_01_00/c2000ware/driverlib/f28004x/driverlib/epwm.
    4591 00000200 F4A8          MOV       *(0:0x406d),AH        ; [CPU_ALU] |2409| 
         00000201 406D 
    4592                      .dwpsn  file "C:/ti/C2000Ware_DigitalPower_SDK_3_00_01_00/c2000ware/driverlib/f28004x/driverlib/hrpwm
    4593 00000202 F4A9          MOV       *(0:0x406c),AL        ; [CPU_ALU] |1262| 
         00000203 406C 
    4594 00000204       ||$C$L43||:    
    4595                      .dwpsn  file "C:/Users/a0230328/workspace_v10/bts_F2800x_4ch_v2/bts.h",line 494,column 13,is_stmt,isa
    4596 00000204 E801          MOVIZ     R1H,#16140            ; [CPU_FPU] |494| 
         00000205 F861 
    4597 00000206 E80E          MOVXI     R1H,#52429            ; [CPU_FPU] |494| 
         00000207 6669 
    4598 00000208 E694          CMPF32    R0H,R1H               ; [CPU_FPU] |494| 
         00000209 0008 
    4599 0000020a AD14          MOVST0    ZF, NF                ; [CPU_FPU] |494| 
    4600 0000020b FFE4          B         ||$C$L51||,LT         ; [CPU_ALU] |494| 
         0000020c 009B 
    4601                      ; branchcc occurs ; [] |494| 
    4602 0000020d 761F!         MOVW      DP,#||MEP_ScaleFactor|| ; [CPU_ARAU] 
         0000020e 0000 
    4603                      .dwpsn  file "C:\Users\a0230328\workspace_v10\bts_F2800x_4ch_v2\bts_hal.h",line 192,column 21,is_stmt
    4604 0000020f E801          MOVIZ     R0H,#16102            ; [CPU_FPU] |192| 
         00000210 F730 
    4605 00000211 E284!         UI32TOF32 R1H,@||MEP_ScaleFactor|| ; [CPU_FPU] |192| 
         00000212 0100 
    4606 00000213 E80B          MOVXI     R0H,#26624            ; [CPU_FPU] |192| 
         00000214 4000 
    4607 00000215 E700          MPYF32    R0H,R0H,R1H           ; [CPU_FPU] |192| 
         00000216 0040 
    4608                      .dwpsn  file "C:/ti/C2000Ware_DigitalPower_SDK_3_00_01_00/c2000ware/driverlib/f28004x/driverlib/epwm.
    4609 00000217 7680          MOVL      XAR6,#549             ; [CPU_ALU] |2409| 
         00000218 0225 
    4610                      .dwpsn  file "C:\Users\a0230328\workspace_v10\bts_F2800x_4ch_v2\bts_hal.h",line 192,column 21,is_stmt
    4611 00000219 E68E          F32TOUI16 R0H,R0H               ; [CPU_FPU] |192| 
         0000021a 0000 
    4612                      .dwpsn  file "C:/ti/C2000Ware_DigitalPower_SDK_3_00_01_00/c2000ware/driverlib/f28004x/driverlib/epwm.
    4613 0000021b F4A6          MOV       *(0:0x406b),AR6       ; [CPU_ALU] |2409| 
         0000021c 406B 
    4614 0000021d 761F!         MOVW      DP,#||BTS_ctrlLoopVariable_ch1|| ; [CPU_ARAU] 
         0000021e 0000 
    4615                      .dwpsn  file "C:\Users\a0230328\workspace_v10\bts_F2800x_4ch_v2\bts_hal.h",line 192,column 21,is_stmt
    4616 0000021f BFA9          MOV32     ACC,R0H               ; [CPU_FPU] |192| 
         00000220 0F12 
    4617                      .dwpsn  file "C:/ti/C2000Ware_DigitalPower_SDK_3_00_01_00/c2000ware/driverlib/f28004x/driverlib/hrpwm
    4618 00000221 5603          MOV       ACC,AL << #8          ; [CPU_ALU] |1255| 
         00000222 08A9 
    4619                      .dwpsn  file "C:/Users/a0230328/workspace_v10/bts_F2800x_4ch_v2/bts.h",line 498,column 17,is_stmt,isa
    4620 00000223 E801          MOVIZ     R0H,#16140            ; [CPU_FPU] |498| 
         00000224 F860 
    4621                      .dwpsn  file "C:/ti/C2000Ware_DigitalPower_SDK_3_00_01_00/c2000ware/driverlib/f28004x/driverlib/epwm.
TMS320C2000 Assembler PC v20.2.1 Mon Nov  2 17:14:28 2020

Copyright (c) 1996-2018 Texas Instruments Incorporated
bts_main.asm                                                         PAGE   93

    4622 00000225 28A8          MOV       AH,#549               ; [CPU_ALU] |2409| 
         00000226 0225 
    4623                      .dwpsn  file "C:/ti/C2000Ware_DigitalPower_SDK_3_00_01_00/c2000ware/driverlib/f28004x/driverlib/hrpwm
    4624 00000227 F4A9          MOV       *(0:0x406a),AL        ; [CPU_ALU] |1255| 
         00000228 406A 
    4625                      .dwpsn  file "C:/Users/a0230328/workspace_v10/bts_F2800x_4ch_v2/bts.h",line 498,column 17,is_stmt,isa
    4626 00000229 E80E          MOVXI     R0H,#52429            ; [CPU_FPU] |498| 
         0000022a 6668 
    4627                      .dwpsn  file "C:/ti/C2000Ware_DigitalPower_SDK_3_00_01_00/c2000ware/driverlib/f28004x/driverlib/epwm.
    4628 0000022b F4A8          MOV       *(0:0x406d),AH        ; [CPU_ALU] |2409| 
         0000022c 406D 
    4629                      .dwpsn  file "C:/Users/a0230328/workspace_v10/bts_F2800x_4ch_v2/bts.h",line 498,column 17,is_stmt,isa
    4630 0000022d E203!         MOV32     @$BLOCKED(||BTS_ctrlLoopVariable_ch1||),R0H ; [CPU_FPU] |498| 
         0000022e 0000 
    4631                      .dwpsn  file "C:/ti/C2000Ware_DigitalPower_SDK_3_00_01_00/c2000ware/driverlib/f28004x/driverlib/hrpwm
    4632 0000022f F4A9          MOV       *(0:0x406c),AL        ; [CPU_ALU] |1262| 
         00000230 406C 
    4633                      .dwpsn  file "C:/Users/a0230328/workspace_v10/bts_F2800x_4ch_v2/bts.h",line 498,column 17,is_stmt,isa
    4634 00000231 6F75          B         ||$C$L51||,UNC        ; [CPU_ALU] |498| 
    4635                      ; branch occurs ; [] |498| 
    4636 00000232       ||$C$L44||:    
    4637 00000232 761F!         MOVW      DP,#||BTS_ctrlLoopVariable_ch1||+31 ; [CPU_ARAU] 
         00000233 0000 
    4638                      .dwpsn  file "C:/Users/a0230328/workspace_v10/bts_F2800x_4ch_v2/bts.h",line 364,column 5,is_stmt,isa 
    4639 00000234 921F!         MOV       AL,@$BLOCKED(||BTS_ctrlLoopVariable_ch1||)+31 ; [CPU_ALU] |364| 
    4640                      .dwpsn  file "C:/Users/a0230328/workspace_v10/bts_F2800x_4ch_v2/bts.h",line 479,column 13,is_stmt,isa
    4641 00000235 E203!         MOV32     @$BLOCKED(||BTS_ctrlLoopVariable_ch1||),R0H ; [CPU_FPU] |479| 
         00000236 0000 
    4642                      .dwpsn  file "C:/Users/a0230328/workspace_v10/bts_F2800x_4ch_v2/bts.h",line 364,column 5,is_stmt,isa 
    4643 00000237 600F          B         ||$C$L46||,NEQ        ; [CPU_ALU] |364| 
    4644                      ; branchcc occurs ; [] |364| 
    4645                      .dwpsn  file "C:/Users/a0230328/workspace_v10/bts_F2800x_4ch_v2/bts.h",line 381,column 9,is_stmt,isa 
    4646 00000238 1BA6          CMP       AR6,#28842            ; [CPU_ALU] |381| 
         00000239 70AA 
    4647 0000023a 6306          B         ||$C$L45||,GEQ        ; [CPU_ALU] |381| 
    4648                      ; branchcc occurs ; [] |381| 
    4649                      .dwpsn  file "C:/ti/C2000Ware_DigitalPower_SDK_3_00_01_00/c2000ware/driverlib/f28004x/driverlib/epwm.
    4650 0000023b F5A9          MOV       AL,*(0:0x4149)        ; [CPU_ALU] |3037| 
         0000023c 4149 
    4651 0000023d 18A9          AND       AL,#0xfffc            ; [CPU_ALU] |3037| 
         0000023e FFFC 
    4652                      .dwpsn  file "C:/Users/a0230328/workspace_v10/bts_F2800x_4ch_v2/bts.h",line 389,column 13,is_stmt,isa
    4653 0000023f 6F0E          B         ||$C$L47||,UNC        ; [CPU_ALU] |389| 
    4654                      ; branch occurs ; [] |389| 
    4655 00000240       ||$C$L45||:    
    4656                      .dwpsn  file "C:/ti/C2000Ware_DigitalPower_SDK_3_00_01_00/c2000ware/driverlib/f28004x/driverlib/epwm.
    4657 00000240 F5A9          MOV       AL,*(0:0x4049)        ; [CPU_ALU] |3037| 
         00000241 4049 
    4658 00000242 CCA9          AND       AL,AL,#0xfffc         ; [CPU_ALU] |3037| 
         00000243 FFFC 
    4659 00000244 5001          ORB       AL,#0x01              ; [CPU_ALU] |3037| 
    4660 00000245 6F10          B         ||$C$L49||,UNC        ; [CPU_ALU] 
    4661                      ; branch occurs ; [] 
    4662 00000246       ||$C$L46||:    
    4663                      .dwpsn  file "C:/Users/a0230328/workspace_v10/bts_F2800x_4ch_v2/bts.h",line 367,column 9,is_stmt,isa 
TMS320C2000 Assembler PC v20.2.1 Mon Nov  2 17:14:28 2020

Copyright (c) 1996-2018 Texas Instruments Incorporated
bts_main.asm                                                         PAGE   94

    4664 00000246 1BA6          CMP       AR6,#-28841           ; [CPU_ALU] |367| 
         00000247 8F57 
    4665 00000248 6408          B         ||$C$L48||,LT         ; [CPU_ALU] |367| 
    4666                      ; branchcc occurs ; [] |367| 
    4667                      .dwpsn  file "C:/ti/C2000Ware_DigitalPower_SDK_3_00_01_00/c2000ware/driverlib/f28004x/driverlib/epwm.
    4668 00000249 F5A9          MOV       AL,*(0:0x4149)        ; [CPU_ALU] |3043| 
         0000024a 4149 
    4669 0000024b 18A9          AND       AL,#0xfff3            ; [CPU_ALU] |3043| 
         0000024c FFF3 
    4670 0000024d       ||$C$L47||:    
    4671 0000024d F4A9          MOV       *(0:0x4149),AL        ; [CPU_ALU] |3043| 
         0000024e 4149 
    4672                      .dwpsn  file "C:/Users/a0230328/workspace_v10/bts_F2800x_4ch_v2/bts.h",line 375,column 13,is_stmt,isa
    4673 0000024f 6F08          B         ||$C$L50||,UNC        ; [CPU_ALU] |375| 
    4674                      ; branch occurs ; [] |375| 
    4675 00000250       ||$C$L48||:    
    4676                      .dwpsn  file "C:/ti/C2000Ware_DigitalPower_SDK_3_00_01_00/c2000ware/driverlib/f28004x/driverlib/epwm.
    4677 00000250 F5A9          MOV       AL,*(0:0x4049)        ; [CPU_ALU] |3043| 
         00000251 4049 
    4678 00000252 CCA9          AND       AL,AL,#0xfffb         ; [CPU_ALU] |3043| 
         00000253 FFFB 
    4679 00000254 5008          ORB       AL,#0x08              ; [CPU_ALU] |3043| 
    4680 00000255       ||$C$L49||:    
    4681 00000255 F4A9          MOV       *(0:0x4049),AL        ; [CPU_ALU] |3043| 
         00000256 4049 
    4682 00000257       ||$C$L50||:    
    4683                      .dwpsn  file "C:\Users\a0230328\workspace_v10\bts_F2800x_4ch_v2\bts_hal.h",line 192,column 21,is_stmt
    4684 00000257 E802          MOVIZ     R2H,#17529            ; [CPU_FPU] |192| 
         00000258 23CA 
    4685 00000259 E80E          MOVXI     R2H,#49152            ; [CPU_FPU] |192| 
         0000025a 0002 
    4686 0000025b E700          MPYF32    R2H,R2H,R0H           ; [CPU_FPU] |192| 
         0000025c 0012 
    4687 0000025d 7700          NOP       ; [CPU_ALU] 
    4688 0000025e E68E          F32TOUI16 R3H,R2H               ; [CPU_FPU] |192| 
         0000025f 0013 
    4689 00000260 7700          NOP       ; [CPU_ALU] 
    4690 00000261 7700          NOP       ; [CPU_ALU] 
    4691 00000262 BFA6          MOV32     XAR6,R3H              ; [CPU_FPU] |192| 
         00000263 0F1E 
    4692 00000264 0EA6          MOVU      ACC,AR6               ; [CPU_ALU] |192| 
    4693 00000265 BDA9          MOV32     R3H,ACC               ; [CPU_FPU] |192| 
         00000266 0F1E 
    4694 00000267 7700          NOP       ; [CPU_ALU] 
    4695 00000268 7700          NOP       ; [CPU_ALU] 
    4696 00000269 7700          NOP       ; [CPU_ALU] 
    4697 0000026a 761F!         MOVW      DP,#||MEP_ScaleFactor|| ; [CPU_ARAU] 
         0000026b 0000 
    4698 0000026c E68B          UI32TOF32 R3H,R3H               ; [CPU_FPU] |192| 
         0000026d 001B 
    4699 0000026e E284!         UI32TOF32 R4H,@||MEP_ScaleFactor|| ; [CPU_FPU] |192| 
         0000026f 0400 
    4700 00000270 E720          SUBF32    R2H,R2H,R3H           ; [CPU_FPU] |192| 
         00000271 00D2 
    4701 00000272 7700          NOP       ; [CPU_ALU] 
TMS320C2000 Assembler PC v20.2.1 Mon Nov  2 17:14:28 2020

Copyright (c) 1996-2018 Texas Instruments Incorporated
bts_main.asm                                                         PAGE   95

    4702 00000273 E700          MPYF32    R2H,R4H,R2H           ; [CPU_FPU] |192| 
         00000274 00A2 
    4703 00000275 7700          NOP       ; [CPU_ALU] 
    4704 00000276 E68E          F32TOUI16 R2H,R2H               ; [CPU_FPU] |192| 
         00000277 0012 
    4705 00000278 761F!         MOVW      DP,#||BTS_ctrl_cc_ch1||+6 ; [CPU_ARAU] 
         00000279 0000 
    4706                      .dwpsn  file "C:/ti/C2000Ware_DigitalPower_SDK_3_00_01_00/c2000ware/driverlib/f28004x/driverlib/epwm.
    4707 0000027a F4A6          MOV       *(0:0x406b),AR6       ; [CPU_ALU] |2409| 
         0000027b 406B 
    4708                      .dwpsn  file "C:\Users\a0230328\workspace_v10\bts_F2800x_4ch_v2\bts_hal.h",line 192,column 21,is_stmt
    4709 0000027c BFA9          MOV32     ACC,R2H               ; [CPU_FPU] |192| 
         0000027d 0F1A 
    4710                      .dwpsn  file "C:/ti/C2000Ware_DigitalPower_SDK_3_00_01_00/c2000ware/driverlib/f28004x/driverlib/hrpwm
    4711 0000027e 5603          MOV       ACC,AL << #8          ; [CPU_ALU] |1255| 
         0000027f 08A9 
    4712 00000280 F4A9          MOV       *(0:0x406a),AL        ; [CPU_ALU] |1255| 
         00000281 406A 
    4713                      .dwpsn  file "C:/ti/C2000Ware_DigitalPower_SDK_3_00_01_00/c2000ware/driverlib/f28004x/driverlib/epwm.
    4714 00000282 F4A6          MOV       *(0:0x406d),AR6       ; [CPU_ALU] |2409| 
         00000283 406D 
    4715                      .dwpsn  file "C:/ti/C2000Ware_DigitalPower_SDK_3_00_01_00/c2000ware/driverlib/f28004x/driverlib/hrpwm
    4716 00000284 F4A9          MOV       *(0:0x406c),AL        ; [CPU_ALU] |1262| 
         00000285 406C 
    4717                      .dwpsn  file "C:/Users/a0230328/workspace_v10/bts_F2800x_4ch_v2/libraries/DCL/DCLF32.h",line 1458,col
    4718 00000286 E2AF!         MOV32     R2H,@$BLOCKED(||BTS_ctrl_cc_ch1||)+6 ; [CPU_FPU] |1458| 
         00000287 0206 
    4719 00000288 E2AF!         MOV32     R3H,@$BLOCKED(||BTS_ctrl_cc_ch1||)+2 ; [CPU_FPU] |1458| 
         00000289 0302 
    4720 0000028a E700          MPYF32    R3H,R1H,R3H           ; [CPU_FPU] |1458| 
         0000028b 00CB 
    4721              
    4722                      MOV32     R4H,@$BLOCKED(||BTS_ctrl_cc_ch1||)+12 ; [CPU_FPU] |1458| 
    4723 0000028c E304! ||      MPYF32    R2H,R0H,R2H           ; [CPU_FPU] |1458| 
         0000028d 140C 
    4724              
    4725 0000028e E710          ADDF32    R3H,R3H,R4H           ; [CPU_FPU] |1458| 
         0000028f 011B 
    4726 00000290 7700          NOP       ; [CPU_ALU] 
    4727 00000291 E720          SUBF32    R2H,R3H,R2H           ; [CPU_FPU] |1458| 
         00000292 009A 
    4728 00000293 7700          NOP       ; [CPU_ALU] 
    4729 00000294 E203!         MOV32     @$BLOCKED(||BTS_ctrl_cc_ch1||)+10,R2H ; [CPU_FPU] |1458| 
         00000295 020A 
    4730                      .dwpsn  file "C:/Users/a0230328/workspace_v10/bts_F2800x_4ch_v2/libraries/DCL/DCLF32.h",line 1459,col
    4731 00000296 E2AF!         MOV32     R2H,@$BLOCKED(||BTS_ctrl_cc_ch1||)+8 ; [CPU_FPU] |1459| 
         00000297 0208 
    4732              
    4733                      MOV32     R3H,@$BLOCKED(||BTS_ctrl_cc_ch1||)+4 ; [CPU_FPU] |1459| 
    4734 00000298 E304! ||      MPYF32    R2H,R0H,R2H           ; [CPU_FPU] |1459| 
         00000299 1304 
    4735              
    4736 0000029a E700          MPYF32    R1H,R1H,R3H           ; [CPU_FPU] |1459| 
         0000029b 00C9 
    4737 0000029c 761F!         MOVW      DP,#||BTS_ctrlLoopVariable_ch1||+26 ; [CPU_ARAU] 
TMS320C2000 Assembler PC v20.2.1 Mon Nov  2 17:14:28 2020

Copyright (c) 1996-2018 Texas Instruments Incorporated
bts_main.asm                                                         PAGE   96

         0000029d 0000 
    4738                      .dwpsn  file "C:/Users/a0230328/workspace_v10/bts_F2800x_4ch_v2/bts.h",line 395,column 5,is_stmt,isa 
    4739 0000029e E203!         MOV32     @$BLOCKED(||BTS_ctrlLoopVariable_ch1||)+28,R0H ; [CPU_FPU] |395| 
         0000029f 001C 
    4740                      .dwpsn  file "C:/Users/a0230328/workspace_v10/bts_F2800x_4ch_v2/bts.h",line 394,column 5,is_stmt,isa 
    4741              
    4742 000002a0 E024!         SUBF32    R1H,R1H,R2H           ; [CPU_FPU] |1459| 
         000002a1 481A 
    4743              ||      MOV32     @$BLOCKED(||BTS_ctrlLoopVariable_ch1||)+26,R0H ; [CPU_FPU] |394| 
    4744              
    4745 000002a2 761F!         MOVW      DP,#||BTS_ctrl_cc_ch1||+12 ; [CPU_ARAU] 
         000002a3 0000 
    4746                      .dwpsn  file "C:/Users/a0230328/workspace_v10/bts_F2800x_4ch_v2/libraries/DCL/DCLF32.h",line 1459,col
    4747 000002a4 E203!         MOV32     @$BLOCKED(||BTS_ctrl_cc_ch1||)+12,R1H ; [CPU_FPU] |1459| 
         000002a5 010C 
    4748 000002a6       ||$C$L51||:    
    4749 000002a6 761F!         MOVW      DP,#||BTS_ADC1||+6    ; [CPU_ARAU] 
         000002a7 0000 
    4750                      .dwpsn  file "C:/Users/a0230328/workspace_v10/bts_F2800x_4ch_v2/bts.h",line 349,column 5,is_stmt,isa 
    4751 000002a8 D048          MOVB      XAR0,#72              ; [CPU_ALU] |349| 
    4752 000002a9 8F00!         MOVL      XAR4,#||BTS_measValues_ch2|| ; [CPU_ARAU] |349| 
         000002aa 0000 
    4753                      .dwpsn  file "C:/Users/a0230328/workspace_v10/bts_F2800x_4ch_v2/bts.h",line 348,column 105,is_stmt,is
    4754 000002ab C506!         MOVL      XAR7,@$BLOCKED(||BTS_ADC1||)+6 ; [CPU_ALU] |348| 
    4755                      .dwpsn  file "C:/Users/a0230328/workspace_v10/bts_F2800x_4ch_v2/bts.h",line 349,column 5,is_stmt,isa 
    4756 000002ac 2794          MOV       PL,*+XAR4[AR0]        ; [CPU_ALU] |349| 
    4757                      .dwpsn  file "C:/Users/a0230328/workspace_v10/bts_F2800x_4ch_v2/bts.h",line 348,column 105,is_stmt,is
    4758 000002ad 92AB          MOV       AL,PL                 ; [CPU_ALU] |348| 
    4759 000002ae C408!         MOVL      XAR6,@$BLOCKED(||BTS_ADC1||)+8 ; [CPU_ALU] |348| 
    4760                      .dwpsn  file "C:/Users/a0230328/workspace_v10/bts_F2800x_4ch_v2/bts.h",line 349,column 5,is_stmt,isa 
    4761 000002af 5220          CMPB      AL,#32                ; [CPU_ALU] |349| 
    4762 000002b0 6804          B         ||$C$L52||,LO         ; [CPU_ALU] |349| 
    4763                      ; branchcc occurs ; [] |349| 
    4764                      .dwpsn  file "C:/Users/a0230328/workspace_v10/bts_F2800x_4ch_v2/bts.h",line 355,column 9,is_stmt,isa 
    4765 000002b1 D048          MOVB      XAR0,#72              ; [CPU_ALU] |355| 
    4766 000002b2 2B94          MOV       *+XAR4[AR0],#0        ; [CPU_ALU] |355| 
    4767 000002b3 6F0D          B         ||$C$L53||,UNC        ; [CPU_ALU] |355| 
    4768                      ; branch occurs ; [] |355| 
    4769 000002b4       ||$C$L52||:    
    4770                      .dwpsn  file "C:/Users/a0230328/workspace_v10/bts_F2800x_4ch_v2/bts.h",line 350,column 9,is_stmt,isa 
    4771 000002b4 A8A9          MOVL      ACC,XAR4              ; [CPU_ALU] |350| 
    4772 000002b5 0DAB          ADDU      ACC,PL                ; [CPU_ALU] |350| 
    4773 000002b6 83A9          MOVL      XAR5,ACC              ; [CPU_ALU] |350| 
    4774 000002b7 761F!         MOVW      DP,#||BTS_measValues_ch2||+72 ; [CPU_ARAU] 
         000002b8 0001 
    4775                      .dwpsn  file "C:/Users/a0230328/workspace_v10/bts_F2800x_4ch_v2/bts.h",line 351,column 9,is_stmt,isa 
    4776 000002b9 A8A9          MOVL      ACC,XAR4              ; [CPU_ALU] |351| 
    4777                      .dwpsn  file "C:/Users/a0230328/workspace_v10/bts_F2800x_4ch_v2/bts.h",line 350,column 9,is_stmt,isa 
    4778 000002ba 7FE5          MOV       *+XAR5[4],AR7         ; [CPU_ALU] |350| 
    4779                      .dwpsn  file "C:/Users/a0230328/workspace_v10/bts_F2800x_4ch_v2/bts.h",line 351,column 9,is_stmt,isa 
    4780 000002bb 0D08!         ADDU      ACC,@$BLOCKED(||BTS_measValues_ch2||)+72 ; [CPU_ALU] |351| 
    4781 000002bc 8AA9          MOVL      XAR4,ACC              ; [CPU_ALU] |351| 
    4782 000002bd D024          MOVB      XAR0,#36              ; [CPU_ALU] |351| 
    4783 000002be 7E94          MOV       *+XAR4[AR0],AR6       ; [CPU_ALU] |351| 
    4784                      .dwpsn  file "C:/Users/a0230328/workspace_v10/bts_F2800x_4ch_v2/bts.h",line 352,column 9,is_stmt,isa 
TMS320C2000 Assembler PC v20.2.1 Mon Nov  2 17:14:28 2020

Copyright (c) 1996-2018 Texas Instruments Incorporated
bts_main.asm                                                         PAGE   97

    4785 000002bf 0A08!         INC       @$BLOCKED(||BTS_measValues_ch2||)+72 ; [CPU_ALU] |352| 
    4786 000002c0       ||$C$L53||:    
    4787 000002c0 761F!         MOVW      DP,#||BTS_ADC1||+6    ; [CPU_ARAU] 
         000002c1 0000 
    4788                      .dwpsn  file "C:/Users/a0230328/workspace_v10/bts_F2800x_4ch_v2/bts.h",line 400,column 189,is_stmt,is
    4789 000002c2 C406!         MOVL      XAR6,@$BLOCKED(||BTS_ADC1||)+6 ; [CPU_ALU] |400| 
    4790 000002c3 C508!         MOVL      XAR7,@$BLOCKED(||BTS_ADC1||)+8 ; [CPU_ALU] |400| 
    4791 000002c4 761F!         MOVW      DP,#||BTS_ctrlLoopVariable_ch2||+34 ; [CPU_ARAU] 
         000002c5 0000 
    4792                      .dwpsn  file "C:/Users/a0230328/workspace_v10/bts_F2800x_4ch_v2/bts.h",line 323,column 5,is_stmt,isa 
    4793 000002c6 9322!         MOV       AH,@$BLOCKED(||BTS_ctrlLoopVariable_ch2||)+34 ; [CPU_ALU] |323| 
    4794 000002c7 6009          B         ||$C$L54||,NEQ        ; [CPU_ALU] |323| 
    4795                      ; branchcc occurs ; [] |323| 
    4796                      .dwpsn  file "C:/ti/C2000Ware_DigitalPower_SDK_3_00_01_00/c2000ware/driverlib/f28004x/driverlib/epwm.
    4797 000002c8 7622          EALLOW    ; [CPU_ALU] |4497| 
    4798                      .dwpsn  file "C:/ti/C2000Ware_DigitalPower_SDK_3_00_01_00/c2000ware/driverlib/f28004x/driverlib/epwm.
    4799 000002c9 F5A8          MOV       AH,*(0:0x4197)        ; [CPU_ALU] |4498| 
         000002ca 4197 
    4800 000002cb 5104          ORB       AH,#0x04              ; [CPU_ALU] |4498| 
    4801 000002cc F4A8          MOV       *(0:0x4197),AH        ; [CPU_ALU] |4498| 
         000002cd 4197 
    4802                      .dwpsn  file "C:/ti/C2000Ware_DigitalPower_SDK_3_00_01_00/c2000ware/driverlib/f28004x/driverlib/epwm.
    4803 000002ce 761A          EDIS      ; [CPU_ALU] |4499| 
    4804                      .dwpsn  file "C:/Users/a0230328/workspace_v10/bts_F2800x_4ch_v2/bts.h",line 340,column 9,is_stmt,isa 
    4805 000002cf 6F23          B         ||$C$L55||,UNC        ; [CPU_ALU] |340| 
    4806                      ; branch occurs ; [] |340| 
    4807 000002d0       ||$C$L54||:    
    4808                      .dwpsn  file "C:/ti/C2000Ware_DigitalPower_SDK_3_00_01_00/c2000ware/driverlib/f28004x/driverlib/epwm.
    4809 000002d0 7622          EALLOW    ; [CPU_ALU] |4611| 
    4810                      .dwpsn  file "C:/ti/C2000Ware_DigitalPower_SDK_3_00_01_00/c2000ware/driverlib/f28004x/driverlib/epwm.
    4811 000002d1 F5A8          MOV       AH,*(0:0x419b)        ; [CPU_ALU] |4612| 
         000002d2 419B 
    4812 000002d3 5104          ORB       AH,#0x04              ; [CPU_ALU] |4612| 
    4813 000002d4 F4A8          MOV       *(0:0x419b),AH        ; [CPU_ALU] |4612| 
         000002d5 419B 
    4814                      .dwpsn  file "C:/ti/C2000Ware_DigitalPower_SDK_3_00_01_00/c2000ware/driverlib/f28004x/driverlib/epwm.
    4815 000002d6 F5A8          MOV       AH,*(0:0x4184)        ; [CPU_ALU] |4062| 
         000002d7 4184 
    4816 000002d8 CDA8          AND       AH,AH,#0xfffe         ; [CPU_ALU] |4062| 
         000002d9 FFFE 
    4817 000002da 5102          ORB       AH,#0x02              ; [CPU_ALU] |4062| 
    4818 000002db F4A8          MOV       *(0:0x4184),AH        ; [CPU_ALU] |4062| 
         000002dc 4184 
    4819                      .dwpsn  file "C:/ti/C2000Ware_DigitalPower_SDK_3_00_01_00/c2000ware/driverlib/f28004x/driverlib/epwm.
    4820 000002dd 761A          EDIS      ; [CPU_ALU] |4065| 
    4821                      .dwpsn  file "C:/ti/C2000Ware_DigitalPower_SDK_3_00_01_00/c2000ware/driverlib/f28004x/driverlib/epwm.
    4822 000002de 28A9          MOV       AL,#999               ; [CPU_ALU] |2409| 
         000002df 03E7 
    4823 000002e0 9B00          MOVB      AH,#0                 ; [CPU_ALU] |2409| 
    4824                      .dwpsn  file "C:/Users/a0230328/workspace_v10/bts_F2800x_4ch_v2/bts.h",line 334,column 9,is_stmt,isa 
    4825 000002e1 E591          ZERO      R1H                   ; [CPU_FPU] |334| 
    4826 000002e2 761F!         MOVW      DP,#||BTS_ctrl_cc_ch2||+10 ; [CPU_ARAU] 
         000002e3 0000 
    4827                      .dwpsn  file "C:/Users/a0230328/workspace_v10/bts_F2800x_4ch_v2/bts.h",line 335,column 9,is_stmt,isa 
    4828 000002e4 E590          ZERO      R0H                   ; [CPU_FPU] |335| 
TMS320C2000 Assembler PC v20.2.1 Mon Nov  2 17:14:28 2020

Copyright (c) 1996-2018 Texas Instruments Incorporated
bts_main.asm                                                         PAGE   98

    4829                      .dwpsn  file "C:/ti/C2000Ware_DigitalPower_SDK_3_00_01_00/c2000ware/driverlib/f28004x/driverlib/epwm.
    4830 000002e5 F4A8          MOV       *(0:0x416b),AH        ; [CPU_ALU] |2409| 
         000002e6 416B 
    4831 000002e7 F4A9          MOV       *(0:0x416d),AL        ; [CPU_ALU] |2409| 
         000002e8 416D 
    4832                      .dwpsn  file "C:/ti/C2000Ware_DigitalPower_SDK_3_00_01_00/c2000ware/driverlib/f28004x/driverlib/hrpwm
    4833 000002e9 9A00          MOVB      AL,#0                 ; [CPU_ALU] |1262| 
    4834                      .dwpsn  file "C:/ti/C2000Ware_DigitalPower_SDK_3_00_01_00/c2000ware/driverlib/f28004x/driverlib/hrpwm
    4835 000002ea F4A8          MOV       *(0:0x416a),AH        ; [CPU_ALU] |1255| 
         000002eb 416A 
    4836                      .dwpsn  file "C:/ti/C2000Ware_DigitalPower_SDK_3_00_01_00/c2000ware/driverlib/f28004x/driverlib/hrpwm
    4837 000002ec F4A9          MOV       *(0:0x416c),AL        ; [CPU_ALU] |1262| 
         000002ed 416C 
    4838                      .dwpsn  file "C:/Users/a0230328/workspace_v10/bts_F2800x_4ch_v2/bts.h",line 334,column 9,is_stmt,isa 
    4839 000002ee E203!         MOV32     @$BLOCKED(||BTS_ctrl_cc_ch2||)+10,R1H ; [CPU_FPU] |334| 
         000002ef 010A 
    4840                      .dwpsn  file "C:/Users/a0230328/workspace_v10/bts_F2800x_4ch_v2/bts.h",line 335,column 9,is_stmt,isa 
    4841 000002f0 E203!         MOV32     @$BLOCKED(||BTS_ctrl_cc_ch2||)+12,R0H ; [CPU_FPU] |335| 
         000002f1 000C 
    4842 000002f2       ||$C$L55||:    
    4843 000002f2 761F!         MOVW      DP,#||BTS_ctrlLoopVariable_ch2||+4 ; [CPU_ARAU] 
         000002f3 0000 
    4844                      .dwpsn  file "C:/Users/a0230328/workspace_v10/bts_F2800x_4ch_v2/bts.h",line 408,column 5,is_stmt,isa 
    4845 000002f4 85A6          MOV       ACC,AR6               ; [CPU_ALU] |408| 
    4846                      .dwpsn  file "C:/Users/a0230328/workspace_v10/bts_F2800x_4ch_v2/libraries/DCL/DCLF32.h",line 1697,col
    4847 000002f5 E2AF!         MOV32     R1H,@$BLOCKED(||BTS_ctrlLoopVariable_ch2||)+4 ; [CPU_FPU] |1697| 
         000002f6 0104 
    4848                      .dwpsn  file "C:/Users/a0230328/workspace_v10/bts_F2800x_4ch_v2/bts.h",line 408,column 5,is_stmt,isa 
    4849 000002f7 BDA9          MOV32     R2H,ACC               ; [CPU_FPU] |408| 
         000002f8 0F1A 
    4850                      .dwpsn  file "C:/Users/a0230328/workspace_v10/bts_F2800x_4ch_v2/libraries/DCL/DCLF32.h",line 1697,col
    4851 000002f9 E6CF          MOV32     R6H,R1H               ; [CPU_FPU] |1697| 
         000002fa 000E 
    4852                      .dwpsn  file "C:/Users/a0230328/workspace_v10/bts_F2800x_4ch_v2/bts.h",line 418,column 5,is_stmt,isa 
    4853 000002fb E2AF!         MOV32     R7H,@$BLOCKED(||BTS_ctrlLoopVariable_ch2||)+10 ; [CPU_FPU] |418| 
         000002fc 070A 
    4854                      .dwpsn  file "C:/Users/a0230328/workspace_v10/bts_F2800x_4ch_v2/bts.h",line 420,column 5,is_stmt,isa 
    4855 000002fd E2AF!         MOV32     R5H,@$BLOCKED(||BTS_ctrlLoopVariable_ch2||)+24 ; [CPU_FPU] |420| 
         000002fe 0518 
    4856                      .dwpsn  file "C:/Users/a0230328/workspace_v10/bts_F2800x_4ch_v2/bts.h",line 409,column 5,is_stmt,isa 
    4857 000002ff 85A7          MOV       ACC,AR7               ; [CPU_ALU] |409| 
    4858                      .dwpsn  file "C:/Users/a0230328/workspace_v10/bts_F2800x_4ch_v2/libraries/DCL/DCLF32.h",line 1697,col
    4859 00000300 E6AF          NEGF32    R6H,R6H               ; [CPU_FPU] |1697| 
         00000301 0036 
    4860                      .dwpsn  file "C:/Users/a0230328/workspace_v10/bts_F2800x_4ch_v2/bts.h",line 421,column 5,is_stmt,isa 
    4861 00000302 D014          MOVB      XAR0,#20              ; [CPU_ALU] |421| 
    4862                      .dwpsn  file "C:/Users/a0230328/workspace_v10/bts_F2800x_4ch_v2/bts.h",line 408,column 5,is_stmt,isa 
    4863 00000303 8F00!         MOVL      XAR4,#||BTS_ctrlLoopVariable_ch2|| ; [CPU_ARAU] |408| 
         00000304 0000 
    4864                      .dwpsn  file "C:/Users/a0230328/workspace_v10/bts_F2800x_4ch_v2/bts.h",line 409,column 5,is_stmt,isa 
    4865 00000305 BDA9          MOV32     R0H,ACC               ; [CPU_FPU] |409| 
         00000306 0F12 
    4866 00000307 761F!         MOVW      DP,#||BTS_ctrl_cv_ch2|| ; [CPU_ARAU] 
         00000308 0000 
    4867                      .dwpsn  file "C:/Users/a0230328/workspace_v10/bts_F2800x_4ch_v2/libraries/DCL/DCLF32.h",line 1697,col
TMS320C2000 Assembler PC v20.2.1 Mon Nov  2 17:14:28 2020

Copyright (c) 1996-2018 Texas Instruments Incorporated
bts_main.asm                                                         PAGE   99

    4868 00000309 E203          MOV32     *-SP[8],R6H           ; [CPU_FPU] |1697| 
         0000030a 0648 
    4869                      .dwpsn  file "C:/Users/a0230328/workspace_v10/bts_F2800x_4ch_v2/libraries/DCL/DCLF32.h",line 1700,col
    4870 0000030b D114          MOVB      XAR1,#20              ; [CPU_ALU] |1700| 
    4871                      .dwpsn  file "C:/Users/a0230328/workspace_v10/bts_F2800x_4ch_v2/bts.h",line 408,column 5,is_stmt,isa 
    4872 0000030c E689          I32TOF32  R2H,R2H               ; [CPU_FPU] |408| 
         0000030d 0012 
    4873                      .dwpsn  file "C:/Users/a0230328/workspace_v10/bts_F2800x_4ch_v2/bts.h",line 409,column 5,is_stmt,isa 
    4874 0000030e E689          I32TOF32  R0H,R0H               ; [CPU_FPU] |409| 
         0000030f 0000 
    4875                      .dwpsn  file "C:/Users/a0230328/workspace_v10/bts_F2800x_4ch_v2/libraries/DCL/DCLF32.h",line 1700,col
    4876 00000310 E6CF          MOV32     R6H,R1H               ; [CPU_FPU] |1700| 
         00000311 000E 
    4877                      .dwpsn  file "C:/Users/a0230328/workspace_v10/bts_F2800x_4ch_v2/bts.h",line 409,column 5,is_stmt,isa 
    4878 00000312 E84E          MPYF32    R0H,R0H,#14336        ; [CPU_FPU] |409| 
         00000313 0000 
    4879                      .dwpsn  file "C:/Users/a0230328/workspace_v10/bts_F2800x_4ch_v2/libraries/DCL/DCLF32.h",line 1703,col
    4880 00000314 9A01          MOVB      AL,#1                 ; [CPU_ALU] |1703| 
    4881                      .dwpsn  file "C:/Users/a0230328/workspace_v10/bts_F2800x_4ch_v2/bts.h",line 420,column 5,is_stmt,isa 
    4882 00000315 E720          SUBF32    R3H,R7H,R0H           ; [CPU_FPU] |420| 
         00000316 003B 
    4883                      .dwpsn  file "C:/Users/a0230328/workspace_v10/bts_F2800x_4ch_v2/bts.h",line 408,column 5,is_stmt,isa 
    4884 00000317 E84E          MPYF32    R2H,R2H,#14336        ; [CPU_FPU] |408| 
         00000318 0012 
    4885                      .dwpsn  file "C:/Users/a0230328/workspace_v10/bts_F2800x_4ch_v2/bts.h",line 409,column 5,is_stmt,isa 
    4886              
    4887 00000319 E007          MPYF32    R3H,R5H,R3H           ; [CPU_FPU] |420| 
         0000031a 5844 
    4888              ||      MOV32     *-SP[4],R0H           ; [CPU_FPU] |409| 
    4889              
    4890                      .dwpsn  file "C:/Users/a0230328/workspace_v10/bts_F2800x_4ch_v2/libraries/DCL/DCLF32.h",line 1447,col
    4891 0000031b E2AF!         MOV32     R0H,@$BLOCKED(||BTS_ctrl_cv_ch2||) ; [CPU_FPU] |1447| 
         0000031c 0000 
    4892 0000031d E700          MPYF32    R0H,R3H,R0H           ; [CPU_FPU] |1447| 
         0000031e 0018 
    4893 0000031f E2AF!         MOV32     R4H,@$BLOCKED(||BTS_ctrl_cv_ch2||)+10 ; [CPU_FPU] |1447| 
         00000320 040A 
    4894              
    4895 00000321 E011          ADDF32    R4H,R4H,R0H           ; [CPU_FPU] |1447| 
         00000322 2146 
    4896              ||      MOV32     *-SP[6],R1H           ; [CPU_FPU] |1697| 
    4897              
    4898 00000323 E2AF          MOV32     R0H,*-SP[8]           ; [CPU_FPU] |1447| 
         00000324 0048 
    4899                      .dwpsn  file "C:/Users/a0230328/workspace_v10/bts_F2800x_4ch_v2/bts.h",line 421,column 5,is_stmt,isa 
    4900 00000325 E203          MOV32     *+XAR4[AR0],R4H       ; [CPU_FPU] |421| 
         00000326 0494 
    4901                      .dwpsn  file "C:/Users/a0230328/workspace_v10/bts_F2800x_4ch_v2/libraries/DCL/DCLF32.h",line 1700,col
    4902 00000327 E697          MINF32    R6H,R4H               ; [CPU_FPU] |1700| 
         00000328 0026 
    4903                      .dwpsn  file "C:/Users/a0230328/workspace_v10/bts_F2800x_4ch_v2/bts.h",line 418,column 5,is_stmt,isa 
    4904 00000329 D00C          MOVB      XAR0,#12              ; [CPU_ALU] |418| 
    4905 0000032a E203          MOV32     *+XAR4[AR0],R7H       ; [CPU_FPU] |418| 
         0000032b 0794 
    4906                      .dwpsn  file "C:/Users/a0230328/workspace_v10/bts_F2800x_4ch_v2/libraries/DCL/DCLF32.h",line 1700,col
TMS320C2000 Assembler PC v20.2.1 Mon Nov  2 17:14:28 2020

Copyright (c) 1996-2018 Texas Instruments Incorporated
bts_main.asm                                                         PAGE  100

    4907 0000032c E696          MAXF32    R0H,R6H               ; [CPU_FPU] |1700| 
         0000032d 0030 
    4908                      .dwpsn  file "C:/Users/a0230328/workspace_v10/bts_F2800x_4ch_v2/bts.h",line 408,column 5,is_stmt,isa 
    4909 0000032e D008          MOVB      XAR0,#8               ; [CPU_ALU] |408| 
    4910                      .dwpsn  file "C:/Users/a0230328/workspace_v10/bts_F2800x_4ch_v2/bts.h",line 409,column 5,is_stmt,isa 
    4911 0000032f E2AF          MOV32     R6H,*-SP[4]           ; [CPU_FPU] |409| 
         00000330 0644 
    4912                      .dwpsn  file "C:/Users/a0230328/workspace_v10/bts_F2800x_4ch_v2/bts.h",line 408,column 5,is_stmt,isa 
    4913 00000331 E203          MOV32     *+XAR4[AR0],R2H       ; [CPU_FPU] |408| 
         00000332 0294 
    4914                      .dwpsn  file "C:/Users/a0230328/workspace_v10/bts_F2800x_4ch_v2/bts.h",line 409,column 5,is_stmt,isa 
    4915 00000333 D00E          MOVB      XAR0,#14              ; [CPU_ALU] |409| 
    4916                      .dwpsn  file "C:/Users/a0230328/workspace_v10/bts_F2800x_4ch_v2/libraries/DCL/DCLF32.h",line 1700,col
    4917 00000334 E203          MOV32     *+XAR4[AR1],R0H       ; [CPU_FPU] |1700| 
         00000335 009C 
    4918                      .dwpsn  file "C:/Users/a0230328/workspace_v10/bts_F2800x_4ch_v2/bts.h",line 409,column 5,is_stmt,isa 
    4919 00000336 E203          MOV32     *+XAR4[AR0],R6H       ; [CPU_FPU] |409| 
         00000337 0694 
    4920                      .dwpsn  file "C:/Users/a0230328/workspace_v10/bts_F2800x_4ch_v2/bts.h",line 420,column 5,is_stmt,isa 
    4921 00000338 D016          MOVB      XAR0,#22              ; [CPU_ALU] |420| 
    4922 00000339 E203          MOV32     *+XAR4[AR0],R3H       ; [CPU_FPU] |420| 
         0000033a 0394 
    4923                      .dwpsn  file "C:/Users/a0230328/workspace_v10/bts_F2800x_4ch_v2/libraries/DCL/DCLF32.h",line 1703,col
    4924 0000033b E694          CMPF32    R4H,R1H               ; [CPU_FPU] |1703| 
         0000033c 000C 
    4925 0000033d AD14          MOVST0    ZF, NF                ; [CPU_FPU] |1703| 
    4926 0000033e 6307          B         ||$C$L56||,GEQ        ; [CPU_ALU] |1703| 
    4927                      ; branchcc occurs ; [] |1703| 
    4928 0000033f E2AF          MOV32     R1H,*-SP[8]           ; [CPU_FPU] 
         00000340 0148 
    4929 00000341 E694          CMPF32    R4H,R1H               ; [CPU_FPU] |1703| 
         00000342 000C 
    4930 00000343 AD14          MOVST0    ZF, NF                ; [CPU_FPU] |1703| 
    4931 00000344 625A          B         ||$C$L59||,GT         ; [CPU_ALU] |1703| 
    4932                      ; branchcc occurs ; [] |1703| 
    4933 00000345       ||$C$L56||:    
    4934 00000345 5200          CMPB      AL,#0                 ; [CPU_ALU] |1703| 
    4935 00000346 6158          B         ||$C$L59||,EQ         ; [CPU_ALU] |1703| 
    4936                      ; branchcc occurs ; [] |1703| 
    4937                      .dwpsn  file "C:/Users/a0230328/workspace_v10/bts_F2800x_4ch_v2/bts.h",line 433,column 10,is_stmt,isa
    4938 00000347 E805          MOVIZ     R1H,#48955            ; [CPU_FPU] |433| 
         00000348 F9D9 
    4939 00000349 E80D          MOVXI     R1H,#46601            ; [CPU_FPU] |433| 
         0000034a B049 
    4940 0000034b E694          CMPF32    R0H,R1H               ; [CPU_FPU] |433| 
         0000034c 0008 
    4941 0000034d AD14          MOVST0    ZF, NF                ; [CPU_FPU] |433| 
    4942 0000034e 650E          B         ||$C$L57||,LEQ        ; [CPU_ALU] |433| 
    4943                      ; branchcc occurs ; [] |433| 
    4944 0000034f 761F!         MOVW      DP,#||BTS_ctrlLoopVariable_ch2||+6 ; [CPU_ARAU] 
         00000350 0000 
    4945                      .dwpsn  file "C:/Users/a0230328/workspace_v10/bts_F2800x_4ch_v2/bts.h",line 437,column 14,is_stmt,isa
    4946 00000351 E801          MOVIZ     R4H,#16187            ; [CPU_FPU] |437| 
         00000352 F9DC 
    4947 00000353 E2AF!         MOV32     R1H,@$BLOCKED(||BTS_ctrlLoopVariable_ch2||)+6 ; [CPU_FPU] 
TMS320C2000 Assembler PC v20.2.1 Mon Nov  2 17:14:28 2020

Copyright (c) 1996-2018 Texas Instruments Incorporated
bts_main.asm                                                         PAGE  101

         00000354 0106 
    4948 00000355 E80E          MOVXI     R4H,#50975            ; [CPU_FPU] |437| 
         00000356 38FC 
    4949 00000357 E694          CMPF32    R0H,R4H               ; [CPU_FPU] |437| 
         00000358 0020 
    4950 00000359 AD14          MOVST0    ZF, NF                ; [CPU_FPU] |437| 
    4951 0000035a 6327          B         ||$C$L58||,GEQ        ; [CPU_ALU] |437| 
    4952                      ; branchcc occurs ; [] |437| 
    4953 0000035b 6F67          B         ||$C$L60||,UNC        ; [CPU_ALU] |437| 
    4954                      ; branch occurs ; [] |437| 
    4955 0000035c       ||$C$L57||:    
    4956 0000035c E801          MOVIZ     R1H,#16187            ; [CPU_FPU] |437| 
         0000035d F9D9 
    4957 0000035e E80E          MOVXI     R1H,#50975            ; [CPU_FPU] |437| 
         0000035f 38F9 
    4958 00000360 E694          CMPF32    R0H,R1H               ; [CPU_FPU] |437| 
         00000361 0008 
    4959 00000362 AD14          MOVST0    ZF, NF                ; [CPU_FPU] |437| 
    4960 00000363 631E          B         ||$C$L58||,GEQ        ; [CPU_ALU] |437| 
    4961                      ; branchcc occurs ; [] |437| 
    4962                      .dwpsn  file "C:/Users/a0230328/workspace_v10/bts_F2800x_4ch_v2/bts.h",line 446,column 5,is_stmt,isa 
    4963 00000364 E805          MOVIZ     R1H,#47747            ; [CPU_FPU] |446| 
         00000365 D419 
    4964 00000366 E805          MOVIZ     R4H,#48955            ; [CPU_FPU] 
         00000367 F9DC 
    4965 00000368 761F!         MOVW      DP,#||BTS_ctrlLoopVariable_ch2||+6 ; [CPU_ARAU] 
         00000369 0000 
    4966 0000036a E808          MOVXI     R1H,#4719             ; [CPU_FPU] |446| 
         0000036b 9379 
    4967 0000036c E80D          MOVXI     R4H,#46601            ; [CPU_FPU] 
         0000036d B04C 
    4968 0000036e E694          CMPF32    R3H,R1H               ; [CPU_FPU] |446| 
         0000036f 000B 
    4969 00000370 AD14          MOVST0    ZF, NF                ; [CPU_FPU] |446| 
    4970 00000371 E203!         MOV32     @$BLOCKED(||BTS_ctrlLoopVariable_ch2||)+6,R4H ; [CPU_FPU] 
         00000372 0406 
    4971 00000373 6465          B         ||$C$L62||,LT         ; [CPU_ALU] |446| 
    4972                      ; branchcc occurs ; [] |446| 
    4973                      .dwpsn  file "C:/Users/a0230328/workspace_v10/bts_F2800x_4ch_v2/bts.h",line 450,column 10,is_stmt,isa
    4974 00000374 E801          MOVIZ     R0H,#15820            ; [CPU_FPU] |450| 
         00000375 EE60 
    4975 00000376 E80E          MOVXI     R0H,#52429            ; [CPU_FPU] |450| 
         00000377 6668 
    4976 00000378 E694          CMPF32    R3H,R0H               ; [CPU_FPU] |450| 
         00000379 0003 
    4977 0000037a AD14          MOVST0    ZF, NF                ; [CPU_FPU] |450| 
    4978 0000037b 6257          B         ||$C$L61||,GT         ; [CPU_ALU] |450| 
    4979                      ; branchcc occurs ; [] |450| 
    4980                      .dwpsn  file "C:/Users/a0230328/workspace_v10/bts_F2800x_4ch_v2/bts.h",line 435,column 14,is_stmt,isa
    4981 0000037c E805          MOVIZ     R1H,#48955            ; [CPU_FPU] |435| 
         0000037d F9D9 
    4982 0000037e E80D          MOVXI     R1H,#46601            ; [CPU_FPU] |435| 
         0000037f B049 
    4983 00000380 6F61          B         ||$C$L64||,UNC        ; [CPU_ALU] 
    4984                      ; branch occurs ; [] 
TMS320C2000 Assembler PC v20.2.1 Mon Nov  2 17:14:28 2020

Copyright (c) 1996-2018 Texas Instruments Incorporated
bts_main.asm                                                         PAGE  102

    4985 00000381       ||$C$L58||:    
    4986                      .dwpsn  file "C:/Users/a0230328/workspace_v10/bts_F2800x_4ch_v2/bts.h",line 446,column 5,is_stmt,isa 
    4987 00000381 E805          MOVIZ     R1H,#47747            ; [CPU_FPU] |446| 
         00000382 D419 
    4988 00000383 E808          MOVXI     R1H,#4719             ; [CPU_FPU] |446| 
         00000384 9379 
    4989 00000385 E694          CMPF32    R3H,R1H               ; [CPU_FPU] |446| 
         00000386 000B 
    4990 00000387 AD14          MOVST0    ZF, NF                ; [CPU_FPU] |446| 
    4991 00000388 6450          B         ||$C$L62||,LT         ; [CPU_ALU] |446| 
    4992                      ; branchcc occurs ; [] |446| 
    4993                      .dwpsn  file "C:/Users/a0230328/workspace_v10/bts_F2800x_4ch_v2/bts.h",line 450,column 10,is_stmt,isa
    4994 00000389 E801          MOVIZ     R0H,#15820            ; [CPU_FPU] |450| 
         0000038a EE60 
    4995 0000038b E80E          MOVXI     R0H,#52429            ; [CPU_FPU] |450| 
         0000038c 6668 
    4996 0000038d E694          CMPF32    R3H,R0H               ; [CPU_FPU] |450| 
         0000038e 0003 
    4997 0000038f AD14          MOVST0    ZF, NF                ; [CPU_FPU] |450| 
    4998 00000390 6242          B         ||$C$L61||,GT         ; [CPU_ALU] |450| 
    4999                      ; branchcc occurs ; [] |450| 
    5000 00000391 E801          MOVIZ     R0H,#16187            ; [CPU_FPU] 
         00000392 F9D8 
    5001                      .dwpsn  file "C:/Users/a0230328/workspace_v10/bts_F2800x_4ch_v2/bts.h",line 439,column 18,is_stmt,isa
    5002 00000393 E801          MOVIZ     R1H,#16187            ; [CPU_FPU] |439| 
         00000394 F9D9 
    5003 00000395 761F!         MOVW      DP,#||BTS_ctrlLoopVariable_ch2||+6 ; [CPU_ARAU] 
         00000396 0000 
    5004 00000397 E80E          MOVXI     R0H,#50975            ; [CPU_FPU] 
         00000398 38F8 
    5005 00000399 E80E          MOVXI     R1H,#50975            ; [CPU_FPU] |439| 
         0000039a 38F9 
    5006 0000039b E203!         MOV32     @$BLOCKED(||BTS_ctrlLoopVariable_ch2||)+6,R0H ; [CPU_FPU] 
         0000039c 0006 
    5007 0000039d 6F44          B         ||$C$L64||,UNC        ; [CPU_ALU] 
    5008                      ; branch occurs ; [] 
    5009 0000039e       ||$C$L59||:    
    5010                      .dwpsn  file "C:/Users/a0230328/workspace_v10/bts_F2800x_4ch_v2/libraries/DCL/DCLF32.h",line 1458,col
    5011 0000039e E2AF!         MOV32     R4H,@$BLOCKED(||BTS_ctrl_cv_ch2||)+6 ; [CPU_FPU] |1458| 
         0000039f 0406 
    5012 000003a0 761F!         MOVW      DP,#||BTS_ctrlLoopVariable_ch2||+6 ; [CPU_ARAU] 
         000003a1 0000 
    5013                      .dwpsn  file "C:/Users/a0230328/workspace_v10/bts_F2800x_4ch_v2/bts.h",line 426,column 9,is_stmt,isa 
    5014 000003a2 E6CF          MOV32     R1H,R0H               ; [CPU_FPU] |426| 
         000003a3 0001 
    5015 000003a4 E203!         MOV32     @$BLOCKED(||BTS_ctrlLoopVariable_ch2||)+6,R0H ; [CPU_FPU] |426| 
         000003a5 0006 
    5016 000003a6 761F!         MOVW      DP,#||BTS_ctrl_cv_ch2||+2 ; [CPU_ARAU] 
         000003a7 0000 
    5017                      .dwpsn  file "C:/Users/a0230328/workspace_v10/bts_F2800x_4ch_v2/libraries/DCL/DCLF32.h",line 1458,col
    5018 000003a8 E2AF!         MOV32     R6H,@$BLOCKED(||BTS_ctrl_cv_ch2||)+2 ; [CPU_FPU] |1458| 
         000003a9 0602 
    5019 000003aa E700          MPYF32    R6H,R3H,R6H           ; [CPU_FPU] |1458| 
         000003ab 019E 
    5020              
TMS320C2000 Assembler PC v20.2.1 Mon Nov  2 17:14:28 2020

Copyright (c) 1996-2018 Texas Instruments Incorporated
bts_main.asm                                                         PAGE  103

    5021                      MOV32     R7H,@$BLOCKED(||BTS_ctrl_cv_ch2||)+12 ; [CPU_FPU] |1458| 
    5022 000003ac E308! ||      MPYF32    R4H,R1H,R4H           ; [CPU_FPU] |1458| 
         000003ad 670C 
    5023              
    5024 000003ae E710          ADDF32    R6H,R6H,R7H           ; [CPU_FPU] |1458| 
         000003af 01F6 
    5025 000003b0 7700          NOP       ; [CPU_ALU] 
    5026 000003b1 E720          SUBF32    R4H,R6H,R4H           ; [CPU_FPU] |1458| 
         000003b2 0134 
    5027 000003b3 7700          NOP       ; [CPU_ALU] 
    5028 000003b4 E203!         MOV32     @$BLOCKED(||BTS_ctrl_cv_ch2||)+10,R4H ; [CPU_FPU] |1458| 
         000003b5 040A 
    5029                      .dwpsn  file "C:/Users/a0230328/workspace_v10/bts_F2800x_4ch_v2/libraries/DCL/DCLF32.h",line 1459,col
    5030 000003b6 E2AF!         MOV32     R4H,@$BLOCKED(||BTS_ctrl_cv_ch2||)+8 ; [CPU_FPU] |1459| 
         000003b7 0408 
    5031              
    5032                      MOV32     R6H,@$BLOCKED(||BTS_ctrl_cv_ch2||)+4 ; [CPU_FPU] |1459| 
    5033 000003b8 E308! ||      MPYF32    R4H,R1H,R4H           ; [CPU_FPU] |1459| 
         000003b9 6604 
    5034              
    5035 000003ba E700          MPYF32    R6H,R3H,R6H           ; [CPU_FPU] |1459| 
         000003bb 019E 
    5036 000003bc 7700          NOP       ; [CPU_ALU] 
    5037 000003bd E720          SUBF32    R4H,R6H,R4H           ; [CPU_FPU] |1459| 
         000003be 0134 
    5038 000003bf 7700          NOP       ; [CPU_ALU] 
    5039 000003c0 E203!         MOV32     @$BLOCKED(||BTS_ctrl_cv_ch2||)+12,R4H ; [CPU_FPU] |1459| 
         000003c1 040C 
    5040 000003c2       ||$C$L60||:    
    5041                      .dwpsn  file "C:/Users/a0230328/workspace_v10/bts_F2800x_4ch_v2/bts.h",line 446,column 5,is_stmt,isa 
    5042 000003c2 E805          MOVIZ     R4H,#47747            ; [CPU_FPU] |446| 
         000003c3 D41C 
    5043 000003c4 E808          MOVXI     R4H,#4719             ; [CPU_FPU] |446| 
         000003c5 937C 
    5044 000003c6 E694          CMPF32    R3H,R4H               ; [CPU_FPU] |446| 
         000003c7 0023 
    5045 000003c8 AD14          MOVST0    ZF, NF                ; [CPU_FPU] |446| 
    5046 000003c9 640F          B         ||$C$L62||,LT         ; [CPU_ALU] |446| 
    5047                      ; branchcc occurs ; [] |446| 
    5048                      .dwpsn  file "C:/Users/a0230328/workspace_v10/bts_F2800x_4ch_v2/bts.h",line 450,column 10,is_stmt,isa
    5049 000003ca E801          MOVIZ     R0H,#15820            ; [CPU_FPU] |450| 
         000003cb EE60 
    5050 000003cc E80E          MOVXI     R0H,#52429            ; [CPU_FPU] |450| 
         000003cd 6668 
    5051 000003ce E694          CMPF32    R3H,R0H               ; [CPU_FPU] |450| 
         000003cf 0003 
    5052 000003d0 AD14          MOVST0    ZF, NF                ; [CPU_FPU] |450| 
    5053 000003d1 6510          B         ||$C$L64||,LEQ        ; [CPU_ALU] |450| 
    5054                      ; branchcc occurs ; [] |450| 
    5055 000003d2       ||$C$L61||:    
    5056 000003d2 761F!         MOVW      DP,#||BTS_ctrlLoopVariable_ch2||+30 ; [CPU_ARAU] 
         000003d3 0000 
    5057 000003d4 E2AF          MOV32     R0H,*-SP[6]           ; [CPU_FPU] 
         000003d5 0046 
    5058                      .dwpsn  file "C:/Users/a0230328/workspace_v10/bts_F2800x_4ch_v2/bts.h",line 454,column 9,is_stmt,isa 
TMS320C2000 Assembler PC v20.2.1 Mon Nov  2 17:14:28 2020

Copyright (c) 1996-2018 Texas Instruments Incorporated
bts_main.asm                                                         PAGE  104

    5059 000003d6 2B1E!         MOV       @$BLOCKED(||BTS_ctrlLoopVariable_ch2||)+30,#0 ; [CPU_ALU] |454| 
    5060 000003d7 6F05          B         ||$C$L63||,UNC        ; [CPU_ALU] |454| 
    5061                      ; branch occurs ; [] |454| 
    5062 000003d8       ||$C$L62||:    
    5063 000003d8 761F!         MOVW      DP,#||BTS_ctrlLoopVariable_ch2||+30 ; [CPU_ARAU] 
         000003d9 0000 
    5064                      .dwpsn  file "C:/Users/a0230328/workspace_v10/bts_F2800x_4ch_v2/bts.h",line 448,column 9,is_stmt,isa 
    5065 000003da 56BF!         MOVB      @$BLOCKED(||BTS_ctrlLoopVariable_ch2||)+30,#1,UNC ; [CPU_ALU] |448| 
         000003db 011E 
    5066 000003dc       ||$C$L63||:    
    5067                      .dwpsn  file "C:/Users/a0230328/workspace_v10/bts_F2800x_4ch_v2/bts.h",line 447,column 9,is_stmt,isa 
    5068 000003dc E700          MPYF32    R1H,R0H,R5H           ; [CPU_FPU] |447| 
         000003dd 0141 
    5069 000003de 7700          NOP       ; [CPU_ALU] 
    5070 000003df E203!         MOV32     @$BLOCKED(||BTS_ctrlLoopVariable_ch2||)+6,R1H ; [CPU_FPU] |447| 
         000003e0 0106 
    5071 000003e1       ||$C$L64||:    
    5072 000003e1 761F!         MOVW      DP,#||BTS_ctrl_cc_ch2|| ; [CPU_ARAU] 
         000003e2 0000 
    5073                      .dwpsn  file "C:/Users/a0230328/workspace_v10/bts_F2800x_4ch_v2/bts.h",line 473,column 5,is_stmt,isa 
    5074              
    5075                      MOV32     R3H,@$BLOCKED(||BTS_ctrl_cc_ch2||) ; [CPU_FPU] |1447| 
    5076 000003e3 E324! ||      SUBF32    R1H,R1H,R2H           ; [CPU_FPU] |473| 
         000003e4 4B00 
    5077              
    5078                      .dwpsn  file "C:/Users/a0230328/workspace_v10/bts_F2800x_4ch_v2/libraries/DCL/DCLF32.h",line 1700,col
    5079 000003e5 E801          MOVIZ     R0H,#16140            ; [CPU_FPU] |1700| 
         000003e6 F860 
    5080                      .dwpsn  file "C:/Users/a0230328/workspace_v10/bts_F2800x_4ch_v2/bts.h",line 475,column 5,is_stmt,isa 
    5081 000003e7 D010          MOVB      XAR0,#16              ; [CPU_ALU] |475| 
    5082                      .dwpsn  file "C:/Users/a0230328/workspace_v10/bts_F2800x_4ch_v2/libraries/DCL/DCLF32.h",line 1700,col
    5083 000003e8 D110          MOVB      XAR1,#16              ; [CPU_ALU] |1700| 
    5084                      .dwpsn  file "C:/Users/a0230328/workspace_v10/bts_F2800x_4ch_v2/libraries/DCL/DCLF32.h",line 1447,col
    5085              
    5086 000003e9 E306!         MPYF32    R3H,R1H,R3H           ; [CPU_FPU] |1447| 
         000003ea 5A0A 
    5087              ||      MOV32     R2H,@$BLOCKED(||BTS_ctrl_cc_ch2||)+10 ; [CPU_FPU] |1447| 
    5088              
    5089                      .dwpsn  file "C:/Users/a0230328/workspace_v10/bts_F2800x_4ch_v2/libraries/DCL/DCLF32.h",line 1703,col
    5090 000003eb 9A01          MOVB      AL,#1                 ; [CPU_ALU] |1703| 
    5091                      .dwpsn  file "C:/Users/a0230328/workspace_v10/bts_F2800x_4ch_v2/libraries/DCL/DCLF32.h",line 1447,col
    5092 000003ec E710          ADDF32    R2H,R2H,R3H           ; [CPU_FPU] |1447| 
         000003ed 00D2 
    5093                      .dwpsn  file "C:/Users/a0230328/workspace_v10/bts_F2800x_4ch_v2/libraries/DCL/DCLF32.h",line 1700,col
    5094 000003ee E80E          MOVXI     R0H,#52429            ; [CPU_FPU] |1700| 
         000003ef 6668 
    5095                      .dwpsn  file "C:/Users/a0230328/workspace_v10/bts_F2800x_4ch_v2/bts.h",line 475,column 5,is_stmt,isa 
    5096 000003f0 E203          MOV32     *+XAR4[AR0],R2H       ; [CPU_FPU] |475| 
         000003f1 0294 
    5097                      .dwpsn  file "C:/Users/a0230328/workspace_v10/bts_F2800x_4ch_v2/libraries/DCL/DCLF32.h",line 1703,col
    5098 000003f2 E801          MOVIZ     R3H,#16140            ; [CPU_FPU] |1703| 
         000003f3 F863 
    5099                      .dwpsn  file "C:/Users/a0230328/workspace_v10/bts_F2800x_4ch_v2/bts.h",line 473,column 5,is_stmt,isa 
    5100 000003f4 D012          MOVB      XAR0,#18              ; [CPU_ALU] |473| 
    5101                      .dwpsn  file "C:/Users/a0230328/workspace_v10/bts_F2800x_4ch_v2/libraries/DCL/DCLF32.h",line 1700,col
TMS320C2000 Assembler PC v20.2.1 Mon Nov  2 17:14:28 2020

Copyright (c) 1996-2018 Texas Instruments Incorporated
bts_main.asm                                                         PAGE  105

    5102 000003f5 E697          MINF32    R0H,R2H               ; [CPU_FPU] |1700| 
         000003f6 0010 
    5103                      .dwpsn  file "C:/Users/a0230328/workspace_v10/bts_F2800x_4ch_v2/libraries/DCL/DCLF32.h",line 1703,col
    5104 000003f7 E80E          MOVXI     R3H,#52429            ; [CPU_FPU] |1703| 
         000003f8 666B 
    5105                      .dwpsn  file "C:/Users/a0230328/workspace_v10/bts_F2800x_4ch_v2/libraries/DCL/DCLF32.h",line 1700,col
    5106 000003f9 E820          MAXF32    R0H,#0                ; [CPU_FPU] |1700| 
         000003fa 0000 
    5107                      .dwpsn  file "C:/Users/a0230328/workspace_v10/bts_F2800x_4ch_v2/bts.h",line 473,column 5,is_stmt,isa 
    5108 000003fb E203          MOV32     *+XAR4[AR0],R1H       ; [CPU_FPU] |473| 
         000003fc 0194 
    5109                      .dwpsn  file "C:/Users/a0230328/workspace_v10/bts_F2800x_4ch_v2/libraries/DCL/DCLF32.h",line 1700,col
    5110 000003fd E203          MOV32     *+XAR4[AR1],R0H       ; [CPU_FPU] |1700| 
         000003fe 009C 
    5111                      .dwpsn  file "C:/Users/a0230328/workspace_v10/bts_F2800x_4ch_v2/libraries/DCL/DCLF32.h",line 1703,col
    5112 000003ff E694          CMPF32    R2H,R3H               ; [CPU_FPU] |1703| 
         00000400 001A 
    5113 00000401 AD14          MOVST0    ZF, NF                ; [CPU_FPU] |1703| 
    5114 00000402 6304          B         ||$C$L65||,GEQ        ; [CPU_ALU] |1703| 
    5115                      ; branchcc occurs ; [] |1703| 
    5116 00000403 E5A2          CMPF32    R2H,#0                ; [CPU_FPU] |1703| 
    5117 00000404 AD14          MOVST0    ZF, NF                ; [CPU_FPU] |1703| 
    5118 00000405 6250          B         ||$C$L67||,GT         ; [CPU_ALU] |1703| 
    5119                      ; branchcc occurs ; [] |1703| 
    5120 00000406       ||$C$L65||:    
    5121 00000406 5200          CMPB      AL,#0                 ; [CPU_ALU] |1703| 
    5122 00000407 614E          B         ||$C$L67||,EQ         ; [CPU_ALU] |1703| 
    5123                      ; branchcc occurs ; [] |1703| 
    5124                      .dwpsn  file "C:/Users/a0230328/workspace_v10/bts_F2800x_4ch_v2/bts.h",line 488,column 13,is_stmt,isa
    5125 00000408 E5A0          CMPF32    R0H,#0                ; [CPU_FPU] |488| 
    5126 00000409 AD14          MOVST0    ZF, NF                ; [CPU_FPU] |488| 
    5127 0000040a 621D          B         ||$C$L66||,GT         ; [CPU_ALU] |488| 
    5128                      ; branchcc occurs ; [] |488| 
    5129 0000040b 761F!         MOVW      DP,#||MEP_ScaleFactor|| ; [CPU_ARAU] 
         0000040c 0000 
    5130                      .dwpsn  file "C:\Users\a0230328\workspace_v10\bts_F2800x_4ch_v2\bts_hal.h",line 192,column 21,is_stmt
    5131 0000040d E284!         UI32TOF32 R1H,@||MEP_ScaleFactor|| ; [CPU_FPU] |192| 
         0000040e 0100 
    5132 0000040f 7700          NOP       ; [CPU_ALU] 
    5133 00000410 E840          MPYF32    R1H,R1H,#0            ; [CPU_FPU] |192| 
         00000411 0009 
    5134                      .dwpsn  file "C:/ti/C2000Ware_DigitalPower_SDK_3_00_01_00/c2000ware/driverlib/f28004x/driverlib/epwm.
    5135 00000412 BE00          MOVB      XAR6,#0               ; [CPU_ALU] |2409| 
    5136                      .dwpsn  file "C:\Users\a0230328\workspace_v10\bts_F2800x_4ch_v2\bts_hal.h",line 192,column 21,is_stmt
    5137 00000413 E68E          F32TOUI16 R1H,R1H               ; [CPU_FPU] |192| 
         00000414 0009 
    5138                      .dwpsn  file "C:/ti/C2000Ware_DigitalPower_SDK_3_00_01_00/c2000ware/driverlib/f28004x/driverlib/epwm.
    5139 00000415 F4A6          MOV       *(0:0x416b),AR6       ; [CPU_ALU] |2409| 
         00000416 416B 
    5140 00000417 761F!         MOVW      DP,#||BTS_ctrlLoopVariable_ch2|| ; [CPU_ARAU] 
         00000418 0000 
    5141                      .dwpsn  file "C:\Users\a0230328\workspace_v10\bts_F2800x_4ch_v2\bts_hal.h",line 192,column 21,is_stmt
    5142 00000419 BFA9          MOV32     ACC,R1H               ; [CPU_FPU] |192| 
         0000041a 0F16 
    5143                      .dwpsn  file "C:/ti/C2000Ware_DigitalPower_SDK_3_00_01_00/c2000ware/driverlib/f28004x/driverlib/hrpwm
TMS320C2000 Assembler PC v20.2.1 Mon Nov  2 17:14:28 2020

Copyright (c) 1996-2018 Texas Instruments Incorporated
bts_main.asm                                                         PAGE  106

    5144 0000041b 5603          MOV       ACC,AL << #8          ; [CPU_ALU] |1255| 
         0000041c 08A9 
    5145                      .dwpsn  file "C:/Users/a0230328/workspace_v10/bts_F2800x_4ch_v2/bts.h",line 492,column 17,is_stmt,isa
    5146 0000041d E591          ZERO      R1H                   ; [CPU_FPU] |492| 
    5147                      .dwpsn  file "C:/ti/C2000Ware_DigitalPower_SDK_3_00_01_00/c2000ware/driverlib/f28004x/driverlib/epwm.
    5148 0000041e 9B00          MOVB      AH,#0                 ; [CPU_ALU] |2409| 
    5149                      .dwpsn  file "C:/ti/C2000Ware_DigitalPower_SDK_3_00_01_00/c2000ware/driverlib/f28004x/driverlib/hrpwm
    5150 0000041f F4A9          MOV       *(0:0x416a),AL        ; [CPU_ALU] |1255| 
         00000420 416A 
    5151                      .dwpsn  file "C:/Users/a0230328/workspace_v10/bts_F2800x_4ch_v2/bts.h",line 492,column 17,is_stmt,isa
    5152 00000421 E203!         MOV32     @$BLOCKED(||BTS_ctrlLoopVariable_ch2||),R1H ; [CPU_FPU] |492| 
         00000422 0100 
    5153                      .dwpsn  file "C:/ti/C2000Ware_DigitalPower_SDK_3_00_01_00/c2000ware/driverlib/f28004x/driverlib/epwm.
    5154 00000423 F4A8          MOV       *(0:0x416d),AH        ; [CPU_ALU] |2409| 
         00000424 416D 
    5155                      .dwpsn  file "C:/ti/C2000Ware_DigitalPower_SDK_3_00_01_00/c2000ware/driverlib/f28004x/driverlib/hrpwm
    5156 00000425 F4A9          MOV       *(0:0x416c),AL        ; [CPU_ALU] |1262| 
         00000426 416C 
    5157 00000427       ||$C$L66||:    
    5158                      .dwpsn  file "C:/Users/a0230328/workspace_v10/bts_F2800x_4ch_v2/bts.h",line 494,column 13,is_stmt,isa
    5159 00000427 E801          MOVIZ     R1H,#16140            ; [CPU_FPU] |494| 
         00000428 F861 
    5160 00000429 E80E          MOVXI     R1H,#52429            ; [CPU_FPU] |494| 
         0000042a 6669 
    5161 0000042b E694          CMPF32    R0H,R1H               ; [CPU_FPU] |494| 
         0000042c 0008 
    5162 0000042d AD14          MOVST0    ZF, NF                ; [CPU_FPU] |494| 
    5163 0000042e FFE4          B         ||$C$L72||,LT         ; [CPU_ALU] |494| 
         0000042f 0099 
    5164                      ; branchcc occurs ; [] |494| 
    5165 00000430 761F!         MOVW      DP,#||MEP_ScaleFactor|| ; [CPU_ARAU] 
         00000431 0000 
    5166                      .dwpsn  file "C:\Users\a0230328\workspace_v10\bts_F2800x_4ch_v2\bts_hal.h",line 192,column 21,is_stmt
    5167 00000432 E801          MOVIZ     R0H,#16102            ; [CPU_FPU] |192| 
         00000433 F730 
    5168 00000434 E284!         UI32TOF32 R1H,@||MEP_ScaleFactor|| ; [CPU_FPU] |192| 
         00000435 0100 
    5169 00000436 E80B          MOVXI     R0H,#26624            ; [CPU_FPU] |192| 
         00000437 4000 
    5170 00000438 E700          MPYF32    R0H,R0H,R1H           ; [CPU_FPU] |192| 
         00000439 0040 
    5171                      .dwpsn  file "C:/ti/C2000Ware_DigitalPower_SDK_3_00_01_00/c2000ware/driverlib/f28004x/driverlib/epwm.
    5172 0000043a 7680          MOVL      XAR6,#549             ; [CPU_ALU] |2409| 
         0000043b 0225 
    5173                      .dwpsn  file "C:\Users\a0230328\workspace_v10\bts_F2800x_4ch_v2\bts_hal.h",line 192,column 21,is_stmt
    5174 0000043c E68E          F32TOUI16 R0H,R0H               ; [CPU_FPU] |192| 
         0000043d 0000 
    5175                      .dwpsn  file "C:/ti/C2000Ware_DigitalPower_SDK_3_00_01_00/c2000ware/driverlib/f28004x/driverlib/epwm.
    5176 0000043e F4A6          MOV       *(0:0x416b),AR6       ; [CPU_ALU] |2409| 
         0000043f 416B 
    5177 00000440 761F!         MOVW      DP,#||BTS_ctrlLoopVariable_ch2|| ; [CPU_ARAU] 
         00000441 0000 
    5178                      .dwpsn  file "C:\Users\a0230328\workspace_v10\bts_F2800x_4ch_v2\bts_hal.h",line 192,column 21,is_stmt
    5179 00000442 BFA9          MOV32     ACC,R0H               ; [CPU_FPU] |192| 
         00000443 0F12 
TMS320C2000 Assembler PC v20.2.1 Mon Nov  2 17:14:28 2020

Copyright (c) 1996-2018 Texas Instruments Incorporated
bts_main.asm                                                         PAGE  107

    5180                      .dwpsn  file "C:/ti/C2000Ware_DigitalPower_SDK_3_00_01_00/c2000ware/driverlib/f28004x/driverlib/hrpwm
    5181 00000444 5603          MOV       ACC,AL << #8          ; [CPU_ALU] |1255| 
         00000445 08A9 
    5182                      .dwpsn  file "C:/Users/a0230328/workspace_v10/bts_F2800x_4ch_v2/bts.h",line 498,column 17,is_stmt,isa
    5183 00000446 E801          MOVIZ     R0H,#16140            ; [CPU_FPU] |498| 
         00000447 F860 
    5184                      .dwpsn  file "C:/ti/C2000Ware_DigitalPower_SDK_3_00_01_00/c2000ware/driverlib/f28004x/driverlib/epwm.
    5185 00000448 28A8          MOV       AH,#549               ; [CPU_ALU] |2409| 
         00000449 0225 
    5186                      .dwpsn  file "C:/ti/C2000Ware_DigitalPower_SDK_3_00_01_00/c2000ware/driverlib/f28004x/driverlib/hrpwm
    5187 0000044a F4A9          MOV       *(0:0x416a),AL        ; [CPU_ALU] |1255| 
         0000044b 416A 
    5188                      .dwpsn  file "C:/Users/a0230328/workspace_v10/bts_F2800x_4ch_v2/bts.h",line 498,column 17,is_stmt,isa
    5189 0000044c E80E          MOVXI     R0H,#52429            ; [CPU_FPU] |498| 
         0000044d 6668 
    5190                      .dwpsn  file "C:/ti/C2000Ware_DigitalPower_SDK_3_00_01_00/c2000ware/driverlib/f28004x/driverlib/epwm.
    5191 0000044e F4A8          MOV       *(0:0x416d),AH        ; [CPU_ALU] |2409| 
         0000044f 416D 
    5192                      .dwpsn  file "C:/Users/a0230328/workspace_v10/bts_F2800x_4ch_v2/bts.h",line 498,column 17,is_stmt,isa
    5193 00000450 E203!         MOV32     @$BLOCKED(||BTS_ctrlLoopVariable_ch2||),R0H ; [CPU_FPU] |498| 
         00000451 0000 
    5194                      .dwpsn  file "C:/ti/C2000Ware_DigitalPower_SDK_3_00_01_00/c2000ware/driverlib/f28004x/driverlib/hrpwm
    5195 00000452 F4A9          MOV       *(0:0x416c),AL        ; [CPU_ALU] |1262| 
         00000453 416C 
    5196                      .dwpsn  file "C:/Users/a0230328/workspace_v10/bts_F2800x_4ch_v2/bts.h",line 498,column 17,is_stmt,isa
    5197 00000454 6F73          B         ||$C$L72||,UNC        ; [CPU_ALU] |498| 
    5198                      ; branch occurs ; [] |498| 
    5199 00000455       ||$C$L67||:    
    5200 00000455 761F!         MOVW      DP,#||BTS_ctrlLoopVariable_ch2||+31 ; [CPU_ARAU] 
         00000456 0000 
    5201                      .dwpsn  file "C:/Users/a0230328/workspace_v10/bts_F2800x_4ch_v2/bts.h",line 364,column 5,is_stmt,isa 
    5202 00000457 921F!         MOV       AL,@$BLOCKED(||BTS_ctrlLoopVariable_ch2||)+31 ; [CPU_ALU] |364| 
    5203                      .dwpsn  file "C:/Users/a0230328/workspace_v10/bts_F2800x_4ch_v2/bts.h",line 479,column 13,is_stmt,isa
    5204 00000458 E203!         MOV32     @$BLOCKED(||BTS_ctrlLoopVariable_ch2||),R0H ; [CPU_FPU] |479| 
         00000459 0000 
    5205                      .dwpsn  file "C:/Users/a0230328/workspace_v10/bts_F2800x_4ch_v2/bts.h",line 364,column 5,is_stmt,isa 
    5206 0000045a 600F          B         ||$C$L69||,NEQ        ; [CPU_ALU] |364| 
    5207                      ; branchcc occurs ; [] |364| 
    5208                      .dwpsn  file "C:/Users/a0230328/workspace_v10/bts_F2800x_4ch_v2/bts.h",line 381,column 9,is_stmt,isa 
    5209 0000045b 1BA6          CMP       AR6,#28842            ; [CPU_ALU] |381| 
         0000045c 70AA 
    5210 0000045d 6306          B         ||$C$L68||,GEQ        ; [CPU_ALU] |381| 
    5211                      ; branchcc occurs ; [] |381| 
    5212                      .dwpsn  file "C:/ti/C2000Ware_DigitalPower_SDK_3_00_01_00/c2000ware/driverlib/f28004x/driverlib/epwm.
    5213 0000045e F5A9          MOV       AL,*(0:0x4149)        ; [CPU_ALU] |3037| 
         0000045f 4149 
    5214 00000460 18A9          AND       AL,#0xfffc            ; [CPU_ALU] |3037| 
         00000461 FFFC 
    5215                      .dwpsn  file "C:/Users/a0230328/workspace_v10/bts_F2800x_4ch_v2/bts.h",line 389,column 13,is_stmt,isa
    5216 00000462 6F14          B         ||$C$L71||,UNC        ; [CPU_ALU] |389| 
    5217                      ; branch occurs ; [] |389| 
    5218 00000463       ||$C$L68||:    
    5219                      .dwpsn  file "C:/ti/C2000Ware_DigitalPower_SDK_3_00_01_00/c2000ware/driverlib/f28004x/driverlib/epwm.
    5220 00000463 F5A9          MOV       AL,*(0:0x4149)        ; [CPU_ALU] |3037| 
         00000464 4149 
TMS320C2000 Assembler PC v20.2.1 Mon Nov  2 17:14:28 2020

Copyright (c) 1996-2018 Texas Instruments Incorporated
bts_main.asm                                                         PAGE  108

    5221 00000465 CCA9          AND       AL,AL,#0xfffc         ; [CPU_ALU] |3037| 
         00000466 FFFC 
    5222 00000467 5001          ORB       AL,#0x01              ; [CPU_ALU] |3037| 
    5223 00000468 6F0E          B         ||$C$L71||,UNC        ; [CPU_ALU] 
    5224                      ; branch occurs ; [] 
    5225 00000469       ||$C$L69||:    
    5226                      .dwpsn  file "C:/Users/a0230328/workspace_v10/bts_F2800x_4ch_v2/bts.h",line 367,column 9,is_stmt,isa 
    5227 00000469 1BA6          CMP       AR6,#-28841           ; [CPU_ALU] |367| 
         0000046a 8F57 
    5228 0000046b 6406          B         ||$C$L70||,LT         ; [CPU_ALU] |367| 
    5229                      ; branchcc occurs ; [] |367| 
    5230                      .dwpsn  file "C:/ti/C2000Ware_DigitalPower_SDK_3_00_01_00/c2000ware/driverlib/f28004x/driverlib/epwm.
    5231 0000046c F5A9          MOV       AL,*(0:0x4149)        ; [CPU_ALU] |3043| 
         0000046d 4149 
    5232 0000046e 18A9          AND       AL,#0xfff3            ; [CPU_ALU] |3043| 
         0000046f FFF3 
    5233                      .dwpsn  file "C:/Users/a0230328/workspace_v10/bts_F2800x_4ch_v2/bts.h",line 375,column 13,is_stmt,isa
    5234 00000470 6F06          B         ||$C$L71||,UNC        ; [CPU_ALU] |375| 
    5235                      ; branch occurs ; [] |375| 
    5236 00000471       ||$C$L70||:    
    5237                      .dwpsn  file "C:/ti/C2000Ware_DigitalPower_SDK_3_00_01_00/c2000ware/driverlib/f28004x/driverlib/epwm.
    5238 00000471 F5A9          MOV       AL,*(0:0x4149)        ; [CPU_ALU] |3043| 
         00000472 4149 
    5239 00000473 CCA9          AND       AL,AL,#0xfffb         ; [CPU_ALU] |3043| 
         00000474 FFFB 
    5240 00000475 5008          ORB       AL,#0x08              ; [CPU_ALU] |3043| 
    5241 00000476       ||$C$L71||:    
    5242                      .dwpsn  file "C:\Users\a0230328\workspace_v10\bts_F2800x_4ch_v2\bts_hal.h",line 192,column 21,is_stmt
    5243 00000476 E802          MOVIZ     R2H,#17529            ; [CPU_FPU] |192| 
         00000477 23CA 
    5244 00000478 E80E          MOVXI     R2H,#49152            ; [CPU_FPU] |192| 
         00000479 0002 
    5245 0000047a E700          MPYF32    R2H,R2H,R0H           ; [CPU_FPU] |192| 
         0000047b 0012 
    5246 0000047c 7700          NOP       ; [CPU_ALU] 
    5247 0000047d E68E          F32TOUI16 R3H,R2H               ; [CPU_FPU] |192| 
         0000047e 0013 
    5248 0000047f 7700          NOP       ; [CPU_ALU] 
    5249 00000480 7700          NOP       ; [CPU_ALU] 
    5250 00000481 BFA6          MOV32     XAR6,R3H              ; [CPU_FPU] |192| 
         00000482 0F1E 
    5251                      .dwpsn  file "C:/ti/C2000Ware_DigitalPower_SDK_3_00_01_00/c2000ware/driverlib/f28004x/driverlib/epwm.
    5252 00000483 F4A9          MOV       *(0:0x4149),AL        ; [CPU_ALU] |3043| 
         00000484 4149 
    5253                      .dwpsn  file "C:\Users\a0230328\workspace_v10\bts_F2800x_4ch_v2\bts_hal.h",line 192,column 21,is_stmt
    5254 00000485 0EA6          MOVU      ACC,AR6               ; [CPU_ALU] |192| 
    5255 00000486 BDA9          MOV32     R3H,ACC               ; [CPU_FPU] |192| 
         00000487 0F1E 
    5256 00000488 7700          NOP       ; [CPU_ALU] 
    5257 00000489 7700          NOP       ; [CPU_ALU] 
    5258 0000048a 7700          NOP       ; [CPU_ALU] 
    5259 0000048b 761F!         MOVW      DP,#||MEP_ScaleFactor|| ; [CPU_ARAU] 
         0000048c 0000 
    5260 0000048d E68B          UI32TOF32 R3H,R3H               ; [CPU_FPU] |192| 
         0000048e 001B 
TMS320C2000 Assembler PC v20.2.1 Mon Nov  2 17:14:28 2020

Copyright (c) 1996-2018 Texas Instruments Incorporated
bts_main.asm                                                         PAGE  109

    5261 0000048f E284!         UI32TOF32 R4H,@||MEP_ScaleFactor|| ; [CPU_FPU] |192| 
         00000490 0400 
    5262 00000491 E720          SUBF32    R2H,R2H,R3H           ; [CPU_FPU] |192| 
         00000492 00D2 
    5263 00000493 7700          NOP       ; [CPU_ALU] 
    5264 00000494 E700          MPYF32    R2H,R4H,R2H           ; [CPU_FPU] |192| 
         00000495 00A2 
    5265 00000496 7700          NOP       ; [CPU_ALU] 
    5266 00000497 E68E          F32TOUI16 R2H,R2H               ; [CPU_FPU] |192| 
         00000498 0012 
    5267 00000499 761F!         MOVW      DP,#||BTS_ctrl_cc_ch2||+6 ; [CPU_ARAU] 
         0000049a 0000 
    5268                      .dwpsn  file "C:/ti/C2000Ware_DigitalPower_SDK_3_00_01_00/c2000ware/driverlib/f28004x/driverlib/epwm.
    5269 0000049b F4A6          MOV       *(0:0x416b),AR6       ; [CPU_ALU] |2409| 
         0000049c 416B 
    5270                      .dwpsn  file "C:\Users\a0230328\workspace_v10\bts_F2800x_4ch_v2\bts_hal.h",line 192,column 21,is_stmt
    5271 0000049d BFA9          MOV32     ACC,R2H               ; [CPU_FPU] |192| 
         0000049e 0F1A 
    5272                      .dwpsn  file "C:/ti/C2000Ware_DigitalPower_SDK_3_00_01_00/c2000ware/driverlib/f28004x/driverlib/hrpwm
    5273 0000049f 5603          MOV       ACC,AL << #8          ; [CPU_ALU] |1255| 
         000004a0 08A9 
    5274 000004a1 F4A9          MOV       *(0:0x416a),AL        ; [CPU_ALU] |1255| 
         000004a2 416A 
    5275                      .dwpsn  file "C:/ti/C2000Ware_DigitalPower_SDK_3_00_01_00/c2000ware/driverlib/f28004x/driverlib/epwm.
    5276 000004a3 F4A6          MOV       *(0:0x416d),AR6       ; [CPU_ALU] |2409| 
         000004a4 416D 
    5277                      .dwpsn  file "C:/ti/C2000Ware_DigitalPower_SDK_3_00_01_00/c2000ware/driverlib/f28004x/driverlib/hrpwm
    5278 000004a5 F4A9          MOV       *(0:0x416c),AL        ; [CPU_ALU] |1262| 
         000004a6 416C 
    5279                      .dwpsn  file "C:/Users/a0230328/workspace_v10/bts_F2800x_4ch_v2/libraries/DCL/DCLF32.h",line 1458,col
    5280 000004a7 E2AF!         MOV32     R2H,@$BLOCKED(||BTS_ctrl_cc_ch2||)+6 ; [CPU_FPU] |1458| 
         000004a8 0206 
    5281 000004a9 E2AF!         MOV32     R3H,@$BLOCKED(||BTS_ctrl_cc_ch2||)+2 ; [CPU_FPU] |1458| 
         000004aa 0302 
    5282 000004ab E700          MPYF32    R3H,R1H,R3H           ; [CPU_FPU] |1458| 
         000004ac 00CB 
    5283              
    5284                      MOV32     R4H,@$BLOCKED(||BTS_ctrl_cc_ch2||)+12 ; [CPU_FPU] |1458| 
    5285 000004ad E304! ||      MPYF32    R2H,R0H,R2H           ; [CPU_FPU] |1458| 
         000004ae 140C 
    5286              
    5287 000004af E710          ADDF32    R3H,R3H,R4H           ; [CPU_FPU] |1458| 
         000004b0 011B 
    5288 000004b1 7700          NOP       ; [CPU_ALU] 
    5289 000004b2 E720          SUBF32    R2H,R3H,R2H           ; [CPU_FPU] |1458| 
         000004b3 009A 
    5290 000004b4 7700          NOP       ; [CPU_ALU] 
    5291 000004b5 E203!         MOV32     @$BLOCKED(||BTS_ctrl_cc_ch2||)+10,R2H ; [CPU_FPU] |1458| 
         000004b6 020A 
    5292                      .dwpsn  file "C:/Users/a0230328/workspace_v10/bts_F2800x_4ch_v2/libraries/DCL/DCLF32.h",line 1459,col
    5293 000004b7 E2AF!         MOV32     R2H,@$BLOCKED(||BTS_ctrl_cc_ch2||)+8 ; [CPU_FPU] |1459| 
         000004b8 0208 
    5294              
    5295                      MOV32     R3H,@$BLOCKED(||BTS_ctrl_cc_ch2||)+4 ; [CPU_FPU] |1459| 
    5296 000004b9 E304! ||      MPYF32    R2H,R0H,R2H           ; [CPU_FPU] |1459| 
TMS320C2000 Assembler PC v20.2.1 Mon Nov  2 17:14:28 2020

Copyright (c) 1996-2018 Texas Instruments Incorporated
bts_main.asm                                                         PAGE  110

         000004ba 1304 
    5297              
    5298 000004bb E700          MPYF32    R1H,R1H,R3H           ; [CPU_FPU] |1459| 
         000004bc 00C9 
    5299 000004bd 761F!         MOVW      DP,#||BTS_ctrlLoopVariable_ch2||+26 ; [CPU_ARAU] 
         000004be 0000 
    5300                      .dwpsn  file "C:/Users/a0230328/workspace_v10/bts_F2800x_4ch_v2/bts.h",line 395,column 5,is_stmt,isa 
    5301 000004bf E203!         MOV32     @$BLOCKED(||BTS_ctrlLoopVariable_ch2||)+28,R0H ; [CPU_FPU] |395| 
         000004c0 001C 
    5302                      .dwpsn  file "C:/Users/a0230328/workspace_v10/bts_F2800x_4ch_v2/bts.h",line 394,column 5,is_stmt,isa 
    5303              
    5304 000004c1 E024!         SUBF32    R1H,R1H,R2H           ; [CPU_FPU] |1459| 
         000004c2 481A 
    5305              ||      MOV32     @$BLOCKED(||BTS_ctrlLoopVariable_ch2||)+26,R0H ; [CPU_FPU] |394| 
    5306              
    5307 000004c3 761F!         MOVW      DP,#||BTS_ctrl_cc_ch2||+12 ; [CPU_ARAU] 
         000004c4 0000 
    5308                      .dwpsn  file "C:/Users/a0230328/workspace_v10/bts_F2800x_4ch_v2/libraries/DCL/DCLF32.h",line 1459,col
    5309 000004c5 E203!         MOV32     @$BLOCKED(||BTS_ctrl_cc_ch2||)+12,R1H ; [CPU_FPU] |1459| 
         000004c6 010C 
    5310 000004c7       ||$C$L72||:    
    5311 000004c7 761F!         MOVW      DP,#||BTS_ADC1||+10   ; [CPU_ARAU] 
         000004c8 0000 
    5312                      .dwpsn  file "C:/Users/a0230328/workspace_v10/bts_F2800x_4ch_v2/bts.h",line 349,column 5,is_stmt,isa 
    5313 000004c9 D048          MOVB      XAR0,#72              ; [CPU_ALU] |349| 
    5314 000004ca 8F00!         MOVL      XAR4,#||BTS_measValues_ch3|| ; [CPU_ARAU] |349| 
         000004cb 0000 
    5315                      .dwpsn  file "C:/Users/a0230328/workspace_v10/bts_F2800x_4ch_v2/bts.h",line 348,column 105,is_stmt,is
    5316 000004cc C50A!         MOVL      XAR7,@$BLOCKED(||BTS_ADC1||)+10 ; [CPU_ALU] |348| 
    5317                      .dwpsn  file "C:/Users/a0230328/workspace_v10/bts_F2800x_4ch_v2/bts.h",line 349,column 5,is_stmt,isa 
    5318 000004cd 2794          MOV       PL,*+XAR4[AR0]        ; [CPU_ALU] |349| 
    5319                      .dwpsn  file "C:/Users/a0230328/workspace_v10/bts_F2800x_4ch_v2/bts.h",line 348,column 105,is_stmt,is
    5320 000004ce 92AB          MOV       AL,PL                 ; [CPU_ALU] |348| 
    5321 000004cf C40C!         MOVL      XAR6,@$BLOCKED(||BTS_ADC1||)+12 ; [CPU_ALU] |348| 
    5322                      .dwpsn  file "C:/Users/a0230328/workspace_v10/bts_F2800x_4ch_v2/bts.h",line 349,column 5,is_stmt,isa 
    5323 000004d0 5220          CMPB      AL,#32                ; [CPU_ALU] |349| 
    5324 000004d1 6804          B         ||$C$L73||,LO         ; [CPU_ALU] |349| 
    5325                      ; branchcc occurs ; [] |349| 
    5326                      .dwpsn  file "C:/Users/a0230328/workspace_v10/bts_F2800x_4ch_v2/bts.h",line 355,column 9,is_stmt,isa 
    5327 000004d2 D048          MOVB      XAR0,#72              ; [CPU_ALU] |355| 
    5328 000004d3 2B94          MOV       *+XAR4[AR0],#0        ; [CPU_ALU] |355| 
    5329 000004d4 6F0D          B         ||$C$L74||,UNC        ; [CPU_ALU] |355| 
    5330                      ; branch occurs ; [] |355| 
    5331 000004d5       ||$C$L73||:    
    5332                      .dwpsn  file "C:/Users/a0230328/workspace_v10/bts_F2800x_4ch_v2/bts.h",line 350,column 9,is_stmt,isa 
    5333 000004d5 A8A9          MOVL      ACC,XAR4              ; [CPU_ALU] |350| 
    5334 000004d6 0DAB          ADDU      ACC,PL                ; [CPU_ALU] |350| 
    5335 000004d7 83A9          MOVL      XAR5,ACC              ; [CPU_ALU] |350| 
    5336 000004d8 761F!         MOVW      DP,#||BTS_measValues_ch3||+72 ; [CPU_ARAU] 
         000004d9 0001 
    5337                      .dwpsn  file "C:/Users/a0230328/workspace_v10/bts_F2800x_4ch_v2/bts.h",line 351,column 9,is_stmt,isa 
    5338 000004da A8A9          MOVL      ACC,XAR4              ; [CPU_ALU] |351| 
    5339                      .dwpsn  file "C:/Users/a0230328/workspace_v10/bts_F2800x_4ch_v2/bts.h",line 350,column 9,is_stmt,isa 
    5340 000004db 7FE5          MOV       *+XAR5[4],AR7         ; [CPU_ALU] |350| 
    5341                      .dwpsn  file "C:/Users/a0230328/workspace_v10/bts_F2800x_4ch_v2/bts.h",line 351,column 9,is_stmt,isa 
TMS320C2000 Assembler PC v20.2.1 Mon Nov  2 17:14:28 2020

Copyright (c) 1996-2018 Texas Instruments Incorporated
bts_main.asm                                                         PAGE  111

    5342 000004dc 0D08!         ADDU      ACC,@$BLOCKED(||BTS_measValues_ch3||)+72 ; [CPU_ALU] |351| 
    5343 000004dd 8AA9          MOVL      XAR4,ACC              ; [CPU_ALU] |351| 
    5344 000004de D024          MOVB      XAR0,#36              ; [CPU_ALU] |351| 
    5345 000004df 7E94          MOV       *+XAR4[AR0],AR6       ; [CPU_ALU] |351| 
    5346                      .dwpsn  file "C:/Users/a0230328/workspace_v10/bts_F2800x_4ch_v2/bts.h",line 352,column 9,is_stmt,isa 
    5347 000004e0 0A08!         INC       @$BLOCKED(||BTS_measValues_ch3||)+72 ; [CPU_ALU] |352| 
    5348 000004e1       ||$C$L74||:    
    5349 000004e1 761F!         MOVW      DP,#||BTS_ADC1||+10   ; [CPU_ARAU] 
         000004e2 0000 
    5350                      .dwpsn  file "C:/Users/a0230328/workspace_v10/bts_F2800x_4ch_v2/bts.h",line 400,column 189,is_stmt,is
    5351 000004e3 C40A!         MOVL      XAR6,@$BLOCKED(||BTS_ADC1||)+10 ; [CPU_ALU] |400| 
    5352 000004e4 C50C!         MOVL      XAR7,@$BLOCKED(||BTS_ADC1||)+12 ; [CPU_ALU] |400| 
    5353 000004e5 761F!         MOVW      DP,#||BTS_ctrlLoopVariable_ch3||+34 ; [CPU_ARAU] 
         000004e6 0000 
    5354                      .dwpsn  file "C:/Users/a0230328/workspace_v10/bts_F2800x_4ch_v2/bts.h",line 323,column 5,is_stmt,isa 
    5355 000004e7 9322!         MOV       AH,@$BLOCKED(||BTS_ctrlLoopVariable_ch3||)+34 ; [CPU_ALU] |323| 
    5356 000004e8 6009          B         ||$C$L75||,NEQ        ; [CPU_ALU] |323| 
    5357                      ; branchcc occurs ; [] |323| 
    5358                      .dwpsn  file "C:/ti/C2000Ware_DigitalPower_SDK_3_00_01_00/c2000ware/driverlib/f28004x/driverlib/epwm.
    5359 000004e9 7622          EALLOW    ; [CPU_ALU] |4497| 
    5360                      .dwpsn  file "C:/ti/C2000Ware_DigitalPower_SDK_3_00_01_00/c2000ware/driverlib/f28004x/driverlib/epwm.
    5361 000004ea F5A8          MOV       AH,*(0:0x4297)        ; [CPU_ALU] |4498| 
         000004eb 4297 
    5362 000004ec 5104          ORB       AH,#0x04              ; [CPU_ALU] |4498| 
    5363 000004ed F4A8          MOV       *(0:0x4297),AH        ; [CPU_ALU] |4498| 
         000004ee 4297 
    5364                      .dwpsn  file "C:/ti/C2000Ware_DigitalPower_SDK_3_00_01_00/c2000ware/driverlib/f28004x/driverlib/epwm.
    5365 000004ef 761A          EDIS      ; [CPU_ALU] |4499| 
    5366                      .dwpsn  file "C:/Users/a0230328/workspace_v10/bts_F2800x_4ch_v2/bts.h",line 340,column 9,is_stmt,isa 
    5367 000004f0 6F23          B         ||$C$L76||,UNC        ; [CPU_ALU] |340| 
    5368                      ; branch occurs ; [] |340| 
    5369 000004f1       ||$C$L75||:    
    5370                      .dwpsn  file "C:/ti/C2000Ware_DigitalPower_SDK_3_00_01_00/c2000ware/driverlib/f28004x/driverlib/epwm.
    5371 000004f1 7622          EALLOW    ; [CPU_ALU] |4611| 
    5372                      .dwpsn  file "C:/ti/C2000Ware_DigitalPower_SDK_3_00_01_00/c2000ware/driverlib/f28004x/driverlib/epwm.
    5373 000004f2 F5A8          MOV       AH,*(0:0x429b)        ; [CPU_ALU] |4612| 
         000004f3 429B 
    5374 000004f4 5104          ORB       AH,#0x04              ; [CPU_ALU] |4612| 
    5375 000004f5 F4A8          MOV       *(0:0x429b),AH        ; [CPU_ALU] |4612| 
         000004f6 429B 
    5376                      .dwpsn  file "C:/ti/C2000Ware_DigitalPower_SDK_3_00_01_00/c2000ware/driverlib/f28004x/driverlib/epwm.
    5377 000004f7 F5A8          MOV       AH,*(0:0x4284)        ; [CPU_ALU] |4062| 
         000004f8 4284 
    5378 000004f9 CDA8          AND       AH,AH,#0xfffe         ; [CPU_ALU] |4062| 
         000004fa FFFE 
    5379 000004fb 5102          ORB       AH,#0x02              ; [CPU_ALU] |4062| 
    5380 000004fc F4A8          MOV       *(0:0x4284),AH        ; [CPU_ALU] |4062| 
         000004fd 4284 
    5381                      .dwpsn  file "C:/ti/C2000Ware_DigitalPower_SDK_3_00_01_00/c2000ware/driverlib/f28004x/driverlib/epwm.
    5382 000004fe 761A          EDIS      ; [CPU_ALU] |4065| 
    5383                      .dwpsn  file "C:/ti/C2000Ware_DigitalPower_SDK_3_00_01_00/c2000ware/driverlib/f28004x/driverlib/epwm.
    5384 000004ff 28A9          MOV       AL,#999               ; [CPU_ALU] |2409| 
         00000500 03E7 
    5385 00000501 9B00          MOVB      AH,#0                 ; [CPU_ALU] |2409| 
    5386                      .dwpsn  file "C:/Users/a0230328/workspace_v10/bts_F2800x_4ch_v2/bts.h",line 334,column 9,is_stmt,isa 
TMS320C2000 Assembler PC v20.2.1 Mon Nov  2 17:14:28 2020

Copyright (c) 1996-2018 Texas Instruments Incorporated
bts_main.asm                                                         PAGE  112

    5387 00000502 E591          ZERO      R1H                   ; [CPU_FPU] |334| 
    5388 00000503 761F!         MOVW      DP,#||BTS_ctrl_cc_ch3||+10 ; [CPU_ARAU] 
         00000504 0000 
    5389                      .dwpsn  file "C:/Users/a0230328/workspace_v10/bts_F2800x_4ch_v2/bts.h",line 335,column 9,is_stmt,isa 
    5390 00000505 E590          ZERO      R0H                   ; [CPU_FPU] |335| 
    5391                      .dwpsn  file "C:/ti/C2000Ware_DigitalPower_SDK_3_00_01_00/c2000ware/driverlib/f28004x/driverlib/epwm.
    5392 00000506 F4A8          MOV       *(0:0x426b),AH        ; [CPU_ALU] |2409| 
         00000507 426B 
    5393 00000508 F4A9          MOV       *(0:0x426d),AL        ; [CPU_ALU] |2409| 
         00000509 426D 
    5394                      .dwpsn  file "C:/ti/C2000Ware_DigitalPower_SDK_3_00_01_00/c2000ware/driverlib/f28004x/driverlib/hrpwm
    5395 0000050a 9A00          MOVB      AL,#0                 ; [CPU_ALU] |1262| 
    5396                      .dwpsn  file "C:/ti/C2000Ware_DigitalPower_SDK_3_00_01_00/c2000ware/driverlib/f28004x/driverlib/hrpwm
    5397 0000050b F4A8          MOV       *(0:0x426a),AH        ; [CPU_ALU] |1255| 
         0000050c 426A 
    5398                      .dwpsn  file "C:/ti/C2000Ware_DigitalPower_SDK_3_00_01_00/c2000ware/driverlib/f28004x/driverlib/hrpwm
    5399 0000050d F4A9          MOV       *(0:0x426c),AL        ; [CPU_ALU] |1262| 
         0000050e 426C 
    5400                      .dwpsn  file "C:/Users/a0230328/workspace_v10/bts_F2800x_4ch_v2/bts.h",line 334,column 9,is_stmt,isa 
    5401 0000050f E203!         MOV32     @$BLOCKED(||BTS_ctrl_cc_ch3||)+10,R1H ; [CPU_FPU] |334| 
         00000510 010A 
    5402                      .dwpsn  file "C:/Users/a0230328/workspace_v10/bts_F2800x_4ch_v2/bts.h",line 335,column 9,is_stmt,isa 
    5403 00000511 E203!         MOV32     @$BLOCKED(||BTS_ctrl_cc_ch3||)+12,R0H ; [CPU_FPU] |335| 
         00000512 000C 
    5404 00000513       ||$C$L76||:    
    5405 00000513 761F!         MOVW      DP,#||BTS_ctrlLoopVariable_ch3||+4 ; [CPU_ARAU] 
         00000514 0000 
    5406                      .dwpsn  file "C:/Users/a0230328/workspace_v10/bts_F2800x_4ch_v2/bts.h",line 408,column 5,is_stmt,isa 
    5407 00000515 85A6          MOV       ACC,AR6               ; [CPU_ALU] |408| 
    5408                      .dwpsn  file "C:/Users/a0230328/workspace_v10/bts_F2800x_4ch_v2/libraries/DCL/DCLF32.h",line 1697,col
    5409 00000516 E2AF!         MOV32     R1H,@$BLOCKED(||BTS_ctrlLoopVariable_ch3||)+4 ; [CPU_FPU] |1697| 
         00000517 0104 
    5410                      .dwpsn  file "C:/Users/a0230328/workspace_v10/bts_F2800x_4ch_v2/bts.h",line 408,column 5,is_stmt,isa 
    5411 00000518 BDA9          MOV32     R2H,ACC               ; [CPU_FPU] |408| 
         00000519 0F1A 
    5412                      .dwpsn  file "C:/Users/a0230328/workspace_v10/bts_F2800x_4ch_v2/libraries/DCL/DCLF32.h",line 1697,col
    5413 0000051a E6CF          MOV32     R6H,R1H               ; [CPU_FPU] |1697| 
         0000051b 000E 
    5414                      .dwpsn  file "C:/Users/a0230328/workspace_v10/bts_F2800x_4ch_v2/bts.h",line 418,column 5,is_stmt,isa 
    5415 0000051c E2AF!         MOV32     R7H,@$BLOCKED(||BTS_ctrlLoopVariable_ch3||)+10 ; [CPU_FPU] |418| 
         0000051d 070A 
    5416                      .dwpsn  file "C:/Users/a0230328/workspace_v10/bts_F2800x_4ch_v2/bts.h",line 420,column 5,is_stmt,isa 
    5417 0000051e E2AF!         MOV32     R5H,@$BLOCKED(||BTS_ctrlLoopVariable_ch3||)+24 ; [CPU_FPU] |420| 
         0000051f 0518 
    5418                      .dwpsn  file "C:/Users/a0230328/workspace_v10/bts_F2800x_4ch_v2/bts.h",line 409,column 5,is_stmt,isa 
    5419 00000520 85A7          MOV       ACC,AR7               ; [CPU_ALU] |409| 
    5420                      .dwpsn  file "C:/Users/a0230328/workspace_v10/bts_F2800x_4ch_v2/libraries/DCL/DCLF32.h",line 1697,col
    5421 00000521 E6AF          NEGF32    R6H,R6H               ; [CPU_FPU] |1697| 
         00000522 0036 
    5422                      .dwpsn  file "C:/Users/a0230328/workspace_v10/bts_F2800x_4ch_v2/bts.h",line 421,column 5,is_stmt,isa 
    5423 00000523 D014          MOVB      XAR0,#20              ; [CPU_ALU] |421| 
    5424                      .dwpsn  file "C:/Users/a0230328/workspace_v10/bts_F2800x_4ch_v2/bts.h",line 408,column 5,is_stmt,isa 
    5425 00000524 8F00!         MOVL      XAR4,#||BTS_ctrlLoopVariable_ch3|| ; [CPU_ARAU] |408| 
         00000525 0000 
    5426                      .dwpsn  file "C:/Users/a0230328/workspace_v10/bts_F2800x_4ch_v2/bts.h",line 409,column 5,is_stmt,isa 
TMS320C2000 Assembler PC v20.2.1 Mon Nov  2 17:14:28 2020

Copyright (c) 1996-2018 Texas Instruments Incorporated
bts_main.asm                                                         PAGE  113

    5427 00000526 BDA9          MOV32     R0H,ACC               ; [CPU_FPU] |409| 
         00000527 0F12 
    5428 00000528 761F!         MOVW      DP,#||BTS_ctrl_cv_ch3|| ; [CPU_ARAU] 
         00000529 0000 
    5429                      .dwpsn  file "C:/Users/a0230328/workspace_v10/bts_F2800x_4ch_v2/libraries/DCL/DCLF32.h",line 1697,col
    5430 0000052a E203          MOV32     *-SP[8],R6H           ; [CPU_FPU] |1697| 
         0000052b 0648 
    5431                      .dwpsn  file "C:/Users/a0230328/workspace_v10/bts_F2800x_4ch_v2/libraries/DCL/DCLF32.h",line 1700,col
    5432 0000052c D114          MOVB      XAR1,#20              ; [CPU_ALU] |1700| 
    5433                      .dwpsn  file "C:/Users/a0230328/workspace_v10/bts_F2800x_4ch_v2/bts.h",line 408,column 5,is_stmt,isa 
    5434 0000052d E689          I32TOF32  R2H,R2H               ; [CPU_FPU] |408| 
         0000052e 0012 
    5435                      .dwpsn  file "C:/Users/a0230328/workspace_v10/bts_F2800x_4ch_v2/bts.h",line 409,column 5,is_stmt,isa 
    5436 0000052f E689          I32TOF32  R0H,R0H               ; [CPU_FPU] |409| 
         00000530 0000 
    5437                      .dwpsn  file "C:/Users/a0230328/workspace_v10/bts_F2800x_4ch_v2/libraries/DCL/DCLF32.h",line 1700,col
    5438 00000531 E6CF          MOV32     R6H,R1H               ; [CPU_FPU] |1700| 
         00000532 000E 
    5439                      .dwpsn  file "C:/Users/a0230328/workspace_v10/bts_F2800x_4ch_v2/bts.h",line 409,column 5,is_stmt,isa 
    5440 00000533 E84E          MPYF32    R0H,R0H,#14336        ; [CPU_FPU] |409| 
         00000534 0000 
    5441                      .dwpsn  file "C:/Users/a0230328/workspace_v10/bts_F2800x_4ch_v2/libraries/DCL/DCLF32.h",line 1703,col
    5442 00000535 9A01          MOVB      AL,#1                 ; [CPU_ALU] |1703| 
    5443                      .dwpsn  file "C:/Users/a0230328/workspace_v10/bts_F2800x_4ch_v2/bts.h",line 420,column 5,is_stmt,isa 
    5444 00000536 E720          SUBF32    R3H,R7H,R0H           ; [CPU_FPU] |420| 
         00000537 003B 
    5445                      .dwpsn  file "C:/Users/a0230328/workspace_v10/bts_F2800x_4ch_v2/bts.h",line 408,column 5,is_stmt,isa 
    5446 00000538 E84E          MPYF32    R2H,R2H,#14336        ; [CPU_FPU] |408| 
         00000539 0012 
    5447                      .dwpsn  file "C:/Users/a0230328/workspace_v10/bts_F2800x_4ch_v2/bts.h",line 409,column 5,is_stmt,isa 
    5448              
    5449 0000053a E007          MPYF32    R3H,R5H,R3H           ; [CPU_FPU] |420| 
         0000053b 5844 
    5450              ||      MOV32     *-SP[4],R0H           ; [CPU_FPU] |409| 
    5451              
    5452                      .dwpsn  file "C:/Users/a0230328/workspace_v10/bts_F2800x_4ch_v2/libraries/DCL/DCLF32.h",line 1447,col
    5453 0000053c E2AF!         MOV32     R0H,@$BLOCKED(||BTS_ctrl_cv_ch3||) ; [CPU_FPU] |1447| 
         0000053d 0000 
    5454 0000053e E700          MPYF32    R0H,R3H,R0H           ; [CPU_FPU] |1447| 
         0000053f 0018 
    5455 00000540 E2AF!         MOV32     R4H,@$BLOCKED(||BTS_ctrl_cv_ch3||)+10 ; [CPU_FPU] |1447| 
         00000541 040A 
    5456              
    5457 00000542 E011          ADDF32    R4H,R4H,R0H           ; [CPU_FPU] |1447| 
         00000543 2146 
    5458              ||      MOV32     *-SP[6],R1H           ; [CPU_FPU] |1697| 
    5459              
    5460 00000544 E2AF          MOV32     R0H,*-SP[8]           ; [CPU_FPU] |1447| 
         00000545 0048 
    5461                      .dwpsn  file "C:/Users/a0230328/workspace_v10/bts_F2800x_4ch_v2/bts.h",line 421,column 5,is_stmt,isa 
    5462 00000546 E203          MOV32     *+XAR4[AR0],R4H       ; [CPU_FPU] |421| 
         00000547 0494 
    5463                      .dwpsn  file "C:/Users/a0230328/workspace_v10/bts_F2800x_4ch_v2/libraries/DCL/DCLF32.h",line 1700,col
    5464 00000548 E697          MINF32    R6H,R4H               ; [CPU_FPU] |1700| 
         00000549 0026 
TMS320C2000 Assembler PC v20.2.1 Mon Nov  2 17:14:28 2020

Copyright (c) 1996-2018 Texas Instruments Incorporated
bts_main.asm                                                         PAGE  114

    5465                      .dwpsn  file "C:/Users/a0230328/workspace_v10/bts_F2800x_4ch_v2/bts.h",line 418,column 5,is_stmt,isa 
    5466 0000054a D00C          MOVB      XAR0,#12              ; [CPU_ALU] |418| 
    5467 0000054b E203          MOV32     *+XAR4[AR0],R7H       ; [CPU_FPU] |418| 
         0000054c 0794 
    5468                      .dwpsn  file "C:/Users/a0230328/workspace_v10/bts_F2800x_4ch_v2/libraries/DCL/DCLF32.h",line 1700,col
    5469 0000054d E696          MAXF32    R0H,R6H               ; [CPU_FPU] |1700| 
         0000054e 0030 
    5470                      .dwpsn  file "C:/Users/a0230328/workspace_v10/bts_F2800x_4ch_v2/bts.h",line 408,column 5,is_stmt,isa 
    5471 0000054f D008          MOVB      XAR0,#8               ; [CPU_ALU] |408| 
    5472                      .dwpsn  file "C:/Users/a0230328/workspace_v10/bts_F2800x_4ch_v2/bts.h",line 409,column 5,is_stmt,isa 
    5473 00000550 E2AF          MOV32     R6H,*-SP[4]           ; [CPU_FPU] |409| 
         00000551 0644 
    5474                      .dwpsn  file "C:/Users/a0230328/workspace_v10/bts_F2800x_4ch_v2/bts.h",line 408,column 5,is_stmt,isa 
    5475 00000552 E203          MOV32     *+XAR4[AR0],R2H       ; [CPU_FPU] |408| 
         00000553 0294 
    5476                      .dwpsn  file "C:/Users/a0230328/workspace_v10/bts_F2800x_4ch_v2/bts.h",line 409,column 5,is_stmt,isa 
    5477 00000554 D00E          MOVB      XAR0,#14              ; [CPU_ALU] |409| 
    5478                      .dwpsn  file "C:/Users/a0230328/workspace_v10/bts_F2800x_4ch_v2/libraries/DCL/DCLF32.h",line 1700,col
    5479 00000555 E203          MOV32     *+XAR4[AR1],R0H       ; [CPU_FPU] |1700| 
         00000556 009C 
    5480                      .dwpsn  file "C:/Users/a0230328/workspace_v10/bts_F2800x_4ch_v2/bts.h",line 409,column 5,is_stmt,isa 
    5481 00000557 E203          MOV32     *+XAR4[AR0],R6H       ; [CPU_FPU] |409| 
         00000558 0694 
    5482                      .dwpsn  file "C:/Users/a0230328/workspace_v10/bts_F2800x_4ch_v2/bts.h",line 420,column 5,is_stmt,isa 
    5483 00000559 D016          MOVB      XAR0,#22              ; [CPU_ALU] |420| 
    5484 0000055a E203          MOV32     *+XAR4[AR0],R3H       ; [CPU_FPU] |420| 
         0000055b 0394 
    5485                      .dwpsn  file "C:/Users/a0230328/workspace_v10/bts_F2800x_4ch_v2/libraries/DCL/DCLF32.h",line 1703,col
    5486 0000055c E694          CMPF32    R4H,R1H               ; [CPU_FPU] |1703| 
         0000055d 000C 
    5487 0000055e AD14          MOVST0    ZF, NF                ; [CPU_FPU] |1703| 
    5488 0000055f 6307          B         ||$C$L77||,GEQ        ; [CPU_ALU] |1703| 
    5489                      ; branchcc occurs ; [] |1703| 
    5490 00000560 E2AF          MOV32     R1H,*-SP[8]           ; [CPU_FPU] 
         00000561 0148 
    5491 00000562 E694          CMPF32    R4H,R1H               ; [CPU_FPU] |1703| 
         00000563 000C 
    5492 00000564 AD14          MOVST0    ZF, NF                ; [CPU_FPU] |1703| 
    5493 00000565 625A          B         ||$C$L80||,GT         ; [CPU_ALU] |1703| 
    5494                      ; branchcc occurs ; [] |1703| 
    5495 00000566       ||$C$L77||:    
    5496 00000566 5200          CMPB      AL,#0                 ; [CPU_ALU] |1703| 
    5497 00000567 6158          B         ||$C$L80||,EQ         ; [CPU_ALU] |1703| 
    5498                      ; branchcc occurs ; [] |1703| 
    5499                      .dwpsn  file "C:/Users/a0230328/workspace_v10/bts_F2800x_4ch_v2/bts.h",line 433,column 10,is_stmt,isa
    5500 00000568 E805          MOVIZ     R1H,#48955            ; [CPU_FPU] |433| 
         00000569 F9D9 
    5501 0000056a E80D          MOVXI     R1H,#46601            ; [CPU_FPU] |433| 
         0000056b B049 
    5502 0000056c E694          CMPF32    R0H,R1H               ; [CPU_FPU] |433| 
         0000056d 0008 
    5503 0000056e AD14          MOVST0    ZF, NF                ; [CPU_FPU] |433| 
    5504 0000056f 650E          B         ||$C$L78||,LEQ        ; [CPU_ALU] |433| 
    5505                      ; branchcc occurs ; [] |433| 
    5506 00000570 761F!         MOVW      DP,#||BTS_ctrlLoopVariable_ch3||+6 ; [CPU_ARAU] 
TMS320C2000 Assembler PC v20.2.1 Mon Nov  2 17:14:28 2020

Copyright (c) 1996-2018 Texas Instruments Incorporated
bts_main.asm                                                         PAGE  115

         00000571 0000 
    5507                      .dwpsn  file "C:/Users/a0230328/workspace_v10/bts_F2800x_4ch_v2/bts.h",line 437,column 14,is_stmt,isa
    5508 00000572 E801          MOVIZ     R4H,#16187            ; [CPU_FPU] |437| 
         00000573 F9DC 
    5509 00000574 E2AF!         MOV32     R1H,@$BLOCKED(||BTS_ctrlLoopVariable_ch3||)+6 ; [CPU_FPU] 
         00000575 0106 
    5510 00000576 E80E          MOVXI     R4H,#50975            ; [CPU_FPU] |437| 
         00000577 38FC 
    5511 00000578 E694          CMPF32    R0H,R4H               ; [CPU_FPU] |437| 
         00000579 0020 
    5512 0000057a AD14          MOVST0    ZF, NF                ; [CPU_FPU] |437| 
    5513 0000057b 6327          B         ||$C$L79||,GEQ        ; [CPU_ALU] |437| 
    5514                      ; branchcc occurs ; [] |437| 
    5515 0000057c 6F67          B         ||$C$L81||,UNC        ; [CPU_ALU] |437| 
    5516                      ; branch occurs ; [] |437| 
    5517 0000057d       ||$C$L78||:    
    5518 0000057d E801          MOVIZ     R1H,#16187            ; [CPU_FPU] |437| 
         0000057e F9D9 
    5519 0000057f E80E          MOVXI     R1H,#50975            ; [CPU_FPU] |437| 
         00000580 38F9 
    5520 00000581 E694          CMPF32    R0H,R1H               ; [CPU_FPU] |437| 
         00000582 0008 
    5521 00000583 AD14          MOVST0    ZF, NF                ; [CPU_FPU] |437| 
    5522 00000584 631E          B         ||$C$L79||,GEQ        ; [CPU_ALU] |437| 
    5523                      ; branchcc occurs ; [] |437| 
    5524                      .dwpsn  file "C:/Users/a0230328/workspace_v10/bts_F2800x_4ch_v2/bts.h",line 446,column 5,is_stmt,isa 
    5525 00000585 E805          MOVIZ     R1H,#47747            ; [CPU_FPU] |446| 
         00000586 D419 
    5526 00000587 E805          MOVIZ     R4H,#48955            ; [CPU_FPU] 
         00000588 F9DC 
    5527 00000589 761F!         MOVW      DP,#||BTS_ctrlLoopVariable_ch3||+6 ; [CPU_ARAU] 
         0000058a 0000 
    5528 0000058b E808          MOVXI     R1H,#4719             ; [CPU_FPU] |446| 
         0000058c 9379 
    5529 0000058d E80D          MOVXI     R4H,#46601            ; [CPU_FPU] 
         0000058e B04C 
    5530 0000058f E694          CMPF32    R3H,R1H               ; [CPU_FPU] |446| 
         00000590 000B 
    5531 00000591 AD14          MOVST0    ZF, NF                ; [CPU_FPU] |446| 
    5532 00000592 E203!         MOV32     @$BLOCKED(||BTS_ctrlLoopVariable_ch3||)+6,R4H ; [CPU_FPU] 
         00000593 0406 
    5533 00000594 6465          B         ||$C$L83||,LT         ; [CPU_ALU] |446| 
    5534                      ; branchcc occurs ; [] |446| 
    5535                      .dwpsn  file "C:/Users/a0230328/workspace_v10/bts_F2800x_4ch_v2/bts.h",line 450,column 10,is_stmt,isa
    5536 00000595 E801          MOVIZ     R0H,#15820            ; [CPU_FPU] |450| 
         00000596 EE60 
    5537 00000597 E80E          MOVXI     R0H,#52429            ; [CPU_FPU] |450| 
         00000598 6668 
    5538 00000599 E694          CMPF32    R3H,R0H               ; [CPU_FPU] |450| 
         0000059a 0003 
    5539 0000059b AD14          MOVST0    ZF, NF                ; [CPU_FPU] |450| 
    5540 0000059c 6257          B         ||$C$L82||,GT         ; [CPU_ALU] |450| 
    5541                      ; branchcc occurs ; [] |450| 
    5542                      .dwpsn  file "C:/Users/a0230328/workspace_v10/bts_F2800x_4ch_v2/bts.h",line 435,column 14,is_stmt,isa
    5543 0000059d E805          MOVIZ     R1H,#48955            ; [CPU_FPU] |435| 
TMS320C2000 Assembler PC v20.2.1 Mon Nov  2 17:14:28 2020

Copyright (c) 1996-2018 Texas Instruments Incorporated
bts_main.asm                                                         PAGE  116

         0000059e F9D9 
    5544 0000059f E80D          MOVXI     R1H,#46601            ; [CPU_FPU] |435| 
         000005a0 B049 
    5545 000005a1 6F61          B         ||$C$L85||,UNC        ; [CPU_ALU] 
    5546                      ; branch occurs ; [] 
    5547 000005a2       ||$C$L79||:    
    5548                      .dwpsn  file "C:/Users/a0230328/workspace_v10/bts_F2800x_4ch_v2/bts.h",line 446,column 5,is_stmt,isa 
    5549 000005a2 E805          MOVIZ     R1H,#47747            ; [CPU_FPU] |446| 
         000005a3 D419 
    5550 000005a4 E808          MOVXI     R1H,#4719             ; [CPU_FPU] |446| 
         000005a5 9379 
    5551 000005a6 E694          CMPF32    R3H,R1H               ; [CPU_FPU] |446| 
         000005a7 000B 
    5552 000005a8 AD14          MOVST0    ZF, NF                ; [CPU_FPU] |446| 
    5553 000005a9 6450          B         ||$C$L83||,LT         ; [CPU_ALU] |446| 
    5554                      ; branchcc occurs ; [] |446| 
    5555                      .dwpsn  file "C:/Users/a0230328/workspace_v10/bts_F2800x_4ch_v2/bts.h",line 450,column 10,is_stmt,isa
    5556 000005aa E801          MOVIZ     R0H,#15820            ; [CPU_FPU] |450| 
         000005ab EE60 
    5557 000005ac E80E          MOVXI     R0H,#52429            ; [CPU_FPU] |450| 
         000005ad 6668 
    5558 000005ae E694          CMPF32    R3H,R0H               ; [CPU_FPU] |450| 
         000005af 0003 
    5559 000005b0 AD14          MOVST0    ZF, NF                ; [CPU_FPU] |450| 
    5560 000005b1 6242          B         ||$C$L82||,GT         ; [CPU_ALU] |450| 
    5561                      ; branchcc occurs ; [] |450| 
    5562 000005b2 E801          MOVIZ     R0H,#16187            ; [CPU_FPU] 
         000005b3 F9D8 
    5563                      .dwpsn  file "C:/Users/a0230328/workspace_v10/bts_F2800x_4ch_v2/bts.h",line 439,column 18,is_stmt,isa
    5564 000005b4 E801          MOVIZ     R1H,#16187            ; [CPU_FPU] |439| 
         000005b5 F9D9 
    5565 000005b6 761F!         MOVW      DP,#||BTS_ctrlLoopVariable_ch3||+6 ; [CPU_ARAU] 
         000005b7 0000 
    5566 000005b8 E80E          MOVXI     R0H,#50975            ; [CPU_FPU] 
         000005b9 38F8 
    5567 000005ba E80E          MOVXI     R1H,#50975            ; [CPU_FPU] |439| 
         000005bb 38F9 
    5568 000005bc E203!         MOV32     @$BLOCKED(||BTS_ctrlLoopVariable_ch3||)+6,R0H ; [CPU_FPU] 
         000005bd 0006 
    5569 000005be 6F44          B         ||$C$L85||,UNC        ; [CPU_ALU] 
    5570                      ; branch occurs ; [] 
    5571 000005bf       ||$C$L80||:    
    5572                      .dwpsn  file "C:/Users/a0230328/workspace_v10/bts_F2800x_4ch_v2/libraries/DCL/DCLF32.h",line 1458,col
    5573 000005bf E2AF!         MOV32     R4H,@$BLOCKED(||BTS_ctrl_cv_ch3||)+6 ; [CPU_FPU] |1458| 
         000005c0 0406 
    5574 000005c1 761F!         MOVW      DP,#||BTS_ctrlLoopVariable_ch3||+6 ; [CPU_ARAU] 
         000005c2 0000 
    5575                      .dwpsn  file "C:/Users/a0230328/workspace_v10/bts_F2800x_4ch_v2/bts.h",line 426,column 9,is_stmt,isa 
    5576 000005c3 E6CF          MOV32     R1H,R0H               ; [CPU_FPU] |426| 
         000005c4 0001 
    5577 000005c5 E203!         MOV32     @$BLOCKED(||BTS_ctrlLoopVariable_ch3||)+6,R0H ; [CPU_FPU] |426| 
         000005c6 0006 
    5578 000005c7 761F!         MOVW      DP,#||BTS_ctrl_cv_ch3||+2 ; [CPU_ARAU] 
         000005c8 0000 
    5579                      .dwpsn  file "C:/Users/a0230328/workspace_v10/bts_F2800x_4ch_v2/libraries/DCL/DCLF32.h",line 1458,col
TMS320C2000 Assembler PC v20.2.1 Mon Nov  2 17:14:28 2020

Copyright (c) 1996-2018 Texas Instruments Incorporated
bts_main.asm                                                         PAGE  117

    5580 000005c9 E2AF!         MOV32     R6H,@$BLOCKED(||BTS_ctrl_cv_ch3||)+2 ; [CPU_FPU] |1458| 
         000005ca 0602 
    5581 000005cb E700          MPYF32    R6H,R3H,R6H           ; [CPU_FPU] |1458| 
         000005cc 019E 
    5582              
    5583                      MOV32     R7H,@$BLOCKED(||BTS_ctrl_cv_ch3||)+12 ; [CPU_FPU] |1458| 
    5584 000005cd E308! ||      MPYF32    R4H,R1H,R4H           ; [CPU_FPU] |1458| 
         000005ce 670C 
    5585              
    5586 000005cf E710          ADDF32    R6H,R6H,R7H           ; [CPU_FPU] |1458| 
         000005d0 01F6 
    5587 000005d1 7700          NOP       ; [CPU_ALU] 
    5588 000005d2 E720          SUBF32    R4H,R6H,R4H           ; [CPU_FPU] |1458| 
         000005d3 0134 
    5589 000005d4 7700          NOP       ; [CPU_ALU] 
    5590 000005d5 E203!         MOV32     @$BLOCKED(||BTS_ctrl_cv_ch3||)+10,R4H ; [CPU_FPU] |1458| 
         000005d6 040A 
    5591                      .dwpsn  file "C:/Users/a0230328/workspace_v10/bts_F2800x_4ch_v2/libraries/DCL/DCLF32.h",line 1459,col
    5592 000005d7 E2AF!         MOV32     R4H,@$BLOCKED(||BTS_ctrl_cv_ch3||)+8 ; [CPU_FPU] |1459| 
         000005d8 0408 
    5593              
    5594                      MOV32     R6H,@$BLOCKED(||BTS_ctrl_cv_ch3||)+4 ; [CPU_FPU] |1459| 
    5595 000005d9 E308! ||      MPYF32    R4H,R1H,R4H           ; [CPU_FPU] |1459| 
         000005da 6604 
    5596              
    5597 000005db E700          MPYF32    R6H,R3H,R6H           ; [CPU_FPU] |1459| 
         000005dc 019E 
    5598 000005dd 7700          NOP       ; [CPU_ALU] 
    5599 000005de E720          SUBF32    R4H,R6H,R4H           ; [CPU_FPU] |1459| 
         000005df 0134 
    5600 000005e0 7700          NOP       ; [CPU_ALU] 
    5601 000005e1 E203!         MOV32     @$BLOCKED(||BTS_ctrl_cv_ch3||)+12,R4H ; [CPU_FPU] |1459| 
         000005e2 040C 
    5602 000005e3       ||$C$L81||:    
    5603                      .dwpsn  file "C:/Users/a0230328/workspace_v10/bts_F2800x_4ch_v2/bts.h",line 446,column 5,is_stmt,isa 
    5604 000005e3 E805          MOVIZ     R4H,#47747            ; [CPU_FPU] |446| 
         000005e4 D41C 
    5605 000005e5 E808          MOVXI     R4H,#4719             ; [CPU_FPU] |446| 
         000005e6 937C 
    5606 000005e7 E694          CMPF32    R3H,R4H               ; [CPU_FPU] |446| 
         000005e8 0023 
    5607 000005e9 AD14          MOVST0    ZF, NF                ; [CPU_FPU] |446| 
    5608 000005ea 640F          B         ||$C$L83||,LT         ; [CPU_ALU] |446| 
    5609                      ; branchcc occurs ; [] |446| 
    5610                      .dwpsn  file "C:/Users/a0230328/workspace_v10/bts_F2800x_4ch_v2/bts.h",line 450,column 10,is_stmt,isa
    5611 000005eb E801          MOVIZ     R0H,#15820            ; [CPU_FPU] |450| 
         000005ec EE60 
    5612 000005ed E80E          MOVXI     R0H,#52429            ; [CPU_FPU] |450| 
         000005ee 6668 
    5613 000005ef E694          CMPF32    R3H,R0H               ; [CPU_FPU] |450| 
         000005f0 0003 
    5614 000005f1 AD14          MOVST0    ZF, NF                ; [CPU_FPU] |450| 
    5615 000005f2 6510          B         ||$C$L85||,LEQ        ; [CPU_ALU] |450| 
    5616                      ; branchcc occurs ; [] |450| 
    5617 000005f3       ||$C$L82||:    
TMS320C2000 Assembler PC v20.2.1 Mon Nov  2 17:14:28 2020

Copyright (c) 1996-2018 Texas Instruments Incorporated
bts_main.asm                                                         PAGE  118

    5618 000005f3 761F!         MOVW      DP,#||BTS_ctrlLoopVariable_ch3||+30 ; [CPU_ARAU] 
         000005f4 0000 
    5619 000005f5 E2AF          MOV32     R0H,*-SP[6]           ; [CPU_FPU] 
         000005f6 0046 
    5620                      .dwpsn  file "C:/Users/a0230328/workspace_v10/bts_F2800x_4ch_v2/bts.h",line 454,column 9,is_stmt,isa 
    5621 000005f7 2B1E!         MOV       @$BLOCKED(||BTS_ctrlLoopVariable_ch3||)+30,#0 ; [CPU_ALU] |454| 
    5622 000005f8 6F05          B         ||$C$L84||,UNC        ; [CPU_ALU] |454| 
    5623                      ; branch occurs ; [] |454| 
    5624 000005f9       ||$C$L83||:    
    5625 000005f9 761F!         MOVW      DP,#||BTS_ctrlLoopVariable_ch3||+30 ; [CPU_ARAU] 
         000005fa 0000 
    5626                      .dwpsn  file "C:/Users/a0230328/workspace_v10/bts_F2800x_4ch_v2/bts.h",line 448,column 9,is_stmt,isa 
    5627 000005fb 56BF!         MOVB      @$BLOCKED(||BTS_ctrlLoopVariable_ch3||)+30,#1,UNC ; [CPU_ALU] |448| 
         000005fc 011E 
    5628 000005fd       ||$C$L84||:    
    5629                      .dwpsn  file "C:/Users/a0230328/workspace_v10/bts_F2800x_4ch_v2/bts.h",line 447,column 9,is_stmt,isa 
    5630 000005fd E700          MPYF32    R1H,R0H,R5H           ; [CPU_FPU] |447| 
         000005fe 0141 
    5631 000005ff 7700          NOP       ; [CPU_ALU] 
    5632 00000600 E203!         MOV32     @$BLOCKED(||BTS_ctrlLoopVariable_ch3||)+6,R1H ; [CPU_FPU] |447| 
         00000601 0106 
    5633 00000602       ||$C$L85||:    
    5634 00000602 761F!         MOVW      DP,#||BTS_ctrl_cc_ch3|| ; [CPU_ARAU] 
         00000603 0000 
    5635                      .dwpsn  file "C:/Users/a0230328/workspace_v10/bts_F2800x_4ch_v2/bts.h",line 473,column 5,is_stmt,isa 
    5636              
    5637                      MOV32     R3H,@$BLOCKED(||BTS_ctrl_cc_ch3||) ; [CPU_FPU] |1447| 
    5638 00000604 E324! ||      SUBF32    R1H,R1H,R2H           ; [CPU_FPU] |473| 
         00000605 4B00 
    5639              
    5640                      .dwpsn  file "C:/Users/a0230328/workspace_v10/bts_F2800x_4ch_v2/libraries/DCL/DCLF32.h",line 1700,col
    5641 00000606 E801          MOVIZ     R0H,#16140            ; [CPU_FPU] |1700| 
         00000607 F860 
    5642                      .dwpsn  file "C:/Users/a0230328/workspace_v10/bts_F2800x_4ch_v2/bts.h",line 475,column 5,is_stmt,isa 
    5643 00000608 D010          MOVB      XAR0,#16              ; [CPU_ALU] |475| 
    5644                      .dwpsn  file "C:/Users/a0230328/workspace_v10/bts_F2800x_4ch_v2/libraries/DCL/DCLF32.h",line 1700,col
    5645 00000609 D110          MOVB      XAR1,#16              ; [CPU_ALU] |1700| 
    5646                      .dwpsn  file "C:/Users/a0230328/workspace_v10/bts_F2800x_4ch_v2/libraries/DCL/DCLF32.h",line 1447,col
    5647              
    5648 0000060a E306!         MPYF32    R3H,R1H,R3H           ; [CPU_FPU] |1447| 
         0000060b 5A0A 
    5649              ||      MOV32     R2H,@$BLOCKED(||BTS_ctrl_cc_ch3||)+10 ; [CPU_FPU] |1447| 
    5650              
    5651                      .dwpsn  file "C:/Users/a0230328/workspace_v10/bts_F2800x_4ch_v2/libraries/DCL/DCLF32.h",line 1703,col
    5652 0000060c 9A01          MOVB      AL,#1                 ; [CPU_ALU] |1703| 
    5653                      .dwpsn  file "C:/Users/a0230328/workspace_v10/bts_F2800x_4ch_v2/libraries/DCL/DCLF32.h",line 1447,col
    5654 0000060d E710          ADDF32    R2H,R2H,R3H           ; [CPU_FPU] |1447| 
         0000060e 00D2 
    5655                      .dwpsn  file "C:/Users/a0230328/workspace_v10/bts_F2800x_4ch_v2/libraries/DCL/DCLF32.h",line 1700,col
    5656 0000060f E80E          MOVXI     R0H,#52429            ; [CPU_FPU] |1700| 
         00000610 6668 
    5657                      .dwpsn  file "C:/Users/a0230328/workspace_v10/bts_F2800x_4ch_v2/bts.h",line 475,column 5,is_stmt,isa 
    5658 00000611 E203          MOV32     *+XAR4[AR0],R2H       ; [CPU_FPU] |475| 
         00000612 0294 
    5659                      .dwpsn  file "C:/Users/a0230328/workspace_v10/bts_F2800x_4ch_v2/libraries/DCL/DCLF32.h",line 1703,col
TMS320C2000 Assembler PC v20.2.1 Mon Nov  2 17:14:28 2020

Copyright (c) 1996-2018 Texas Instruments Incorporated
bts_main.asm                                                         PAGE  119

    5660 00000613 E801          MOVIZ     R3H,#16140            ; [CPU_FPU] |1703| 
         00000614 F863 
    5661                      .dwpsn  file "C:/Users/a0230328/workspace_v10/bts_F2800x_4ch_v2/bts.h",line 473,column 5,is_stmt,isa 
    5662 00000615 D012          MOVB      XAR0,#18              ; [CPU_ALU] |473| 
    5663                      .dwpsn  file "C:/Users/a0230328/workspace_v10/bts_F2800x_4ch_v2/libraries/DCL/DCLF32.h",line 1700,col
    5664 00000616 E697          MINF32    R0H,R2H               ; [CPU_FPU] |1700| 
         00000617 0010 
    5665                      .dwpsn  file "C:/Users/a0230328/workspace_v10/bts_F2800x_4ch_v2/libraries/DCL/DCLF32.h",line 1703,col
    5666 00000618 E80E          MOVXI     R3H,#52429            ; [CPU_FPU] |1703| 
         00000619 666B 
    5667                      .dwpsn  file "C:/Users/a0230328/workspace_v10/bts_F2800x_4ch_v2/libraries/DCL/DCLF32.h",line 1700,col
    5668 0000061a E820          MAXF32    R0H,#0                ; [CPU_FPU] |1700| 
         0000061b 0000 
    5669                      .dwpsn  file "C:/Users/a0230328/workspace_v10/bts_F2800x_4ch_v2/bts.h",line 473,column 5,is_stmt,isa 
    5670 0000061c E203          MOV32     *+XAR4[AR0],R1H       ; [CPU_FPU] |473| 
         0000061d 0194 
    5671                      .dwpsn  file "C:/Users/a0230328/workspace_v10/bts_F2800x_4ch_v2/libraries/DCL/DCLF32.h",line 1700,col
    5672 0000061e E203          MOV32     *+XAR4[AR1],R0H       ; [CPU_FPU] |1700| 
         0000061f 009C 
    5673                      .dwpsn  file "C:/Users/a0230328/workspace_v10/bts_F2800x_4ch_v2/libraries/DCL/DCLF32.h",line 1703,col
    5674 00000620 E694          CMPF32    R2H,R3H               ; [CPU_FPU] |1703| 
         00000621 001A 
    5675 00000622 AD14          MOVST0    ZF, NF                ; [CPU_FPU] |1703| 
    5676 00000623 6304          B         ||$C$L86||,GEQ        ; [CPU_ALU] |1703| 
    5677                      ; branchcc occurs ; [] |1703| 
    5678 00000624 E5A2          CMPF32    R2H,#0                ; [CPU_FPU] |1703| 
    5679 00000625 AD14          MOVST0    ZF, NF                ; [CPU_FPU] |1703| 
    5680 00000626 6250          B         ||$C$L88||,GT         ; [CPU_ALU] |1703| 
    5681                      ; branchcc occurs ; [] |1703| 
    5682 00000627       ||$C$L86||:    
    5683 00000627 5200          CMPB      AL,#0                 ; [CPU_ALU] |1703| 
    5684 00000628 614E          B         ||$C$L88||,EQ         ; [CPU_ALU] |1703| 
    5685                      ; branchcc occurs ; [] |1703| 
    5686                      .dwpsn  file "C:/Users/a0230328/workspace_v10/bts_F2800x_4ch_v2/bts.h",line 488,column 13,is_stmt,isa
    5687 00000629 E5A0          CMPF32    R0H,#0                ; [CPU_FPU] |488| 
    5688 0000062a AD14          MOVST0    ZF, NF                ; [CPU_FPU] |488| 
    5689 0000062b 621D          B         ||$C$L87||,GT         ; [CPU_ALU] |488| 
    5690                      ; branchcc occurs ; [] |488| 
    5691 0000062c 761F!         MOVW      DP,#||MEP_ScaleFactor|| ; [CPU_ARAU] 
         0000062d 0000 
    5692                      .dwpsn  file "C:\Users\a0230328\workspace_v10\bts_F2800x_4ch_v2\bts_hal.h",line 192,column 21,is_stmt
    5693 0000062e E284!         UI32TOF32 R1H,@||MEP_ScaleFactor|| ; [CPU_FPU] |192| 
         0000062f 0100 
    5694 00000630 7700          NOP       ; [CPU_ALU] 
    5695 00000631 E840          MPYF32    R1H,R1H,#0            ; [CPU_FPU] |192| 
         00000632 0009 
    5696                      .dwpsn  file "C:/ti/C2000Ware_DigitalPower_SDK_3_00_01_00/c2000ware/driverlib/f28004x/driverlib/epwm.
    5697 00000633 BE00          MOVB      XAR6,#0               ; [CPU_ALU] |2409| 
    5698                      .dwpsn  file "C:\Users\a0230328\workspace_v10\bts_F2800x_4ch_v2\bts_hal.h",line 192,column 21,is_stmt
    5699 00000634 E68E          F32TOUI16 R1H,R1H               ; [CPU_FPU] |192| 
         00000635 0009 
    5700                      .dwpsn  file "C:/ti/C2000Ware_DigitalPower_SDK_3_00_01_00/c2000ware/driverlib/f28004x/driverlib/epwm.
    5701 00000636 F4A6          MOV       *(0:0x426b),AR6       ; [CPU_ALU] |2409| 
         00000637 426B 
    5702 00000638 761F!         MOVW      DP,#||BTS_ctrlLoopVariable_ch3|| ; [CPU_ARAU] 
TMS320C2000 Assembler PC v20.2.1 Mon Nov  2 17:14:28 2020

Copyright (c) 1996-2018 Texas Instruments Incorporated
bts_main.asm                                                         PAGE  120

         00000639 0000 
    5703                      .dwpsn  file "C:\Users\a0230328\workspace_v10\bts_F2800x_4ch_v2\bts_hal.h",line 192,column 21,is_stmt
    5704 0000063a BFA9          MOV32     ACC,R1H               ; [CPU_FPU] |192| 
         0000063b 0F16 
    5705                      .dwpsn  file "C:/ti/C2000Ware_DigitalPower_SDK_3_00_01_00/c2000ware/driverlib/f28004x/driverlib/hrpwm
    5706 0000063c 5603          MOV       ACC,AL << #8          ; [CPU_ALU] |1255| 
         0000063d 08A9 
    5707                      .dwpsn  file "C:/Users/a0230328/workspace_v10/bts_F2800x_4ch_v2/bts.h",line 492,column 17,is_stmt,isa
    5708 0000063e E591          ZERO      R1H                   ; [CPU_FPU] |492| 
    5709                      .dwpsn  file "C:/ti/C2000Ware_DigitalPower_SDK_3_00_01_00/c2000ware/driverlib/f28004x/driverlib/epwm.
    5710 0000063f 9B00          MOVB      AH,#0                 ; [CPU_ALU] |2409| 
    5711                      .dwpsn  file "C:/ti/C2000Ware_DigitalPower_SDK_3_00_01_00/c2000ware/driverlib/f28004x/driverlib/hrpwm
    5712 00000640 F4A9          MOV       *(0:0x426a),AL        ; [CPU_ALU] |1255| 
         00000641 426A 
    5713                      .dwpsn  file "C:/Users/a0230328/workspace_v10/bts_F2800x_4ch_v2/bts.h",line 492,column 17,is_stmt,isa
    5714 00000642 E203!         MOV32     @$BLOCKED(||BTS_ctrlLoopVariable_ch3||),R1H ; [CPU_FPU] |492| 
         00000643 0100 
    5715                      .dwpsn  file "C:/ti/C2000Ware_DigitalPower_SDK_3_00_01_00/c2000ware/driverlib/f28004x/driverlib/epwm.
    5716 00000644 F4A8          MOV       *(0:0x426d),AH        ; [CPU_ALU] |2409| 
         00000645 426D 
    5717                      .dwpsn  file "C:/ti/C2000Ware_DigitalPower_SDK_3_00_01_00/c2000ware/driverlib/f28004x/driverlib/hrpwm
    5718 00000646 F4A9          MOV       *(0:0x426c),AL        ; [CPU_ALU] |1262| 
         00000647 426C 
    5719 00000648       ||$C$L87||:    
    5720                      .dwpsn  file "C:/Users/a0230328/workspace_v10/bts_F2800x_4ch_v2/bts.h",line 494,column 13,is_stmt,isa
    5721 00000648 E801          MOVIZ     R1H,#16140            ; [CPU_FPU] |494| 
         00000649 F861 
    5722 0000064a E80E          MOVXI     R1H,#52429            ; [CPU_FPU] |494| 
         0000064b 6669 
    5723 0000064c E694          CMPF32    R0H,R1H               ; [CPU_FPU] |494| 
         0000064d 0008 
    5724 0000064e AD14          MOVST0    ZF, NF                ; [CPU_FPU] |494| 
    5725 0000064f FFE4          B         ||$C$L95||,LT         ; [CPU_ALU] |494| 
         00000650 009B 
    5726                      ; branchcc occurs ; [] |494| 
    5727 00000651 761F!         MOVW      DP,#||MEP_ScaleFactor|| ; [CPU_ARAU] 
         00000652 0000 
    5728                      .dwpsn  file "C:\Users\a0230328\workspace_v10\bts_F2800x_4ch_v2\bts_hal.h",line 192,column 21,is_stmt
    5729 00000653 E801          MOVIZ     R0H,#16102            ; [CPU_FPU] |192| 
         00000654 F730 
    5730 00000655 E284!         UI32TOF32 R1H,@||MEP_ScaleFactor|| ; [CPU_FPU] |192| 
         00000656 0100 
    5731 00000657 E80B          MOVXI     R0H,#26624            ; [CPU_FPU] |192| 
         00000658 4000 
    5732 00000659 E700          MPYF32    R0H,R0H,R1H           ; [CPU_FPU] |192| 
         0000065a 0040 
    5733                      .dwpsn  file "C:/ti/C2000Ware_DigitalPower_SDK_3_00_01_00/c2000ware/driverlib/f28004x/driverlib/epwm.
    5734 0000065b 7680          MOVL      XAR6,#549             ; [CPU_ALU] |2409| 
         0000065c 0225 
    5735                      .dwpsn  file "C:\Users\a0230328\workspace_v10\bts_F2800x_4ch_v2\bts_hal.h",line 192,column 21,is_stmt
    5736 0000065d E68E          F32TOUI16 R0H,R0H               ; [CPU_FPU] |192| 
         0000065e 0000 
    5737                      .dwpsn  file "C:/ti/C2000Ware_DigitalPower_SDK_3_00_01_00/c2000ware/driverlib/f28004x/driverlib/epwm.
    5738 0000065f F4A6          MOV       *(0:0x426b),AR6       ; [CPU_ALU] |2409| 
         00000660 426B 
TMS320C2000 Assembler PC v20.2.1 Mon Nov  2 17:14:28 2020

Copyright (c) 1996-2018 Texas Instruments Incorporated
bts_main.asm                                                         PAGE  121

    5739 00000661 761F!         MOVW      DP,#||BTS_ctrlLoopVariable_ch3|| ; [CPU_ARAU] 
         00000662 0000 
    5740                      .dwpsn  file "C:\Users\a0230328\workspace_v10\bts_F2800x_4ch_v2\bts_hal.h",line 192,column 21,is_stmt
    5741 00000663 BFA9          MOV32     ACC,R0H               ; [CPU_FPU] |192| 
         00000664 0F12 
    5742                      .dwpsn  file "C:/ti/C2000Ware_DigitalPower_SDK_3_00_01_00/c2000ware/driverlib/f28004x/driverlib/hrpwm
    5743 00000665 5603          MOV       ACC,AL << #8          ; [CPU_ALU] |1255| 
         00000666 08A9 
    5744                      .dwpsn  file "C:/Users/a0230328/workspace_v10/bts_F2800x_4ch_v2/bts.h",line 498,column 17,is_stmt,isa
    5745 00000667 E801          MOVIZ     R0H,#16140            ; [CPU_FPU] |498| 
         00000668 F860 
    5746                      .dwpsn  file "C:/ti/C2000Ware_DigitalPower_SDK_3_00_01_00/c2000ware/driverlib/f28004x/driverlib/epwm.
    5747 00000669 28A8          MOV       AH,#549               ; [CPU_ALU] |2409| 
         0000066a 0225 
    5748                      .dwpsn  file "C:/ti/C2000Ware_DigitalPower_SDK_3_00_01_00/c2000ware/driverlib/f28004x/driverlib/hrpwm
    5749 0000066b F4A9          MOV       *(0:0x426a),AL        ; [CPU_ALU] |1255| 
         0000066c 426A 
    5750                      .dwpsn  file "C:/Users/a0230328/workspace_v10/bts_F2800x_4ch_v2/bts.h",line 498,column 17,is_stmt,isa
    5751 0000066d E80E          MOVXI     R0H,#52429            ; [CPU_FPU] |498| 
         0000066e 6668 
    5752                      .dwpsn  file "C:/ti/C2000Ware_DigitalPower_SDK_3_00_01_00/c2000ware/driverlib/f28004x/driverlib/epwm.
    5753 0000066f F4A8          MOV       *(0:0x426d),AH        ; [CPU_ALU] |2409| 
         00000670 426D 
    5754                      .dwpsn  file "C:/Users/a0230328/workspace_v10/bts_F2800x_4ch_v2/bts.h",line 498,column 17,is_stmt,isa
    5755 00000671 E203!         MOV32     @$BLOCKED(||BTS_ctrlLoopVariable_ch3||),R0H ; [CPU_FPU] |498| 
         00000672 0000 
    5756                      .dwpsn  file "C:/ti/C2000Ware_DigitalPower_SDK_3_00_01_00/c2000ware/driverlib/f28004x/driverlib/hrpwm
    5757 00000673 F4A9          MOV       *(0:0x426c),AL        ; [CPU_ALU] |1262| 
         00000674 426C 
    5758                      .dwpsn  file "C:/Users/a0230328/workspace_v10/bts_F2800x_4ch_v2/bts.h",line 498,column 17,is_stmt,isa
    5759 00000675 6F75          B         ||$C$L95||,UNC        ; [CPU_ALU] |498| 
    5760                      ; branch occurs ; [] |498| 
    5761 00000676       ||$C$L88||:    
    5762 00000676 761F!         MOVW      DP,#||BTS_ctrlLoopVariable_ch3||+31 ; [CPU_ARAU] 
         00000677 0000 
    5763                      .dwpsn  file "C:/Users/a0230328/workspace_v10/bts_F2800x_4ch_v2/bts.h",line 364,column 5,is_stmt,isa 
    5764 00000678 921F!         MOV       AL,@$BLOCKED(||BTS_ctrlLoopVariable_ch3||)+31 ; [CPU_ALU] |364| 
    5765                      .dwpsn  file "C:/Users/a0230328/workspace_v10/bts_F2800x_4ch_v2/bts.h",line 479,column 13,is_stmt,isa
    5766 00000679 E203!         MOV32     @$BLOCKED(||BTS_ctrlLoopVariable_ch3||),R0H ; [CPU_FPU] |479| 
         0000067a 0000 
    5767                      .dwpsn  file "C:/Users/a0230328/workspace_v10/bts_F2800x_4ch_v2/bts.h",line 364,column 5,is_stmt,isa 
    5768 0000067b 600F          B         ||$C$L90||,NEQ        ; [CPU_ALU] |364| 
    5769                      ; branchcc occurs ; [] |364| 
    5770                      .dwpsn  file "C:/Users/a0230328/workspace_v10/bts_F2800x_4ch_v2/bts.h",line 381,column 9,is_stmt,isa 
    5771 0000067c 1BA6          CMP       AR6,#28842            ; [CPU_ALU] |381| 
         0000067d 70AA 
    5772 0000067e 6306          B         ||$C$L89||,GEQ        ; [CPU_ALU] |381| 
    5773                      ; branchcc occurs ; [] |381| 
    5774                      .dwpsn  file "C:/ti/C2000Ware_DigitalPower_SDK_3_00_01_00/c2000ware/driverlib/f28004x/driverlib/epwm.
    5775 0000067f F5A9          MOV       AL,*(0:0x4149)        ; [CPU_ALU] |3037| 
         00000680 4149 
    5776 00000681 18A9          AND       AL,#0xfffc            ; [CPU_ALU] |3037| 
         00000682 FFFC 
    5777                      .dwpsn  file "C:/Users/a0230328/workspace_v10/bts_F2800x_4ch_v2/bts.h",line 389,column 13,is_stmt,isa
    5778 00000683 6F0E          B         ||$C$L91||,UNC        ; [CPU_ALU] |389| 
TMS320C2000 Assembler PC v20.2.1 Mon Nov  2 17:14:28 2020

Copyright (c) 1996-2018 Texas Instruments Incorporated
bts_main.asm                                                         PAGE  122

    5779                      ; branch occurs ; [] |389| 
    5780 00000684       ||$C$L89||:    
    5781                      .dwpsn  file "C:/ti/C2000Ware_DigitalPower_SDK_3_00_01_00/c2000ware/driverlib/f28004x/driverlib/epwm.
    5782 00000684 F5A9          MOV       AL,*(0:0x4249)        ; [CPU_ALU] |3037| 
         00000685 4249 
    5783 00000686 CCA9          AND       AL,AL,#0xfffc         ; [CPU_ALU] |3037| 
         00000687 FFFC 
    5784 00000688 5001          ORB       AL,#0x01              ; [CPU_ALU] |3037| 
    5785 00000689 6F10          B         ||$C$L93||,UNC        ; [CPU_ALU] 
    5786                      ; branch occurs ; [] 
    5787 0000068a       ||$C$L90||:    
    5788                      .dwpsn  file "C:/Users/a0230328/workspace_v10/bts_F2800x_4ch_v2/bts.h",line 367,column 9,is_stmt,isa 
    5789 0000068a 1BA6          CMP       AR6,#-28841           ; [CPU_ALU] |367| 
         0000068b 8F57 
    5790 0000068c 6408          B         ||$C$L92||,LT         ; [CPU_ALU] |367| 
    5791                      ; branchcc occurs ; [] |367| 
    5792                      .dwpsn  file "C:/ti/C2000Ware_DigitalPower_SDK_3_00_01_00/c2000ware/driverlib/f28004x/driverlib/epwm.
    5793 0000068d F5A9          MOV       AL,*(0:0x4149)        ; [CPU_ALU] |3043| 
         0000068e 4149 
    5794 0000068f 18A9          AND       AL,#0xfff3            ; [CPU_ALU] |3043| 
         00000690 FFF3 
    5795 00000691       ||$C$L91||:    
    5796 00000691 F4A9          MOV       *(0:0x4149),AL        ; [CPU_ALU] |3043| 
         00000692 4149 
    5797                      .dwpsn  file "C:/Users/a0230328/workspace_v10/bts_F2800x_4ch_v2/bts.h",line 375,column 13,is_stmt,isa
    5798 00000693 6F08          B         ||$C$L94||,UNC        ; [CPU_ALU] |375| 
    5799                      ; branch occurs ; [] |375| 
    5800 00000694       ||$C$L92||:    
    5801                      .dwpsn  file "C:/ti/C2000Ware_DigitalPower_SDK_3_00_01_00/c2000ware/driverlib/f28004x/driverlib/epwm.
    5802 00000694 F5A9          MOV       AL,*(0:0x4249)        ; [CPU_ALU] |3043| 
         00000695 4249 
    5803 00000696 CCA9          AND       AL,AL,#0xfffb         ; [CPU_ALU] |3043| 
         00000697 FFFB 
    5804 00000698 5008          ORB       AL,#0x08              ; [CPU_ALU] |3043| 
    5805 00000699       ||$C$L93||:    
    5806 00000699 F4A9          MOV       *(0:0x4249),AL        ; [CPU_ALU] |3043| 
         0000069a 4249 
    5807 0000069b       ||$C$L94||:    
    5808                      .dwpsn  file "C:\Users\a0230328\workspace_v10\bts_F2800x_4ch_v2\bts_hal.h",line 192,column 21,is_stmt
    5809 0000069b E802          MOVIZ     R2H,#17529            ; [CPU_FPU] |192| 
         0000069c 23CA 
    5810 0000069d E80E          MOVXI     R2H,#49152            ; [CPU_FPU] |192| 
         0000069e 0002 
    5811 0000069f E700          MPYF32    R2H,R2H,R0H           ; [CPU_FPU] |192| 
         000006a0 0012 
    5812 000006a1 7700          NOP       ; [CPU_ALU] 
    5813 000006a2 E68E          F32TOUI16 R3H,R2H               ; [CPU_FPU] |192| 
         000006a3 0013 
    5814 000006a4 7700          NOP       ; [CPU_ALU] 
    5815 000006a5 7700          NOP       ; [CPU_ALU] 
    5816 000006a6 BFA6          MOV32     XAR6,R3H              ; [CPU_FPU] |192| 
         000006a7 0F1E 
    5817 000006a8 0EA6          MOVU      ACC,AR6               ; [CPU_ALU] |192| 
    5818 000006a9 BDA9          MOV32     R3H,ACC               ; [CPU_FPU] |192| 
         000006aa 0F1E 
TMS320C2000 Assembler PC v20.2.1 Mon Nov  2 17:14:28 2020

Copyright (c) 1996-2018 Texas Instruments Incorporated
bts_main.asm                                                         PAGE  123

    5819 000006ab 7700          NOP       ; [CPU_ALU] 
    5820 000006ac 7700          NOP       ; [CPU_ALU] 
    5821 000006ad 7700          NOP       ; [CPU_ALU] 
    5822 000006ae 761F!         MOVW      DP,#||MEP_ScaleFactor|| ; [CPU_ARAU] 
         000006af 0000 
    5823 000006b0 E68B          UI32TOF32 R3H,R3H               ; [CPU_FPU] |192| 
         000006b1 001B 
    5824 000006b2 E284!         UI32TOF32 R4H,@||MEP_ScaleFactor|| ; [CPU_FPU] |192| 
         000006b3 0400 
    5825 000006b4 E720          SUBF32    R2H,R2H,R3H           ; [CPU_FPU] |192| 
         000006b5 00D2 
    5826 000006b6 7700          NOP       ; [CPU_ALU] 
    5827 000006b7 E700          MPYF32    R2H,R4H,R2H           ; [CPU_FPU] |192| 
         000006b8 00A2 
    5828 000006b9 7700          NOP       ; [CPU_ALU] 
    5829 000006ba E68E          F32TOUI16 R2H,R2H               ; [CPU_FPU] |192| 
         000006bb 0012 
    5830 000006bc 761F!         MOVW      DP,#||BTS_ctrl_cc_ch3||+6 ; [CPU_ARAU] 
         000006bd 0000 
    5831                      .dwpsn  file "C:/ti/C2000Ware_DigitalPower_SDK_3_00_01_00/c2000ware/driverlib/f28004x/driverlib/epwm.
    5832 000006be F4A6          MOV       *(0:0x426b),AR6       ; [CPU_ALU] |2409| 
         000006bf 426B 
    5833                      .dwpsn  file "C:\Users\a0230328\workspace_v10\bts_F2800x_4ch_v2\bts_hal.h",line 192,column 21,is_stmt
    5834 000006c0 BFA9          MOV32     ACC,R2H               ; [CPU_FPU] |192| 
         000006c1 0F1A 
    5835                      .dwpsn  file "C:/ti/C2000Ware_DigitalPower_SDK_3_00_01_00/c2000ware/driverlib/f28004x/driverlib/hrpwm
    5836 000006c2 5603          MOV       ACC,AL << #8          ; [CPU_ALU] |1255| 
         000006c3 08A9 
    5837 000006c4 F4A9          MOV       *(0:0x426a),AL        ; [CPU_ALU] |1255| 
         000006c5 426A 
    5838                      .dwpsn  file "C:/ti/C2000Ware_DigitalPower_SDK_3_00_01_00/c2000ware/driverlib/f28004x/driverlib/epwm.
    5839 000006c6 F4A6          MOV       *(0:0x426d),AR6       ; [CPU_ALU] |2409| 
         000006c7 426D 
    5840                      .dwpsn  file "C:/ti/C2000Ware_DigitalPower_SDK_3_00_01_00/c2000ware/driverlib/f28004x/driverlib/hrpwm
    5841 000006c8 F4A9          MOV       *(0:0x426c),AL        ; [CPU_ALU] |1262| 
         000006c9 426C 
    5842                      .dwpsn  file "C:/Users/a0230328/workspace_v10/bts_F2800x_4ch_v2/libraries/DCL/DCLF32.h",line 1458,col
    5843 000006ca E2AF!         MOV32     R2H,@$BLOCKED(||BTS_ctrl_cc_ch3||)+6 ; [CPU_FPU] |1458| 
         000006cb 0206 
    5844 000006cc E2AF!         MOV32     R3H,@$BLOCKED(||BTS_ctrl_cc_ch3||)+2 ; [CPU_FPU] |1458| 
         000006cd 0302 
    5845 000006ce E700          MPYF32    R3H,R1H,R3H           ; [CPU_FPU] |1458| 
         000006cf 00CB 
    5846              
    5847                      MOV32     R4H,@$BLOCKED(||BTS_ctrl_cc_ch3||)+12 ; [CPU_FPU] |1458| 
    5848 000006d0 E304! ||      MPYF32    R2H,R0H,R2H           ; [CPU_FPU] |1458| 
         000006d1 140C 
    5849              
    5850 000006d2 E710          ADDF32    R3H,R3H,R4H           ; [CPU_FPU] |1458| 
         000006d3 011B 
    5851 000006d4 7700          NOP       ; [CPU_ALU] 
    5852 000006d5 E720          SUBF32    R2H,R3H,R2H           ; [CPU_FPU] |1458| 
         000006d6 009A 
    5853 000006d7 7700          NOP       ; [CPU_ALU] 
    5854 000006d8 E203!         MOV32     @$BLOCKED(||BTS_ctrl_cc_ch3||)+10,R2H ; [CPU_FPU] |1458| 
TMS320C2000 Assembler PC v20.2.1 Mon Nov  2 17:14:28 2020

Copyright (c) 1996-2018 Texas Instruments Incorporated
bts_main.asm                                                         PAGE  124

         000006d9 020A 
    5855                      .dwpsn  file "C:/Users/a0230328/workspace_v10/bts_F2800x_4ch_v2/libraries/DCL/DCLF32.h",line 1459,col
    5856 000006da E2AF!         MOV32     R2H,@$BLOCKED(||BTS_ctrl_cc_ch3||)+8 ; [CPU_FPU] |1459| 
         000006db 0208 
    5857              
    5858                      MOV32     R3H,@$BLOCKED(||BTS_ctrl_cc_ch3||)+4 ; [CPU_FPU] |1459| 
    5859 000006dc E304! ||      MPYF32    R2H,R0H,R2H           ; [CPU_FPU] |1459| 
         000006dd 1304 
    5860              
    5861 000006de E700          MPYF32    R1H,R1H,R3H           ; [CPU_FPU] |1459| 
         000006df 00C9 
    5862 000006e0 761F!         MOVW      DP,#||BTS_ctrlLoopVariable_ch3||+26 ; [CPU_ARAU] 
         000006e1 0000 
    5863                      .dwpsn  file "C:/Users/a0230328/workspace_v10/bts_F2800x_4ch_v2/bts.h",line 395,column 5,is_stmt,isa 
    5864 000006e2 E203!         MOV32     @$BLOCKED(||BTS_ctrlLoopVariable_ch3||)+28,R0H ; [CPU_FPU] |395| 
         000006e3 001C 
    5865                      .dwpsn  file "C:/Users/a0230328/workspace_v10/bts_F2800x_4ch_v2/bts.h",line 394,column 5,is_stmt,isa 
    5866              
    5867 000006e4 E024!         SUBF32    R1H,R1H,R2H           ; [CPU_FPU] |1459| 
         000006e5 481A 
    5868              ||      MOV32     @$BLOCKED(||BTS_ctrlLoopVariable_ch3||)+26,R0H ; [CPU_FPU] |394| 
    5869              
    5870 000006e6 761F!         MOVW      DP,#||BTS_ctrl_cc_ch3||+12 ; [CPU_ARAU] 
         000006e7 0000 
    5871                      .dwpsn  file "C:/Users/a0230328/workspace_v10/bts_F2800x_4ch_v2/libraries/DCL/DCLF32.h",line 1459,col
    5872 000006e8 E203!         MOV32     @$BLOCKED(||BTS_ctrl_cc_ch3||)+12,R1H ; [CPU_FPU] |1459| 
         000006e9 010C 
    5873 000006ea       ||$C$L95||:    
    5874 000006ea 761F!         MOVW      DP,#||BTS_ADC1||+14   ; [CPU_ARAU] 
         000006eb 0000 
    5875                      .dwpsn  file "C:/Users/a0230328/workspace_v10/bts_F2800x_4ch_v2/bts.h",line 349,column 5,is_stmt,isa 
    5876 000006ec D048          MOVB      XAR0,#72              ; [CPU_ALU] |349| 
    5877 000006ed 8F00!         MOVL      XAR4,#||BTS_measValues_ch4|| ; [CPU_ARAU] |349| 
         000006ee 0000 
    5878                      .dwpsn  file "C:/Users/a0230328/workspace_v10/bts_F2800x_4ch_v2/bts.h",line 348,column 105,is_stmt,is
    5879 000006ef C50E!         MOVL      XAR7,@$BLOCKED(||BTS_ADC1||)+14 ; [CPU_ALU] |348| 
    5880                      .dwpsn  file "C:/Users/a0230328/workspace_v10/bts_F2800x_4ch_v2/bts.h",line 349,column 5,is_stmt,isa 
    5881 000006f0 2794          MOV       PL,*+XAR4[AR0]        ; [CPU_ALU] |349| 
    5882                      .dwpsn  file "C:/Users/a0230328/workspace_v10/bts_F2800x_4ch_v2/bts.h",line 348,column 105,is_stmt,is
    5883 000006f1 92AB          MOV       AL,PL                 ; [CPU_ALU] |348| 
    5884 000006f2 C410!         MOVL      XAR6,@$BLOCKED(||BTS_ADC1||)+16 ; [CPU_ALU] |348| 
    5885                      .dwpsn  file "C:/Users/a0230328/workspace_v10/bts_F2800x_4ch_v2/bts.h",line 349,column 5,is_stmt,isa 
    5886 000006f3 5220          CMPB      AL,#32                ; [CPU_ALU] |349| 
    5887 000006f4 6804          B         ||$C$L96||,LO         ; [CPU_ALU] |349| 
    5888                      ; branchcc occurs ; [] |349| 
    5889                      .dwpsn  file "C:/Users/a0230328/workspace_v10/bts_F2800x_4ch_v2/bts.h",line 355,column 9,is_stmt,isa 
    5890 000006f5 D048          MOVB      XAR0,#72              ; [CPU_ALU] |355| 
    5891 000006f6 2B94          MOV       *+XAR4[AR0],#0        ; [CPU_ALU] |355| 
    5892 000006f7 6F0D          B         ||$C$L97||,UNC        ; [CPU_ALU] |355| 
    5893                      ; branch occurs ; [] |355| 
    5894 000006f8       ||$C$L96||:    
    5895                      .dwpsn  file "C:/Users/a0230328/workspace_v10/bts_F2800x_4ch_v2/bts.h",line 350,column 9,is_stmt,isa 
    5896 000006f8 A8A9          MOVL      ACC,XAR4              ; [CPU_ALU] |350| 
    5897 000006f9 0DAB          ADDU      ACC,PL                ; [CPU_ALU] |350| 
    5898 000006fa 83A9          MOVL      XAR5,ACC              ; [CPU_ALU] |350| 
TMS320C2000 Assembler PC v20.2.1 Mon Nov  2 17:14:28 2020

Copyright (c) 1996-2018 Texas Instruments Incorporated
bts_main.asm                                                         PAGE  125

    5899 000006fb 761F!         MOVW      DP,#||BTS_measValues_ch4||+72 ; [CPU_ARAU] 
         000006fc 0001 
    5900                      .dwpsn  file "C:/Users/a0230328/workspace_v10/bts_F2800x_4ch_v2/bts.h",line 351,column 9,is_stmt,isa 
    5901 000006fd A8A9          MOVL      ACC,XAR4              ; [CPU_ALU] |351| 
    5902                      .dwpsn  file "C:/Users/a0230328/workspace_v10/bts_F2800x_4ch_v2/bts.h",line 350,column 9,is_stmt,isa 
    5903 000006fe 7FE5          MOV       *+XAR5[4],AR7         ; [CPU_ALU] |350| 
    5904                      .dwpsn  file "C:/Users/a0230328/workspace_v10/bts_F2800x_4ch_v2/bts.h",line 351,column 9,is_stmt,isa 
    5905 000006ff 0D08!         ADDU      ACC,@$BLOCKED(||BTS_measValues_ch4||)+72 ; [CPU_ALU] |351| 
    5906 00000700 8AA9          MOVL      XAR4,ACC              ; [CPU_ALU] |351| 
    5907 00000701 D024          MOVB      XAR0,#36              ; [CPU_ALU] |351| 
    5908 00000702 7E94          MOV       *+XAR4[AR0],AR6       ; [CPU_ALU] |351| 
    5909                      .dwpsn  file "C:/Users/a0230328/workspace_v10/bts_F2800x_4ch_v2/bts.h",line 352,column 9,is_stmt,isa 
    5910 00000703 0A08!         INC       @$BLOCKED(||BTS_measValues_ch4||)+72 ; [CPU_ALU] |352| 
    5911 00000704       ||$C$L97||:    
    5912 00000704 761F!         MOVW      DP,#||BTS_ADC1||+14   ; [CPU_ARAU] 
         00000705 0000 
    5913                      .dwpsn  file "C:/Users/a0230328/workspace_v10/bts_F2800x_4ch_v2/bts.h",line 400,column 189,is_stmt,is
    5914 00000706 C40E!         MOVL      XAR6,@$BLOCKED(||BTS_ADC1||)+14 ; [CPU_ALU] |400| 
    5915 00000707 C510!         MOVL      XAR7,@$BLOCKED(||BTS_ADC1||)+16 ; [CPU_ALU] |400| 
    5916 00000708 761F!         MOVW      DP,#||BTS_ctrlLoopVariable_ch4||+34 ; [CPU_ARAU] 
         00000709 0000 
    5917                      .dwpsn  file "C:/Users/a0230328/workspace_v10/bts_F2800x_4ch_v2/bts.h",line 323,column 5,is_stmt,isa 
    5918 0000070a 9322!         MOV       AH,@$BLOCKED(||BTS_ctrlLoopVariable_ch4||)+34 ; [CPU_ALU] |323| 
    5919 0000070b 6009          B         ||$C$L98||,NEQ        ; [CPU_ALU] |323| 
    5920                      ; branchcc occurs ; [] |323| 
    5921                      .dwpsn  file "C:/ti/C2000Ware_DigitalPower_SDK_3_00_01_00/c2000ware/driverlib/f28004x/driverlib/epwm.
    5922 0000070c 7622          EALLOW    ; [CPU_ALU] |4497| 
    5923                      .dwpsn  file "C:/ti/C2000Ware_DigitalPower_SDK_3_00_01_00/c2000ware/driverlib/f28004x/driverlib/epwm.
    5924 0000070d F5A8          MOV       AH,*(0:0x4397)        ; [CPU_ALU] |4498| 
         0000070e 4397 
    5925 0000070f 5104          ORB       AH,#0x04              ; [CPU_ALU] |4498| 
    5926 00000710 F4A8          MOV       *(0:0x4397),AH        ; [CPU_ALU] |4498| 
         00000711 4397 
    5927                      .dwpsn  file "C:/ti/C2000Ware_DigitalPower_SDK_3_00_01_00/c2000ware/driverlib/f28004x/driverlib/epwm.
    5928 00000712 761A          EDIS      ; [CPU_ALU] |4499| 
    5929                      .dwpsn  file "C:/Users/a0230328/workspace_v10/bts_F2800x_4ch_v2/bts.h",line 340,column 9,is_stmt,isa 
    5930 00000713 6F23          B         ||$C$L99||,UNC        ; [CPU_ALU] |340| 
    5931                      ; branch occurs ; [] |340| 
    5932 00000714       ||$C$L98||:    
    5933                      .dwpsn  file "C:/ti/C2000Ware_DigitalPower_SDK_3_00_01_00/c2000ware/driverlib/f28004x/driverlib/epwm.
    5934 00000714 7622          EALLOW    ; [CPU_ALU] |4611| 
    5935                      .dwpsn  file "C:/ti/C2000Ware_DigitalPower_SDK_3_00_01_00/c2000ware/driverlib/f28004x/driverlib/epwm.
    5936 00000715 F5A8          MOV       AH,*(0:0x439b)        ; [CPU_ALU] |4612| 
         00000716 439B 
    5937 00000717 5104          ORB       AH,#0x04              ; [CPU_ALU] |4612| 
    5938 00000718 F4A8          MOV       *(0:0x439b),AH        ; [CPU_ALU] |4612| 
         00000719 439B 
    5939                      .dwpsn  file "C:/ti/C2000Ware_DigitalPower_SDK_3_00_01_00/c2000ware/driverlib/f28004x/driverlib/epwm.
    5940 0000071a F5A8          MOV       AH,*(0:0x4384)        ; [CPU_ALU] |4062| 
         0000071b 4384 
    5941 0000071c CDA8          AND       AH,AH,#0xfffe         ; [CPU_ALU] |4062| 
         0000071d FFFE 
    5942 0000071e 5102          ORB       AH,#0x02              ; [CPU_ALU] |4062| 
    5943 0000071f F4A8          MOV       *(0:0x4384),AH        ; [CPU_ALU] |4062| 
         00000720 4384 
TMS320C2000 Assembler PC v20.2.1 Mon Nov  2 17:14:28 2020

Copyright (c) 1996-2018 Texas Instruments Incorporated
bts_main.asm                                                         PAGE  126

    5944                      .dwpsn  file "C:/ti/C2000Ware_DigitalPower_SDK_3_00_01_00/c2000ware/driverlib/f28004x/driverlib/epwm.
    5945 00000721 761A          EDIS      ; [CPU_ALU] |4065| 
    5946                      .dwpsn  file "C:/ti/C2000Ware_DigitalPower_SDK_3_00_01_00/c2000ware/driverlib/f28004x/driverlib/epwm.
    5947 00000722 28A9          MOV       AL,#999               ; [CPU_ALU] |2409| 
         00000723 03E7 
    5948 00000724 9B00          MOVB      AH,#0                 ; [CPU_ALU] |2409| 
    5949                      .dwpsn  file "C:/Users/a0230328/workspace_v10/bts_F2800x_4ch_v2/bts.h",line 334,column 9,is_stmt,isa 
    5950 00000725 E591          ZERO      R1H                   ; [CPU_FPU] |334| 
    5951 00000726 761F!         MOVW      DP,#||BTS_ctrl_cc_ch4||+10 ; [CPU_ARAU] 
         00000727 0000 
    5952                      .dwpsn  file "C:/Users/a0230328/workspace_v10/bts_F2800x_4ch_v2/bts.h",line 335,column 9,is_stmt,isa 
    5953 00000728 E590          ZERO      R0H                   ; [CPU_FPU] |335| 
    5954                      .dwpsn  file "C:/ti/C2000Ware_DigitalPower_SDK_3_00_01_00/c2000ware/driverlib/f28004x/driverlib/epwm.
    5955 00000729 F4A8          MOV       *(0:0x436b),AH        ; [CPU_ALU] |2409| 
         0000072a 436B 
    5956 0000072b F4A9          MOV       *(0:0x436d),AL        ; [CPU_ALU] |2409| 
         0000072c 436D 
    5957                      .dwpsn  file "C:/ti/C2000Ware_DigitalPower_SDK_3_00_01_00/c2000ware/driverlib/f28004x/driverlib/hrpwm
    5958 0000072d 9A00          MOVB      AL,#0                 ; [CPU_ALU] |1262| 
    5959                      .dwpsn  file "C:/ti/C2000Ware_DigitalPower_SDK_3_00_01_00/c2000ware/driverlib/f28004x/driverlib/hrpwm
    5960 0000072e F4A8          MOV       *(0:0x436a),AH        ; [CPU_ALU] |1255| 
         0000072f 436A 
    5961                      .dwpsn  file "C:/ti/C2000Ware_DigitalPower_SDK_3_00_01_00/c2000ware/driverlib/f28004x/driverlib/hrpwm
    5962 00000730 F4A9          MOV       *(0:0x436c),AL        ; [CPU_ALU] |1262| 
         00000731 436C 
    5963                      .dwpsn  file "C:/Users/a0230328/workspace_v10/bts_F2800x_4ch_v2/bts.h",line 334,column 9,is_stmt,isa 
    5964 00000732 E203!         MOV32     @$BLOCKED(||BTS_ctrl_cc_ch4||)+10,R1H ; [CPU_FPU] |334| 
         00000733 010A 
    5965                      .dwpsn  file "C:/Users/a0230328/workspace_v10/bts_F2800x_4ch_v2/bts.h",line 335,column 9,is_stmt,isa 
    5966 00000734 E203!         MOV32     @$BLOCKED(||BTS_ctrl_cc_ch4||)+12,R0H ; [CPU_FPU] |335| 
         00000735 000C 
    5967 00000736       ||$C$L99||:    
    5968 00000736 761F!         MOVW      DP,#||BTS_ctrlLoopVariable_ch4||+4 ; [CPU_ARAU] 
         00000737 0000 
    5969                      .dwpsn  file "C:/Users/a0230328/workspace_v10/bts_F2800x_4ch_v2/bts.h",line 408,column 5,is_stmt,isa 
    5970 00000738 85A6          MOV       ACC,AR6               ; [CPU_ALU] |408| 
    5971                      .dwpsn  file "C:/Users/a0230328/workspace_v10/bts_F2800x_4ch_v2/libraries/DCL/DCLF32.h",line 1697,col
    5972 00000739 E2AF!         MOV32     R1H,@$BLOCKED(||BTS_ctrlLoopVariable_ch4||)+4 ; [CPU_FPU] |1697| 
         0000073a 0104 
    5973                      .dwpsn  file "C:/Users/a0230328/workspace_v10/bts_F2800x_4ch_v2/bts.h",line 408,column 5,is_stmt,isa 
    5974 0000073b BDA9          MOV32     R2H,ACC               ; [CPU_FPU] |408| 
         0000073c 0F1A 
    5975                      .dwpsn  file "C:/Users/a0230328/workspace_v10/bts_F2800x_4ch_v2/libraries/DCL/DCLF32.h",line 1697,col
    5976 0000073d E6CF          MOV32     R6H,R1H               ; [CPU_FPU] |1697| 
         0000073e 000E 
    5977                      .dwpsn  file "C:/Users/a0230328/workspace_v10/bts_F2800x_4ch_v2/bts.h",line 418,column 5,is_stmt,isa 
    5978 0000073f E2AF!         MOV32     R7H,@$BLOCKED(||BTS_ctrlLoopVariable_ch4||)+10 ; [CPU_FPU] |418| 
         00000740 070A 
    5979                      .dwpsn  file "C:/Users/a0230328/workspace_v10/bts_F2800x_4ch_v2/bts.h",line 420,column 5,is_stmt,isa 
    5980 00000741 E2AF!         MOV32     R5H,@$BLOCKED(||BTS_ctrlLoopVariable_ch4||)+24 ; [CPU_FPU] |420| 
         00000742 0518 
    5981                      .dwpsn  file "C:/Users/a0230328/workspace_v10/bts_F2800x_4ch_v2/bts.h",line 409,column 5,is_stmt,isa 
    5982 00000743 85A7          MOV       ACC,AR7               ; [CPU_ALU] |409| 
    5983                      .dwpsn  file "C:/Users/a0230328/workspace_v10/bts_F2800x_4ch_v2/libraries/DCL/DCLF32.h",line 1697,col
    5984 00000744 E6AF          NEGF32    R6H,R6H               ; [CPU_FPU] |1697| 
TMS320C2000 Assembler PC v20.2.1 Mon Nov  2 17:14:28 2020

Copyright (c) 1996-2018 Texas Instruments Incorporated
bts_main.asm                                                         PAGE  127

         00000745 0036 
    5985                      .dwpsn  file "C:/Users/a0230328/workspace_v10/bts_F2800x_4ch_v2/bts.h",line 421,column 5,is_stmt,isa 
    5986 00000746 D014          MOVB      XAR0,#20              ; [CPU_ALU] |421| 
    5987                      .dwpsn  file "C:/Users/a0230328/workspace_v10/bts_F2800x_4ch_v2/bts.h",line 408,column 5,is_stmt,isa 
    5988 00000747 8F00!         MOVL      XAR4,#||BTS_ctrlLoopVariable_ch4|| ; [CPU_ARAU] |408| 
         00000748 0000 
    5989                      .dwpsn  file "C:/Users/a0230328/workspace_v10/bts_F2800x_4ch_v2/bts.h",line 409,column 5,is_stmt,isa 
    5990 00000749 BDA9          MOV32     R0H,ACC               ; [CPU_FPU] |409| 
         0000074a 0F12 
    5991 0000074b 761F!         MOVW      DP,#||BTS_ctrl_cv_ch4|| ; [CPU_ARAU] 
         0000074c 0000 
    5992                      .dwpsn  file "C:/Users/a0230328/workspace_v10/bts_F2800x_4ch_v2/libraries/DCL/DCLF32.h",line 1697,col
    5993 0000074d E203          MOV32     *-SP[8],R6H           ; [CPU_FPU] |1697| 
         0000074e 0648 
    5994                      .dwpsn  file "C:/Users/a0230328/workspace_v10/bts_F2800x_4ch_v2/libraries/DCL/DCLF32.h",line 1700,col
    5995 0000074f D114          MOVB      XAR1,#20              ; [CPU_ALU] |1700| 
    5996                      .dwpsn  file "C:/Users/a0230328/workspace_v10/bts_F2800x_4ch_v2/bts.h",line 408,column 5,is_stmt,isa 
    5997 00000750 E689          I32TOF32  R2H,R2H               ; [CPU_FPU] |408| 
         00000751 0012 
    5998                      .dwpsn  file "C:/Users/a0230328/workspace_v10/bts_F2800x_4ch_v2/bts.h",line 409,column 5,is_stmt,isa 
    5999 00000752 E689          I32TOF32  R0H,R0H               ; [CPU_FPU] |409| 
         00000753 0000 
    6000                      .dwpsn  file "C:/Users/a0230328/workspace_v10/bts_F2800x_4ch_v2/libraries/DCL/DCLF32.h",line 1700,col
    6001 00000754 E6CF          MOV32     R6H,R1H               ; [CPU_FPU] |1700| 
         00000755 000E 
    6002                      .dwpsn  file "C:/Users/a0230328/workspace_v10/bts_F2800x_4ch_v2/bts.h",line 409,column 5,is_stmt,isa 
    6003 00000756 E84E          MPYF32    R0H,R0H,#14336        ; [CPU_FPU] |409| 
         00000757 0000 
    6004                      .dwpsn  file "C:/Users/a0230328/workspace_v10/bts_F2800x_4ch_v2/libraries/DCL/DCLF32.h",line 1703,col
    6005 00000758 9A01          MOVB      AL,#1                 ; [CPU_ALU] |1703| 
    6006                      .dwpsn  file "C:/Users/a0230328/workspace_v10/bts_F2800x_4ch_v2/bts.h",line 420,column 5,is_stmt,isa 
    6007 00000759 E720          SUBF32    R3H,R7H,R0H           ; [CPU_FPU] |420| 
         0000075a 003B 
    6008                      .dwpsn  file "C:/Users/a0230328/workspace_v10/bts_F2800x_4ch_v2/bts.h",line 408,column 5,is_stmt,isa 
    6009 0000075b E84E          MPYF32    R2H,R2H,#14336        ; [CPU_FPU] |408| 
         0000075c 0012 
    6010                      .dwpsn  file "C:/Users/a0230328/workspace_v10/bts_F2800x_4ch_v2/bts.h",line 409,column 5,is_stmt,isa 
    6011              
    6012 0000075d E007          MPYF32    R3H,R5H,R3H           ; [CPU_FPU] |420| 
         0000075e 5844 
    6013              ||      MOV32     *-SP[4],R0H           ; [CPU_FPU] |409| 
    6014              
    6015                      .dwpsn  file "C:/Users/a0230328/workspace_v10/bts_F2800x_4ch_v2/libraries/DCL/DCLF32.h",line 1447,col
    6016 0000075f E2AF!         MOV32     R0H,@$BLOCKED(||BTS_ctrl_cv_ch4||) ; [CPU_FPU] |1447| 
         00000760 0000 
    6017 00000761 E700          MPYF32    R0H,R3H,R0H           ; [CPU_FPU] |1447| 
         00000762 0018 
    6018 00000763 E2AF!         MOV32     R4H,@$BLOCKED(||BTS_ctrl_cv_ch4||)+10 ; [CPU_FPU] |1447| 
         00000764 040A 
    6019              
    6020 00000765 E011          ADDF32    R4H,R4H,R0H           ; [CPU_FPU] |1447| 
         00000766 2146 
    6021              ||      MOV32     *-SP[6],R1H           ; [CPU_FPU] |1697| 
    6022              
    6023 00000767 E2AF          MOV32     R0H,*-SP[8]           ; [CPU_FPU] |1447| 
TMS320C2000 Assembler PC v20.2.1 Mon Nov  2 17:14:28 2020

Copyright (c) 1996-2018 Texas Instruments Incorporated
bts_main.asm                                                         PAGE  128

         00000768 0048 
    6024                      .dwpsn  file "C:/Users/a0230328/workspace_v10/bts_F2800x_4ch_v2/bts.h",line 421,column 5,is_stmt,isa 
    6025 00000769 E203          MOV32     *+XAR4[AR0],R4H       ; [CPU_FPU] |421| 
         0000076a 0494 
    6026                      .dwpsn  file "C:/Users/a0230328/workspace_v10/bts_F2800x_4ch_v2/libraries/DCL/DCLF32.h",line 1700,col
    6027 0000076b E697          MINF32    R6H,R4H               ; [CPU_FPU] |1700| 
         0000076c 0026 
    6028                      .dwpsn  file "C:/Users/a0230328/workspace_v10/bts_F2800x_4ch_v2/bts.h",line 418,column 5,is_stmt,isa 
    6029 0000076d D00C          MOVB      XAR0,#12              ; [CPU_ALU] |418| 
    6030 0000076e E203          MOV32     *+XAR4[AR0],R7H       ; [CPU_FPU] |418| 
         0000076f 0794 
    6031                      .dwpsn  file "C:/Users/a0230328/workspace_v10/bts_F2800x_4ch_v2/libraries/DCL/DCLF32.h",line 1700,col
    6032 00000770 E696          MAXF32    R0H,R6H               ; [CPU_FPU] |1700| 
         00000771 0030 
    6033                      .dwpsn  file "C:/Users/a0230328/workspace_v10/bts_F2800x_4ch_v2/bts.h",line 408,column 5,is_stmt,isa 
    6034 00000772 D008          MOVB      XAR0,#8               ; [CPU_ALU] |408| 
    6035                      .dwpsn  file "C:/Users/a0230328/workspace_v10/bts_F2800x_4ch_v2/bts.h",line 409,column 5,is_stmt,isa 
    6036 00000773 E2AF          MOV32     R6H,*-SP[4]           ; [CPU_FPU] |409| 
         00000774 0644 
    6037                      .dwpsn  file "C:/Users/a0230328/workspace_v10/bts_F2800x_4ch_v2/bts.h",line 408,column 5,is_stmt,isa 
    6038 00000775 E203          MOV32     *+XAR4[AR0],R2H       ; [CPU_FPU] |408| 
         00000776 0294 
    6039                      .dwpsn  file "C:/Users/a0230328/workspace_v10/bts_F2800x_4ch_v2/bts.h",line 409,column 5,is_stmt,isa 
    6040 00000777 D00E          MOVB      XAR0,#14              ; [CPU_ALU] |409| 
    6041                      .dwpsn  file "C:/Users/a0230328/workspace_v10/bts_F2800x_4ch_v2/libraries/DCL/DCLF32.h",line 1700,col
    6042 00000778 E203          MOV32     *+XAR4[AR1],R0H       ; [CPU_FPU] |1700| 
         00000779 009C 
    6043                      .dwpsn  file "C:/Users/a0230328/workspace_v10/bts_F2800x_4ch_v2/bts.h",line 409,column 5,is_stmt,isa 
    6044 0000077a E203          MOV32     *+XAR4[AR0],R6H       ; [CPU_FPU] |409| 
         0000077b 0694 
    6045                      .dwpsn  file "C:/Users/a0230328/workspace_v10/bts_F2800x_4ch_v2/bts.h",line 420,column 5,is_stmt,isa 
    6046 0000077c D016          MOVB      XAR0,#22              ; [CPU_ALU] |420| 
    6047 0000077d E203          MOV32     *+XAR4[AR0],R3H       ; [CPU_FPU] |420| 
         0000077e 0394 
    6048                      .dwpsn  file "C:/Users/a0230328/workspace_v10/bts_F2800x_4ch_v2/libraries/DCL/DCLF32.h",line 1703,col
    6049 0000077f E694          CMPF32    R4H,R1H               ; [CPU_FPU] |1703| 
         00000780 000C 
    6050 00000781 AD14          MOVST0    ZF, NF                ; [CPU_FPU] |1703| 
    6051 00000782 6307          B         ||$C$L100||,GEQ       ; [CPU_ALU] |1703| 
    6052                      ; branchcc occurs ; [] |1703| 
    6053 00000783 E2AF          MOV32     R1H,*-SP[8]           ; [CPU_FPU] 
         00000784 0148 
    6054 00000785 E694          CMPF32    R4H,R1H               ; [CPU_FPU] |1703| 
         00000786 000C 
    6055 00000787 AD14          MOVST0    ZF, NF                ; [CPU_FPU] |1703| 
    6056 00000788 625A          B         ||$C$L103||,GT        ; [CPU_ALU] |1703| 
    6057                      ; branchcc occurs ; [] |1703| 
    6058 00000789       ||$C$L100||:    
    6059 00000789 5200          CMPB      AL,#0                 ; [CPU_ALU] |1703| 
    6060 0000078a 6158          B         ||$C$L103||,EQ        ; [CPU_ALU] |1703| 
    6061                      ; branchcc occurs ; [] |1703| 
    6062                      .dwpsn  file "C:/Users/a0230328/workspace_v10/bts_F2800x_4ch_v2/bts.h",line 433,column 10,is_stmt,isa
    6063 0000078b E805          MOVIZ     R1H,#48955            ; [CPU_FPU] |433| 
         0000078c F9D9 
    6064 0000078d E80D          MOVXI     R1H,#46601            ; [CPU_FPU] |433| 
TMS320C2000 Assembler PC v20.2.1 Mon Nov  2 17:14:28 2020

Copyright (c) 1996-2018 Texas Instruments Incorporated
bts_main.asm                                                         PAGE  129

         0000078e B049 
    6065 0000078f E694          CMPF32    R0H,R1H               ; [CPU_FPU] |433| 
         00000790 0008 
    6066 00000791 AD14          MOVST0    ZF, NF                ; [CPU_FPU] |433| 
    6067 00000792 650E          B         ||$C$L101||,LEQ       ; [CPU_ALU] |433| 
    6068                      ; branchcc occurs ; [] |433| 
    6069 00000793 761F!         MOVW      DP,#||BTS_ctrlLoopVariable_ch4||+6 ; [CPU_ARAU] 
         00000794 0000 
    6070                      .dwpsn  file "C:/Users/a0230328/workspace_v10/bts_F2800x_4ch_v2/bts.h",line 437,column 14,is_stmt,isa
    6071 00000795 E801          MOVIZ     R4H,#16187            ; [CPU_FPU] |437| 
         00000796 F9DC 
    6072 00000797 E2AF!         MOV32     R1H,@$BLOCKED(||BTS_ctrlLoopVariable_ch4||)+6 ; [CPU_FPU] 
         00000798 0106 
    6073 00000799 E80E          MOVXI     R4H,#50975            ; [CPU_FPU] |437| 
         0000079a 38FC 
    6074 0000079b E694          CMPF32    R0H,R4H               ; [CPU_FPU] |437| 
         0000079c 0020 
    6075 0000079d AD14          MOVST0    ZF, NF                ; [CPU_FPU] |437| 
    6076 0000079e 6327          B         ||$C$L102||,GEQ       ; [CPU_ALU] |437| 
    6077                      ; branchcc occurs ; [] |437| 
    6078 0000079f 6F67          B         ||$C$L104||,UNC       ; [CPU_ALU] |437| 
    6079                      ; branch occurs ; [] |437| 
    6080 000007a0       ||$C$L101||:    
    6081 000007a0 E801          MOVIZ     R1H,#16187            ; [CPU_FPU] |437| 
         000007a1 F9D9 
    6082 000007a2 E80E          MOVXI     R1H,#50975            ; [CPU_FPU] |437| 
         000007a3 38F9 
    6083 000007a4 E694          CMPF32    R0H,R1H               ; [CPU_FPU] |437| 
         000007a5 0008 
    6084 000007a6 AD14          MOVST0    ZF, NF                ; [CPU_FPU] |437| 
    6085 000007a7 631E          B         ||$C$L102||,GEQ       ; [CPU_ALU] |437| 
    6086                      ; branchcc occurs ; [] |437| 
    6087                      .dwpsn  file "C:/Users/a0230328/workspace_v10/bts_F2800x_4ch_v2/bts.h",line 446,column 5,is_stmt,isa 
    6088 000007a8 E805          MOVIZ     R1H,#47747            ; [CPU_FPU] |446| 
         000007a9 D419 
    6089 000007aa E805          MOVIZ     R4H,#48955            ; [CPU_FPU] 
         000007ab F9DC 
    6090 000007ac 761F!         MOVW      DP,#||BTS_ctrlLoopVariable_ch4||+6 ; [CPU_ARAU] 
         000007ad 0000 
    6091 000007ae E808          MOVXI     R1H,#4719             ; [CPU_FPU] |446| 
         000007af 9379 
    6092 000007b0 E80D          MOVXI     R4H,#46601            ; [CPU_FPU] 
         000007b1 B04C 
    6093 000007b2 E694          CMPF32    R3H,R1H               ; [CPU_FPU] |446| 
         000007b3 000B 
    6094 000007b4 AD14          MOVST0    ZF, NF                ; [CPU_FPU] |446| 
    6095 000007b5 E203!         MOV32     @$BLOCKED(||BTS_ctrlLoopVariable_ch4||)+6,R4H ; [CPU_FPU] 
         000007b6 0406 
    6096 000007b7 6465          B         ||$C$L106||,LT        ; [CPU_ALU] |446| 
    6097                      ; branchcc occurs ; [] |446| 
    6098                      .dwpsn  file "C:/Users/a0230328/workspace_v10/bts_F2800x_4ch_v2/bts.h",line 450,column 10,is_stmt,isa
    6099 000007b8 E801          MOVIZ     R0H,#15820            ; [CPU_FPU] |450| 
         000007b9 EE60 
    6100 000007ba E80E          MOVXI     R0H,#52429            ; [CPU_FPU] |450| 
         000007bb 6668 
TMS320C2000 Assembler PC v20.2.1 Mon Nov  2 17:14:28 2020

Copyright (c) 1996-2018 Texas Instruments Incorporated
bts_main.asm                                                         PAGE  130

    6101 000007bc E694          CMPF32    R3H,R0H               ; [CPU_FPU] |450| 
         000007bd 0003 
    6102 000007be AD14          MOVST0    ZF, NF                ; [CPU_FPU] |450| 
    6103 000007bf 6257          B         ||$C$L105||,GT        ; [CPU_ALU] |450| 
    6104                      ; branchcc occurs ; [] |450| 
    6105                      .dwpsn  file "C:/Users/a0230328/workspace_v10/bts_F2800x_4ch_v2/bts.h",line 435,column 14,is_stmt,isa
    6106 000007c0 E805          MOVIZ     R1H,#48955            ; [CPU_FPU] |435| 
         000007c1 F9D9 
    6107 000007c2 E80D          MOVXI     R1H,#46601            ; [CPU_FPU] |435| 
         000007c3 B049 
    6108 000007c4 6F61          B         ||$C$L108||,UNC       ; [CPU_ALU] 
    6109                      ; branch occurs ; [] 
    6110 000007c5       ||$C$L102||:    
    6111                      .dwpsn  file "C:/Users/a0230328/workspace_v10/bts_F2800x_4ch_v2/bts.h",line 446,column 5,is_stmt,isa 
    6112 000007c5 E805          MOVIZ     R1H,#47747            ; [CPU_FPU] |446| 
         000007c6 D419 
    6113 000007c7 E808          MOVXI     R1H,#4719             ; [CPU_FPU] |446| 
         000007c8 9379 
    6114 000007c9 E694          CMPF32    R3H,R1H               ; [CPU_FPU] |446| 
         000007ca 000B 
    6115 000007cb AD14          MOVST0    ZF, NF                ; [CPU_FPU] |446| 
    6116 000007cc 6450          B         ||$C$L106||,LT        ; [CPU_ALU] |446| 
    6117                      ; branchcc occurs ; [] |446| 
    6118                      .dwpsn  file "C:/Users/a0230328/workspace_v10/bts_F2800x_4ch_v2/bts.h",line 450,column 10,is_stmt,isa
    6119 000007cd E801          MOVIZ     R0H,#15820            ; [CPU_FPU] |450| 
         000007ce EE60 
    6120 000007cf E80E          MOVXI     R0H,#52429            ; [CPU_FPU] |450| 
         000007d0 6668 
    6121 000007d1 E694          CMPF32    R3H,R0H               ; [CPU_FPU] |450| 
         000007d2 0003 
    6122 000007d3 AD14          MOVST0    ZF, NF                ; [CPU_FPU] |450| 
    6123 000007d4 6242          B         ||$C$L105||,GT        ; [CPU_ALU] |450| 
    6124                      ; branchcc occurs ; [] |450| 
    6125 000007d5 E801          MOVIZ     R0H,#16187            ; [CPU_FPU] 
         000007d6 F9D8 
    6126                      .dwpsn  file "C:/Users/a0230328/workspace_v10/bts_F2800x_4ch_v2/bts.h",line 439,column 18,is_stmt,isa
    6127 000007d7 E801          MOVIZ     R1H,#16187            ; [CPU_FPU] |439| 
         000007d8 F9D9 
    6128 000007d9 761F!         MOVW      DP,#||BTS_ctrlLoopVariable_ch4||+6 ; [CPU_ARAU] 
         000007da 0000 
    6129 000007db E80E          MOVXI     R0H,#50975            ; [CPU_FPU] 
         000007dc 38F8 
    6130 000007dd E80E          MOVXI     R1H,#50975            ; [CPU_FPU] |439| 
         000007de 38F9 
    6131 000007df E203!         MOV32     @$BLOCKED(||BTS_ctrlLoopVariable_ch4||)+6,R0H ; [CPU_FPU] 
         000007e0 0006 
    6132 000007e1 6F44          B         ||$C$L108||,UNC       ; [CPU_ALU] 
    6133                      ; branch occurs ; [] 
    6134 000007e2       ||$C$L103||:    
    6135                      .dwpsn  file "C:/Users/a0230328/workspace_v10/bts_F2800x_4ch_v2/libraries/DCL/DCLF32.h",line 1458,col
    6136 000007e2 E2AF!         MOV32     R4H,@$BLOCKED(||BTS_ctrl_cv_ch4||)+6 ; [CPU_FPU] |1458| 
         000007e3 0406 
    6137 000007e4 761F!         MOVW      DP,#||BTS_ctrlLoopVariable_ch4||+6 ; [CPU_ARAU] 
         000007e5 0000 
    6138                      .dwpsn  file "C:/Users/a0230328/workspace_v10/bts_F2800x_4ch_v2/bts.h",line 426,column 9,is_stmt,isa 
TMS320C2000 Assembler PC v20.2.1 Mon Nov  2 17:14:28 2020

Copyright (c) 1996-2018 Texas Instruments Incorporated
bts_main.asm                                                         PAGE  131

    6139 000007e6 E6CF          MOV32     R1H,R0H               ; [CPU_FPU] |426| 
         000007e7 0001 
    6140 000007e8 E203!         MOV32     @$BLOCKED(||BTS_ctrlLoopVariable_ch4||)+6,R0H ; [CPU_FPU] |426| 
         000007e9 0006 
    6141 000007ea 761F!         MOVW      DP,#||BTS_ctrl_cv_ch4||+2 ; [CPU_ARAU] 
         000007eb 0000 
    6142                      .dwpsn  file "C:/Users/a0230328/workspace_v10/bts_F2800x_4ch_v2/libraries/DCL/DCLF32.h",line 1458,col
    6143 000007ec E2AF!         MOV32     R6H,@$BLOCKED(||BTS_ctrl_cv_ch4||)+2 ; [CPU_FPU] |1458| 
         000007ed 0602 
    6144 000007ee E700          MPYF32    R6H,R3H,R6H           ; [CPU_FPU] |1458| 
         000007ef 019E 
    6145              
    6146                      MOV32     R7H,@$BLOCKED(||BTS_ctrl_cv_ch4||)+12 ; [CPU_FPU] |1458| 
    6147 000007f0 E308! ||      MPYF32    R4H,R1H,R4H           ; [CPU_FPU] |1458| 
         000007f1 670C 
    6148              
    6149 000007f2 E710          ADDF32    R6H,R6H,R7H           ; [CPU_FPU] |1458| 
         000007f3 01F6 
    6150 000007f4 7700          NOP       ; [CPU_ALU] 
    6151 000007f5 E720          SUBF32    R4H,R6H,R4H           ; [CPU_FPU] |1458| 
         000007f6 0134 
    6152 000007f7 7700          NOP       ; [CPU_ALU] 
    6153 000007f8 E203!         MOV32     @$BLOCKED(||BTS_ctrl_cv_ch4||)+10,R4H ; [CPU_FPU] |1458| 
         000007f9 040A 
    6154                      .dwpsn  file "C:/Users/a0230328/workspace_v10/bts_F2800x_4ch_v2/libraries/DCL/DCLF32.h",line 1459,col
    6155 000007fa E2AF!         MOV32     R4H,@$BLOCKED(||BTS_ctrl_cv_ch4||)+8 ; [CPU_FPU] |1459| 
         000007fb 0408 
    6156              
    6157                      MOV32     R6H,@$BLOCKED(||BTS_ctrl_cv_ch4||)+4 ; [CPU_FPU] |1459| 
    6158 000007fc E308! ||      MPYF32    R4H,R1H,R4H           ; [CPU_FPU] |1459| 
         000007fd 6604 
    6159              
    6160 000007fe E700          MPYF32    R6H,R3H,R6H           ; [CPU_FPU] |1459| 
         000007ff 019E 
    6161 00000800 7700          NOP       ; [CPU_ALU] 
    6162 00000801 E720          SUBF32    R4H,R6H,R4H           ; [CPU_FPU] |1459| 
         00000802 0134 
    6163 00000803 7700          NOP       ; [CPU_ALU] 
    6164 00000804 E203!         MOV32     @$BLOCKED(||BTS_ctrl_cv_ch4||)+12,R4H ; [CPU_FPU] |1459| 
         00000805 040C 
    6165 00000806       ||$C$L104||:    
    6166                      .dwpsn  file "C:/Users/a0230328/workspace_v10/bts_F2800x_4ch_v2/bts.h",line 446,column 5,is_stmt,isa 
    6167 00000806 E805          MOVIZ     R4H,#47747            ; [CPU_FPU] |446| 
         00000807 D41C 
    6168 00000808 E808          MOVXI     R4H,#4719             ; [CPU_FPU] |446| 
         00000809 937C 
    6169 0000080a E694          CMPF32    R3H,R4H               ; [CPU_FPU] |446| 
         0000080b 0023 
    6170 0000080c AD14          MOVST0    ZF, NF                ; [CPU_FPU] |446| 
    6171 0000080d 640F          B         ||$C$L106||,LT        ; [CPU_ALU] |446| 
    6172                      ; branchcc occurs ; [] |446| 
    6173                      .dwpsn  file "C:/Users/a0230328/workspace_v10/bts_F2800x_4ch_v2/bts.h",line 450,column 10,is_stmt,isa
    6174 0000080e E801          MOVIZ     R0H,#15820            ; [CPU_FPU] |450| 
         0000080f EE60 
    6175 00000810 E80E          MOVXI     R0H,#52429            ; [CPU_FPU] |450| 
TMS320C2000 Assembler PC v20.2.1 Mon Nov  2 17:14:28 2020

Copyright (c) 1996-2018 Texas Instruments Incorporated
bts_main.asm                                                         PAGE  132

         00000811 6668 
    6176 00000812 E694          CMPF32    R3H,R0H               ; [CPU_FPU] |450| 
         00000813 0003 
    6177 00000814 AD14          MOVST0    ZF, NF                ; [CPU_FPU] |450| 
    6178 00000815 6510          B         ||$C$L108||,LEQ       ; [CPU_ALU] |450| 
    6179                      ; branchcc occurs ; [] |450| 
    6180 00000816       ||$C$L105||:    
    6181 00000816 761F!         MOVW      DP,#||BTS_ctrlLoopVariable_ch4||+30 ; [CPU_ARAU] 
         00000817 0000 
    6182 00000818 E2AF          MOV32     R0H,*-SP[6]           ; [CPU_FPU] 
         00000819 0046 
    6183                      .dwpsn  file "C:/Users/a0230328/workspace_v10/bts_F2800x_4ch_v2/bts.h",line 454,column 9,is_stmt,isa 
    6184 0000081a 2B1E!         MOV       @$BLOCKED(||BTS_ctrlLoopVariable_ch4||)+30,#0 ; [CPU_ALU] |454| 
    6185 0000081b 6F05          B         ||$C$L107||,UNC       ; [CPU_ALU] |454| 
    6186                      ; branch occurs ; [] |454| 
    6187 0000081c       ||$C$L106||:    
    6188 0000081c 761F!         MOVW      DP,#||BTS_ctrlLoopVariable_ch4||+30 ; [CPU_ARAU] 
         0000081d 0000 
    6189                      .dwpsn  file "C:/Users/a0230328/workspace_v10/bts_F2800x_4ch_v2/bts.h",line 448,column 9,is_stmt,isa 
    6190 0000081e 56BF!         MOVB      @$BLOCKED(||BTS_ctrlLoopVariable_ch4||)+30,#1,UNC ; [CPU_ALU] |448| 
         0000081f 011E 
    6191 00000820       ||$C$L107||:    
    6192                      .dwpsn  file "C:/Users/a0230328/workspace_v10/bts_F2800x_4ch_v2/bts.h",line 447,column 9,is_stmt,isa 
    6193 00000820 E700          MPYF32    R1H,R0H,R5H           ; [CPU_FPU] |447| 
         00000821 0141 
    6194 00000822 7700          NOP       ; [CPU_ALU] 
    6195 00000823 E203!         MOV32     @$BLOCKED(||BTS_ctrlLoopVariable_ch4||)+6,R1H ; [CPU_FPU] |447| 
         00000824 0106 
    6196 00000825       ||$C$L108||:    
    6197 00000825 761F!         MOVW      DP,#||BTS_ctrl_cc_ch4|| ; [CPU_ARAU] 
         00000826 0000 
    6198                      .dwpsn  file "C:/Users/a0230328/workspace_v10/bts_F2800x_4ch_v2/bts.h",line 473,column 5,is_stmt,isa 
    6199              
    6200                      MOV32     R3H,@$BLOCKED(||BTS_ctrl_cc_ch4||) ; [CPU_FPU] |1447| 
    6201 00000827 E324! ||      SUBF32    R1H,R1H,R2H           ; [CPU_FPU] |473| 
         00000828 4B00 
    6202              
    6203                      .dwpsn  file "C:/Users/a0230328/workspace_v10/bts_F2800x_4ch_v2/libraries/DCL/DCLF32.h",line 1700,col
    6204 00000829 E801          MOVIZ     R0H,#16140            ; [CPU_FPU] |1700| 
         0000082a F860 
    6205                      .dwpsn  file "C:/Users/a0230328/workspace_v10/bts_F2800x_4ch_v2/bts.h",line 475,column 5,is_stmt,isa 
    6206 0000082b D010          MOVB      XAR0,#16              ; [CPU_ALU] |475| 
    6207                      .dwpsn  file "C:/Users/a0230328/workspace_v10/bts_F2800x_4ch_v2/libraries/DCL/DCLF32.h",line 1700,col
    6208 0000082c D110          MOVB      XAR1,#16              ; [CPU_ALU] |1700| 
    6209                      .dwpsn  file "C:/Users/a0230328/workspace_v10/bts_F2800x_4ch_v2/libraries/DCL/DCLF32.h",line 1447,col
    6210              
    6211 0000082d E306!         MPYF32    R3H,R1H,R3H           ; [CPU_FPU] |1447| 
         0000082e 5A0A 
    6212              ||      MOV32     R2H,@$BLOCKED(||BTS_ctrl_cc_ch4||)+10 ; [CPU_FPU] |1447| 
    6213              
    6214                      .dwpsn  file "C:/Users/a0230328/workspace_v10/bts_F2800x_4ch_v2/libraries/DCL/DCLF32.h",line 1703,col
    6215 0000082f 9A01          MOVB      AL,#1                 ; [CPU_ALU] |1703| 
    6216                      .dwpsn  file "C:/Users/a0230328/workspace_v10/bts_F2800x_4ch_v2/libraries/DCL/DCLF32.h",line 1447,col
    6217 00000830 E710          ADDF32    R2H,R2H,R3H           ; [CPU_FPU] |1447| 
         00000831 00D2 
TMS320C2000 Assembler PC v20.2.1 Mon Nov  2 17:14:28 2020

Copyright (c) 1996-2018 Texas Instruments Incorporated
bts_main.asm                                                         PAGE  133

    6218                      .dwpsn  file "C:/Users/a0230328/workspace_v10/bts_F2800x_4ch_v2/libraries/DCL/DCLF32.h",line 1700,col
    6219 00000832 E80E          MOVXI     R0H,#52429            ; [CPU_FPU] |1700| 
         00000833 6668 
    6220                      .dwpsn  file "C:/Users/a0230328/workspace_v10/bts_F2800x_4ch_v2/bts.h",line 475,column 5,is_stmt,isa 
    6221 00000834 E203          MOV32     *+XAR4[AR0],R2H       ; [CPU_FPU] |475| 
         00000835 0294 
    6222                      .dwpsn  file "C:/Users/a0230328/workspace_v10/bts_F2800x_4ch_v2/libraries/DCL/DCLF32.h",line 1703,col
    6223 00000836 E801          MOVIZ     R3H,#16140            ; [CPU_FPU] |1703| 
         00000837 F863 
    6224                      .dwpsn  file "C:/Users/a0230328/workspace_v10/bts_F2800x_4ch_v2/bts.h",line 473,column 5,is_stmt,isa 
    6225 00000838 D012          MOVB      XAR0,#18              ; [CPU_ALU] |473| 
    6226                      .dwpsn  file "C:/Users/a0230328/workspace_v10/bts_F2800x_4ch_v2/libraries/DCL/DCLF32.h",line 1700,col
    6227 00000839 E697          MINF32    R0H,R2H               ; [CPU_FPU] |1700| 
         0000083a 0010 
    6228                      .dwpsn  file "C:/Users/a0230328/workspace_v10/bts_F2800x_4ch_v2/libraries/DCL/DCLF32.h",line 1703,col
    6229 0000083b E80E          MOVXI     R3H,#52429            ; [CPU_FPU] |1703| 
         0000083c 666B 
    6230                      .dwpsn  file "C:/Users/a0230328/workspace_v10/bts_F2800x_4ch_v2/libraries/DCL/DCLF32.h",line 1700,col
    6231 0000083d E820          MAXF32    R0H,#0                ; [CPU_FPU] |1700| 
         0000083e 0000 
    6232                      .dwpsn  file "C:/Users/a0230328/workspace_v10/bts_F2800x_4ch_v2/bts.h",line 473,column 5,is_stmt,isa 
    6233 0000083f E203          MOV32     *+XAR4[AR0],R1H       ; [CPU_FPU] |473| 
         00000840 0194 
    6234                      .dwpsn  file "C:/Users/a0230328/workspace_v10/bts_F2800x_4ch_v2/libraries/DCL/DCLF32.h",line 1700,col
    6235 00000841 E203          MOV32     *+XAR4[AR1],R0H       ; [CPU_FPU] |1700| 
         00000842 009C 
    6236                      .dwpsn  file "C:/Users/a0230328/workspace_v10/bts_F2800x_4ch_v2/libraries/DCL/DCLF32.h",line 1703,col
    6237 00000843 E694          CMPF32    R2H,R3H               ; [CPU_FPU] |1703| 
         00000844 001A 
    6238 00000845 AD14          MOVST0    ZF, NF                ; [CPU_FPU] |1703| 
    6239 00000846 6304          B         ||$C$L109||,GEQ       ; [CPU_ALU] |1703| 
    6240                      ; branchcc occurs ; [] |1703| 
    6241 00000847 E5A2          CMPF32    R2H,#0                ; [CPU_FPU] |1703| 
    6242 00000848 AD14          MOVST0    ZF, NF                ; [CPU_FPU] |1703| 
    6243 00000849 6250          B         ||$C$L111||,GT        ; [CPU_ALU] |1703| 
    6244                      ; branchcc occurs ; [] |1703| 
    6245 0000084a       ||$C$L109||:    
    6246 0000084a 5200          CMPB      AL,#0                 ; [CPU_ALU] |1703| 
    6247 0000084b 614E          B         ||$C$L111||,EQ        ; [CPU_ALU] |1703| 
    6248                      ; branchcc occurs ; [] |1703| 
    6249                      .dwpsn  file "C:/Users/a0230328/workspace_v10/bts_F2800x_4ch_v2/bts.h",line 488,column 13,is_stmt,isa
    6250 0000084c E5A0          CMPF32    R0H,#0                ; [CPU_FPU] |488| 
    6251 0000084d AD14          MOVST0    ZF, NF                ; [CPU_FPU] |488| 
    6252 0000084e 621D          B         ||$C$L110||,GT        ; [CPU_ALU] |488| 
    6253                      ; branchcc occurs ; [] |488| 
    6254 0000084f 761F!         MOVW      DP,#||MEP_ScaleFactor|| ; [CPU_ARAU] 
         00000850 0000 
    6255                      .dwpsn  file "C:\Users\a0230328\workspace_v10\bts_F2800x_4ch_v2\bts_hal.h",line 192,column 21,is_stmt
    6256 00000851 E284!         UI32TOF32 R1H,@||MEP_ScaleFactor|| ; [CPU_FPU] |192| 
         00000852 0100 
    6257 00000853 7700          NOP       ; [CPU_ALU] 
    6258 00000854 E840          MPYF32    R1H,R1H,#0            ; [CPU_FPU] |192| 
         00000855 0009 
    6259                      .dwpsn  file "C:/ti/C2000Ware_DigitalPower_SDK_3_00_01_00/c2000ware/driverlib/f28004x/driverlib/epwm.
    6260 00000856 BE00          MOVB      XAR6,#0               ; [CPU_ALU] |2409| 
TMS320C2000 Assembler PC v20.2.1 Mon Nov  2 17:14:28 2020

Copyright (c) 1996-2018 Texas Instruments Incorporated
bts_main.asm                                                         PAGE  134

    6261                      .dwpsn  file "C:\Users\a0230328\workspace_v10\bts_F2800x_4ch_v2\bts_hal.h",line 192,column 21,is_stmt
    6262 00000857 E68E          F32TOUI16 R1H,R1H               ; [CPU_FPU] |192| 
         00000858 0009 
    6263                      .dwpsn  file "C:/ti/C2000Ware_DigitalPower_SDK_3_00_01_00/c2000ware/driverlib/f28004x/driverlib/epwm.
    6264 00000859 F4A6          MOV       *(0:0x436b),AR6       ; [CPU_ALU] |2409| 
         0000085a 436B 
    6265 0000085b 761F!         MOVW      DP,#||BTS_ctrlLoopVariable_ch4|| ; [CPU_ARAU] 
         0000085c 0000 
    6266                      .dwpsn  file "C:\Users\a0230328\workspace_v10\bts_F2800x_4ch_v2\bts_hal.h",line 192,column 21,is_stmt
    6267 0000085d BFA9          MOV32     ACC,R1H               ; [CPU_FPU] |192| 
         0000085e 0F16 
    6268                      .dwpsn  file "C:/ti/C2000Ware_DigitalPower_SDK_3_00_01_00/c2000ware/driverlib/f28004x/driverlib/hrpwm
    6269 0000085f 5603          MOV       ACC,AL << #8          ; [CPU_ALU] |1255| 
         00000860 08A9 
    6270                      .dwpsn  file "C:/Users/a0230328/workspace_v10/bts_F2800x_4ch_v2/bts.h",line 492,column 17,is_stmt,isa
    6271 00000861 E591          ZERO      R1H                   ; [CPU_FPU] |492| 
    6272                      .dwpsn  file "C:/ti/C2000Ware_DigitalPower_SDK_3_00_01_00/c2000ware/driverlib/f28004x/driverlib/epwm.
    6273 00000862 9B00          MOVB      AH,#0                 ; [CPU_ALU] |2409| 
    6274                      .dwpsn  file "C:/ti/C2000Ware_DigitalPower_SDK_3_00_01_00/c2000ware/driverlib/f28004x/driverlib/hrpwm
    6275 00000863 F4A9          MOV       *(0:0x436a),AL        ; [CPU_ALU] |1255| 
         00000864 436A 
    6276                      .dwpsn  file "C:/Users/a0230328/workspace_v10/bts_F2800x_4ch_v2/bts.h",line 492,column 17,is_stmt,isa
    6277 00000865 E203!         MOV32     @$BLOCKED(||BTS_ctrlLoopVariable_ch4||),R1H ; [CPU_FPU] |492| 
         00000866 0100 
    6278                      .dwpsn  file "C:/ti/C2000Ware_DigitalPower_SDK_3_00_01_00/c2000ware/driverlib/f28004x/driverlib/epwm.
    6279 00000867 F4A8          MOV       *(0:0x436d),AH        ; [CPU_ALU] |2409| 
         00000868 436D 
    6280                      .dwpsn  file "C:/ti/C2000Ware_DigitalPower_SDK_3_00_01_00/c2000ware/driverlib/f28004x/driverlib/hrpwm
    6281 00000869 F4A9          MOV       *(0:0x436c),AL        ; [CPU_ALU] |1262| 
         0000086a 436C 
    6282 0000086b       ||$C$L110||:    
    6283                      .dwpsn  file "C:/Users/a0230328/workspace_v10/bts_F2800x_4ch_v2/bts.h",line 494,column 13,is_stmt,isa
    6284 0000086b E801          MOVIZ     R1H,#16140            ; [CPU_FPU] |494| 
         0000086c F861 
    6285 0000086d E80E          MOVXI     R1H,#52429            ; [CPU_FPU] |494| 
         0000086e 6669 
    6286 0000086f E694          CMPF32    R0H,R1H               ; [CPU_FPU] |494| 
         00000870 0008 
    6287 00000871 AD14          MOVST0    ZF, NF                ; [CPU_FPU] |494| 
    6288 00000872 FFE4          B         ||$C$L118||,LT        ; [CPU_ALU] |494| 
         00000873 009B 
    6289                      ; branchcc occurs ; [] |494| 
    6290 00000874 761F!         MOVW      DP,#||MEP_ScaleFactor|| ; [CPU_ARAU] 
         00000875 0000 
    6291                      .dwpsn  file "C:\Users\a0230328\workspace_v10\bts_F2800x_4ch_v2\bts_hal.h",line 192,column 21,is_stmt
    6292 00000876 E801          MOVIZ     R0H,#16102            ; [CPU_FPU] |192| 
         00000877 F730 
    6293 00000878 E284!         UI32TOF32 R1H,@||MEP_ScaleFactor|| ; [CPU_FPU] |192| 
         00000879 0100 
    6294 0000087a E80B          MOVXI     R0H,#26624            ; [CPU_FPU] |192| 
         0000087b 4000 
    6295 0000087c E700          MPYF32    R0H,R0H,R1H           ; [CPU_FPU] |192| 
         0000087d 0040 
    6296                      .dwpsn  file "C:/ti/C2000Ware_DigitalPower_SDK_3_00_01_00/c2000ware/driverlib/f28004x/driverlib/epwm.
    6297 0000087e 7680          MOVL      XAR6,#549             ; [CPU_ALU] |2409| 
TMS320C2000 Assembler PC v20.2.1 Mon Nov  2 17:14:28 2020

Copyright (c) 1996-2018 Texas Instruments Incorporated
bts_main.asm                                                         PAGE  135

         0000087f 0225 
    6298                      .dwpsn  file "C:\Users\a0230328\workspace_v10\bts_F2800x_4ch_v2\bts_hal.h",line 192,column 21,is_stmt
    6299 00000880 E68E          F32TOUI16 R0H,R0H               ; [CPU_FPU] |192| 
         00000881 0000 
    6300                      .dwpsn  file "C:/ti/C2000Ware_DigitalPower_SDK_3_00_01_00/c2000ware/driverlib/f28004x/driverlib/epwm.
    6301 00000882 F4A6          MOV       *(0:0x436b),AR6       ; [CPU_ALU] |2409| 
         00000883 436B 
    6302 00000884 761F!         MOVW      DP,#||BTS_ctrlLoopVariable_ch4|| ; [CPU_ARAU] 
         00000885 0000 
    6303                      .dwpsn  file "C:\Users\a0230328\workspace_v10\bts_F2800x_4ch_v2\bts_hal.h",line 192,column 21,is_stmt
    6304 00000886 BFA9          MOV32     ACC,R0H               ; [CPU_FPU] |192| 
         00000887 0F12 
    6305                      .dwpsn  file "C:/ti/C2000Ware_DigitalPower_SDK_3_00_01_00/c2000ware/driverlib/f28004x/driverlib/hrpwm
    6306 00000888 5603          MOV       ACC,AL << #8          ; [CPU_ALU] |1255| 
         00000889 08A9 
    6307                      .dwpsn  file "C:/Users/a0230328/workspace_v10/bts_F2800x_4ch_v2/bts.h",line 498,column 17,is_stmt,isa
    6308 0000088a E801          MOVIZ     R0H,#16140            ; [CPU_FPU] |498| 
         0000088b F860 
    6309                      .dwpsn  file "C:/ti/C2000Ware_DigitalPower_SDK_3_00_01_00/c2000ware/driverlib/f28004x/driverlib/epwm.
    6310 0000088c 28A8          MOV       AH,#549               ; [CPU_ALU] |2409| 
         0000088d 0225 
    6311                      .dwpsn  file "C:/ti/C2000Ware_DigitalPower_SDK_3_00_01_00/c2000ware/driverlib/f28004x/driverlib/hrpwm
    6312 0000088e F4A9          MOV       *(0:0x436a),AL        ; [CPU_ALU] |1255| 
         0000088f 436A 
    6313                      .dwpsn  file "C:/Users/a0230328/workspace_v10/bts_F2800x_4ch_v2/bts.h",line 498,column 17,is_stmt,isa
    6314 00000890 E80E          MOVXI     R0H,#52429            ; [CPU_FPU] |498| 
         00000891 6668 
    6315                      .dwpsn  file "C:/ti/C2000Ware_DigitalPower_SDK_3_00_01_00/c2000ware/driverlib/f28004x/driverlib/epwm.
    6316 00000892 F4A8          MOV       *(0:0x436d),AH        ; [CPU_ALU] |2409| 
         00000893 436D 
    6317                      .dwpsn  file "C:/Users/a0230328/workspace_v10/bts_F2800x_4ch_v2/bts.h",line 498,column 17,is_stmt,isa
    6318 00000894 E203!         MOV32     @$BLOCKED(||BTS_ctrlLoopVariable_ch4||),R0H ; [CPU_FPU] |498| 
         00000895 0000 
    6319                      .dwpsn  file "C:/ti/C2000Ware_DigitalPower_SDK_3_00_01_00/c2000ware/driverlib/f28004x/driverlib/hrpwm
    6320 00000896 F4A9          MOV       *(0:0x436c),AL        ; [CPU_ALU] |1262| 
         00000897 436C 
    6321                      .dwpsn  file "C:/Users/a0230328/workspace_v10/bts_F2800x_4ch_v2/bts.h",line 498,column 17,is_stmt,isa
    6322 00000898 6F75          B         ||$C$L118||,UNC       ; [CPU_ALU] |498| 
    6323                      ; branch occurs ; [] |498| 
    6324 00000899       ||$C$L111||:    
    6325 00000899 761F!         MOVW      DP,#||BTS_ctrlLoopVariable_ch4||+31 ; [CPU_ARAU] 
         0000089a 0000 
    6326                      .dwpsn  file "C:/Users/a0230328/workspace_v10/bts_F2800x_4ch_v2/bts.h",line 364,column 5,is_stmt,isa 
    6327 0000089b 921F!         MOV       AL,@$BLOCKED(||BTS_ctrlLoopVariable_ch4||)+31 ; [CPU_ALU] |364| 
    6328                      .dwpsn  file "C:/Users/a0230328/workspace_v10/bts_F2800x_4ch_v2/bts.h",line 479,column 13,is_stmt,isa
    6329 0000089c E203!         MOV32     @$BLOCKED(||BTS_ctrlLoopVariable_ch4||),R0H ; [CPU_FPU] |479| 
         0000089d 0000 
    6330                      .dwpsn  file "C:/Users/a0230328/workspace_v10/bts_F2800x_4ch_v2/bts.h",line 364,column 5,is_stmt,isa 
    6331 0000089e 600F          B         ||$C$L113||,NEQ       ; [CPU_ALU] |364| 
    6332                      ; branchcc occurs ; [] |364| 
    6333                      .dwpsn  file "C:/Users/a0230328/workspace_v10/bts_F2800x_4ch_v2/bts.h",line 381,column 9,is_stmt,isa 
    6334 0000089f 1BA6          CMP       AR6,#28842            ; [CPU_ALU] |381| 
         000008a0 70AA 
    6335 000008a1 6306          B         ||$C$L112||,GEQ       ; [CPU_ALU] |381| 
    6336                      ; branchcc occurs ; [] |381| 
TMS320C2000 Assembler PC v20.2.1 Mon Nov  2 17:14:28 2020

Copyright (c) 1996-2018 Texas Instruments Incorporated
bts_main.asm                                                         PAGE  136

    6337                      .dwpsn  file "C:/ti/C2000Ware_DigitalPower_SDK_3_00_01_00/c2000ware/driverlib/f28004x/driverlib/epwm.
    6338 000008a2 F5A9          MOV       AL,*(0:0x4149)        ; [CPU_ALU] |3037| 
         000008a3 4149 
    6339 000008a4 18A9          AND       AL,#0xfffc            ; [CPU_ALU] |3037| 
         000008a5 FFFC 
    6340                      .dwpsn  file "C:/Users/a0230328/workspace_v10/bts_F2800x_4ch_v2/bts.h",line 389,column 13,is_stmt,isa
    6341 000008a6 6F0E          B         ||$C$L114||,UNC       ; [CPU_ALU] |389| 
    6342                      ; branch occurs ; [] |389| 
    6343 000008a7       ||$C$L112||:    
    6344                      .dwpsn  file "C:/ti/C2000Ware_DigitalPower_SDK_3_00_01_00/c2000ware/driverlib/f28004x/driverlib/epwm.
    6345 000008a7 F5A9          MOV       AL,*(0:0x4349)        ; [CPU_ALU] |3037| 
         000008a8 4349 
    6346 000008a9 CCA9          AND       AL,AL,#0xfffc         ; [CPU_ALU] |3037| 
         000008aa FFFC 
    6347 000008ab 5001          ORB       AL,#0x01              ; [CPU_ALU] |3037| 
    6348 000008ac 6F10          B         ||$C$L116||,UNC       ; [CPU_ALU] 
    6349                      ; branch occurs ; [] 
    6350 000008ad       ||$C$L113||:    
    6351                      .dwpsn  file "C:/Users/a0230328/workspace_v10/bts_F2800x_4ch_v2/bts.h",line 367,column 9,is_stmt,isa 
    6352 000008ad 1BA6          CMP       AR6,#-28841           ; [CPU_ALU] |367| 
         000008ae 8F57 
    6353 000008af 6408          B         ||$C$L115||,LT        ; [CPU_ALU] |367| 
    6354                      ; branchcc occurs ; [] |367| 
    6355                      .dwpsn  file "C:/ti/C2000Ware_DigitalPower_SDK_3_00_01_00/c2000ware/driverlib/f28004x/driverlib/epwm.
    6356 000008b0 F5A9          MOV       AL,*(0:0x4149)        ; [CPU_ALU] |3043| 
         000008b1 4149 
    6357 000008b2 18A9          AND       AL,#0xfff3            ; [CPU_ALU] |3043| 
         000008b3 FFF3 
    6358 000008b4       ||$C$L114||:    
    6359 000008b4 F4A9          MOV       *(0:0x4149),AL        ; [CPU_ALU] |3043| 
         000008b5 4149 
    6360                      .dwpsn  file "C:/Users/a0230328/workspace_v10/bts_F2800x_4ch_v2/bts.h",line 375,column 13,is_stmt,isa
    6361 000008b6 6F08          B         ||$C$L117||,UNC       ; [CPU_ALU] |375| 
    6362                      ; branch occurs ; [] |375| 
    6363 000008b7       ||$C$L115||:    
    6364                      .dwpsn  file "C:/ti/C2000Ware_DigitalPower_SDK_3_00_01_00/c2000ware/driverlib/f28004x/driverlib/epwm.
    6365 000008b7 F5A9          MOV       AL,*(0:0x4349)        ; [CPU_ALU] |3043| 
         000008b8 4349 
    6366 000008b9 CCA9          AND       AL,AL,#0xfffb         ; [CPU_ALU] |3043| 
         000008ba FFFB 
    6367 000008bb 5008          ORB       AL,#0x08              ; [CPU_ALU] |3043| 
    6368 000008bc       ||$C$L116||:    
    6369 000008bc F4A9          MOV       *(0:0x4349),AL        ; [CPU_ALU] |3043| 
         000008bd 4349 
    6370 000008be       ||$C$L117||:    
    6371                      .dwpsn  file "C:\Users\a0230328\workspace_v10\bts_F2800x_4ch_v2\bts_hal.h",line 192,column 21,is_stmt
    6372 000008be E802          MOVIZ     R2H,#17529            ; [CPU_FPU] |192| 
         000008bf 23CA 
    6373 000008c0 E80E          MOVXI     R2H,#49152            ; [CPU_FPU] |192| 
         000008c1 0002 
    6374 000008c2 E700          MPYF32    R2H,R2H,R0H           ; [CPU_FPU] |192| 
         000008c3 0012 
    6375 000008c4 7700          NOP       ; [CPU_ALU] 
    6376 000008c5 E68E          F32TOUI16 R3H,R2H               ; [CPU_FPU] |192| 
         000008c6 0013 
TMS320C2000 Assembler PC v20.2.1 Mon Nov  2 17:14:28 2020

Copyright (c) 1996-2018 Texas Instruments Incorporated
bts_main.asm                                                         PAGE  137

    6377 000008c7 7700          NOP       ; [CPU_ALU] 
    6378 000008c8 7700          NOP       ; [CPU_ALU] 
    6379 000008c9 BFA6          MOV32     XAR6,R3H              ; [CPU_FPU] |192| 
         000008ca 0F1E 
    6380 000008cb 0EA6          MOVU      ACC,AR6               ; [CPU_ALU] |192| 
    6381 000008cc BDA9          MOV32     R3H,ACC               ; [CPU_FPU] |192| 
         000008cd 0F1E 
    6382 000008ce 7700          NOP       ; [CPU_ALU] 
    6383 000008cf 7700          NOP       ; [CPU_ALU] 
    6384 000008d0 7700          NOP       ; [CPU_ALU] 
    6385 000008d1 761F!         MOVW      DP,#||MEP_ScaleFactor|| ; [CPU_ARAU] 
         000008d2 0000 
    6386 000008d3 E68B          UI32TOF32 R3H,R3H               ; [CPU_FPU] |192| 
         000008d4 001B 
    6387 000008d5 E284!         UI32TOF32 R4H,@||MEP_ScaleFactor|| ; [CPU_FPU] |192| 
         000008d6 0400 
    6388 000008d7 E720          SUBF32    R2H,R2H,R3H           ; [CPU_FPU] |192| 
         000008d8 00D2 
    6389 000008d9 7700          NOP       ; [CPU_ALU] 
    6390 000008da E700          MPYF32    R2H,R4H,R2H           ; [CPU_FPU] |192| 
         000008db 00A2 
    6391 000008dc 7700          NOP       ; [CPU_ALU] 
    6392 000008dd E68E          F32TOUI16 R2H,R2H               ; [CPU_FPU] |192| 
         000008de 0012 
    6393 000008df 761F!         MOVW      DP,#||BTS_ctrl_cc_ch4||+6 ; [CPU_ARAU] 
         000008e0 0000 
    6394                      .dwpsn  file "C:/ti/C2000Ware_DigitalPower_SDK_3_00_01_00/c2000ware/driverlib/f28004x/driverlib/epwm.
    6395 000008e1 F4A6          MOV       *(0:0x436b),AR6       ; [CPU_ALU] |2409| 
         000008e2 436B 
    6396                      .dwpsn  file "C:\Users\a0230328\workspace_v10\bts_F2800x_4ch_v2\bts_hal.h",line 192,column 21,is_stmt
    6397 000008e3 BFA9          MOV32     ACC,R2H               ; [CPU_FPU] |192| 
         000008e4 0F1A 
    6398                      .dwpsn  file "C:/ti/C2000Ware_DigitalPower_SDK_3_00_01_00/c2000ware/driverlib/f28004x/driverlib/hrpwm
    6399 000008e5 5603          MOV       ACC,AL << #8          ; [CPU_ALU] |1255| 
         000008e6 08A9 
    6400 000008e7 F4A9          MOV       *(0:0x436a),AL        ; [CPU_ALU] |1255| 
         000008e8 436A 
    6401                      .dwpsn  file "C:/ti/C2000Ware_DigitalPower_SDK_3_00_01_00/c2000ware/driverlib/f28004x/driverlib/epwm.
    6402 000008e9 F4A6          MOV       *(0:0x436d),AR6       ; [CPU_ALU] |2409| 
         000008ea 436D 
    6403                      .dwpsn  file "C:/ti/C2000Ware_DigitalPower_SDK_3_00_01_00/c2000ware/driverlib/f28004x/driverlib/hrpwm
    6404 000008eb F4A9          MOV       *(0:0x436c),AL        ; [CPU_ALU] |1262| 
         000008ec 436C 
    6405                      .dwpsn  file "C:/Users/a0230328/workspace_v10/bts_F2800x_4ch_v2/libraries/DCL/DCLF32.h",line 1458,col
    6406 000008ed E2AF!         MOV32     R2H,@$BLOCKED(||BTS_ctrl_cc_ch4||)+6 ; [CPU_FPU] |1458| 
         000008ee 0206 
    6407 000008ef E2AF!         MOV32     R3H,@$BLOCKED(||BTS_ctrl_cc_ch4||)+2 ; [CPU_FPU] |1458| 
         000008f0 0302 
    6408 000008f1 E700          MPYF32    R3H,R1H,R3H           ; [CPU_FPU] |1458| 
         000008f2 00CB 
    6409              
    6410                      MOV32     R4H,@$BLOCKED(||BTS_ctrl_cc_ch4||)+12 ; [CPU_FPU] |1458| 
    6411 000008f3 E304! ||      MPYF32    R2H,R0H,R2H           ; [CPU_FPU] |1458| 
         000008f4 140C 
    6412              
TMS320C2000 Assembler PC v20.2.1 Mon Nov  2 17:14:28 2020

Copyright (c) 1996-2018 Texas Instruments Incorporated
bts_main.asm                                                         PAGE  138

    6413 000008f5 E710          ADDF32    R3H,R3H,R4H           ; [CPU_FPU] |1458| 
         000008f6 011B 
    6414 000008f7 7700          NOP       ; [CPU_ALU] 
    6415 000008f8 E720          SUBF32    R2H,R3H,R2H           ; [CPU_FPU] |1458| 
         000008f9 009A 
    6416 000008fa 7700          NOP       ; [CPU_ALU] 
    6417 000008fb E203!         MOV32     @$BLOCKED(||BTS_ctrl_cc_ch4||)+10,R2H ; [CPU_FPU] |1458| 
         000008fc 020A 
    6418                      .dwpsn  file "C:/Users/a0230328/workspace_v10/bts_F2800x_4ch_v2/libraries/DCL/DCLF32.h",line 1459,col
    6419 000008fd E2AF!         MOV32     R2H,@$BLOCKED(||BTS_ctrl_cc_ch4||)+8 ; [CPU_FPU] |1459| 
         000008fe 0208 
    6420              
    6421                      MOV32     R3H,@$BLOCKED(||BTS_ctrl_cc_ch4||)+4 ; [CPU_FPU] |1459| 
    6422 000008ff E304! ||      MPYF32    R2H,R0H,R2H           ; [CPU_FPU] |1459| 
         00000900 1304 
    6423              
    6424 00000901 E700          MPYF32    R1H,R1H,R3H           ; [CPU_FPU] |1459| 
         00000902 00C9 
    6425 00000903 761F!         MOVW      DP,#||BTS_ctrlLoopVariable_ch4||+26 ; [CPU_ARAU] 
         00000904 0000 
    6426                      .dwpsn  file "C:/Users/a0230328/workspace_v10/bts_F2800x_4ch_v2/bts.h",line 395,column 5,is_stmt,isa 
    6427 00000905 E203!         MOV32     @$BLOCKED(||BTS_ctrlLoopVariable_ch4||)+28,R0H ; [CPU_FPU] |395| 
         00000906 001C 
    6428                      .dwpsn  file "C:/Users/a0230328/workspace_v10/bts_F2800x_4ch_v2/bts.h",line 394,column 5,is_stmt,isa 
    6429              
    6430 00000907 E024!         SUBF32    R1H,R1H,R2H           ; [CPU_FPU] |1459| 
         00000908 481A 
    6431              ||      MOV32     @$BLOCKED(||BTS_ctrlLoopVariable_ch4||)+26,R0H ; [CPU_FPU] |394| 
    6432              
    6433 00000909 761F!         MOVW      DP,#||BTS_ctrl_cc_ch4||+12 ; [CPU_ARAU] 
         0000090a 0000 
    6434                      .dwpsn  file "C:/Users/a0230328/workspace_v10/bts_F2800x_4ch_v2/libraries/DCL/DCLF32.h",line 1459,col
    6435 0000090b E203!         MOV32     @$BLOCKED(||BTS_ctrl_cc_ch4||)+12,R1H ; [CPU_FPU] |1459| 
         0000090c 010C 
    6436 0000090d       ||$C$L118||:    
    6437                      .dwpsn  file "C:\ti\C2000Ware_DigitalPower_SDK_3_00_01_00\c2000ware\driverlib\f28004x\driverlib\inter
    6438 0000090d 9A01          MOVB      AL,#1                 ; [CPU_ALU] |429| 
    6439 0000090e F4A9          MOV       *(0:0x0ce1),AL        ; [CPU_ALU] |429| 
         0000090f 0CE1 
    6440 00000910 FE88          SUBB      SP,#8                 ; [CPU_ARAU] 
    6441                      .dwcfi  cfa_offset, -16
    6442 00000911 E562          RESTORE   ; [CPU_FPU] 
    6443 00000912 FFF1          POP       RB                    ; [CPU_FPU] 
    6444                      .dwcfi  cfa_offset, -14
    6445                      .dwcfi  restore_reg, 74
    6446 00000913 C5BE          MOVL      XAR7,*--SP            ; [CPU_ALU] 
    6447                      .dwcfi  cfa_offset, -12
    6448                      .dwcfi  restore_reg, 18
    6449 00000914 C4BE          MOVL      XAR6,*--SP            ; [CPU_ALU] 
    6450                      .dwcfi  cfa_offset, -10
    6451                      .dwcfi  restore_reg, 16
    6452 00000915 83BE          MOVL      XAR5,*--SP            ; [CPU_ALU] 
    6453                      .dwcfi  cfa_offset, -8
    6454                      .dwcfi  restore_reg, 14
    6455 00000916 8ABE          MOVL      XAR4,*--SP            ; [CPU_ALU] 
TMS320C2000 Assembler PC v20.2.1 Mon Nov  2 17:14:28 2020

Copyright (c) 1996-2018 Texas Instruments Incorporated
bts_main.asm                                                         PAGE  139

    6456                      .dwcfi  cfa_offset, -6
    6457                      .dwcfi  restore_reg, 12
    6458 00000917 87BE          MOVL      XT,*--SP              ; [CPU_ALU] 
    6459                      .dwcfi  cfa_offset, -4
    6460                      .dwcfi  restore_reg, 22
    6461                      .dwcfi  restore_reg, 21
    6462 00000918 0003          POP       AR1H:AR0H             ; [CPU_ALU] 
    6463                      .dwcfi  cfa_offset, -2
    6464                      .dwcfi  restore_reg, 5
    6465                      .dwcfi  restore_reg, 7
    6466 00000919 7617          NASP      ; [CPU_ALU] 
    6467              $C$DW$279       .dwtag  DW_TAG_TI_branch
    6468                      .dwattr $C$DW$279, DW_AT_low_pc(0x00)
    6469                      .dwattr $C$DW$279, DW_AT_TI_return
    6470              
    6471 0000091a 7602          IRET      ; [CPU_ALU] 
    6472                      ; return occurs ; [] 
    6473                      .dwattr $C$DW$238, DW_AT_TI_end_file("../bts_main.c")
    6474                      .dwattr $C$DW$238, DW_AT_TI_end_line(0xbc)
    6475                      .dwattr $C$DW$238, DW_AT_TI_end_column(0x01)
    6476                      .dwendentry
    6477                      .dwendtag $C$DW$238
    6478              
    6479              ;**************************************************************
    6480              ;* UNDEFINED EXTERNAL REFERENCES                              *
    6481              ;**************************************************************
    6482                      .global ||SPI_clearInterruptStatus||
    6483                      .global ||BTS_HAL_setupDevice||
    6484                      .global ||BTS_HAL_setupSyncBuckPinsGpio||
    6485                      .global ||BTS_HAL_disableEpwmCounting||
    6486                      .global ||BTS_HAL_setupSyncBuckPwm||
    6487                      .global ||BTS_setupHrpwmMepScaleFactor||
    6488                      .global ||BTS_HAL_SetupSpiPinsGpio||
    6489                      .global ||BTS_HAL_SetupSpi||
    6490                      .global ||BTS_HAL_setupExAdcGpio||
    6491                      .global ||BTS_HAL_setupExAdc||
    6492                      .global ||BTS_initUserVariables||
    6493                      .global ||BTS_initProgramVariables||
    6494                      .global ||BTS_initController||
    6495                      .global ||BTS_setupSfra||
    6496                      .global ||BTS_setupSfraGui||
    6497                      .global ||BTS_HAL_setupInterruptTrigger||
    6498                      .global ||BTS_HAL_setupInterrupt||
    6499                      .global ||BTS_HAL_enableEpwmCounting||
    6500                      .global ||BTS_HAL_setupSyncBuckPinsEpwm||
    6501                      .global ||BTS_updateReference||
    6502                      .global ||BTS_monitor_Iout_Vout||
    6503                      .global ||BTS_ExAdcRxflag||
    6504                      .global ||BTS_sfoStatus||
    6505                      .global ||SFO||
    6506                      .global ||MEP_ScaleFactor||
    6507                      .global ||BTS_ADC1||
    6508                      .global ||BTS_ctrl_cc_ch1||
    6509                      .global ||BTS_ctrl_cc_ch2||
    6510                      .global ||BTS_ctrl_cc_ch3||
TMS320C2000 Assembler PC v20.2.1 Mon Nov  2 17:14:28 2020

Copyright (c) 1996-2018 Texas Instruments Incorporated
bts_main.asm                                                         PAGE  140

    6511                      .global ||BTS_ctrl_cc_ch4||
    6512                      .global ||BTS_ctrl_cv_ch1||
    6513                      .global ||BTS_ctrl_cv_ch2||
    6514                      .global ||BTS_ctrl_cv_ch3||
    6515                      .global ||BTS_ctrl_cv_ch4||
    6516                      .global ||BTS_userInput_ch1||
    6517                      .global ||BTS_userInput_ch2||
    6518                      .global ||BTS_userInput_ch3||
    6519                      .global ||BTS_userInput_ch4||
    6520                      .global ||BTS_ctrlLoopVariable_ch1||
    6521                      .global ||BTS_ctrlLoopVariable_ch2||
    6522                      .global ||BTS_ctrlLoopVariable_ch3||
    6523                      .global ||BTS_ctrlLoopVariable_ch4||
    6524                      .global ||BTS_measValues_ch1||
    6525                      .global ||BTS_measValues_ch2||
    6526                      .global ||BTS_measValues_ch3||
    6527                      .global ||BTS_measValues_ch4||
    6528                      .global ||__c28xabi_cmpull||
    6529              ;**************************************************************
    6530              ;* SECTION GROUPS                                             *
    6531              ;**************************************************************
    6532                      .group    "__fpclassify", 1
    6533                      .gmember  ".text:__fpclassify"
    6534                      .endgroup
    6535                      .group    "__fpclassifyf", 1
    6536                      .gmember  ".text:__fpclassifyf"
    6537                      .endgroup
    6538                      .group    "__fpclassifyl", 1
    6539                      .gmember  ".text:__fpclassifyl"
    6540                      .endgroup
    6541                      .group    "__isfinite", 1
    6542                      .gmember  ".text:__isfinite"
    6543                      .endgroup
    6544                      .group    "__isfinitef", 1
    6545                      .gmember  ".text:__isfinitef"
    6546                      .endgroup
    6547                      .group    "__isfinitel", 1
    6548                      .gmember  ".text:__isfinitel"
    6549                      .endgroup
    6550                      .group    "__isinf", 1
    6551                      .gmember  ".text:__isinf"
    6552                      .endgroup
    6553                      .group    "__isinff", 1
    6554                      .gmember  ".text:__isinff"
    6555                      .endgroup
    6556                      .group    "__isinfl", 1
    6557                      .gmember  ".text:__isinfl"
    6558                      .endgroup
    6559                      .group    "__isnan", 1
    6560                      .gmember  ".text:__isnan"
    6561                      .endgroup
    6562                      .group    "__isnanf", 1
    6563                      .gmember  ".text:__isnanf"
    6564                      .endgroup
    6565                      .group    "__isnanl", 1
TMS320C2000 Assembler PC v20.2.1 Mon Nov  2 17:14:28 2020

Copyright (c) 1996-2018 Texas Instruments Incorporated
bts_main.asm                                                         PAGE  141

    6566                      .gmember  ".text:__isnanl"
    6567                      .endgroup
    6568                      .group    "__isnormal", 1
    6569                      .gmember  ".text:__isnormal"
    6570                      .endgroup
    6571                      .group    "__isnormalf", 1
    6572                      .gmember  ".text:__isnormalf"
    6573                      .endgroup
    6574                      .group    "__isnormall", 1
    6575                      .gmember  ".text:__isnormall"
    6576                      .endgroup
    6577                      .group    "__relaxed_atan2f", 1
    6578                      .gmember  ".text:__relaxed_atan2f"
    6579                      .endgroup
    6580                      .group    "__relaxed_atanf", 1
    6581                      .gmember  ".text:__relaxed_atanf"
    6582                      .endgroup
    6583                      .group    "__relaxed_cosf", 1
    6584                      .gmember  ".text:__relaxed_cosf"
    6585                      .endgroup
    6586                      .group    "__relaxed_sinf", 1
    6587                      .gmember  ".text:__relaxed_sinf"
    6588                      .endgroup
    6589                      .group    "__relaxed_sqrtf", 1
    6590                      .gmember  ".text:__relaxed_sqrtf"
    6591                      .endgroup
    6592                      .group    "__signbit", 1
    6593                      .gmember  ".text:__signbit"
    6594                      .endgroup
    6595                      .group    "__signbitf", 1
    6596                      .gmember  ".text:__signbitf"
    6597                      .endgroup
    6598                      .group    "__signbitl", 1
    6599                      .gmember  ".text:__signbitl"
    6600                      .endgroup
    6601              
    6602              
    6603              ;***************************************************************
    6604              ;* BUILD ATTRIBUTES                                            *
    6605              ;***************************************************************
    6606                      .battr "c28xabi", Tag_File, 1, Tag_float_args(1)
    6607                      .battr "c28xabi", Tag_File, 1, Tag_double_args(1)
    6608                      .dwattr $C$DW$CU, DW_AT_language(DW_LANG_C)
    6609              
    6610              ;***************************************************************
    6611              ;* DWARF CIE ENTRIES                                           *
    6612              ;***************************************************************
    6613              
    6614              $C$DW$CIE       .dwcie 26
    6615                      .dwcfi  cfa_register, 20
    6616                      .dwcfi  cfa_offset, 0
    6617                      .dwcfi  same_value, 28
    6618                      .dwcfi  same_value, 6
    6619                      .dwcfi  same_value, 7
    6620                      .dwcfi  same_value, 8
TMS320C2000 Assembler PC v20.2.1 Mon Nov  2 17:14:28 2020

Copyright (c) 1996-2018 Texas Instruments Incorporated
bts_main.asm                                                         PAGE  142

    6621                      .dwcfi  same_value, 9
    6622                      .dwcfi  same_value, 10
    6623                      .dwcfi  same_value, 11
    6624                      .dwcfi  same_value, 59
    6625                      .dwcfi  same_value, 63
    6626                      .dwcfi  same_value, 67
    6627                      .dwcfi  same_value, 71
    6628                      .dwendentry
    6629                      .dwendtag $C$DW$CU
    6630              
    6631              
    6632              ;***************************************************************
    6633              ;* TYPE INFORMATION                                            *
    6634              ;***************************************************************
    6635              
    6636              $C$DW$TU$51     .dwtag  DW_TAG_type_unit
    6637                      .dwmtype  $C$DW$T$51
    6638              
    6639              $C$DW$T$51      .dwtag  DW_TAG_enumeration_type
    6640                      .dwattr $C$DW$T$51, DW_AT_byte_size(0x01)
    6641              $C$DW$280       .dwtag  DW_TAG_enumerator
    6642                      .dwattr $C$DW$280, DW_AT_name("EPWM_COUNTER_COMPARE_A")
    6643                      .dwattr $C$DW$280, DW_AT_const_value(0x00)
    6644                      .dwattr $C$DW$280, DW_AT_decl_file("C:/ti/C2000Ware_DigitalPower_SDK_3_00_01_00/c2000ware/driverlib/f
    6645                      .dwattr $C$DW$280, DW_AT_decl_line(0x10b)
    6646                      .dwattr $C$DW$280, DW_AT_decl_column(0x05)
    6647              
    6648              $C$DW$281       .dwtag  DW_TAG_enumerator
    6649                      .dwattr $C$DW$281, DW_AT_name("EPWM_COUNTER_COMPARE_B")
    6650                      .dwattr $C$DW$281, DW_AT_const_value(0x02)
    6651                      .dwattr $C$DW$281, DW_AT_decl_file("C:/ti/C2000Ware_DigitalPower_SDK_3_00_01_00/c2000ware/driverlib/f
    6652                      .dwattr $C$DW$281, DW_AT_decl_line(0x10c)
    6653                      .dwattr $C$DW$281, DW_AT_decl_column(0x05)
    6654              
    6655              $C$DW$282       .dwtag  DW_TAG_enumerator
    6656                      .dwattr $C$DW$282, DW_AT_name("EPWM_COUNTER_COMPARE_C")
    6657                      .dwattr $C$DW$282, DW_AT_const_value(0x05)
    6658                      .dwattr $C$DW$282, DW_AT_decl_file("C:/ti/C2000Ware_DigitalPower_SDK_3_00_01_00/c2000ware/driverlib/f
    6659                      .dwattr $C$DW$282, DW_AT_decl_line(0x10d)
    6660                      .dwattr $C$DW$282, DW_AT_decl_column(0x05)
    6661              
    6662              $C$DW$283       .dwtag  DW_TAG_enumerator
    6663                      .dwattr $C$DW$283, DW_AT_name("EPWM_COUNTER_COMPARE_D")
    6664                      .dwattr $C$DW$283, DW_AT_const_value(0x07)
    6665                      .dwattr $C$DW$283, DW_AT_decl_file("C:/ti/C2000Ware_DigitalPower_SDK_3_00_01_00/c2000ware/driverlib/f
    6666                      .dwattr $C$DW$283, DW_AT_decl_line(0x10e)
    6667                      .dwattr $C$DW$283, DW_AT_decl_column(0x05)
    6668              
    6669                      .dwattr $C$DW$T$51, DW_AT_decl_file("C:/ti/C2000Ware_DigitalPower_SDK_3_00_01_00/c2000ware/driverlib/
    6670                      .dwattr $C$DW$T$51, DW_AT_decl_line(0x10a)
    6671                      .dwattr $C$DW$T$51, DW_AT_decl_column(0x01)
    6672                      .dwendtag $C$DW$T$51
    6673              
    6674                      .dwendtag $C$DW$TU$51
    6675              
TMS320C2000 Assembler PC v20.2.1 Mon Nov  2 17:14:28 2020

Copyright (c) 1996-2018 Texas Instruments Incorporated
bts_main.asm                                                         PAGE  143

    6676              
    6677              $C$DW$TU$52     .dwtag  DW_TAG_type_unit
    6678                      .dwmtype  $C$DW$T$52
    6679              $C$DW$T$52      .dwtag  DW_TAG_typedef
    6680                      .dwattr $C$DW$T$52, DW_AT_name("EPWM_CounterCompareModule")
    6681                      .dwattr $C$DW$T$52, DW_AT_type(*$C$DW$T$51)
    6682                      .dwattr $C$DW$T$52, DW_AT_decl_file("C:/ti/C2000Ware_DigitalPower_SDK_3_00_01_00/c2000ware/driverlib/
    6683                      .dwattr $C$DW$T$52, DW_AT_decl_line(0x10f)
    6684                      .dwattr $C$DW$T$52, DW_AT_decl_column(0x03)
    6685              
    6686                      .dwendtag $C$DW$TU$52
    6687              
    6688              
    6689              $C$DW$TU$53     .dwtag  DW_TAG_type_unit
    6690                      .dwmtype  $C$DW$T$53
    6691              
    6692              $C$DW$T$53      .dwtag  DW_TAG_enumeration_type
    6693                      .dwattr $C$DW$T$53, DW_AT_byte_size(0x01)
    6694              $C$DW$284       .dwtag  DW_TAG_enumerator
    6695                      .dwattr $C$DW$284, DW_AT_name("EPWM_AQ_OUTPUT_A")
    6696                      .dwattr $C$DW$284, DW_AT_const_value(0x00)
    6697                      .dwattr $C$DW$284, DW_AT_decl_file("C:/ti/C2000Ware_DigitalPower_SDK_3_00_01_00/c2000ware/driverlib/f
    6698                      .dwattr $C$DW$284, DW_AT_decl_line(0x20e)
    6699                      .dwattr $C$DW$284, DW_AT_decl_column(0x05)
    6700              
    6701              $C$DW$285       .dwtag  DW_TAG_enumerator
    6702                      .dwattr $C$DW$285, DW_AT_name("EPWM_AQ_OUTPUT_B")
    6703                      .dwattr $C$DW$285, DW_AT_const_value(0x02)
    6704                      .dwattr $C$DW$285, DW_AT_decl_file("C:/ti/C2000Ware_DigitalPower_SDK_3_00_01_00/c2000ware/driverlib/f
    6705                      .dwattr $C$DW$285, DW_AT_decl_line(0x20f)
    6706                      .dwattr $C$DW$285, DW_AT_decl_column(0x05)
    6707              
    6708                      .dwattr $C$DW$T$53, DW_AT_decl_file("C:/ti/C2000Ware_DigitalPower_SDK_3_00_01_00/c2000ware/driverlib/
    6709                      .dwattr $C$DW$T$53, DW_AT_decl_line(0x20d)
    6710                      .dwattr $C$DW$T$53, DW_AT_decl_column(0x01)
    6711                      .dwendtag $C$DW$T$53
    6712              
    6713                      .dwendtag $C$DW$TU$53
    6714              
    6715              
    6716              $C$DW$TU$54     .dwtag  DW_TAG_type_unit
    6717                      .dwmtype  $C$DW$T$54
    6718              $C$DW$T$54      .dwtag  DW_TAG_typedef
    6719                      .dwattr $C$DW$T$54, DW_AT_name("EPWM_ActionQualifierOutputModule")
    6720                      .dwattr $C$DW$T$54, DW_AT_type(*$C$DW$T$53)
    6721                      .dwattr $C$DW$T$54, DW_AT_decl_file("C:/ti/C2000Ware_DigitalPower_SDK_3_00_01_00/c2000ware/driverlib/
    6722                      .dwattr $C$DW$T$54, DW_AT_decl_line(0x210)
    6723                      .dwattr $C$DW$T$54, DW_AT_decl_column(0x03)
    6724              
    6725                      .dwendtag $C$DW$TU$54
    6726              
    6727              
    6728              $C$DW$TU$55     .dwtag  DW_TAG_type_unit
    6729                      .dwmtype  $C$DW$T$55
    6730              
TMS320C2000 Assembler PC v20.2.1 Mon Nov  2 17:14:28 2020

Copyright (c) 1996-2018 Texas Instruments Incorporated
bts_main.asm                                                         PAGE  144

    6731              $C$DW$T$55      .dwtag  DW_TAG_enumeration_type
    6732                      .dwattr $C$DW$T$55, DW_AT_byte_size(0x01)
    6733              $C$DW$286       .dwtag  DW_TAG_enumerator
    6734                      .dwattr $C$DW$286, DW_AT_name("EPWM_AQ_SW_DISABLED")
    6735                      .dwattr $C$DW$286, DW_AT_const_value(0x00)
    6736                      .dwattr $C$DW$286, DW_AT_decl_file("C:/ti/C2000Ware_DigitalPower_SDK_3_00_01_00/c2000ware/driverlib/f
    6737                      .dwattr $C$DW$286, DW_AT_decl_line(0x19b)
    6738                      .dwattr $C$DW$286, DW_AT_decl_column(0x05)
    6739              
    6740              $C$DW$287       .dwtag  DW_TAG_enumerator
    6741                      .dwattr $C$DW$287, DW_AT_name("EPWM_AQ_SW_OUTPUT_LOW")
    6742                      .dwattr $C$DW$287, DW_AT_const_value(0x01)
    6743                      .dwattr $C$DW$287, DW_AT_decl_file("C:/ti/C2000Ware_DigitalPower_SDK_3_00_01_00/c2000ware/driverlib/f
    6744                      .dwattr $C$DW$287, DW_AT_decl_line(0x19c)
    6745                      .dwattr $C$DW$287, DW_AT_decl_column(0x05)
    6746              
    6747              $C$DW$288       .dwtag  DW_TAG_enumerator
    6748                      .dwattr $C$DW$288, DW_AT_name("EPWM_AQ_SW_OUTPUT_HIGH")
    6749                      .dwattr $C$DW$288, DW_AT_const_value(0x02)
    6750                      .dwattr $C$DW$288, DW_AT_decl_file("C:/ti/C2000Ware_DigitalPower_SDK_3_00_01_00/c2000ware/driverlib/f
    6751                      .dwattr $C$DW$288, DW_AT_decl_line(0x19d)
    6752                      .dwattr $C$DW$288, DW_AT_decl_column(0x05)
    6753              
    6754                      .dwattr $C$DW$T$55, DW_AT_decl_file("C:/ti/C2000Ware_DigitalPower_SDK_3_00_01_00/c2000ware/driverlib/
    6755                      .dwattr $C$DW$T$55, DW_AT_decl_line(0x19a)
    6756                      .dwattr $C$DW$T$55, DW_AT_decl_column(0x01)
    6757                      .dwendtag $C$DW$T$55
    6758              
    6759                      .dwendtag $C$DW$TU$55
    6760              
    6761              
    6762              $C$DW$TU$56     .dwtag  DW_TAG_type_unit
    6763                      .dwmtype  $C$DW$T$56
    6764              $C$DW$T$56      .dwtag  DW_TAG_typedef
    6765                      .dwattr $C$DW$T$56, DW_AT_name("EPWM_ActionQualifierSWOutput")
    6766                      .dwattr $C$DW$T$56, DW_AT_type(*$C$DW$T$55)
    6767                      .dwattr $C$DW$T$56, DW_AT_decl_file("C:/ti/C2000Ware_DigitalPower_SDK_3_00_01_00/c2000ware/driverlib/
    6768                      .dwattr $C$DW$T$56, DW_AT_decl_line(0x19e)
    6769                      .dwattr $C$DW$T$56, DW_AT_decl_column(0x03)
    6770              
    6771                      .dwendtag $C$DW$TU$56
    6772              
    6773              
    6774              $C$DW$TU$57     .dwtag  DW_TAG_type_unit
    6775                      .dwmtype  $C$DW$T$57
    6776              
    6777              $C$DW$T$57      .dwtag  DW_TAG_enumeration_type
    6778                      .dwattr $C$DW$T$57, DW_AT_byte_size(0x01)
    6779              $C$DW$289       .dwtag  DW_TAG_enumerator
    6780                      .dwattr $C$DW$289, DW_AT_name("EPWM_TZ_ACTION_EVENT_TZA")
    6781                      .dwattr $C$DW$289, DW_AT_const_value(0x00)
    6782                      .dwattr $C$DW$289, DW_AT_decl_file("C:/ti/C2000Ware_DigitalPower_SDK_3_00_01_00/c2000ware/driverlib/f
    6783                      .dwattr $C$DW$289, DW_AT_decl_line(0x2fc)
    6784                      .dwattr $C$DW$289, DW_AT_decl_column(0x05)
    6785              
TMS320C2000 Assembler PC v20.2.1 Mon Nov  2 17:14:28 2020

Copyright (c) 1996-2018 Texas Instruments Incorporated
bts_main.asm                                                         PAGE  145

    6786              $C$DW$290       .dwtag  DW_TAG_enumerator
    6787                      .dwattr $C$DW$290, DW_AT_name("EPWM_TZ_ACTION_EVENT_TZB")
    6788                      .dwattr $C$DW$290, DW_AT_const_value(0x02)
    6789                      .dwattr $C$DW$290, DW_AT_decl_file("C:/ti/C2000Ware_DigitalPower_SDK_3_00_01_00/c2000ware/driverlib/f
    6790                      .dwattr $C$DW$290, DW_AT_decl_line(0x2fd)
    6791                      .dwattr $C$DW$290, DW_AT_decl_column(0x05)
    6792              
    6793              $C$DW$291       .dwtag  DW_TAG_enumerator
    6794                      .dwattr $C$DW$291, DW_AT_name("EPWM_TZ_ACTION_EVENT_DCAEVT1")
    6795                      .dwattr $C$DW$291, DW_AT_const_value(0x04)
    6796                      .dwattr $C$DW$291, DW_AT_decl_file("C:/ti/C2000Ware_DigitalPower_SDK_3_00_01_00/c2000ware/driverlib/f
    6797                      .dwattr $C$DW$291, DW_AT_decl_line(0x2fe)
    6798                      .dwattr $C$DW$291, DW_AT_decl_column(0x05)
    6799              
    6800              $C$DW$292       .dwtag  DW_TAG_enumerator
    6801                      .dwattr $C$DW$292, DW_AT_name("EPWM_TZ_ACTION_EVENT_DCAEVT2")
    6802                      .dwattr $C$DW$292, DW_AT_const_value(0x06)
    6803                      .dwattr $C$DW$292, DW_AT_decl_file("C:/ti/C2000Ware_DigitalPower_SDK_3_00_01_00/c2000ware/driverlib/f
    6804                      .dwattr $C$DW$292, DW_AT_decl_line(0x2ff)
    6805                      .dwattr $C$DW$292, DW_AT_decl_column(0x05)
    6806              
    6807              $C$DW$293       .dwtag  DW_TAG_enumerator
    6808                      .dwattr $C$DW$293, DW_AT_name("EPWM_TZ_ACTION_EVENT_DCBEVT1")
    6809                      .dwattr $C$DW$293, DW_AT_const_value(0x08)
    6810                      .dwattr $C$DW$293, DW_AT_decl_file("C:/ti/C2000Ware_DigitalPower_SDK_3_00_01_00/c2000ware/driverlib/f
    6811                      .dwattr $C$DW$293, DW_AT_decl_line(0x300)
    6812                      .dwattr $C$DW$293, DW_AT_decl_column(0x05)
    6813              
    6814              $C$DW$294       .dwtag  DW_TAG_enumerator
    6815                      .dwattr $C$DW$294, DW_AT_name("EPWM_TZ_ACTION_EVENT_DCBEVT2")
    6816                      .dwattr $C$DW$294, DW_AT_const_value(0x0a)
    6817                      .dwattr $C$DW$294, DW_AT_decl_file("C:/ti/C2000Ware_DigitalPower_SDK_3_00_01_00/c2000ware/driverlib/f
    6818                      .dwattr $C$DW$294, DW_AT_decl_line(0x301)
    6819                      .dwattr $C$DW$294, DW_AT_decl_column(0x05)
    6820              
    6821                      .dwattr $C$DW$T$57, DW_AT_decl_file("C:/ti/C2000Ware_DigitalPower_SDK_3_00_01_00/c2000ware/driverlib/
    6822                      .dwattr $C$DW$T$57, DW_AT_decl_line(0x2fb)
    6823                      .dwattr $C$DW$T$57, DW_AT_decl_column(0x01)
    6824                      .dwendtag $C$DW$T$57
    6825              
    6826                      .dwendtag $C$DW$TU$57
    6827              
    6828              
    6829              $C$DW$TU$58     .dwtag  DW_TAG_type_unit
    6830                      .dwmtype  $C$DW$T$58
    6831              $C$DW$T$58      .dwtag  DW_TAG_typedef
    6832                      .dwattr $C$DW$T$58, DW_AT_name("EPWM_TripZoneEvent")
    6833                      .dwattr $C$DW$T$58, DW_AT_type(*$C$DW$T$57)
    6834                      .dwattr $C$DW$T$58, DW_AT_decl_file("C:/ti/C2000Ware_DigitalPower_SDK_3_00_01_00/c2000ware/driverlib/
    6835                      .dwattr $C$DW$T$58, DW_AT_decl_line(0x302)
    6836                      .dwattr $C$DW$T$58, DW_AT_decl_column(0x03)
    6837              
    6838                      .dwendtag $C$DW$TU$58
    6839              
    6840              
TMS320C2000 Assembler PC v20.2.1 Mon Nov  2 17:14:28 2020

Copyright (c) 1996-2018 Texas Instruments Incorporated
bts_main.asm                                                         PAGE  146

    6841              $C$DW$TU$59     .dwtag  DW_TAG_type_unit
    6842                      .dwmtype  $C$DW$T$59
    6843              
    6844              $C$DW$T$59      .dwtag  DW_TAG_enumeration_type
    6845                      .dwattr $C$DW$T$59, DW_AT_byte_size(0x01)
    6846              $C$DW$295       .dwtag  DW_TAG_enumerator
    6847                      .dwattr $C$DW$295, DW_AT_name("EPWM_TZ_ACTION_HIGH_Z")
    6848                      .dwattr $C$DW$295, DW_AT_const_value(0x00)
    6849                      .dwattr $C$DW$295, DW_AT_decl_file("C:/ti/C2000Ware_DigitalPower_SDK_3_00_01_00/c2000ware/driverlib/f
    6850                      .dwattr $C$DW$295, DW_AT_decl_line(0x30c)
    6851                      .dwattr $C$DW$295, DW_AT_decl_column(0x05)
    6852              
    6853              $C$DW$296       .dwtag  DW_TAG_enumerator
    6854                      .dwattr $C$DW$296, DW_AT_name("EPWM_TZ_ACTION_HIGH")
    6855                      .dwattr $C$DW$296, DW_AT_const_value(0x01)
    6856                      .dwattr $C$DW$296, DW_AT_decl_file("C:/ti/C2000Ware_DigitalPower_SDK_3_00_01_00/c2000ware/driverlib/f
    6857                      .dwattr $C$DW$296, DW_AT_decl_line(0x30d)
    6858                      .dwattr $C$DW$296, DW_AT_decl_column(0x05)
    6859              
    6860              $C$DW$297       .dwtag  DW_TAG_enumerator
    6861                      .dwattr $C$DW$297, DW_AT_name("EPWM_TZ_ACTION_LOW")
    6862                      .dwattr $C$DW$297, DW_AT_const_value(0x02)
    6863                      .dwattr $C$DW$297, DW_AT_decl_file("C:/ti/C2000Ware_DigitalPower_SDK_3_00_01_00/c2000ware/driverlib/f
    6864                      .dwattr $C$DW$297, DW_AT_decl_line(0x30e)
    6865                      .dwattr $C$DW$297, DW_AT_decl_column(0x05)
    6866              
    6867              $C$DW$298       .dwtag  DW_TAG_enumerator
    6868                      .dwattr $C$DW$298, DW_AT_name("EPWM_TZ_ACTION_DISABLE")
    6869                      .dwattr $C$DW$298, DW_AT_const_value(0x03)
    6870                      .dwattr $C$DW$298, DW_AT_decl_file("C:/ti/C2000Ware_DigitalPower_SDK_3_00_01_00/c2000ware/driverlib/f
    6871                      .dwattr $C$DW$298, DW_AT_decl_line(0x30f)
    6872                      .dwattr $C$DW$298, DW_AT_decl_column(0x05)
    6873              
    6874                      .dwattr $C$DW$T$59, DW_AT_decl_file("C:/ti/C2000Ware_DigitalPower_SDK_3_00_01_00/c2000ware/driverlib/
    6875                      .dwattr $C$DW$T$59, DW_AT_decl_line(0x30b)
    6876                      .dwattr $C$DW$T$59, DW_AT_decl_column(0x01)
    6877                      .dwendtag $C$DW$T$59
    6878              
    6879                      .dwendtag $C$DW$TU$59
    6880              
    6881              
    6882              $C$DW$TU$60     .dwtag  DW_TAG_type_unit
    6883                      .dwmtype  $C$DW$T$60
    6884              $C$DW$T$60      .dwtag  DW_TAG_typedef
    6885                      .dwattr $C$DW$T$60, DW_AT_name("EPWM_TripZoneAction")
    6886                      .dwattr $C$DW$T$60, DW_AT_type(*$C$DW$T$59)
    6887                      .dwattr $C$DW$T$60, DW_AT_decl_file("C:/ti/C2000Ware_DigitalPower_SDK_3_00_01_00/c2000ware/driverlib/
    6888                      .dwattr $C$DW$T$60, DW_AT_decl_line(0x310)
    6889                      .dwattr $C$DW$T$60, DW_AT_decl_column(0x03)
    6890              
    6891                      .dwendtag $C$DW$TU$60
    6892              
    6893              
    6894              $C$DW$TU$61     .dwtag  DW_TAG_type_unit
    6895                      .dwmtype  $C$DW$T$61
TMS320C2000 Assembler PC v20.2.1 Mon Nov  2 17:14:28 2020

Copyright (c) 1996-2018 Texas Instruments Incorporated
bts_main.asm                                                         PAGE  147

    6896              
    6897              $C$DW$T$61      .dwtag  DW_TAG_enumeration_type
    6898                      .dwattr $C$DW$T$61, DW_AT_byte_size(0x01)
    6899              $C$DW$299       .dwtag  DW_TAG_enumerator
    6900                      .dwattr $C$DW$299, DW_AT_name("HRPWM_COUNTER_COMPARE_A")
    6901                      .dwattr $C$DW$299, DW_AT_const_value(0x00)
    6902                      .dwattr $C$DW$299, DW_AT_decl_file("C:/ti/C2000Ware_DigitalPower_SDK_3_00_01_00/c2000ware/driverlib/f
    6903                      .dwattr $C$DW$299, DW_AT_decl_line(0xb3)
    6904                      .dwattr $C$DW$299, DW_AT_decl_column(0x05)
    6905              
    6906              $C$DW$300       .dwtag  DW_TAG_enumerator
    6907                      .dwattr $C$DW$300, DW_AT_name("HRPWM_COUNTER_COMPARE_B")
    6908                      .dwattr $C$DW$300, DW_AT_const_value(0x04)
    6909                      .dwattr $C$DW$300, DW_AT_decl_file("C:/ti/C2000Ware_DigitalPower_SDK_3_00_01_00/c2000ware/driverlib/f
    6910                      .dwattr $C$DW$300, DW_AT_decl_line(0xb4)
    6911                      .dwattr $C$DW$300, DW_AT_decl_column(0x05)
    6912              
    6913                      .dwattr $C$DW$T$61, DW_AT_decl_file("C:/ti/C2000Ware_DigitalPower_SDK_3_00_01_00/c2000ware/driverlib/
    6914                      .dwattr $C$DW$T$61, DW_AT_decl_line(0xb2)
    6915                      .dwattr $C$DW$T$61, DW_AT_decl_column(0x01)
    6916                      .dwendtag $C$DW$T$61
    6917              
    6918                      .dwendtag $C$DW$TU$61
    6919              
    6920              
    6921              $C$DW$TU$62     .dwtag  DW_TAG_type_unit
    6922                      .dwmtype  $C$DW$T$62
    6923              $C$DW$T$62      .dwtag  DW_TAG_typedef
    6924                      .dwattr $C$DW$T$62, DW_AT_name("HRPWM_CounterCompareModule")
    6925                      .dwattr $C$DW$T$62, DW_AT_type(*$C$DW$T$61)
    6926                      .dwattr $C$DW$T$62, DW_AT_decl_file("C:/ti/C2000Ware_DigitalPower_SDK_3_00_01_00/c2000ware/driverlib/
    6927                      .dwattr $C$DW$T$62, DW_AT_decl_line(0xb5)
    6928                      .dwattr $C$DW$T$62, DW_AT_decl_column(0x03)
    6929              
    6930                      .dwendtag $C$DW$TU$62
    6931              
    6932              
    6933              $C$DW$TU$25     .dwtag  DW_TAG_type_unit
    6934                      .dwmtype  $C$DW$T$25
    6935              
    6936              $C$DW$T$25      .dwtag  DW_TAG_structure_type
    6937                      .dwattr $C$DW$T$25, DW_AT_byte_size(0x12)
    6938              $C$DW$301       .dwtag  DW_TAG_member
    6939                      .dwattr $C$DW$301, DW_AT_type(*$C$DW$T$21)
    6940                      .dwattr $C$DW$301, DW_AT_name("response")
    6941                      .dwattr $C$DW$301, DW_AT_accessibility(DW_ACCESS_public)
    6942                      .dwattr $C$DW$301, DW_AT_decl_file("C:\Users\a0230328\workspace_v10\bts_F2800x_4ch_v2\bts_hal.h")
    6943                      .dwattr $C$DW$301, DW_AT_decl_line(0x34)
    6944                      .dwattr $C$DW$301, DW_AT_decl_column(0x17)
    6945              
    6946              $C$DW$302       .dwtag  DW_TAG_member
    6947                      .dwattr $C$DW$302, DW_AT_type(*$C$DW$T$21)
    6948                      .dwattr $C$DW$302, DW_AT_name("crc")
    6949                      .dwattr $C$DW$302, DW_AT_data_member_location[DW_OP_plus_uconst 0x1]
    6950                      .dwattr $C$DW$302, DW_AT_accessibility(DW_ACCESS_public)
TMS320C2000 Assembler PC v20.2.1 Mon Nov  2 17:14:28 2020

Copyright (c) 1996-2018 Texas Instruments Incorporated
bts_main.asm                                                         PAGE  148

    6951                      .dwattr $C$DW$302, DW_AT_decl_file("C:\Users\a0230328\workspace_v10\bts_F2800x_4ch_v2\bts_hal.h")
    6952                      .dwattr $C$DW$302, DW_AT_decl_line(0x35)
    6953                      .dwattr $C$DW$302, DW_AT_decl_column(0x17)
    6954              
    6955              $C$DW$303       .dwtag  DW_TAG_member
    6956                      .dwattr $C$DW$303, DW_AT_type(*$C$DW$T$24)
    6957                      .dwattr $C$DW$303, DW_AT_name("channel0")
    6958                      .dwattr $C$DW$303, DW_AT_data_member_location[DW_OP_plus_uconst 0x2]
    6959                      .dwattr $C$DW$303, DW_AT_accessibility(DW_ACCESS_public)
    6960                      .dwattr $C$DW$303, DW_AT_decl_file("C:\Users\a0230328\workspace_v10\bts_F2800x_4ch_v2\bts_hal.h")
    6961                      .dwattr $C$DW$303, DW_AT_decl_line(0x36)
    6962                      .dwattr $C$DW$303, DW_AT_decl_column(0x16)
    6963              
    6964              $C$DW$304       .dwtag  DW_TAG_member
    6965                      .dwattr $C$DW$304, DW_AT_type(*$C$DW$T$24)
    6966                      .dwattr $C$DW$304, DW_AT_name("channel1")
    6967                      .dwattr $C$DW$304, DW_AT_data_member_location[DW_OP_plus_uconst 0x4]
    6968                      .dwattr $C$DW$304, DW_AT_accessibility(DW_ACCESS_public)
    6969                      .dwattr $C$DW$304, DW_AT_decl_file("C:\Users\a0230328\workspace_v10\bts_F2800x_4ch_v2\bts_hal.h")
    6970                      .dwattr $C$DW$304, DW_AT_decl_line(0x37)
    6971                      .dwattr $C$DW$304, DW_AT_decl_column(0x16)
    6972              
    6973              $C$DW$305       .dwtag  DW_TAG_member
    6974                      .dwattr $C$DW$305, DW_AT_type(*$C$DW$T$24)
    6975                      .dwattr $C$DW$305, DW_AT_name("channel2")
    6976                      .dwattr $C$DW$305, DW_AT_data_member_location[DW_OP_plus_uconst 0x6]
    6977                      .dwattr $C$DW$305, DW_AT_accessibility(DW_ACCESS_public)
    6978                      .dwattr $C$DW$305, DW_AT_decl_file("C:\Users\a0230328\workspace_v10\bts_F2800x_4ch_v2\bts_hal.h")
    6979                      .dwattr $C$DW$305, DW_AT_decl_line(0x38)
    6980                      .dwattr $C$DW$305, DW_AT_decl_column(0x16)
    6981              
    6982              $C$DW$306       .dwtag  DW_TAG_member
    6983                      .dwattr $C$DW$306, DW_AT_type(*$C$DW$T$24)
    6984                      .dwattr $C$DW$306, DW_AT_name("channel3")
    6985                      .dwattr $C$DW$306, DW_AT_data_member_location[DW_OP_plus_uconst 0x8]
    6986                      .dwattr $C$DW$306, DW_AT_accessibility(DW_ACCESS_public)
    6987                      .dwattr $C$DW$306, DW_AT_decl_file("C:\Users\a0230328\workspace_v10\bts_F2800x_4ch_v2\bts_hal.h")
    6988                      .dwattr $C$DW$306, DW_AT_decl_line(0x39)
    6989                      .dwattr $C$DW$306, DW_AT_decl_column(0x16)
    6990              
    6991              $C$DW$307       .dwtag  DW_TAG_member
    6992                      .dwattr $C$DW$307, DW_AT_type(*$C$DW$T$24)
    6993                      .dwattr $C$DW$307, DW_AT_name("channel4")
    6994                      .dwattr $C$DW$307, DW_AT_data_member_location[DW_OP_plus_uconst 0xa]
    6995                      .dwattr $C$DW$307, DW_AT_accessibility(DW_ACCESS_public)
    6996                      .dwattr $C$DW$307, DW_AT_decl_file("C:\Users\a0230328\workspace_v10\bts_F2800x_4ch_v2\bts_hal.h")
    6997                      .dwattr $C$DW$307, DW_AT_decl_line(0x3a)
    6998                      .dwattr $C$DW$307, DW_AT_decl_column(0x16)
    6999              
    7000              $C$DW$308       .dwtag  DW_TAG_member
    7001                      .dwattr $C$DW$308, DW_AT_type(*$C$DW$T$24)
    7002                      .dwattr $C$DW$308, DW_AT_name("channel5")
    7003                      .dwattr $C$DW$308, DW_AT_data_member_location[DW_OP_plus_uconst 0xc]
    7004                      .dwattr $C$DW$308, DW_AT_accessibility(DW_ACCESS_public)
    7005                      .dwattr $C$DW$308, DW_AT_decl_file("C:\Users\a0230328\workspace_v10\bts_F2800x_4ch_v2\bts_hal.h")
TMS320C2000 Assembler PC v20.2.1 Mon Nov  2 17:14:28 2020

Copyright (c) 1996-2018 Texas Instruments Incorporated
bts_main.asm                                                         PAGE  149

    7006                      .dwattr $C$DW$308, DW_AT_decl_line(0x3b)
    7007                      .dwattr $C$DW$308, DW_AT_decl_column(0x16)
    7008              
    7009              $C$DW$309       .dwtag  DW_TAG_member
    7010                      .dwattr $C$DW$309, DW_AT_type(*$C$DW$T$24)
    7011                      .dwattr $C$DW$309, DW_AT_name("channel6")
    7012                      .dwattr $C$DW$309, DW_AT_data_member_location[DW_OP_plus_uconst 0xe]
    7013                      .dwattr $C$DW$309, DW_AT_accessibility(DW_ACCESS_public)
    7014                      .dwattr $C$DW$309, DW_AT_decl_file("C:\Users\a0230328\workspace_v10\bts_F2800x_4ch_v2\bts_hal.h")
    7015                      .dwattr $C$DW$309, DW_AT_decl_line(0x3c)
    7016                      .dwattr $C$DW$309, DW_AT_decl_column(0x16)
    7017              
    7018              $C$DW$310       .dwtag  DW_TAG_member
    7019                      .dwattr $C$DW$310, DW_AT_type(*$C$DW$T$24)
    7020                      .dwattr $C$DW$310, DW_AT_name("channel7")
    7021                      .dwattr $C$DW$310, DW_AT_data_member_location[DW_OP_plus_uconst 0x10]
    7022                      .dwattr $C$DW$310, DW_AT_accessibility(DW_ACCESS_public)
    7023                      .dwattr $C$DW$310, DW_AT_decl_file("C:\Users\a0230328\workspace_v10\bts_F2800x_4ch_v2\bts_hal.h")
    7024                      .dwattr $C$DW$310, DW_AT_decl_line(0x3d)
    7025                      .dwattr $C$DW$310, DW_AT_decl_column(0x16)
    7026              
    7027                      .dwattr $C$DW$T$25, DW_AT_decl_file("C:\Users\a0230328\workspace_v10\bts_F2800x_4ch_v2\bts_hal.h")
    7028                      .dwattr $C$DW$T$25, DW_AT_decl_line(0x33)
    7029                      .dwattr $C$DW$T$25, DW_AT_decl_column(0x01)
    7030                      .dwendtag $C$DW$T$25
    7031              
    7032                      .dwendtag $C$DW$TU$25
    7033              
    7034              
    7035              $C$DW$TU$63     .dwtag  DW_TAG_type_unit
    7036                      .dwmtype  $C$DW$T$63
    7037              $C$DW$T$63      .dwtag  DW_TAG_typedef
    7038                      .dwattr $C$DW$T$63, DW_AT_name("adc_data")
    7039                      .dwattr $C$DW$T$63, DW_AT_type(*$C$DW$T$25)
    7040                      .dwattr $C$DW$T$63, DW_AT_decl_file("C:\Users\a0230328\workspace_v10\bts_F2800x_4ch_v2\bts_hal.h")
    7041                      .dwattr $C$DW$T$63, DW_AT_decl_line(0x3e)
    7042                      .dwattr $C$DW$T$63, DW_AT_decl_column(0x03)
    7043              
    7044                      .dwendtag $C$DW$TU$63
    7045              
    7046              
    7047              $C$DW$TU$28     .dwtag  DW_TAG_type_unit
    7048                      .dwmtype  $C$DW$T$28
    7049              
    7050              $C$DW$T$28      .dwtag  DW_TAG_structure_type
    7051                      .dwattr $C$DW$T$28, DW_AT_byte_size(0x1e)
    7052              $C$DW$311       .dwtag  DW_TAG_member
    7053                      .dwattr $C$DW$311, DW_AT_type(*$C$DW$T$27)
    7054                      .dwattr $C$DW$311, DW_AT_name("iref_A")
    7055                      .dwattr $C$DW$311, DW_AT_accessibility(DW_ACCESS_public)
    7056                      .dwattr $C$DW$311, DW_AT_decl_file("C:/Users/a0230328/workspace_v10/bts_F2800x_4ch_v2/bts.h")
    7057                      .dwattr $C$DW$311, DW_AT_decl_line(0x74)
    7058                      .dwattr $C$DW$311, DW_AT_decl_column(0x18)
    7059              
    7060              $C$DW$312       .dwtag  DW_TAG_member
TMS320C2000 Assembler PC v20.2.1 Mon Nov  2 17:14:28 2020

Copyright (c) 1996-2018 Texas Instruments Incorporated
bts_main.asm                                                         PAGE  150

    7061                      .dwattr $C$DW$312, DW_AT_type(*$C$DW$T$27)
    7062                      .dwattr $C$DW$312, DW_AT_name("vref_charge_V")
    7063                      .dwattr $C$DW$312, DW_AT_data_member_location[DW_OP_plus_uconst 0x2]
    7064                      .dwattr $C$DW$312, DW_AT_accessibility(DW_ACCESS_public)
    7065                      .dwattr $C$DW$312, DW_AT_decl_file("C:/Users/a0230328/workspace_v10/bts_F2800x_4ch_v2/bts.h")
    7066                      .dwattr $C$DW$312, DW_AT_decl_line(0x75)
    7067                      .dwattr $C$DW$312, DW_AT_decl_column(0x18)
    7068              
    7069              $C$DW$313       .dwtag  DW_TAG_member
    7070                      .dwattr $C$DW$313, DW_AT_type(*$C$DW$T$27)
    7071                      .dwattr $C$DW$313, DW_AT_name("vref_discharge_V")
    7072                      .dwattr $C$DW$313, DW_AT_data_member_location[DW_OP_plus_uconst 0x4]
    7073                      .dwattr $C$DW$313, DW_AT_accessibility(DW_ACCESS_public)
    7074                      .dwattr $C$DW$313, DW_AT_decl_file("C:/Users/a0230328/workspace_v10/bts_F2800x_4ch_v2/bts.h")
    7075                      .dwattr $C$DW$313, DW_AT_decl_line(0x76)
    7076                      .dwattr $C$DW$313, DW_AT_decl_column(0x18)
    7077              
    7078              $C$DW$314       .dwtag  DW_TAG_member
    7079                      .dwattr $C$DW$314, DW_AT_type(*$C$DW$T$21)
    7080                      .dwattr $C$DW$314, DW_AT_name("direction_logic")
    7081                      .dwattr $C$DW$314, DW_AT_data_member_location[DW_OP_plus_uconst 0x6]
    7082                      .dwattr $C$DW$314, DW_AT_accessibility(DW_ACCESS_public)
    7083                      .dwattr $C$DW$314, DW_AT_decl_file("C:/Users/a0230328/workspace_v10/bts_F2800x_4ch_v2/bts.h")
    7084                      .dwattr $C$DW$314, DW_AT_decl_line(0x77)
    7085                      .dwattr $C$DW$314, DW_AT_decl_column(0x17)
    7086              
    7087              $C$DW$315       .dwtag  DW_TAG_member
    7088                      .dwattr $C$DW$315, DW_AT_type(*$C$DW$T$21)
    7089                      .dwattr $C$DW$315, DW_AT_name("enable_logic")
    7090                      .dwattr $C$DW$315, DW_AT_data_member_location[DW_OP_plus_uconst 0x7]
    7091                      .dwattr $C$DW$315, DW_AT_accessibility(DW_ACCESS_public)
    7092                      .dwattr $C$DW$315, DW_AT_decl_file("C:/Users/a0230328/workspace_v10/bts_F2800x_4ch_v2/bts.h")
    7093                      .dwattr $C$DW$315, DW_AT_decl_line(0x78)
    7094                      .dwattr $C$DW$315, DW_AT_decl_column(0x17)
    7095              
    7096              $C$DW$316       .dwtag  DW_TAG_member
    7097                      .dwattr $C$DW$316, DW_AT_type(*$C$DW$T$27)
    7098                      .dwattr $C$DW$316, DW_AT_name("dutyRef_pu")
    7099                      .dwattr $C$DW$316, DW_AT_data_member_location[DW_OP_plus_uconst 0x8]
    7100                      .dwattr $C$DW$316, DW_AT_accessibility(DW_ACCESS_public)
    7101                      .dwattr $C$DW$316, DW_AT_decl_file("C:/Users/a0230328/workspace_v10/bts_F2800x_4ch_v2/bts.h")
    7102                      .dwattr $C$DW$316, DW_AT_decl_line(0x79)
    7103                      .dwattr $C$DW$316, DW_AT_decl_column(0x18)
    7104              
    7105              $C$DW$317       .dwtag  DW_TAG_member
    7106                      .dwattr $C$DW$317, DW_AT_type(*$C$DW$T$27)
    7107                      .dwattr $C$DW$317, DW_AT_name("ioutCal_pu")
    7108                      .dwattr $C$DW$317, DW_AT_data_member_location[DW_OP_plus_uconst 0xa]
    7109                      .dwattr $C$DW$317, DW_AT_accessibility(DW_ACCESS_public)
    7110                      .dwattr $C$DW$317, DW_AT_decl_file("C:/Users/a0230328/workspace_v10/bts_F2800x_4ch_v2/bts.h")
    7111                      .dwattr $C$DW$317, DW_AT_decl_line(0x7a)
    7112                      .dwattr $C$DW$317, DW_AT_decl_column(0x18)
    7113              
    7114              $C$DW$318       .dwtag  DW_TAG_member
    7115                      .dwattr $C$DW$318, DW_AT_type(*$C$DW$T$27)
TMS320C2000 Assembler PC v20.2.1 Mon Nov  2 17:14:28 2020

Copyright (c) 1996-2018 Texas Instruments Incorporated
bts_main.asm                                                         PAGE  151

    7116                      .dwattr $C$DW$318, DW_AT_name("voutCal_pu")
    7117                      .dwattr $C$DW$318, DW_AT_data_member_location[DW_OP_plus_uconst 0xc]
    7118                      .dwattr $C$DW$318, DW_AT_accessibility(DW_ACCESS_public)
    7119                      .dwattr $C$DW$318, DW_AT_decl_file("C:/Users/a0230328/workspace_v10/bts_F2800x_4ch_v2/bts.h")
    7120                      .dwattr $C$DW$318, DW_AT_decl_line(0x7b)
    7121                      .dwattr $C$DW$318, DW_AT_decl_column(0x18)
    7122              
    7123              $C$DW$319       .dwtag  DW_TAG_member
    7124                      .dwattr $C$DW$319, DW_AT_type(*$C$DW$T$26)
    7125                      .dwattr $C$DW$319, DW_AT_name("IoutGain_pu")
    7126                      .dwattr $C$DW$319, DW_AT_data_member_location[DW_OP_plus_uconst 0xe]
    7127                      .dwattr $C$DW$319, DW_AT_accessibility(DW_ACCESS_public)
    7128                      .dwattr $C$DW$319, DW_AT_decl_file("C:/Users/a0230328/workspace_v10/bts_F2800x_4ch_v2/bts.h")
    7129                      .dwattr $C$DW$319, DW_AT_decl_line(0x7d)
    7130                      .dwattr $C$DW$319, DW_AT_decl_column(0x0f)
    7131              
    7132              $C$DW$320       .dwtag  DW_TAG_member
    7133                      .dwattr $C$DW$320, DW_AT_type(*$C$DW$T$26)
    7134                      .dwattr $C$DW$320, DW_AT_name("IoutOffset_pu")
    7135                      .dwattr $C$DW$320, DW_AT_data_member_location[DW_OP_plus_uconst 0x10]
    7136                      .dwattr $C$DW$320, DW_AT_accessibility(DW_ACCESS_public)
    7137                      .dwattr $C$DW$320, DW_AT_decl_file("C:/Users/a0230328/workspace_v10/bts_F2800x_4ch_v2/bts.h")
    7138                      .dwattr $C$DW$320, DW_AT_decl_line(0x7e)
    7139                      .dwattr $C$DW$320, DW_AT_decl_column(0x0f)
    7140              
    7141              $C$DW$321       .dwtag  DW_TAG_member
    7142                      .dwattr $C$DW$321, DW_AT_type(*$C$DW$T$26)
    7143                      .dwattr $C$DW$321, DW_AT_name("IoutGain_A")
    7144                      .dwattr $C$DW$321, DW_AT_data_member_location[DW_OP_plus_uconst 0x12]
    7145                      .dwattr $C$DW$321, DW_AT_accessibility(DW_ACCESS_public)
    7146                      .dwattr $C$DW$321, DW_AT_decl_file("C:/Users/a0230328/workspace_v10/bts_F2800x_4ch_v2/bts.h")
    7147                      .dwattr $C$DW$321, DW_AT_decl_line(0x7f)
    7148                      .dwattr $C$DW$321, DW_AT_decl_column(0x0f)
    7149              
    7150              $C$DW$322       .dwtag  DW_TAG_member
    7151                      .dwattr $C$DW$322, DW_AT_type(*$C$DW$T$26)
    7152                      .dwattr $C$DW$322, DW_AT_name("IoutOffset_A")
    7153                      .dwattr $C$DW$322, DW_AT_data_member_location[DW_OP_plus_uconst 0x14]
    7154                      .dwattr $C$DW$322, DW_AT_accessibility(DW_ACCESS_public)
    7155                      .dwattr $C$DW$322, DW_AT_decl_file("C:/Users/a0230328/workspace_v10/bts_F2800x_4ch_v2/bts.h")
    7156                      .dwattr $C$DW$322, DW_AT_decl_line(0x80)
    7157                      .dwattr $C$DW$322, DW_AT_decl_column(0x0f)
    7158              
    7159              $C$DW$323       .dwtag  DW_TAG_member
    7160                      .dwattr $C$DW$323, DW_AT_type(*$C$DW$T$26)
    7161                      .dwattr $C$DW$323, DW_AT_name("VoutGain_pu")
    7162                      .dwattr $C$DW$323, DW_AT_data_member_location[DW_OP_plus_uconst 0x16]
    7163                      .dwattr $C$DW$323, DW_AT_accessibility(DW_ACCESS_public)
    7164                      .dwattr $C$DW$323, DW_AT_decl_file("C:/Users/a0230328/workspace_v10/bts_F2800x_4ch_v2/bts.h")
    7165                      .dwattr $C$DW$323, DW_AT_decl_line(0x82)
    7166                      .dwattr $C$DW$323, DW_AT_decl_column(0x0f)
    7167              
    7168              $C$DW$324       .dwtag  DW_TAG_member
    7169                      .dwattr $C$DW$324, DW_AT_type(*$C$DW$T$26)
    7170                      .dwattr $C$DW$324, DW_AT_name("VoutOffset_pu")
TMS320C2000 Assembler PC v20.2.1 Mon Nov  2 17:14:28 2020

Copyright (c) 1996-2018 Texas Instruments Incorporated
bts_main.asm                                                         PAGE  152

    7171                      .dwattr $C$DW$324, DW_AT_data_member_location[DW_OP_plus_uconst 0x18]
    7172                      .dwattr $C$DW$324, DW_AT_accessibility(DW_ACCESS_public)
    7173                      .dwattr $C$DW$324, DW_AT_decl_file("C:/Users/a0230328/workspace_v10/bts_F2800x_4ch_v2/bts.h")
    7174                      .dwattr $C$DW$324, DW_AT_decl_line(0x83)
    7175                      .dwattr $C$DW$324, DW_AT_decl_column(0x0f)
    7176              
    7177              $C$DW$325       .dwtag  DW_TAG_member
    7178                      .dwattr $C$DW$325, DW_AT_type(*$C$DW$T$26)
    7179                      .dwattr $C$DW$325, DW_AT_name("VoutGain_V")
    7180                      .dwattr $C$DW$325, DW_AT_data_member_location[DW_OP_plus_uconst 0x1a]
    7181                      .dwattr $C$DW$325, DW_AT_accessibility(DW_ACCESS_public)
    7182                      .dwattr $C$DW$325, DW_AT_decl_file("C:/Users/a0230328/workspace_v10/bts_F2800x_4ch_v2/bts.h")
    7183                      .dwattr $C$DW$325, DW_AT_decl_line(0x84)
    7184                      .dwattr $C$DW$325, DW_AT_decl_column(0x0f)
    7185              
    7186              $C$DW$326       .dwtag  DW_TAG_member
    7187                      .dwattr $C$DW$326, DW_AT_type(*$C$DW$T$26)
    7188                      .dwattr $C$DW$326, DW_AT_name("VoutOffset_V")
    7189                      .dwattr $C$DW$326, DW_AT_data_member_location[DW_OP_plus_uconst 0x1c]
    7190                      .dwattr $C$DW$326, DW_AT_accessibility(DW_ACCESS_public)
    7191                      .dwattr $C$DW$326, DW_AT_decl_file("C:/Users/a0230328/workspace_v10/bts_F2800x_4ch_v2/bts.h")
    7192                      .dwattr $C$DW$326, DW_AT_decl_line(0x85)
    7193                      .dwattr $C$DW$326, DW_AT_decl_column(0x0f)
    7194              
    7195                      .dwattr $C$DW$T$28, DW_AT_decl_file("C:/Users/a0230328/workspace_v10/bts_F2800x_4ch_v2/bts.h")
    7196                      .dwattr $C$DW$T$28, DW_AT_decl_line(0x73)
    7197                      .dwattr $C$DW$T$28, DW_AT_decl_column(0x01)
    7198                      .dwendtag $C$DW$T$28
    7199              
    7200                      .dwendtag $C$DW$TU$28
    7201              
    7202              
    7203              $C$DW$TU$65     .dwtag  DW_TAG_type_unit
    7204                      .dwmtype  $C$DW$T$65
    7205              $C$DW$T$65      .dwtag  DW_TAG_typedef
    7206                      .dwattr $C$DW$T$65, DW_AT_name("BTS_userInput")
    7207                      .dwattr $C$DW$T$65, DW_AT_type(*$C$DW$T$28)
    7208                      .dwattr $C$DW$T$65, DW_AT_decl_file("C:/Users/a0230328/workspace_v10/bts_F2800x_4ch_v2/bts.h")
    7209                      .dwattr $C$DW$T$65, DW_AT_decl_line(0x87)
    7210                      .dwattr $C$DW$T$65, DW_AT_decl_column(0x02)
    7211              
    7212                      .dwendtag $C$DW$TU$65
    7213              
    7214              
    7215              $C$DW$TU$66     .dwtag  DW_TAG_type_unit
    7216                      .dwmtype  $C$DW$T$66
    7217              $C$DW$T$66      .dwtag  DW_TAG_pointer_type
    7218                      .dwattr $C$DW$T$66, DW_AT_type(*$C$DW$T$65)
    7219                      .dwattr $C$DW$T$66, DW_AT_address_class(0x20)
    7220              
    7221                      .dwendtag $C$DW$TU$66
    7222              
    7223              
    7224              $C$DW$TU$31     .dwtag  DW_TAG_type_unit
    7225                      .dwmtype  $C$DW$T$31
TMS320C2000 Assembler PC v20.2.1 Mon Nov  2 17:14:28 2020

Copyright (c) 1996-2018 Texas Instruments Incorporated
bts_main.asm                                                         PAGE  153

    7226              
    7227              $C$DW$T$31      .dwtag  DW_TAG_structure_type
    7228                      .dwattr $C$DW$T$31, DW_AT_byte_size(0x24)
    7229              $C$DW$327       .dwtag  DW_TAG_member
    7230                      .dwattr $C$DW$327, DW_AT_type(*$C$DW$T$26)
    7231                      .dwattr $C$DW$327, DW_AT_name("dutySet_pu")
    7232                      .dwattr $C$DW$327, DW_AT_accessibility(DW_ACCESS_public)
    7233                      .dwattr $C$DW$327, DW_AT_decl_file("C:/Users/a0230328/workspace_v10/bts_F2800x_4ch_v2/bts.h")
    7234                      .dwattr $C$DW$327, DW_AT_decl_line(0x90)
    7235                      .dwattr $C$DW$327, DW_AT_decl_column(0x0f)
    7236              
    7237              $C$DW$328       .dwtag  DW_TAG_member
    7238                      .dwattr $C$DW$328, DW_AT_type(*$C$DW$T$26)
    7239                      .dwattr $C$DW$328, DW_AT_name("dutySetRef_pu")
    7240                      .dwattr $C$DW$328, DW_AT_data_member_location[DW_OP_plus_uconst 0x2]
    7241                      .dwattr $C$DW$328, DW_AT_accessibility(DW_ACCESS_public)
    7242                      .dwattr $C$DW$328, DW_AT_decl_file("C:/Users/a0230328/workspace_v10/bts_F2800x_4ch_v2/bts.h")
    7243                      .dwattr $C$DW$328, DW_AT_decl_line(0x91)
    7244                      .dwattr $C$DW$328, DW_AT_decl_column(0x0f)
    7245              
    7246              $C$DW$329       .dwtag  DW_TAG_member
    7247                      .dwattr $C$DW$329, DW_AT_type(*$C$DW$T$26)
    7248                      .dwattr $C$DW$329, DW_AT_name("ioutRef_pu")
    7249                      .dwattr $C$DW$329, DW_AT_data_member_location[DW_OP_plus_uconst 0x4]
    7250                      .dwattr $C$DW$329, DW_AT_accessibility(DW_ACCESS_public)
    7251                      .dwattr $C$DW$329, DW_AT_decl_file("C:/Users/a0230328/workspace_v10/bts_F2800x_4ch_v2/bts.h")
    7252                      .dwattr $C$DW$329, DW_AT_decl_line(0x93)
    7253                      .dwattr $C$DW$329, DW_AT_decl_column(0x0f)
    7254              
    7255              $C$DW$330       .dwtag  DW_TAG_member
    7256                      .dwattr $C$DW$330, DW_AT_type(*$C$DW$T$26)
    7257                      .dwattr $C$DW$330, DW_AT_name("ioutSet_pu")
    7258                      .dwattr $C$DW$330, DW_AT_data_member_location[DW_OP_plus_uconst 0x6]
    7259                      .dwattr $C$DW$330, DW_AT_accessibility(DW_ACCESS_public)
    7260                      .dwattr $C$DW$330, DW_AT_decl_file("C:/Users/a0230328/workspace_v10/bts_F2800x_4ch_v2/bts.h")
    7261                      .dwattr $C$DW$330, DW_AT_decl_line(0x94)
    7262                      .dwattr $C$DW$330, DW_AT_decl_column(0x0f)
    7263              
    7264              $C$DW$331       .dwtag  DW_TAG_member
    7265                      .dwattr $C$DW$331, DW_AT_type(*$C$DW$T$26)
    7266                      .dwattr $C$DW$331, DW_AT_name("ioutSense_pu")
    7267                      .dwattr $C$DW$331, DW_AT_data_member_location[DW_OP_plus_uconst 0x8]
    7268                      .dwattr $C$DW$331, DW_AT_accessibility(DW_ACCESS_public)
    7269                      .dwattr $C$DW$331, DW_AT_decl_file("C:/Users/a0230328/workspace_v10/bts_F2800x_4ch_v2/bts.h")
    7270                      .dwattr $C$DW$331, DW_AT_decl_line(0x95)
    7271                      .dwattr $C$DW$331, DW_AT_decl_column(0x0f)
    7272              
    7273              $C$DW$332       .dwtag  DW_TAG_member
    7274                      .dwattr $C$DW$332, DW_AT_type(*$C$DW$T$26)
    7275                      .dwattr $C$DW$332, DW_AT_name("voutRef_pu")
    7276                      .dwattr $C$DW$332, DW_AT_data_member_location[DW_OP_plus_uconst 0xa]
    7277                      .dwattr $C$DW$332, DW_AT_accessibility(DW_ACCESS_public)
    7278                      .dwattr $C$DW$332, DW_AT_decl_file("C:/Users/a0230328/workspace_v10/bts_F2800x_4ch_v2/bts.h")
    7279                      .dwattr $C$DW$332, DW_AT_decl_line(0x97)
    7280                      .dwattr $C$DW$332, DW_AT_decl_column(0x0f)
TMS320C2000 Assembler PC v20.2.1 Mon Nov  2 17:14:28 2020

Copyright (c) 1996-2018 Texas Instruments Incorporated
bts_main.asm                                                         PAGE  154

    7281              
    7282              $C$DW$333       .dwtag  DW_TAG_member
    7283                      .dwattr $C$DW$333, DW_AT_type(*$C$DW$T$26)
    7284                      .dwattr $C$DW$333, DW_AT_name("voutSet_pu")
    7285                      .dwattr $C$DW$333, DW_AT_data_member_location[DW_OP_plus_uconst 0xc]
    7286                      .dwattr $C$DW$333, DW_AT_accessibility(DW_ACCESS_public)
    7287                      .dwattr $C$DW$333, DW_AT_decl_file("C:/Users/a0230328/workspace_v10/bts_F2800x_4ch_v2/bts.h")
    7288                      .dwattr $C$DW$333, DW_AT_decl_line(0x98)
    7289                      .dwattr $C$DW$333, DW_AT_decl_column(0x0f)
    7290              
    7291              $C$DW$334       .dwtag  DW_TAG_member
    7292                      .dwattr $C$DW$334, DW_AT_type(*$C$DW$T$26)
    7293                      .dwattr $C$DW$334, DW_AT_name("voutSense_pu")
    7294                      .dwattr $C$DW$334, DW_AT_data_member_location[DW_OP_plus_uconst 0xe]
    7295                      .dwattr $C$DW$334, DW_AT_accessibility(DW_ACCESS_public)
    7296                      .dwattr $C$DW$334, DW_AT_decl_file("C:/Users/a0230328/workspace_v10/bts_F2800x_4ch_v2/bts.h")
    7297                      .dwattr $C$DW$334, DW_AT_decl_line(0x99)
    7298                      .dwattr $C$DW$334, DW_AT_decl_column(0x0f)
    7299              
    7300              $C$DW$335       .dwtag  DW_TAG_member
    7301                      .dwattr $C$DW$335, DW_AT_type(*$C$DW$T$26)
    7302                      .dwattr $C$DW$335, DW_AT_name("uk_cc_pu")
    7303                      .dwattr $C$DW$335, DW_AT_data_member_location[DW_OP_plus_uconst 0x10]
    7304                      .dwattr $C$DW$335, DW_AT_accessibility(DW_ACCESS_public)
    7305                      .dwattr $C$DW$335, DW_AT_decl_file("C:/Users/a0230328/workspace_v10/bts_F2800x_4ch_v2/bts.h")
    7306                      .dwattr $C$DW$335, DW_AT_decl_line(0x9b)
    7307                      .dwattr $C$DW$335, DW_AT_decl_column(0x0f)
    7308              
    7309              $C$DW$336       .dwtag  DW_TAG_member
    7310                      .dwattr $C$DW$336, DW_AT_type(*$C$DW$T$26)
    7311                      .dwattr $C$DW$336, DW_AT_name("ek_cc_pu")
    7312                      .dwattr $C$DW$336, DW_AT_data_member_location[DW_OP_plus_uconst 0x12]
    7313                      .dwattr $C$DW$336, DW_AT_accessibility(DW_ACCESS_public)
    7314                      .dwattr $C$DW$336, DW_AT_decl_file("C:/Users/a0230328/workspace_v10/bts_F2800x_4ch_v2/bts.h")
    7315                      .dwattr $C$DW$336, DW_AT_decl_line(0x9c)
    7316                      .dwattr $C$DW$336, DW_AT_decl_column(0x0f)
    7317              
    7318              $C$DW$337       .dwtag  DW_TAG_member
    7319                      .dwattr $C$DW$337, DW_AT_type(*$C$DW$T$26)
    7320                      .dwattr $C$DW$337, DW_AT_name("uk_cv_pu")
    7321                      .dwattr $C$DW$337, DW_AT_data_member_location[DW_OP_plus_uconst 0x14]
    7322                      .dwattr $C$DW$337, DW_AT_accessibility(DW_ACCESS_public)
    7323                      .dwattr $C$DW$337, DW_AT_decl_file("C:/Users/a0230328/workspace_v10/bts_F2800x_4ch_v2/bts.h")
    7324                      .dwattr $C$DW$337, DW_AT_decl_line(0x9d)
    7325                      .dwattr $C$DW$337, DW_AT_decl_column(0x0f)
    7326              
    7327              $C$DW$338       .dwtag  DW_TAG_member
    7328                      .dwattr $C$DW$338, DW_AT_type(*$C$DW$T$26)
    7329                      .dwattr $C$DW$338, DW_AT_name("ek_cv_pu")
    7330                      .dwattr $C$DW$338, DW_AT_data_member_location[DW_OP_plus_uconst 0x16]
    7331                      .dwattr $C$DW$338, DW_AT_accessibility(DW_ACCESS_public)
    7332                      .dwattr $C$DW$338, DW_AT_decl_file("C:/Users/a0230328/workspace_v10/bts_F2800x_4ch_v2/bts.h")
    7333                      .dwattr $C$DW$338, DW_AT_decl_line(0x9e)
    7334                      .dwattr $C$DW$338, DW_AT_decl_column(0x0f)
    7335              
TMS320C2000 Assembler PC v20.2.1 Mon Nov  2 17:14:28 2020

Copyright (c) 1996-2018 Texas Instruments Incorporated
bts_main.asm                                                         PAGE  155

    7336              $C$DW$339       .dwtag  DW_TAG_member
    7337                      .dwattr $C$DW$339, DW_AT_type(*$C$DW$T$26)
    7338                      .dwattr $C$DW$339, DW_AT_name("direction_coeff")
    7339                      .dwattr $C$DW$339, DW_AT_data_member_location[DW_OP_plus_uconst 0x18]
    7340                      .dwattr $C$DW$339, DW_AT_accessibility(DW_ACCESS_public)
    7341                      .dwattr $C$DW$339, DW_AT_decl_file("C:/Users/a0230328/workspace_v10/bts_F2800x_4ch_v2/bts.h")
    7342                      .dwattr $C$DW$339, DW_AT_decl_line(0x9f)
    7343                      .dwattr $C$DW$339, DW_AT_decl_column(0x0f)
    7344              
    7345              $C$DW$340       .dwtag  DW_TAG_member
    7346                      .dwattr $C$DW$340, DW_AT_type(*$C$DW$T$26)
    7347                      .dwattr $C$DW$340, DW_AT_name("dutyH_pu")
    7348                      .dwattr $C$DW$340, DW_AT_data_member_location[DW_OP_plus_uconst 0x1a]
    7349                      .dwattr $C$DW$340, DW_AT_accessibility(DW_ACCESS_public)
    7350                      .dwattr $C$DW$340, DW_AT_decl_file("C:/Users/a0230328/workspace_v10/bts_F2800x_4ch_v2/bts.h")
    7351                      .dwattr $C$DW$340, DW_AT_decl_line(0xa1)
    7352                      .dwattr $C$DW$340, DW_AT_decl_column(0x0f)
    7353              
    7354              $C$DW$341       .dwtag  DW_TAG_member
    7355                      .dwattr $C$DW$341, DW_AT_type(*$C$DW$T$26)
    7356                      .dwattr $C$DW$341, DW_AT_name("dutyL_pu")
    7357                      .dwattr $C$DW$341, DW_AT_data_member_location[DW_OP_plus_uconst 0x1c]
    7358                      .dwattr $C$DW$341, DW_AT_accessibility(DW_ACCESS_public)
    7359                      .dwattr $C$DW$341, DW_AT_decl_file("C:/Users/a0230328/workspace_v10/bts_F2800x_4ch_v2/bts.h")
    7360                      .dwattr $C$DW$341, DW_AT_decl_line(0xa2)
    7361                      .dwattr $C$DW$341, DW_AT_decl_column(0x0f)
    7362              
    7363              $C$DW$342       .dwtag  DW_TAG_member
    7364                      .dwattr $C$DW$342, DW_AT_type(*$C$DW$T$20)
    7365                      .dwattr $C$DW$342, DW_AT_name("ctrlMode_logic")
    7366                      .dwattr $C$DW$342, DW_AT_data_member_location[DW_OP_plus_uconst 0x1e]
    7367                      .dwattr $C$DW$342, DW_AT_accessibility(DW_ACCESS_public)
    7368                      .dwattr $C$DW$342, DW_AT_decl_file("C:/Users/a0230328/workspace_v10/bts_F2800x_4ch_v2/bts.h")
    7369                      .dwattr $C$DW$342, DW_AT_decl_line(0xa4)
    7370                      .dwattr $C$DW$342, DW_AT_decl_column(0x0e)
    7371              
    7372              $C$DW$343       .dwtag  DW_TAG_member
    7373                      .dwattr $C$DW$343, DW_AT_type(*$C$DW$T$20)
    7374                      .dwattr $C$DW$343, DW_AT_name("direction_logic")
    7375                      .dwattr $C$DW$343, DW_AT_data_member_location[DW_OP_plus_uconst 0x1f]
    7376                      .dwattr $C$DW$343, DW_AT_accessibility(DW_ACCESS_public)
    7377                      .dwattr $C$DW$343, DW_AT_decl_file("C:/Users/a0230328/workspace_v10/bts_F2800x_4ch_v2/bts.h")
    7378                      .dwattr $C$DW$343, DW_AT_decl_line(0xa5)
    7379                      .dwattr $C$DW$343, DW_AT_decl_column(0x0e)
    7380              
    7381              $C$DW$344       .dwtag  DW_TAG_member
    7382                      .dwattr $C$DW$344, DW_AT_type(*$C$DW$T$30)
    7383                      .dwattr $C$DW$344, DW_AT_name("ioutTrip_16b")
    7384                      .dwattr $C$DW$344, DW_AT_data_member_location[DW_OP_plus_uconst 0x20]
    7385                      .dwattr $C$DW$344, DW_AT_accessibility(DW_ACCESS_public)
    7386                      .dwattr $C$DW$344, DW_AT_decl_file("C:/Users/a0230328/workspace_v10/bts_F2800x_4ch_v2/bts.h")
    7387                      .dwattr $C$DW$344, DW_AT_decl_line(0xa7)
    7388                      .dwattr $C$DW$344, DW_AT_decl_column(0x0d)
    7389              
    7390              $C$DW$345       .dwtag  DW_TAG_member
TMS320C2000 Assembler PC v20.2.1 Mon Nov  2 17:14:28 2020

Copyright (c) 1996-2018 Texas Instruments Incorporated
bts_main.asm                                                         PAGE  156

    7391                      .dwattr $C$DW$345, DW_AT_type(*$C$DW$T$30)
    7392                      .dwattr $C$DW$345, DW_AT_name("ioutTrip_n_16b")
    7393                      .dwattr $C$DW$345, DW_AT_data_member_location[DW_OP_plus_uconst 0x21]
    7394                      .dwattr $C$DW$345, DW_AT_accessibility(DW_ACCESS_public)
    7395                      .dwattr $C$DW$345, DW_AT_decl_file("C:/Users/a0230328/workspace_v10/bts_F2800x_4ch_v2/bts.h")
    7396                      .dwattr $C$DW$345, DW_AT_decl_line(0xa8)
    7397                      .dwattr $C$DW$345, DW_AT_decl_column(0x0d)
    7398              
    7399              $C$DW$346       .dwtag  DW_TAG_member
    7400                      .dwattr $C$DW$346, DW_AT_type(*$C$DW$T$20)
    7401                      .dwattr $C$DW$346, DW_AT_name("tripFlag")
    7402                      .dwattr $C$DW$346, DW_AT_data_member_location[DW_OP_plus_uconst 0x22]
    7403                      .dwattr $C$DW$346, DW_AT_accessibility(DW_ACCESS_public)
    7404                      .dwattr $C$DW$346, DW_AT_decl_file("C:/Users/a0230328/workspace_v10/bts_F2800x_4ch_v2/bts.h")
    7405                      .dwattr $C$DW$346, DW_AT_decl_line(0xa9)
    7406                      .dwattr $C$DW$346, DW_AT_decl_column(0x0e)
    7407              
    7408                      .dwattr $C$DW$T$31, DW_AT_decl_file("C:/Users/a0230328/workspace_v10/bts_F2800x_4ch_v2/bts.h")
    7409                      .dwattr $C$DW$T$31, DW_AT_decl_line(0x8f)
    7410                      .dwattr $C$DW$T$31, DW_AT_decl_column(0x01)
    7411                      .dwendtag $C$DW$T$31
    7412              
    7413                      .dwendtag $C$DW$TU$31
    7414              
    7415              
    7416              $C$DW$TU$68     .dwtag  DW_TAG_type_unit
    7417                      .dwmtype  $C$DW$T$68
    7418              $C$DW$T$68      .dwtag  DW_TAG_typedef
    7419                      .dwattr $C$DW$T$68, DW_AT_name("BTS_ctrlLoopVariable")
    7420                      .dwattr $C$DW$T$68, DW_AT_type(*$C$DW$T$31)
    7421                      .dwattr $C$DW$T$68, DW_AT_decl_file("C:/Users/a0230328/workspace_v10/bts_F2800x_4ch_v2/bts.h")
    7422                      .dwattr $C$DW$T$68, DW_AT_decl_line(0xab)
    7423                      .dwattr $C$DW$T$68, DW_AT_decl_column(0x02)
    7424              
    7425                      .dwendtag $C$DW$TU$68
    7426              
    7427              
    7428              $C$DW$TU$69     .dwtag  DW_TAG_type_unit
    7429                      .dwmtype  $C$DW$T$69
    7430              $C$DW$T$69      .dwtag  DW_TAG_pointer_type
    7431                      .dwattr $C$DW$T$69, DW_AT_type(*$C$DW$T$68)
    7432                      .dwattr $C$DW$T$69, DW_AT_address_class(0x20)
    7433              
    7434                      .dwendtag $C$DW$TU$69
    7435              
    7436              
    7437              $C$DW$TU$33     .dwtag  DW_TAG_type_unit
    7438                      .dwmtype  $C$DW$T$33
    7439              
    7440              $C$DW$T$33      .dwtag  DW_TAG_structure_type
    7441                      .dwattr $C$DW$T$33, DW_AT_byte_size(0x52)
    7442              $C$DW$347       .dwtag  DW_TAG_member
    7443                      .dwattr $C$DW$347, DW_AT_type(*$C$DW$T$26)
    7444                      .dwattr $C$DW$347, DW_AT_name("Isense_A")
    7445                      .dwattr $C$DW$347, DW_AT_accessibility(DW_ACCESS_public)
TMS320C2000 Assembler PC v20.2.1 Mon Nov  2 17:14:28 2020

Copyright (c) 1996-2018 Texas Instruments Incorporated
bts_main.asm                                                         PAGE  157

    7446                      .dwattr $C$DW$347, DW_AT_decl_file("C:/Users/a0230328/workspace_v10/bts_F2800x_4ch_v2/bts.h")
    7447                      .dwattr $C$DW$347, DW_AT_decl_line(0x5f)
    7448                      .dwattr $C$DW$347, DW_AT_decl_column(0x0f)
    7449              
    7450              $C$DW$348       .dwtag  DW_TAG_member
    7451                      .dwattr $C$DW$348, DW_AT_type(*$C$DW$T$26)
    7452                      .dwattr $C$DW$348, DW_AT_name("Vsense_V")
    7453                      .dwattr $C$DW$348, DW_AT_data_member_location[DW_OP_plus_uconst 0x2]
    7454                      .dwattr $C$DW$348, DW_AT_accessibility(DW_ACCESS_public)
    7455                      .dwattr $C$DW$348, DW_AT_decl_file("C:/Users/a0230328/workspace_v10/bts_F2800x_4ch_v2/bts.h")
    7456                      .dwattr $C$DW$348, DW_AT_decl_line(0x60)
    7457                      .dwattr $C$DW$348, DW_AT_decl_column(0x0f)
    7458              
    7459              $C$DW$349       .dwtag  DW_TAG_member
    7460                      .dwattr $C$DW$349, DW_AT_type(*$C$DW$T$32)
    7461                      .dwattr $C$DW$349, DW_AT_name("Isense_16b")
    7462                      .dwattr $C$DW$349, DW_AT_data_member_location[DW_OP_plus_uconst 0x4]
    7463                      .dwattr $C$DW$349, DW_AT_accessibility(DW_ACCESS_public)
    7464                      .dwattr $C$DW$349, DW_AT_decl_file("C:/Users/a0230328/workspace_v10/bts_F2800x_4ch_v2/bts.h")
    7465                      .dwattr $C$DW$349, DW_AT_decl_line(0x61)
    7466                      .dwattr $C$DW$349, DW_AT_decl_column(0x0d)
    7467              
    7468              $C$DW$350       .dwtag  DW_TAG_member
    7469                      .dwattr $C$DW$350, DW_AT_type(*$C$DW$T$32)
    7470                      .dwattr $C$DW$350, DW_AT_name("Vsense_16b")
    7471                      .dwattr $C$DW$350, DW_AT_data_member_location[DW_OP_plus_uconst 0x24]
    7472                      .dwattr $C$DW$350, DW_AT_accessibility(DW_ACCESS_public)
    7473                      .dwattr $C$DW$350, DW_AT_decl_file("C:/Users/a0230328/workspace_v10/bts_F2800x_4ch_v2/bts.h")
    7474                      .dwattr $C$DW$350, DW_AT_decl_line(0x62)
    7475                      .dwattr $C$DW$350, DW_AT_decl_column(0x0d)
    7476              
    7477              $C$DW$351       .dwtag  DW_TAG_member
    7478                      .dwattr $C$DW$351, DW_AT_type(*$C$DW$T$23)
    7479                      .dwattr $C$DW$351, DW_AT_name("Sum_I")
    7480                      .dwattr $C$DW$351, DW_AT_data_member_location[DW_OP_plus_uconst 0x44]
    7481                      .dwattr $C$DW$351, DW_AT_accessibility(DW_ACCESS_public)
    7482                      .dwattr $C$DW$351, DW_AT_decl_file("C:/Users/a0230328/workspace_v10/bts_F2800x_4ch_v2/bts.h")
    7483                      .dwattr $C$DW$351, DW_AT_decl_line(0x63)
    7484                      .dwattr $C$DW$351, DW_AT_decl_column(0x0d)
    7485              
    7486              $C$DW$352       .dwtag  DW_TAG_member
    7487                      .dwattr $C$DW$352, DW_AT_type(*$C$DW$T$23)
    7488                      .dwattr $C$DW$352, DW_AT_name("Sum_V")
    7489                      .dwattr $C$DW$352, DW_AT_data_member_location[DW_OP_plus_uconst 0x46]
    7490                      .dwattr $C$DW$352, DW_AT_accessibility(DW_ACCESS_public)
    7491                      .dwattr $C$DW$352, DW_AT_decl_file("C:/Users/a0230328/workspace_v10/bts_F2800x_4ch_v2/bts.h")
    7492                      .dwattr $C$DW$352, DW_AT_decl_line(0x64)
    7493                      .dwattr $C$DW$352, DW_AT_decl_column(0x0d)
    7494              
    7495              $C$DW$353       .dwtag  DW_TAG_member
    7496                      .dwattr $C$DW$353, DW_AT_type(*$C$DW$T$20)
    7497                      .dwattr $C$DW$353, DW_AT_name("Index")
    7498                      .dwattr $C$DW$353, DW_AT_data_member_location[DW_OP_plus_uconst 0x48]
    7499                      .dwattr $C$DW$353, DW_AT_accessibility(DW_ACCESS_public)
    7500                      .dwattr $C$DW$353, DW_AT_decl_file("C:/Users/a0230328/workspace_v10/bts_F2800x_4ch_v2/bts.h")
TMS320C2000 Assembler PC v20.2.1 Mon Nov  2 17:14:28 2020

Copyright (c) 1996-2018 Texas Instruments Incorporated
bts_main.asm                                                         PAGE  158

    7501                      .dwattr $C$DW$353, DW_AT_decl_line(0x65)
    7502                      .dwattr $C$DW$353, DW_AT_decl_column(0x0e)
    7503              
    7504              $C$DW$354       .dwtag  DW_TAG_member
    7505                      .dwattr $C$DW$354, DW_AT_type(*$C$DW$T$26)
    7506                      .dwattr $C$DW$354, DW_AT_name("IoutGain_A")
    7507                      .dwattr $C$DW$354, DW_AT_data_member_location[DW_OP_plus_uconst 0x4a]
    7508                      .dwattr $C$DW$354, DW_AT_accessibility(DW_ACCESS_public)
    7509                      .dwattr $C$DW$354, DW_AT_decl_file("C:/Users/a0230328/workspace_v10/bts_F2800x_4ch_v2/bts.h")
    7510                      .dwattr $C$DW$354, DW_AT_decl_line(0x66)
    7511                      .dwattr $C$DW$354, DW_AT_decl_column(0x0f)
    7512              
    7513              $C$DW$355       .dwtag  DW_TAG_member
    7514                      .dwattr $C$DW$355, DW_AT_type(*$C$DW$T$26)
    7515                      .dwattr $C$DW$355, DW_AT_name("IoutOffset_A")
    7516                      .dwattr $C$DW$355, DW_AT_data_member_location[DW_OP_plus_uconst 0x4c]
    7517                      .dwattr $C$DW$355, DW_AT_accessibility(DW_ACCESS_public)
    7518                      .dwattr $C$DW$355, DW_AT_decl_file("C:/Users/a0230328/workspace_v10/bts_F2800x_4ch_v2/bts.h")
    7519                      .dwattr $C$DW$355, DW_AT_decl_line(0x67)
    7520                      .dwattr $C$DW$355, DW_AT_decl_column(0x0f)
    7521              
    7522              $C$DW$356       .dwtag  DW_TAG_member
    7523                      .dwattr $C$DW$356, DW_AT_type(*$C$DW$T$26)
    7524                      .dwattr $C$DW$356, DW_AT_name("VoutGain_V")
    7525                      .dwattr $C$DW$356, DW_AT_data_member_location[DW_OP_plus_uconst 0x4e]
    7526                      .dwattr $C$DW$356, DW_AT_accessibility(DW_ACCESS_public)
    7527                      .dwattr $C$DW$356, DW_AT_decl_file("C:/Users/a0230328/workspace_v10/bts_F2800x_4ch_v2/bts.h")
    7528                      .dwattr $C$DW$356, DW_AT_decl_line(0x68)
    7529                      .dwattr $C$DW$356, DW_AT_decl_column(0x0f)
    7530              
    7531              $C$DW$357       .dwtag  DW_TAG_member
    7532                      .dwattr $C$DW$357, DW_AT_type(*$C$DW$T$26)
    7533                      .dwattr $C$DW$357, DW_AT_name("VoutOffset_V")
    7534                      .dwattr $C$DW$357, DW_AT_data_member_location[DW_OP_plus_uconst 0x50]
    7535                      .dwattr $C$DW$357, DW_AT_accessibility(DW_ACCESS_public)
    7536                      .dwattr $C$DW$357, DW_AT_decl_file("C:/Users/a0230328/workspace_v10/bts_F2800x_4ch_v2/bts.h")
    7537                      .dwattr $C$DW$357, DW_AT_decl_line(0x69)
    7538                      .dwattr $C$DW$357, DW_AT_decl_column(0x0f)
    7539              
    7540                      .dwattr $C$DW$T$33, DW_AT_decl_file("C:/Users/a0230328/workspace_v10/bts_F2800x_4ch_v2/bts.h")
    7541                      .dwattr $C$DW$T$33, DW_AT_decl_line(0x5e)
    7542                      .dwattr $C$DW$T$33, DW_AT_decl_column(0x01)
    7543                      .dwendtag $C$DW$T$33
    7544              
    7545                      .dwendtag $C$DW$TU$33
    7546              
    7547              
    7548              $C$DW$TU$71     .dwtag  DW_TAG_type_unit
    7549                      .dwmtype  $C$DW$T$71
    7550              $C$DW$T$71      .dwtag  DW_TAG_typedef
    7551                      .dwattr $C$DW$T$71, DW_AT_name("BTS_measValues")
    7552                      .dwattr $C$DW$T$71, DW_AT_type(*$C$DW$T$33)
    7553                      .dwattr $C$DW$T$71, DW_AT_decl_file("C:/Users/a0230328/workspace_v10/bts_F2800x_4ch_v2/bts.h")
    7554                      .dwattr $C$DW$T$71, DW_AT_decl_line(0x6b)
    7555                      .dwattr $C$DW$T$71, DW_AT_decl_column(0x02)
TMS320C2000 Assembler PC v20.2.1 Mon Nov  2 17:14:28 2020

Copyright (c) 1996-2018 Texas Instruments Incorporated
bts_main.asm                                                         PAGE  159

    7556              
    7557                      .dwendtag $C$DW$TU$71
    7558              
    7559              
    7560              $C$DW$TU$72     .dwtag  DW_TAG_type_unit
    7561                      .dwmtype  $C$DW$T$72
    7562              $C$DW$T$72      .dwtag  DW_TAG_pointer_type
    7563                      .dwattr $C$DW$T$72, DW_AT_type(*$C$DW$T$71)
    7564                      .dwattr $C$DW$T$72, DW_AT_address_class(0x20)
    7565              
    7566                      .dwendtag $C$DW$TU$72
    7567              
    7568              
    7569              $C$DW$TU$35     .dwtag  DW_TAG_type_unit
    7570                      .dwmtype  $C$DW$T$35
    7571              
    7572              $C$DW$T$35      .dwtag  DW_TAG_structure_type
    7573                      .dwattr $C$DW$T$35, DW_AT_name("_Complex_double")
    7574                      .dwattr $C$DW$T$35, DW_AT_byte_size(0x08)
    7575              $C$DW$358       .dwtag  DW_TAG_member
    7576                      .dwattr $C$DW$358, DW_AT_type(*$C$DW$T$34)
    7577                      .dwattr $C$DW$358, DW_AT_name("_Vals")
    7578                      .dwattr $C$DW$358, DW_AT_accessibility(DW_ACCESS_public)
    7579                      .dwattr $C$DW$358, DW_AT_decl_file("C:\Users\a0230328\workspace_v10\bts_F2800x_4ch_v2\bts_hal.h")
    7580                      .dwattr $C$DW$358, DW_AT_decl_line(0xbd)
    7581                      .dwattr $C$DW$358, DW_AT_decl_column(0x14)
    7582              
    7583                      .dwendtag $C$DW$T$35
    7584              
    7585                      .dwendtag $C$DW$TU$35
    7586              
    7587              
    7588              $C$DW$TU$74     .dwtag  DW_TAG_type_unit
    7589                      .dwmtype  $C$DW$T$74
    7590              $C$DW$T$74      .dwtag  DW_TAG_typedef
    7591                      .dwattr $C$DW$T$74, DW_AT_name("_Complex_double")
    7592                      .dwattr $C$DW$T$74, DW_AT_type(*$C$DW$T$35)
    7593                      .dwattr $C$DW$T$74, DW_AT_decl_file("C:\Users\a0230328\workspace_v10\bts_F2800x_4ch_v2\bts_hal.h")
    7594                      .dwattr $C$DW$T$74, DW_AT_decl_line(0xbd)
    7595                      .dwattr $C$DW$T$74, DW_AT_decl_column(0x14)
    7596              
    7597                      .dwendtag $C$DW$TU$74
    7598              
    7599              
    7600              $C$DW$TU$37     .dwtag  DW_TAG_type_unit
    7601                      .dwmtype  $C$DW$T$37
    7602              
    7603              $C$DW$T$37      .dwtag  DW_TAG_structure_type
    7604                      .dwattr $C$DW$T$37, DW_AT_name("_Complex_float")
    7605                      .dwattr $C$DW$T$37, DW_AT_byte_size(0x04)
    7606              $C$DW$359       .dwtag  DW_TAG_member
    7607                      .dwattr $C$DW$359, DW_AT_type(*$C$DW$T$36)
    7608                      .dwattr $C$DW$359, DW_AT_name("_Vals")
    7609                      .dwattr $C$DW$359, DW_AT_accessibility(DW_ACCESS_public)
    7610                      .dwattr $C$DW$359, DW_AT_decl_file("C:\Users\a0230328\workspace_v10\bts_F2800x_4ch_v2\bts_hal.h")
TMS320C2000 Assembler PC v20.2.1 Mon Nov  2 17:14:28 2020

Copyright (c) 1996-2018 Texas Instruments Incorporated
bts_main.asm                                                         PAGE  160

    7611                      .dwattr $C$DW$359, DW_AT_decl_line(0xbd)
    7612                      .dwattr $C$DW$359, DW_AT_decl_column(0x14)
    7613              
    7614                      .dwendtag $C$DW$T$37
    7615              
    7616                      .dwendtag $C$DW$TU$37
    7617              
    7618              
    7619              $C$DW$TU$75     .dwtag  DW_TAG_type_unit
    7620                      .dwmtype  $C$DW$T$75
    7621              $C$DW$T$75      .dwtag  DW_TAG_typedef
    7622                      .dwattr $C$DW$T$75, DW_AT_name("_Complex_float")
    7623                      .dwattr $C$DW$T$75, DW_AT_type(*$C$DW$T$37)
    7624                      .dwattr $C$DW$T$75, DW_AT_decl_file("C:\Users\a0230328\workspace_v10\bts_F2800x_4ch_v2\bts_hal.h")
    7625                      .dwattr $C$DW$T$75, DW_AT_decl_line(0xbd)
    7626                      .dwattr $C$DW$T$75, DW_AT_decl_column(0x14)
    7627              
    7628                      .dwendtag $C$DW$TU$75
    7629              
    7630              
    7631              $C$DW$TU$39     .dwtag  DW_TAG_type_unit
    7632                      .dwmtype  $C$DW$T$39
    7633              
    7634              $C$DW$T$39      .dwtag  DW_TAG_structure_type
    7635                      .dwattr $C$DW$T$39, DW_AT_name("_Complex_long_double")
    7636                      .dwattr $C$DW$T$39, DW_AT_byte_size(0x08)
    7637              $C$DW$360       .dwtag  DW_TAG_member
    7638                      .dwattr $C$DW$360, DW_AT_type(*$C$DW$T$38)
    7639                      .dwattr $C$DW$360, DW_AT_name("_Vals")
    7640                      .dwattr $C$DW$360, DW_AT_accessibility(DW_ACCESS_public)
    7641                      .dwattr $C$DW$360, DW_AT_decl_file("C:\Users\a0230328\workspace_v10\bts_F2800x_4ch_v2\bts_hal.h")
    7642                      .dwattr $C$DW$360, DW_AT_decl_line(0xbd)
    7643                      .dwattr $C$DW$360, DW_AT_decl_column(0x14)
    7644              
    7645                      .dwendtag $C$DW$T$39
    7646              
    7647                      .dwendtag $C$DW$TU$39
    7648              
    7649              
    7650              $C$DW$TU$77     .dwtag  DW_TAG_type_unit
    7651                      .dwmtype  $C$DW$T$77
    7652              $C$DW$T$77      .dwtag  DW_TAG_typedef
    7653                      .dwattr $C$DW$T$77, DW_AT_name("_Complex_long_double")
    7654                      .dwattr $C$DW$T$77, DW_AT_type(*$C$DW$T$39)
    7655                      .dwattr $C$DW$T$77, DW_AT_decl_file("C:\Users\a0230328\workspace_v10\bts_F2800x_4ch_v2\bts_hal.h")
    7656                      .dwattr $C$DW$T$77, DW_AT_decl_line(0xbd)
    7657                      .dwattr $C$DW$T$77, DW_AT_decl_column(0x14)
    7658              
    7659                      .dwendtag $C$DW$TU$77
    7660              
    7661              
    7662              $C$DW$TU$2      .dwtag  DW_TAG_type_unit
    7663                      .dwmtype  $C$DW$T$2
    7664              $C$DW$T$2       .dwtag  DW_TAG_unspecified_type
    7665                      .dwattr $C$DW$T$2, DW_AT_name("void")
TMS320C2000 Assembler PC v20.2.1 Mon Nov  2 17:14:28 2020

Copyright (c) 1996-2018 Texas Instruments Incorporated
bts_main.asm                                                         PAGE  161

    7666              
    7667                      .dwendtag $C$DW$TU$2
    7668              
    7669              
    7670              $C$DW$TU$78     .dwtag  DW_TAG_type_unit
    7671                      .dwmtype  $C$DW$T$78
    7672              
    7673              $C$DW$T$78      .dwtag  DW_TAG_subroutine_type
    7674                      .dwendtag $C$DW$T$78
    7675              
    7676                      .dwendtag $C$DW$TU$78
    7677              
    7678              
    7679              $C$DW$TU$79     .dwtag  DW_TAG_type_unit
    7680                      .dwmtype  $C$DW$T$79
    7681              $C$DW$T$79      .dwtag  DW_TAG_pointer_type
    7682                      .dwattr $C$DW$T$79, DW_AT_type(*$C$DW$T$78)
    7683                      .dwattr $C$DW$T$79, DW_AT_address_class(0x20)
    7684              
    7685                      .dwendtag $C$DW$TU$79
    7686              
    7687              
    7688              $C$DW$TU$4      .dwtag  DW_TAG_type_unit
    7689                      .dwmtype  $C$DW$T$4
    7690              $C$DW$T$4       .dwtag  DW_TAG_base_type
    7691                      .dwattr $C$DW$T$4, DW_AT_encoding(DW_ATE_boolean)
    7692                      .dwattr $C$DW$T$4, DW_AT_name("bool")
    7693                      .dwattr $C$DW$T$4, DW_AT_byte_size(0x01)
    7694              
    7695                      .dwendtag $C$DW$TU$4
    7696              
    7697              
    7698              $C$DW$TU$5      .dwtag  DW_TAG_type_unit
    7699                      .dwmtype  $C$DW$T$5
    7700              $C$DW$T$5       .dwtag  DW_TAG_base_type
    7701                      .dwattr $C$DW$T$5, DW_AT_encoding(DW_ATE_signed_char)
    7702                      .dwattr $C$DW$T$5, DW_AT_name("signed char")
    7703                      .dwattr $C$DW$T$5, DW_AT_byte_size(0x01)
    7704              
    7705                      .dwendtag $C$DW$TU$5
    7706              
    7707              
    7708              $C$DW$TU$6      .dwtag  DW_TAG_type_unit
    7709                      .dwmtype  $C$DW$T$6
    7710              $C$DW$T$6       .dwtag  DW_TAG_base_type
    7711                      .dwattr $C$DW$T$6, DW_AT_encoding(DW_ATE_unsigned_char)
    7712                      .dwattr $C$DW$T$6, DW_AT_name("unsigned char")
    7713                      .dwattr $C$DW$T$6, DW_AT_byte_size(0x01)
    7714              
    7715                      .dwendtag $C$DW$TU$6
    7716              
    7717              
    7718              $C$DW$TU$7      .dwtag  DW_TAG_type_unit
    7719                      .dwmtype  $C$DW$T$7
    7720              $C$DW$T$7       .dwtag  DW_TAG_base_type
TMS320C2000 Assembler PC v20.2.1 Mon Nov  2 17:14:28 2020

Copyright (c) 1996-2018 Texas Instruments Incorporated
bts_main.asm                                                         PAGE  162

    7721                      .dwattr $C$DW$T$7, DW_AT_encoding(DW_ATE_signed_char)
    7722                      .dwattr $C$DW$T$7, DW_AT_name("wchar_t")
    7723                      .dwattr $C$DW$T$7, DW_AT_byte_size(0x02)
    7724              
    7725                      .dwendtag $C$DW$TU$7
    7726              
    7727              
    7728              $C$DW$TU$8      .dwtag  DW_TAG_type_unit
    7729                      .dwmtype  $C$DW$T$8
    7730              $C$DW$T$8       .dwtag  DW_TAG_base_type
    7731                      .dwattr $C$DW$T$8, DW_AT_encoding(DW_ATE_signed)
    7732                      .dwattr $C$DW$T$8, DW_AT_name("short")
    7733                      .dwattr $C$DW$T$8, DW_AT_byte_size(0x01)
    7734              
    7735                      .dwendtag $C$DW$TU$8
    7736              
    7737              
    7738              $C$DW$TU$9      .dwtag  DW_TAG_type_unit
    7739                      .dwmtype  $C$DW$T$9
    7740              $C$DW$T$9       .dwtag  DW_TAG_base_type
    7741                      .dwattr $C$DW$T$9, DW_AT_encoding(DW_ATE_unsigned)
    7742                      .dwattr $C$DW$T$9, DW_AT_name("unsigned short")
    7743                      .dwattr $C$DW$T$9, DW_AT_byte_size(0x01)
    7744              
    7745                      .dwendtag $C$DW$TU$9
    7746              
    7747              
    7748              $C$DW$TU$10     .dwtag  DW_TAG_type_unit
    7749                      .dwmtype  $C$DW$T$10
    7750              $C$DW$T$10      .dwtag  DW_TAG_base_type
    7751                      .dwattr $C$DW$T$10, DW_AT_encoding(DW_ATE_signed)
    7752                      .dwattr $C$DW$T$10, DW_AT_name("int")
    7753                      .dwattr $C$DW$T$10, DW_AT_byte_size(0x01)
    7754              
    7755                      .dwendtag $C$DW$TU$10
    7756              
    7757              
    7758              $C$DW$TU$29     .dwtag  DW_TAG_type_unit
    7759                      .dwmtype  $C$DW$T$29
    7760              $C$DW$T$29      .dwtag  DW_TAG_typedef
    7761                      .dwattr $C$DW$T$29, DW_AT_name("__int16_t")
    7762                      .dwattr $C$DW$T$29, DW_AT_type(*$C$DW$T$10)
    7763                      .dwattr $C$DW$T$29, DW_AT_decl_file("C:/ti/ccs1010/ccs/tools/compiler/ti-cgt-c2000_20.2.1.LTS/include
    7764                      .dwattr $C$DW$T$29, DW_AT_decl_line(0x40)
    7765                      .dwattr $C$DW$T$29, DW_AT_decl_column(0x1d)
    7766              
    7767                      .dwendtag $C$DW$TU$29
    7768              
    7769              
    7770              $C$DW$TU$30     .dwtag  DW_TAG_type_unit
    7771                      .dwmtype  $C$DW$T$30
    7772              $C$DW$T$30      .dwtag  DW_TAG_typedef
    7773                      .dwattr $C$DW$T$30, DW_AT_name("int16_t")
    7774                      .dwattr $C$DW$T$30, DW_AT_type(*$C$DW$T$29)
    7775                      .dwattr $C$DW$T$30, DW_AT_decl_file("C:/ti/ccs1010/ccs/tools/compiler/ti-cgt-c2000_20.2.1.LTS/include
TMS320C2000 Assembler PC v20.2.1 Mon Nov  2 17:14:28 2020

Copyright (c) 1996-2018 Texas Instruments Incorporated
bts_main.asm                                                         PAGE  163

    7776                      .dwattr $C$DW$T$30, DW_AT_decl_line(0x2b)
    7777                      .dwattr $C$DW$T$30, DW_AT_decl_column(0x14)
    7778              
    7779                      .dwendtag $C$DW$TU$30
    7780              
    7781              
    7782              $C$DW$TU$32     .dwtag  DW_TAG_type_unit
    7783                      .dwmtype  $C$DW$T$32
    7784              
    7785              $C$DW$T$32      .dwtag  DW_TAG_array_type
    7786                      .dwattr $C$DW$T$32, DW_AT_type(*$C$DW$T$30)
    7787                      .dwattr $C$DW$T$32, DW_AT_byte_size(0x20)
    7788              $C$DW$361       .dwtag  DW_TAG_subrange_type
    7789                      .dwattr $C$DW$361, DW_AT_upper_bound(0x1f)
    7790              
    7791                      .dwendtag $C$DW$T$32
    7792              
    7793                      .dwendtag $C$DW$TU$32
    7794              
    7795              
    7796              $C$DW$TU$11     .dwtag  DW_TAG_type_unit
    7797                      .dwmtype  $C$DW$T$11
    7798              $C$DW$T$11      .dwtag  DW_TAG_base_type
    7799                      .dwattr $C$DW$T$11, DW_AT_encoding(DW_ATE_unsigned)
    7800                      .dwattr $C$DW$T$11, DW_AT_name("unsigned int")
    7801                      .dwattr $C$DW$T$11, DW_AT_byte_size(0x01)
    7802              
    7803                      .dwendtag $C$DW$TU$11
    7804              
    7805              
    7806              $C$DW$TU$19     .dwtag  DW_TAG_type_unit
    7807                      .dwmtype  $C$DW$T$19
    7808              $C$DW$T$19      .dwtag  DW_TAG_typedef
    7809                      .dwattr $C$DW$T$19, DW_AT_name("__uint16_t")
    7810                      .dwattr $C$DW$T$19, DW_AT_type(*$C$DW$T$11)
    7811                      .dwattr $C$DW$T$19, DW_AT_decl_file("C:/ti/ccs1010/ccs/tools/compiler/ti-cgt-c2000_20.2.1.LTS/include
    7812                      .dwattr $C$DW$T$19, DW_AT_decl_line(0x41)
    7813                      .dwattr $C$DW$T$19, DW_AT_decl_column(0x1c)
    7814              
    7815                      .dwendtag $C$DW$TU$19
    7816              
    7817              
    7818              $C$DW$TU$20     .dwtag  DW_TAG_type_unit
    7819                      .dwmtype  $C$DW$T$20
    7820              $C$DW$T$20      .dwtag  DW_TAG_typedef
    7821                      .dwattr $C$DW$T$20, DW_AT_name("uint16_t")
    7822                      .dwattr $C$DW$T$20, DW_AT_type(*$C$DW$T$19)
    7823                      .dwattr $C$DW$T$20, DW_AT_decl_file("C:/ti/ccs1010/ccs/tools/compiler/ti-cgt-c2000_20.2.1.LTS/include
    7824                      .dwattr $C$DW$T$20, DW_AT_decl_line(0x41)
    7825                      .dwattr $C$DW$T$20, DW_AT_decl_column(0x15)
    7826              
    7827                      .dwendtag $C$DW$TU$20
    7828              
    7829              
    7830              $C$DW$TU$117    .dwtag  DW_TAG_type_unit
TMS320C2000 Assembler PC v20.2.1 Mon Nov  2 17:14:28 2020

Copyright (c) 1996-2018 Texas Instruments Incorporated
bts_main.asm                                                         PAGE  164

    7831                      .dwmtype  $C$DW$T$117
    7832              
    7833              $C$DW$T$117     .dwtag  DW_TAG_array_type
    7834                      .dwattr $C$DW$T$117, DW_AT_type(*$C$DW$T$20)
    7835                      .dwattr $C$DW$T$117, DW_AT_byte_size(0x04)
    7836              $C$DW$362       .dwtag  DW_TAG_subrange_type
    7837                      .dwattr $C$DW$362, DW_AT_upper_bound(0x03)
    7838              
    7839                      .dwendtag $C$DW$T$117
    7840              
    7841                      .dwendtag $C$DW$TU$117
    7842              
    7843              
    7844              $C$DW$TU$21     .dwtag  DW_TAG_type_unit
    7845                      .dwmtype  $C$DW$T$21
    7846              $C$DW$363       .dwtag  DW_TAG_TI_far_type
    7847                      .dwattr $C$DW$363, DW_AT_type(*$C$DW$T$20)
    7848              
    7849              $C$DW$T$21      .dwtag  DW_TAG_volatile_type
    7850                      .dwattr $C$DW$T$21, DW_AT_type(*$C$DW$363)
    7851              
    7852                      .dwendtag $C$DW$TU$21
    7853              
    7854              
    7855              $C$DW$TU$12     .dwtag  DW_TAG_type_unit
    7856                      .dwmtype  $C$DW$T$12
    7857              $C$DW$T$12      .dwtag  DW_TAG_base_type
    7858                      .dwattr $C$DW$T$12, DW_AT_encoding(DW_ATE_signed)
    7859                      .dwattr $C$DW$T$12, DW_AT_name("long")
    7860                      .dwattr $C$DW$T$12, DW_AT_byte_size(0x02)
    7861              
    7862                      .dwendtag $C$DW$TU$12
    7863              
    7864              
    7865              $C$DW$TU$22     .dwtag  DW_TAG_type_unit
    7866                      .dwmtype  $C$DW$T$22
    7867              $C$DW$T$22      .dwtag  DW_TAG_typedef
    7868                      .dwattr $C$DW$T$22, DW_AT_name("__int32_t")
    7869                      .dwattr $C$DW$T$22, DW_AT_type(*$C$DW$T$12)
    7870                      .dwattr $C$DW$T$22, DW_AT_decl_file("C:/ti/ccs1010/ccs/tools/compiler/ti-cgt-c2000_20.2.1.LTS/include
    7871                      .dwattr $C$DW$T$22, DW_AT_decl_line(0x42)
    7872                      .dwattr $C$DW$T$22, DW_AT_decl_column(0x1d)
    7873              
    7874                      .dwendtag $C$DW$TU$22
    7875              
    7876              
    7877              $C$DW$TU$23     .dwtag  DW_TAG_type_unit
    7878                      .dwmtype  $C$DW$T$23
    7879              $C$DW$T$23      .dwtag  DW_TAG_typedef
    7880                      .dwattr $C$DW$T$23, DW_AT_name("int32_t")
    7881                      .dwattr $C$DW$T$23, DW_AT_type(*$C$DW$T$22)
    7882                      .dwattr $C$DW$T$23, DW_AT_decl_file("C:/ti/ccs1010/ccs/tools/compiler/ti-cgt-c2000_20.2.1.LTS/include
    7883                      .dwattr $C$DW$T$23, DW_AT_decl_line(0x30)
    7884                      .dwattr $C$DW$T$23, DW_AT_decl_column(0x14)
    7885              
TMS320C2000 Assembler PC v20.2.1 Mon Nov  2 17:14:28 2020

Copyright (c) 1996-2018 Texas Instruments Incorporated
bts_main.asm                                                         PAGE  165

    7886                      .dwendtag $C$DW$TU$23
    7887              
    7888              
    7889              $C$DW$TU$24     .dwtag  DW_TAG_type_unit
    7890                      .dwmtype  $C$DW$T$24
    7891              $C$DW$364       .dwtag  DW_TAG_TI_far_type
    7892                      .dwattr $C$DW$364, DW_AT_type(*$C$DW$T$23)
    7893              
    7894              $C$DW$T$24      .dwtag  DW_TAG_volatile_type
    7895                      .dwattr $C$DW$T$24, DW_AT_type(*$C$DW$364)
    7896              
    7897                      .dwendtag $C$DW$TU$24
    7898              
    7899              
    7900              $C$DW$TU$13     .dwtag  DW_TAG_type_unit
    7901                      .dwmtype  $C$DW$T$13
    7902              $C$DW$T$13      .dwtag  DW_TAG_base_type
    7903                      .dwattr $C$DW$T$13, DW_AT_encoding(DW_ATE_unsigned)
    7904                      .dwattr $C$DW$T$13, DW_AT_name("unsigned long")
    7905                      .dwattr $C$DW$T$13, DW_AT_byte_size(0x02)
    7906              
    7907                      .dwendtag $C$DW$TU$13
    7908              
    7909              
    7910              $C$DW$TU$40     .dwtag  DW_TAG_type_unit
    7911                      .dwmtype  $C$DW$T$40
    7912              $C$DW$T$40      .dwtag  DW_TAG_typedef
    7913                      .dwattr $C$DW$T$40, DW_AT_name("__uint32_t")
    7914                      .dwattr $C$DW$T$40, DW_AT_type(*$C$DW$T$13)
    7915                      .dwattr $C$DW$T$40, DW_AT_decl_file("C:/ti/ccs1010/ccs/tools/compiler/ti-cgt-c2000_20.2.1.LTS/include
    7916                      .dwattr $C$DW$T$40, DW_AT_decl_line(0x43)
    7917                      .dwattr $C$DW$T$40, DW_AT_decl_column(0x1c)
    7918              
    7919                      .dwendtag $C$DW$TU$40
    7920              
    7921              
    7922              $C$DW$TU$41     .dwtag  DW_TAG_type_unit
    7923                      .dwmtype  $C$DW$T$41
    7924              $C$DW$T$41      .dwtag  DW_TAG_typedef
    7925                      .dwattr $C$DW$T$41, DW_AT_name("uint32_t")
    7926                      .dwattr $C$DW$T$41, DW_AT_type(*$C$DW$T$40)
    7927                      .dwattr $C$DW$T$41, DW_AT_decl_file("C:/ti/ccs1010/ccs/tools/compiler/ti-cgt-c2000_20.2.1.LTS/include
    7928                      .dwattr $C$DW$T$41, DW_AT_decl_line(0x46)
    7929                      .dwattr $C$DW$T$41, DW_AT_decl_column(0x15)
    7930              
    7931                      .dwendtag $C$DW$TU$41
    7932              
    7933              
    7934              $C$DW$TU$14     .dwtag  DW_TAG_type_unit
    7935                      .dwmtype  $C$DW$T$14
    7936              $C$DW$T$14      .dwtag  DW_TAG_base_type
    7937                      .dwattr $C$DW$T$14, DW_AT_encoding(DW_ATE_signed)
    7938                      .dwattr $C$DW$T$14, DW_AT_name("long long")
    7939                      .dwattr $C$DW$T$14, DW_AT_byte_size(0x04)
    7940              
TMS320C2000 Assembler PC v20.2.1 Mon Nov  2 17:14:28 2020

Copyright (c) 1996-2018 Texas Instruments Incorporated
bts_main.asm                                                         PAGE  166

    7941                      .dwendtag $C$DW$TU$14
    7942              
    7943              
    7944              $C$DW$TU$15     .dwtag  DW_TAG_type_unit
    7945                      .dwmtype  $C$DW$T$15
    7946              $C$DW$T$15      .dwtag  DW_TAG_base_type
    7947                      .dwattr $C$DW$T$15, DW_AT_encoding(DW_ATE_unsigned)
    7948                      .dwattr $C$DW$T$15, DW_AT_name("unsigned long long")
    7949                      .dwattr $C$DW$T$15, DW_AT_byte_size(0x04)
    7950              
    7951                      .dwendtag $C$DW$TU$15
    7952              
    7953              
    7954              $C$DW$TU$16     .dwtag  DW_TAG_type_unit
    7955                      .dwmtype  $C$DW$T$16
    7956              $C$DW$T$16      .dwtag  DW_TAG_base_type
    7957                      .dwattr $C$DW$T$16, DW_AT_encoding(DW_ATE_float)
    7958                      .dwattr $C$DW$T$16, DW_AT_name("float")
    7959                      .dwattr $C$DW$T$16, DW_AT_byte_size(0x02)
    7960              
    7961                      .dwendtag $C$DW$TU$16
    7962              
    7963              
    7964              $C$DW$TU$36     .dwtag  DW_TAG_type_unit
    7965                      .dwmtype  $C$DW$T$36
    7966              
    7967              $C$DW$T$36      .dwtag  DW_TAG_array_type
    7968                      .dwattr $C$DW$T$36, DW_AT_type(*$C$DW$T$16)
    7969                      .dwattr $C$DW$T$36, DW_AT_byte_size(0x04)
    7970              $C$DW$365       .dwtag  DW_TAG_subrange_type
    7971                      .dwattr $C$DW$365, DW_AT_upper_bound(0x01)
    7972              
    7973                      .dwendtag $C$DW$T$36
    7974              
    7975                      .dwendtag $C$DW$TU$36
    7976              
    7977              
    7978              $C$DW$TU$125    .dwtag  DW_TAG_type_unit
    7979                      .dwmtype  $C$DW$T$125
    7980              $C$DW$366       .dwtag  DW_TAG_TI_far_type
    7981                      .dwattr $C$DW$366, DW_AT_type(*$C$DW$T$16)
    7982              
    7983              $C$DW$T$125     .dwtag  DW_TAG_const_type
    7984                      .dwattr $C$DW$T$125, DW_AT_type(*$C$DW$366)
    7985              
    7986                      .dwendtag $C$DW$TU$125
    7987              
    7988              
    7989              $C$DW$TU$26     .dwtag  DW_TAG_type_unit
    7990                      .dwmtype  $C$DW$T$26
    7991              $C$DW$T$26      .dwtag  DW_TAG_typedef
    7992                      .dwattr $C$DW$T$26, DW_AT_name("float32_t")
    7993                      .dwattr $C$DW$T$26, DW_AT_type(*$C$DW$T$16)
    7994                      .dwattr $C$DW$T$26, DW_AT_decl_file("C:\ti\C2000Ware_DigitalPower_SDK_3_00_01_00\c2000ware\driverlib\
    7995                      .dwattr $C$DW$T$26, DW_AT_decl_line(0x4c)
TMS320C2000 Assembler PC v20.2.1 Mon Nov  2 17:14:28 2020

Copyright (c) 1996-2018 Texas Instruments Incorporated
bts_main.asm                                                         PAGE  167

    7996                      .dwattr $C$DW$T$26, DW_AT_decl_column(0x17)
    7997              
    7998                      .dwendtag $C$DW$TU$26
    7999              
    8000              
    8001              $C$DW$TU$27     .dwtag  DW_TAG_type_unit
    8002                      .dwmtype  $C$DW$T$27
    8003              $C$DW$367       .dwtag  DW_TAG_TI_far_type
    8004                      .dwattr $C$DW$367, DW_AT_type(*$C$DW$T$26)
    8005              
    8006              $C$DW$T$27      .dwtag  DW_TAG_volatile_type
    8007                      .dwattr $C$DW$T$27, DW_AT_type(*$C$DW$367)
    8008              
    8009                      .dwendtag $C$DW$TU$27
    8010              
    8011              
    8012              $C$DW$TU$17     .dwtag  DW_TAG_type_unit
    8013                      .dwmtype  $C$DW$T$17
    8014              $C$DW$T$17      .dwtag  DW_TAG_base_type
    8015                      .dwattr $C$DW$T$17, DW_AT_encoding(DW_ATE_float)
    8016                      .dwattr $C$DW$T$17, DW_AT_name("double")
    8017                      .dwattr $C$DW$T$17, DW_AT_byte_size(0x04)
    8018              
    8019                      .dwendtag $C$DW$TU$17
    8020              
    8021              
    8022              $C$DW$TU$34     .dwtag  DW_TAG_type_unit
    8023                      .dwmtype  $C$DW$T$34
    8024              
    8025              $C$DW$T$34      .dwtag  DW_TAG_array_type
    8026                      .dwattr $C$DW$T$34, DW_AT_type(*$C$DW$T$17)
    8027                      .dwattr $C$DW$T$34, DW_AT_byte_size(0x08)
    8028              $C$DW$368       .dwtag  DW_TAG_subrange_type
    8029                      .dwattr $C$DW$368, DW_AT_upper_bound(0x01)
    8030              
    8031                      .dwendtag $C$DW$T$34
    8032              
    8033                      .dwendtag $C$DW$TU$34
    8034              
    8035              
    8036              $C$DW$TU$128    .dwtag  DW_TAG_type_unit
    8037                      .dwmtype  $C$DW$T$128
    8038              $C$DW$T$128     .dwtag  DW_TAG_pointer_type
    8039                      .dwattr $C$DW$T$128, DW_AT_type(*$C$DW$T$17)
    8040                      .dwattr $C$DW$T$128, DW_AT_address_class(0x20)
    8041              
    8042                      .dwendtag $C$DW$TU$128
    8043              
    8044              
    8045              $C$DW$TU$129    .dwtag  DW_TAG_type_unit
    8046                      .dwmtype  $C$DW$T$129
    8047              $C$DW$369       .dwtag  DW_TAG_TI_far_type
    8048                      .dwattr $C$DW$369, DW_AT_type(*$C$DW$T$128)
    8049              
    8050              $C$DW$T$129     .dwtag  DW_TAG_const_type
TMS320C2000 Assembler PC v20.2.1 Mon Nov  2 17:14:28 2020

Copyright (c) 1996-2018 Texas Instruments Incorporated
bts_main.asm                                                         PAGE  168

    8051                      .dwattr $C$DW$T$129, DW_AT_type(*$C$DW$369)
    8052              
    8053                      .dwendtag $C$DW$TU$129
    8054              
    8055              
    8056              $C$DW$TU$18     .dwtag  DW_TAG_type_unit
    8057                      .dwmtype  $C$DW$T$18
    8058              $C$DW$T$18      .dwtag  DW_TAG_base_type
    8059                      .dwattr $C$DW$T$18, DW_AT_encoding(DW_ATE_float)
    8060                      .dwattr $C$DW$T$18, DW_AT_name("long double")
    8061                      .dwattr $C$DW$T$18, DW_AT_byte_size(0x04)
    8062              
    8063                      .dwendtag $C$DW$TU$18
    8064              
    8065              
    8066              $C$DW$TU$38     .dwtag  DW_TAG_type_unit
    8067                      .dwmtype  $C$DW$T$38
    8068              
    8069              $C$DW$T$38      .dwtag  DW_TAG_array_type
    8070                      .dwattr $C$DW$T$38, DW_AT_type(*$C$DW$T$18)
    8071                      .dwattr $C$DW$T$38, DW_AT_byte_size(0x08)
    8072              $C$DW$370       .dwtag  DW_TAG_subrange_type
    8073                      .dwattr $C$DW$370, DW_AT_upper_bound(0x01)
    8074              
    8075                      .dwendtag $C$DW$T$38
    8076              
    8077                      .dwendtag $C$DW$TU$38
    8078              
    8079              
    8080              $C$DW$TU$131    .dwtag  DW_TAG_type_unit
    8081                      .dwmtype  $C$DW$T$131
    8082              $C$DW$T$131     .dwtag  DW_TAG_pointer_type
    8083                      .dwattr $C$DW$T$131, DW_AT_type(*$C$DW$T$18)
    8084                      .dwattr $C$DW$T$131, DW_AT_address_class(0x20)
    8085              
    8086                      .dwendtag $C$DW$TU$131
    8087              
    8088              
    8089              $C$DW$TU$132    .dwtag  DW_TAG_type_unit
    8090                      .dwmtype  $C$DW$T$132
    8091              $C$DW$371       .dwtag  DW_TAG_TI_far_type
    8092                      .dwattr $C$DW$371, DW_AT_type(*$C$DW$T$131)
    8093              
    8094              $C$DW$T$132     .dwtag  DW_TAG_const_type
    8095                      .dwattr $C$DW$T$132, DW_AT_type(*$C$DW$371)
    8096              
    8097                      .dwendtag $C$DW$TU$132
    8098              
    8099              
    8100              $C$DW$TU$134    .dwtag  DW_TAG_type_unit
    8101                      .dwmtype  $C$DW$T$134
    8102              $C$DW$T$134     .dwtag  DW_TAG_base_type
    8103                      .dwattr $C$DW$T$134, DW_AT_encoding(DW_ATE_unsigned_char)
    8104                      .dwattr $C$DW$T$134, DW_AT_name("unsigned char")
    8105                      .dwattr $C$DW$T$134, DW_AT_byte_size(0x01)
TMS320C2000 Assembler PC v20.2.1 Mon Nov  2 17:14:28 2020

Copyright (c) 1996-2018 Texas Instruments Incorporated
bts_main.asm                                                         PAGE  169

    8106              
    8107                      .dwendtag $C$DW$TU$134
    8108              
    8109              
    8110              $C$DW$TU$42     .dwtag  DW_TAG_type_unit
    8111                      .dwmtype  $C$DW$T$42
    8112              
    8113              $C$DW$T$42      .dwtag  DW_TAG_structure_type
    8114                      .dwattr $C$DW$T$42, DW_AT_name("dcl_css")
    8115                      .dwattr $C$DW$T$42, DW_AT_byte_size(0x0a)
    8116              $C$DW$372       .dwtag  DW_TAG_member
    8117                      .dwattr $C$DW$372, DW_AT_type(*$C$DW$T$26)
    8118                      .dwattr $C$DW$372, DW_AT_name("tpt")
    8119                      .dwattr $C$DW$372, DW_AT_accessibility(DW_ACCESS_public)
    8120                      .dwattr $C$DW$372, DW_AT_decl_file("C:\Users\a0230328\workspace_v10\bts_F2800x_4ch_v2\libraries\DCL\D
    8121                      .dwattr $C$DW$372, DW_AT_decl_line(0x91)
    8122                      .dwattr $C$DW$372, DW_AT_decl_column(0x0f)
    8123              
    8124              $C$DW$373       .dwtag  DW_TAG_member
    8125                      .dwattr $C$DW$373, DW_AT_type(*$C$DW$T$26)
    8126                      .dwattr $C$DW$373, DW_AT_name("T")
    8127                      .dwattr $C$DW$373, DW_AT_data_member_location[DW_OP_plus_uconst 0x2]
    8128                      .dwattr $C$DW$373, DW_AT_accessibility(DW_ACCESS_public)
    8129                      .dwattr $C$DW$373, DW_AT_decl_file("C:\Users\a0230328\workspace_v10\bts_F2800x_4ch_v2\libraries\DCL\D
    8130                      .dwattr $C$DW$373, DW_AT_decl_line(0x92)
    8131                      .dwattr $C$DW$373, DW_AT_decl_column(0x0f)
    8132              
    8133              $C$DW$374       .dwtag  DW_TAG_member
    8134                      .dwattr $C$DW$374, DW_AT_type(*$C$DW$T$41)
    8135                      .dwattr $C$DW$374, DW_AT_name("sts")
    8136                      .dwattr $C$DW$374, DW_AT_data_member_location[DW_OP_plus_uconst 0x4]
    8137                      .dwattr $C$DW$374, DW_AT_accessibility(DW_ACCESS_public)
    8138                      .dwattr $C$DW$374, DW_AT_decl_file("C:\Users\a0230328\workspace_v10\bts_F2800x_4ch_v2\libraries\DCL\D
    8139                      .dwattr $C$DW$374, DW_AT_decl_line(0x93)
    8140                      .dwattr $C$DW$374, DW_AT_decl_column(0x0e)
    8141              
    8142              $C$DW$375       .dwtag  DW_TAG_member
    8143                      .dwattr $C$DW$375, DW_AT_type(*$C$DW$T$41)
    8144                      .dwattr $C$DW$375, DW_AT_name("err")
    8145                      .dwattr $C$DW$375, DW_AT_data_member_location[DW_OP_plus_uconst 0x6]
    8146                      .dwattr $C$DW$375, DW_AT_accessibility(DW_ACCESS_public)
    8147                      .dwattr $C$DW$375, DW_AT_decl_file("C:\Users\a0230328\workspace_v10\bts_F2800x_4ch_v2\libraries\DCL\D
    8148                      .dwattr $C$DW$375, DW_AT_decl_line(0x94)
    8149                      .dwattr $C$DW$375, DW_AT_decl_column(0x0e)
    8150              
    8151              $C$DW$376       .dwtag  DW_TAG_member
    8152                      .dwattr $C$DW$376, DW_AT_type(*$C$DW$T$41)
    8153                      .dwattr $C$DW$376, DW_AT_name("loc")
    8154                      .dwattr $C$DW$376, DW_AT_data_member_location[DW_OP_plus_uconst 0x8]
    8155                      .dwattr $C$DW$376, DW_AT_accessibility(DW_ACCESS_public)
    8156                      .dwattr $C$DW$376, DW_AT_decl_file("C:\Users\a0230328\workspace_v10\bts_F2800x_4ch_v2\libraries\DCL\D
    8157                      .dwattr $C$DW$376, DW_AT_decl_line(0x95)
    8158                      .dwattr $C$DW$376, DW_AT_decl_column(0x0e)
    8159              
    8160                      .dwattr $C$DW$T$42, DW_AT_decl_file("C:\Users\a0230328\workspace_v10\bts_F2800x_4ch_v2\libraries\DCL\
TMS320C2000 Assembler PC v20.2.1 Mon Nov  2 17:14:28 2020

Copyright (c) 1996-2018 Texas Instruments Incorporated
bts_main.asm                                                         PAGE  170

    8161                      .dwattr $C$DW$T$42, DW_AT_decl_line(0x90)
    8162                      .dwattr $C$DW$T$42, DW_AT_decl_column(0x19)
    8163                      .dwendtag $C$DW$T$42
    8164              
    8165                      .dwendtag $C$DW$TU$42
    8166              
    8167              
    8168              $C$DW$TU$46     .dwtag  DW_TAG_type_unit
    8169                      .dwmtype  $C$DW$T$46
    8170              $C$DW$377       .dwtag  DW_TAG_TI_far_type
    8171                      .dwattr $C$DW$377, DW_AT_type(*$C$DW$T$42)
    8172              
    8173              $C$DW$T$46      .dwtag  DW_TAG_volatile_type
    8174                      .dwattr $C$DW$T$46, DW_AT_type(*$C$DW$377)
    8175              
    8176                      .dwendtag $C$DW$TU$46
    8177              
    8178              
    8179              $C$DW$TU$47     .dwtag  DW_TAG_type_unit
    8180                      .dwmtype  $C$DW$T$47
    8181              $C$DW$T$47      .dwtag  DW_TAG_typedef
    8182                      .dwattr $C$DW$T$47, DW_AT_name("DCL_CSS")
    8183                      .dwattr $C$DW$T$47, DW_AT_type(*$C$DW$T$46)
    8184                      .dwattr $C$DW$T$47, DW_AT_decl_file("C:\Users\a0230328\workspace_v10\bts_F2800x_4ch_v2\libraries\DCL\
    8185                      .dwattr $C$DW$T$47, DW_AT_decl_line(0x96)
    8186                      .dwattr $C$DW$T$47, DW_AT_decl_column(0x03)
    8187              
    8188                      .dwendtag $C$DW$TU$47
    8189              
    8190              
    8191              $C$DW$TU$48     .dwtag  DW_TAG_type_unit
    8192                      .dwmtype  $C$DW$T$48
    8193              $C$DW$T$48      .dwtag  DW_TAG_pointer_type
    8194                      .dwattr $C$DW$T$48, DW_AT_type(*$C$DW$T$47)
    8195                      .dwattr $C$DW$T$48, DW_AT_address_class(0x20)
    8196              
    8197                      .dwendtag $C$DW$TU$48
    8198              
    8199              
    8200              $C$DW$TU$49     .dwtag  DW_TAG_type_unit
    8201                      .dwmtype  $C$DW$T$49
    8202              
    8203              $C$DW$T$49      .dwtag  DW_TAG_structure_type
    8204                      .dwattr $C$DW$T$49, DW_AT_name("dcl_df22")
    8205                      .dwattr $C$DW$T$49, DW_AT_byte_size(0x12)
    8206              $C$DW$378       .dwtag  DW_TAG_member
    8207                      .dwattr $C$DW$378, DW_AT_type(*$C$DW$T$26)
    8208                      .dwattr $C$DW$378, DW_AT_name("b0")
    8209                      .dwattr $C$DW$378, DW_AT_accessibility(DW_ACCESS_public)
    8210                      .dwattr $C$DW$378, DW_AT_decl_file("C:/Users/a0230328/workspace_v10/bts_F2800x_4ch_v2/libraries/DCL/D
    8211                      .dwattr $C$DW$378, DW_AT_decl_line(0x4ab)
    8212                      .dwattr $C$DW$378, DW_AT_decl_column(0x0f)
    8213              
    8214              $C$DW$379       .dwtag  DW_TAG_member
    8215                      .dwattr $C$DW$379, DW_AT_type(*$C$DW$T$26)
TMS320C2000 Assembler PC v20.2.1 Mon Nov  2 17:14:28 2020

Copyright (c) 1996-2018 Texas Instruments Incorporated
bts_main.asm                                                         PAGE  171

    8216                      .dwattr $C$DW$379, DW_AT_name("b1")
    8217                      .dwattr $C$DW$379, DW_AT_data_member_location[DW_OP_plus_uconst 0x2]
    8218                      .dwattr $C$DW$379, DW_AT_accessibility(DW_ACCESS_public)
    8219                      .dwattr $C$DW$379, DW_AT_decl_file("C:/Users/a0230328/workspace_v10/bts_F2800x_4ch_v2/libraries/DCL/D
    8220                      .dwattr $C$DW$379, DW_AT_decl_line(0x4ac)
    8221                      .dwattr $C$DW$379, DW_AT_decl_column(0x0f)
    8222              
    8223              $C$DW$380       .dwtag  DW_TAG_member
    8224                      .dwattr $C$DW$380, DW_AT_type(*$C$DW$T$26)
    8225                      .dwattr $C$DW$380, DW_AT_name("b2")
    8226                      .dwattr $C$DW$380, DW_AT_data_member_location[DW_OP_plus_uconst 0x4]
    8227                      .dwattr $C$DW$380, DW_AT_accessibility(DW_ACCESS_public)
    8228                      .dwattr $C$DW$380, DW_AT_decl_file("C:/Users/a0230328/workspace_v10/bts_F2800x_4ch_v2/libraries/DCL/D
    8229                      .dwattr $C$DW$380, DW_AT_decl_line(0x4ad)
    8230                      .dwattr $C$DW$380, DW_AT_decl_column(0x0f)
    8231              
    8232              $C$DW$381       .dwtag  DW_TAG_member
    8233                      .dwattr $C$DW$381, DW_AT_type(*$C$DW$T$26)
    8234                      .dwattr $C$DW$381, DW_AT_name("a1")
    8235                      .dwattr $C$DW$381, DW_AT_data_member_location[DW_OP_plus_uconst 0x6]
    8236                      .dwattr $C$DW$381, DW_AT_accessibility(DW_ACCESS_public)
    8237                      .dwattr $C$DW$381, DW_AT_decl_file("C:/Users/a0230328/workspace_v10/bts_F2800x_4ch_v2/libraries/DCL/D
    8238                      .dwattr $C$DW$381, DW_AT_decl_line(0x4ae)
    8239                      .dwattr $C$DW$381, DW_AT_decl_column(0x0f)
    8240              
    8241              $C$DW$382       .dwtag  DW_TAG_member
    8242                      .dwattr $C$DW$382, DW_AT_type(*$C$DW$T$26)
    8243                      .dwattr $C$DW$382, DW_AT_name("a2")
    8244                      .dwattr $C$DW$382, DW_AT_data_member_location[DW_OP_plus_uconst 0x8]
    8245                      .dwattr $C$DW$382, DW_AT_accessibility(DW_ACCESS_public)
    8246                      .dwattr $C$DW$382, DW_AT_decl_file("C:/Users/a0230328/workspace_v10/bts_F2800x_4ch_v2/libraries/DCL/D
    8247                      .dwattr $C$DW$382, DW_AT_decl_line(0x4af)
    8248                      .dwattr $C$DW$382, DW_AT_decl_column(0x0f)
    8249              
    8250              $C$DW$383       .dwtag  DW_TAG_member
    8251                      .dwattr $C$DW$383, DW_AT_type(*$C$DW$T$26)
    8252                      .dwattr $C$DW$383, DW_AT_name("x1")
    8253                      .dwattr $C$DW$383, DW_AT_data_member_location[DW_OP_plus_uconst 0xa]
    8254                      .dwattr $C$DW$383, DW_AT_accessibility(DW_ACCESS_public)
    8255                      .dwattr $C$DW$383, DW_AT_decl_file("C:/Users/a0230328/workspace_v10/bts_F2800x_4ch_v2/libraries/DCL/D
    8256                      .dwattr $C$DW$383, DW_AT_decl_line(0x4b0)
    8257                      .dwattr $C$DW$383, DW_AT_decl_column(0x0f)
    8258              
    8259              $C$DW$384       .dwtag  DW_TAG_member
    8260                      .dwattr $C$DW$384, DW_AT_type(*$C$DW$T$26)
    8261                      .dwattr $C$DW$384, DW_AT_name("x2")
    8262                      .dwattr $C$DW$384, DW_AT_data_member_location[DW_OP_plus_uconst 0xc]
    8263                      .dwattr $C$DW$384, DW_AT_accessibility(DW_ACCESS_public)
    8264                      .dwattr $C$DW$384, DW_AT_decl_file("C:/Users/a0230328/workspace_v10/bts_F2800x_4ch_v2/libraries/DCL/D
    8265                      .dwattr $C$DW$384, DW_AT_decl_line(0x4b1)
    8266                      .dwattr $C$DW$384, DW_AT_decl_column(0x0f)
    8267              
    8268              $C$DW$385       .dwtag  DW_TAG_member
    8269                      .dwattr $C$DW$385, DW_AT_type(*$C$DW$T$45)
    8270                      .dwattr $C$DW$385, DW_AT_name("sps")
TMS320C2000 Assembler PC v20.2.1 Mon Nov  2 17:14:28 2020

Copyright (c) 1996-2018 Texas Instruments Incorporated
bts_main.asm                                                         PAGE  172

    8271                      .dwattr $C$DW$385, DW_AT_data_member_location[DW_OP_plus_uconst 0xe]
    8272                      .dwattr $C$DW$385, DW_AT_accessibility(DW_ACCESS_public)
    8273                      .dwattr $C$DW$385, DW_AT_decl_file("C:/Users/a0230328/workspace_v10/bts_F2800x_4ch_v2/libraries/DCL/D
    8274                      .dwattr $C$DW$385, DW_AT_decl_line(0x4b2)
    8275                      .dwattr $C$DW$385, DW_AT_decl_column(0x13)
    8276              
    8277              $C$DW$386       .dwtag  DW_TAG_member
    8278                      .dwattr $C$DW$386, DW_AT_type(*$C$DW$T$48)
    8279                      .dwattr $C$DW$386, DW_AT_name("css")
    8280                      .dwattr $C$DW$386, DW_AT_data_member_location[DW_OP_plus_uconst 0x10]
    8281                      .dwattr $C$DW$386, DW_AT_accessibility(DW_ACCESS_public)
    8282                      .dwattr $C$DW$386, DW_AT_decl_file("C:/Users/a0230328/workspace_v10/bts_F2800x_4ch_v2/libraries/DCL/D
    8283                      .dwattr $C$DW$386, DW_AT_decl_line(0x4b3)
    8284                      .dwattr $C$DW$386, DW_AT_decl_column(0x0e)
    8285              
    8286                      .dwattr $C$DW$T$49, DW_AT_decl_file("C:/Users/a0230328/workspace_v10/bts_F2800x_4ch_v2/libraries/DCL/
    8287                      .dwattr $C$DW$T$49, DW_AT_decl_line(0x4aa)
    8288                      .dwattr $C$DW$T$49, DW_AT_decl_column(0x19)
    8289                      .dwendtag $C$DW$T$49
    8290              
    8291                      .dwendtag $C$DW$TU$49
    8292              
    8293              
    8294              $C$DW$TU$93     .dwtag  DW_TAG_type_unit
    8295                      .dwmtype  $C$DW$T$93
    8296              $C$DW$387       .dwtag  DW_TAG_TI_far_type
    8297                      .dwattr $C$DW$387, DW_AT_type(*$C$DW$T$49)
    8298              
    8299              $C$DW$T$93      .dwtag  DW_TAG_volatile_type
    8300                      .dwattr $C$DW$T$93, DW_AT_type(*$C$DW$387)
    8301              
    8302                      .dwendtag $C$DW$TU$93
    8303              
    8304              
    8305              $C$DW$TU$94     .dwtag  DW_TAG_type_unit
    8306                      .dwmtype  $C$DW$T$94
    8307              $C$DW$T$94      .dwtag  DW_TAG_typedef
    8308                      .dwattr $C$DW$T$94, DW_AT_name("DCL_DF22")
    8309                      .dwattr $C$DW$T$94, DW_AT_type(*$C$DW$T$93)
    8310                      .dwattr $C$DW$T$94, DW_AT_decl_file("C:/Users/a0230328/workspace_v10/bts_F2800x_4ch_v2/libraries/DCL/
    8311                      .dwattr $C$DW$T$94, DW_AT_decl_line(0x4b4)
    8312                      .dwattr $C$DW$T$94, DW_AT_decl_column(0x03)
    8313              
    8314                      .dwendtag $C$DW$TU$94
    8315              
    8316              
    8317              $C$DW$TU$50     .dwtag  DW_TAG_type_unit
    8318                      .dwmtype  $C$DW$T$50
    8319              
    8320              $C$DW$T$50      .dwtag  DW_TAG_structure_type
    8321                      .dwattr $C$DW$T$50, DW_AT_name("dcl_df22_sps")
    8322                      .dwattr $C$DW$T$50, DW_AT_byte_size(0x0a)
    8323              $C$DW$388       .dwtag  DW_TAG_member
    8324                      .dwattr $C$DW$388, DW_AT_type(*$C$DW$T$26)
    8325                      .dwattr $C$DW$388, DW_AT_name("b0")
TMS320C2000 Assembler PC v20.2.1 Mon Nov  2 17:14:28 2020

Copyright (c) 1996-2018 Texas Instruments Incorporated
bts_main.asm                                                         PAGE  173

    8326                      .dwattr $C$DW$388, DW_AT_accessibility(DW_ACCESS_public)
    8327                      .dwattr $C$DW$388, DW_AT_decl_file("C:/Users/a0230328/workspace_v10/bts_F2800x_4ch_v2/libraries/DCL/D
    8328                      .dwattr $C$DW$388, DW_AT_decl_line(0x49f)
    8329                      .dwattr $C$DW$388, DW_AT_decl_column(0x0f)
    8330              
    8331              $C$DW$389       .dwtag  DW_TAG_member
    8332                      .dwattr $C$DW$389, DW_AT_type(*$C$DW$T$26)
    8333                      .dwattr $C$DW$389, DW_AT_name("b1")
    8334                      .dwattr $C$DW$389, DW_AT_data_member_location[DW_OP_plus_uconst 0x2]
    8335                      .dwattr $C$DW$389, DW_AT_accessibility(DW_ACCESS_public)
    8336                      .dwattr $C$DW$389, DW_AT_decl_file("C:/Users/a0230328/workspace_v10/bts_F2800x_4ch_v2/libraries/DCL/D
    8337                      .dwattr $C$DW$389, DW_AT_decl_line(0x4a0)
    8338                      .dwattr $C$DW$389, DW_AT_decl_column(0x0f)
    8339              
    8340              $C$DW$390       .dwtag  DW_TAG_member
    8341                      .dwattr $C$DW$390, DW_AT_type(*$C$DW$T$26)
    8342                      .dwattr $C$DW$390, DW_AT_name("b2")
    8343                      .dwattr $C$DW$390, DW_AT_data_member_location[DW_OP_plus_uconst 0x4]
    8344                      .dwattr $C$DW$390, DW_AT_accessibility(DW_ACCESS_public)
    8345                      .dwattr $C$DW$390, DW_AT_decl_file("C:/Users/a0230328/workspace_v10/bts_F2800x_4ch_v2/libraries/DCL/D
    8346                      .dwattr $C$DW$390, DW_AT_decl_line(0x4a1)
    8347                      .dwattr $C$DW$390, DW_AT_decl_column(0x0f)
    8348              
    8349              $C$DW$391       .dwtag  DW_TAG_member
    8350                      .dwattr $C$DW$391, DW_AT_type(*$C$DW$T$26)
    8351                      .dwattr $C$DW$391, DW_AT_name("a1")
    8352                      .dwattr $C$DW$391, DW_AT_data_member_location[DW_OP_plus_uconst 0x6]
    8353                      .dwattr $C$DW$391, DW_AT_accessibility(DW_ACCESS_public)
    8354                      .dwattr $C$DW$391, DW_AT_decl_file("C:/Users/a0230328/workspace_v10/bts_F2800x_4ch_v2/libraries/DCL/D
    8355                      .dwattr $C$DW$391, DW_AT_decl_line(0x4a2)
    8356                      .dwattr $C$DW$391, DW_AT_decl_column(0x0f)
    8357              
    8358              $C$DW$392       .dwtag  DW_TAG_member
    8359                      .dwattr $C$DW$392, DW_AT_type(*$C$DW$T$26)
    8360                      .dwattr $C$DW$392, DW_AT_name("a2")
    8361                      .dwattr $C$DW$392, DW_AT_data_member_location[DW_OP_plus_uconst 0x8]
    8362                      .dwattr $C$DW$392, DW_AT_accessibility(DW_ACCESS_public)
    8363                      .dwattr $C$DW$392, DW_AT_decl_file("C:/Users/a0230328/workspace_v10/bts_F2800x_4ch_v2/libraries/DCL/D
    8364                      .dwattr $C$DW$392, DW_AT_decl_line(0x4a3)
    8365                      .dwattr $C$DW$392, DW_AT_decl_column(0x0f)
    8366              
    8367                      .dwattr $C$DW$T$50, DW_AT_decl_file("C:/Users/a0230328/workspace_v10/bts_F2800x_4ch_v2/libraries/DCL/
    8368                      .dwattr $C$DW$T$50, DW_AT_decl_line(0x49e)
    8369                      .dwattr $C$DW$T$50, DW_AT_decl_column(0x19)
    8370                      .dwendtag $C$DW$T$50
    8371              
    8372                      .dwendtag $C$DW$TU$50
    8373              
    8374              
    8375              $C$DW$TU$43     .dwtag  DW_TAG_type_unit
    8376                      .dwmtype  $C$DW$T$43
    8377              $C$DW$393       .dwtag  DW_TAG_TI_far_type
    8378                      .dwattr $C$DW$393, DW_AT_type(*$C$DW$T$50)
    8379              
    8380              $C$DW$T$43      .dwtag  DW_TAG_volatile_type
TMS320C2000 Assembler PC v20.2.1 Mon Nov  2 17:14:28 2020

Copyright (c) 1996-2018 Texas Instruments Incorporated
bts_main.asm                                                         PAGE  174

    8381                      .dwattr $C$DW$T$43, DW_AT_type(*$C$DW$393)
    8382              
    8383                      .dwendtag $C$DW$TU$43
    8384              
    8385              
    8386              $C$DW$TU$44     .dwtag  DW_TAG_type_unit
    8387                      .dwmtype  $C$DW$T$44
    8388              $C$DW$T$44      .dwtag  DW_TAG_typedef
    8389                      .dwattr $C$DW$T$44, DW_AT_name("DCL_DF22_SPS")
    8390                      .dwattr $C$DW$T$44, DW_AT_type(*$C$DW$T$43)
    8391                      .dwattr $C$DW$T$44, DW_AT_decl_file("C:/Users/a0230328/workspace_v10/bts_F2800x_4ch_v2/libraries/DCL/
    8392                      .dwattr $C$DW$T$44, DW_AT_decl_line(0x4a4)
    8393                      .dwattr $C$DW$T$44, DW_AT_decl_column(0x03)
    8394              
    8395                      .dwendtag $C$DW$TU$44
    8396              
    8397              
    8398              $C$DW$TU$45     .dwtag  DW_TAG_type_unit
    8399                      .dwmtype  $C$DW$T$45
    8400              $C$DW$T$45      .dwtag  DW_TAG_pointer_type
    8401                      .dwattr $C$DW$T$45, DW_AT_type(*$C$DW$T$44)
    8402                      .dwattr $C$DW$T$45, DW_AT_address_class(0x20)
    8403              
    8404                      .dwendtag $C$DW$TU$45
    8405              

No Assembly Errors, No Assembly Warnings
