TMS320C2000 Assembler PC v20.2.1 Mon Nov  2 17:14:28 2020

Copyright (c) 1996-2018 Texas Instruments Incorporated
bts_main.asm                                                         PAGE    1

       1              ;***************************************************************
       2              ;* TMS320C2000 G3 C/C++ Codegen                               PC v20.2.1.LTS *
       3              ;* Date/Time created: Mon Nov  2 17:14:27 2020                 *
       4              ;***************************************************************
       5                      .compiler_opts --abi=eabi --cla_support=cla2 --diag_wrap=off --float_support=fpu32 --hll_source=on --
       6                      .asg    XAR2, FP
       7              
       8              $C$DW$CU        .dwtag  DW_TAG_compile_unit
       9                      .dwattr $C$DW$CU, DW_AT_name("../bts_main.c")
      10                      .dwattr $C$DW$CU, DW_AT_producer("TI TMS320C2000 G3 C/C++ Codegen PC v20.2.1.LTS Copyright (c) 1996-2
      11                      .dwattr $C$DW$CU, DW_AT_TI_version(0x01)
      12                      .dwattr $C$DW$CU, DW_AT_comp_dir("C:\Users\a0230328\workspace_v10\bts_F2800x_4ch_v2\RELEASE")
      13              
      14              $C$DW$1 .dwtag  DW_TAG_subprogram
      15                      .dwattr $C$DW$1, DW_AT_name("SPI_clearInterruptStatus")
      16                      .dwattr $C$DW$1, DW_AT_linkage_name("SPI_clearInterruptStatus")
      17                      .dwattr $C$DW$1, DW_AT_declaration
      18                      .dwattr $C$DW$1, DW_AT_external
      19                      .dwattr $C$DW$1, DW_AT_decl_file("C:/ti/C2000Ware_DigitalPower_SDK_3_00_01_00/c2000ware/driverlib/f28
      20                      .dwattr $C$DW$1, DW_AT_decl_line(0x50e)
      21                      .dwattr $C$DW$1, DW_AT_decl_column(0x01)
      22              $C$DW$2 .dwtag  DW_TAG_formal_parameter
      23                      .dwattr $C$DW$2, DW_AT_type(*$C$DW$T$41)
      24              
      25              $C$DW$3 .dwtag  DW_TAG_formal_parameter
      26                      .dwattr $C$DW$3, DW_AT_type(*$C$DW$T$41)
      27              
      28                      .dwendtag $C$DW$1
      29              
      30              
      31              $C$DW$4 .dwtag  DW_TAG_subprogram
      32                      .dwattr $C$DW$4, DW_AT_name("BTS_HAL_setupDevice")
      33                      .dwattr $C$DW$4, DW_AT_linkage_name("BTS_HAL_setupDevice")
      34                      .dwattr $C$DW$4, DW_AT_declaration
      35                      .dwattr $C$DW$4, DW_AT_external
      36                      .dwattr $C$DW$4, DW_AT_decl_file("C:\Users\a0230328\workspace_v10\bts_F2800x_4ch_v2\bts_hal.h")
      37                      .dwattr $C$DW$4, DW_AT_decl_line(0x49)
      38                      .dwattr $C$DW$4, DW_AT_decl_column(0x06)
      39                      .dwendtag $C$DW$4
      40              
      41              
      42              $C$DW$5 .dwtag  DW_TAG_subprogram
      43                      .dwattr $C$DW$5, DW_AT_name("BTS_HAL_setupSyncBuckPinsGpio")
      44                      .dwattr $C$DW$5, DW_AT_linkage_name("BTS_HAL_setupSyncBuckPinsGpio")
      45                      .dwattr $C$DW$5, DW_AT_declaration
      46                      .dwattr $C$DW$5, DW_AT_external
      47                      .dwattr $C$DW$5, DW_AT_decl_file("C:\Users\a0230328\workspace_v10\bts_F2800x_4ch_v2\bts_hal.h")
      48                      .dwattr $C$DW$5, DW_AT_decl_line(0x4e)
      49                      .dwattr $C$DW$5, DW_AT_decl_column(0x06)
      50                      .dwendtag $C$DW$5
      51              
      52              
      53              $C$DW$6 .dwtag  DW_TAG_subprogram
      54                      .dwattr $C$DW$6, DW_AT_name("BTS_HAL_disableEpwmCounting")
      55                      .dwattr $C$DW$6, DW_AT_linkage_name("BTS_HAL_disableEpwmCounting")
TMS320C2000 Assembler PC v20.2.1 Mon Nov  2 17:14:28 2020

Copyright (c) 1996-2018 Texas Instruments Incorporated
bts_main.asm                                                         PAGE    2

      56                      .dwattr $C$DW$6, DW_AT_declaration
      57                      .dwattr $C$DW$6, DW_AT_external
      58                      .dwattr $C$DW$6, DW_AT_decl_file("C:\Users\a0230328\workspace_v10\bts_F2800x_4ch_v2\bts_hal.h")
      59                      .dwattr $C$DW$6, DW_AT_decl_line(0x53)
      60                      .dwattr $C$DW$6, DW_AT_decl_column(0x06)
      61                      .dwendtag $C$DW$6
      62              
      63              
      64              $C$DW$7 .dwtag  DW_TAG_subprogram
      65                      .dwattr $C$DW$7, DW_AT_name("BTS_HAL_setupSyncBuckPwm")
      66                      .dwattr $C$DW$7, DW_AT_linkage_name("BTS_HAL_setupSyncBuckPwm")
      67                      .dwattr $C$DW$7, DW_AT_declaration
      68                      .dwattr $C$DW$7, DW_AT_external
      69                      .dwattr $C$DW$7, DW_AT_decl_file("C:\Users\a0230328\workspace_v10\bts_F2800x_4ch_v2\bts_hal.h")
      70                      .dwattr $C$DW$7, DW_AT_decl_line(0x50)
      71                      .dwattr $C$DW$7, DW_AT_decl_column(0x06)
      72              $C$DW$8 .dwtag  DW_TAG_formal_parameter
      73                      .dwattr $C$DW$8, DW_AT_type(*$C$DW$T$41)
      74              
      75                      .dwendtag $C$DW$7
      76              
      77              
      78              $C$DW$9 .dwtag  DW_TAG_subprogram
      79                      .dwattr $C$DW$9, DW_AT_name("BTS_setupHrpwmMepScaleFactor")
      80                      .dwattr $C$DW$9, DW_AT_linkage_name("BTS_setupHrpwmMepScaleFactor")
      81                      .dwattr $C$DW$9, DW_AT_declaration
      82                      .dwattr $C$DW$9, DW_AT_external
      83                      .dwattr $C$DW$9, DW_AT_decl_file("C:/Users/a0230328/workspace_v10/bts_F2800x_4ch_v2/bts.h")
      84                      .dwattr $C$DW$9, DW_AT_decl_line(0x120)
      85                      .dwattr $C$DW$9, DW_AT_decl_column(0x06)
      86                      .dwendtag $C$DW$9
      87              
      88              
      89              $C$DW$10        .dwtag  DW_TAG_subprogram
      90                      .dwattr $C$DW$10, DW_AT_name("BTS_HAL_SetupSpiPinsGpio")
      91                      .dwattr $C$DW$10, DW_AT_linkage_name("BTS_HAL_SetupSpiPinsGpio")
      92                      .dwattr $C$DW$10, DW_AT_declaration
      93                      .dwattr $C$DW$10, DW_AT_external
      94                      .dwattr $C$DW$10, DW_AT_decl_file("C:\Users\a0230328\workspace_v10\bts_F2800x_4ch_v2\bts_hal.h")
      95                      .dwattr $C$DW$10, DW_AT_decl_line(0x5a)
      96                      .dwattr $C$DW$10, DW_AT_decl_column(0x06)
      97                      .dwendtag $C$DW$10
      98              
      99              
     100              $C$DW$11        .dwtag  DW_TAG_subprogram
     101                      .dwattr $C$DW$11, DW_AT_name("BTS_HAL_SetupSpi")
     102                      .dwattr $C$DW$11, DW_AT_linkage_name("BTS_HAL_SetupSpi")
     103                      .dwattr $C$DW$11, DW_AT_declaration
     104                      .dwattr $C$DW$11, DW_AT_external
     105                      .dwattr $C$DW$11, DW_AT_decl_file("C:\Users\a0230328\workspace_v10\bts_F2800x_4ch_v2\bts_hal.h")
     106                      .dwattr $C$DW$11, DW_AT_decl_line(0x59)
     107                      .dwattr $C$DW$11, DW_AT_decl_column(0x06)
     108                      .dwendtag $C$DW$11
     109              
     110              
TMS320C2000 Assembler PC v20.2.1 Mon Nov  2 17:14:28 2020

Copyright (c) 1996-2018 Texas Instruments Incorporated
bts_main.asm                                                         PAGE    3

     111              $C$DW$12        .dwtag  DW_TAG_subprogram
     112                      .dwattr $C$DW$12, DW_AT_name("BTS_HAL_setupExAdcGpio")
     113                      .dwattr $C$DW$12, DW_AT_linkage_name("BTS_HAL_setupExAdcGpio")
     114                      .dwattr $C$DW$12, DW_AT_declaration
     115                      .dwattr $C$DW$12, DW_AT_external
     116                      .dwattr $C$DW$12, DW_AT_decl_file("C:\Users\a0230328\workspace_v10\bts_F2800x_4ch_v2\bts_hal.h")
     117                      .dwattr $C$DW$12, DW_AT_decl_line(0x4c)
     118                      .dwattr $C$DW$12, DW_AT_decl_column(0x06)
     119                      .dwendtag $C$DW$12
     120              
     121              
     122              $C$DW$13        .dwtag  DW_TAG_subprogram
     123                      .dwattr $C$DW$13, DW_AT_name("BTS_HAL_setupExAdc")
     124                      .dwattr $C$DW$13, DW_AT_linkage_name("BTS_HAL_setupExAdc")
     125                      .dwattr $C$DW$13, DW_AT_declaration
     126                      .dwattr $C$DW$13, DW_AT_external
     127                      .dwattr $C$DW$13, DW_AT_decl_file("C:\Users\a0230328\workspace_v10\bts_F2800x_4ch_v2\bts_hal.h")
     128                      .dwattr $C$DW$13, DW_AT_decl_line(0x4a)
     129                      .dwattr $C$DW$13, DW_AT_decl_column(0x06)
     130                      .dwendtag $C$DW$13
     131              
     132              
     133              $C$DW$14        .dwtag  DW_TAG_subprogram
     134                      .dwattr $C$DW$14, DW_AT_name("BTS_initUserVariables")
     135                      .dwattr $C$DW$14, DW_AT_linkage_name("BTS_initUserVariables")
     136                      .dwattr $C$DW$14, DW_AT_declaration
     137                      .dwattr $C$DW$14, DW_AT_external
     138                      .dwattr $C$DW$14, DW_AT_decl_file("C:/Users/a0230328/workspace_v10/bts_F2800x_4ch_v2/bts.h")
     139                      .dwattr $C$DW$14, DW_AT_decl_line(0x123)
     140                      .dwattr $C$DW$14, DW_AT_decl_column(0x06)
     141                      .dwendtag $C$DW$14
     142              
     143              
     144              $C$DW$15        .dwtag  DW_TAG_subprogram
     145                      .dwattr $C$DW$15, DW_AT_name("BTS_initProgramVariables")
     146                      .dwattr $C$DW$15, DW_AT_linkage_name("BTS_initProgramVariables")
     147                      .dwattr $C$DW$15, DW_AT_declaration
     148                      .dwattr $C$DW$15, DW_AT_external
     149                      .dwattr $C$DW$15, DW_AT_decl_file("C:/Users/a0230328/workspace_v10/bts_F2800x_4ch_v2/bts.h")
     150                      .dwattr $C$DW$15, DW_AT_decl_line(0x124)
     151                      .dwattr $C$DW$15, DW_AT_decl_column(0x06)
     152                      .dwendtag $C$DW$15
     153              
     154              
     155              $C$DW$16        .dwtag  DW_TAG_subprogram
     156                      .dwattr $C$DW$16, DW_AT_name("BTS_initController")
     157                      .dwattr $C$DW$16, DW_AT_linkage_name("BTS_initController")
     158                      .dwattr $C$DW$16, DW_AT_declaration
     159                      .dwattr $C$DW$16, DW_AT_external
     160                      .dwattr $C$DW$16, DW_AT_decl_file("C:/Users/a0230328/workspace_v10/bts_F2800x_4ch_v2/bts.h")
     161                      .dwattr $C$DW$16, DW_AT_decl_line(0x125)
     162                      .dwattr $C$DW$16, DW_AT_decl_column(0x06)
     163                      .dwendtag $C$DW$16
     164              
     165              
TMS320C2000 Assembler PC v20.2.1 Mon Nov  2 17:14:28 2020

Copyright (c) 1996-2018 Texas Instruments Incorporated
bts_main.asm                                                         PAGE    4

     166              $C$DW$17        .dwtag  DW_TAG_subprogram
     167                      .dwattr $C$DW$17, DW_AT_name("BTS_setupSfra")
     168                      .dwattr $C$DW$17, DW_AT_linkage_name("BTS_setupSfra")
     169                      .dwattr $C$DW$17, DW_AT_declaration
     170                      .dwattr $C$DW$17, DW_AT_external
     171                      .dwattr $C$DW$17, DW_AT_decl_file("C:/Users/a0230328/workspace_v10/bts_F2800x_4ch_v2/bts.h")
     172                      .dwattr $C$DW$17, DW_AT_decl_line(0x11d)
     173                      .dwattr $C$DW$17, DW_AT_decl_column(0x06)
     174                      .dwendtag $C$DW$17
     175              
     176              
     177              $C$DW$18        .dwtag  DW_TAG_subprogram
     178                      .dwattr $C$DW$18, DW_AT_name("BTS_setupSfraGui")
     179                      .dwattr $C$DW$18, DW_AT_linkage_name("BTS_setupSfraGui")
     180                      .dwattr $C$DW$18, DW_AT_declaration
     181                      .dwattr $C$DW$18, DW_AT_external
     182                      .dwattr $C$DW$18, DW_AT_decl_file("C:/Users/a0230328/workspace_v10/bts_F2800x_4ch_v2/bts.h")
     183                      .dwattr $C$DW$18, DW_AT_decl_line(0x11e)
     184                      .dwattr $C$DW$18, DW_AT_decl_column(0x06)
     185                      .dwendtag $C$DW$18
     186              
     187              
     188              $C$DW$19        .dwtag  DW_TAG_subprogram
     189                      .dwattr $C$DW$19, DW_AT_name("BTS_HAL_setupInterruptTrigger")
     190                      .dwattr $C$DW$19, DW_AT_linkage_name("BTS_HAL_setupInterruptTrigger")
     191                      .dwattr $C$DW$19, DW_AT_declaration
     192                      .dwattr $C$DW$19, DW_AT_external
     193                      .dwattr $C$DW$19, DW_AT_decl_file("C:\Users\a0230328\workspace_v10\bts_F2800x_4ch_v2\bts_hal.h")
     194                      .dwattr $C$DW$19, DW_AT_decl_line(0x55)
     195                      .dwattr $C$DW$19, DW_AT_decl_column(0x06)
     196                      .dwendtag $C$DW$19
     197              
     198              
     199              $C$DW$20        .dwtag  DW_TAG_subprogram
     200                      .dwattr $C$DW$20, DW_AT_name("BTS_HAL_setupInterrupt")
     201                      .dwattr $C$DW$20, DW_AT_linkage_name("BTS_HAL_setupInterrupt")
     202                      .dwattr $C$DW$20, DW_AT_declaration
     203                      .dwattr $C$DW$20, DW_AT_external
     204                      .dwattr $C$DW$20, DW_AT_decl_file("C:\Users\a0230328\workspace_v10\bts_F2800x_4ch_v2\bts_hal.h")
     205                      .dwattr $C$DW$20, DW_AT_decl_line(0x57)
     206                      .dwattr $C$DW$20, DW_AT_decl_column(0x06)
     207                      .dwendtag $C$DW$20
     208              
     209              
     210              $C$DW$21        .dwtag  DW_TAG_subprogram
     211                      .dwattr $C$DW$21, DW_AT_name("BTS_HAL_enableEpwmCounting")
     212                      .dwattr $C$DW$21, DW_AT_linkage_name("BTS_HAL_enableEpwmCounting")
     213                      .dwattr $C$DW$21, DW_AT_declaration
     214                      .dwattr $C$DW$21, DW_AT_external
     215                      .dwattr $C$DW$21, DW_AT_decl_file("C:\Users\a0230328\workspace_v10\bts_F2800x_4ch_v2\bts_hal.h")
     216                      .dwattr $C$DW$21, DW_AT_decl_line(0x54)
     217                      .dwattr $C$DW$21, DW_AT_decl_column(0x06)
     218                      .dwendtag $C$DW$21
     219              
     220              
TMS320C2000 Assembler PC v20.2.1 Mon Nov  2 17:14:28 2020

Copyright (c) 1996-2018 Texas Instruments Incorporated
bts_main.asm                                                         PAGE    5

     221              $C$DW$22        .dwtag  DW_TAG_subprogram
     222                      .dwattr $C$DW$22, DW_AT_name("BTS_HAL_setupSyncBuckPinsEpwm")
     223                      .dwattr $C$DW$22, DW_AT_linkage_name("BTS_HAL_setupSyncBuckPinsEpwm")
     224                      .dwattr $C$DW$22, DW_AT_declaration
     225                      .dwattr $C$DW$22, DW_AT_external
     226                      .dwattr $C$DW$22, DW_AT_decl_file("C:\Users\a0230328\workspace_v10\bts_F2800x_4ch_v2\bts_hal.h")
     227                      .dwattr $C$DW$22, DW_AT_decl_line(0x4f)
     228                      .dwattr $C$DW$22, DW_AT_decl_column(0x06)
     229                      .dwendtag $C$DW$22
     230              
     231              
     232              $C$DW$23        .dwtag  DW_TAG_subprogram
     233                      .dwattr $C$DW$23, DW_AT_name("BTS_updateReference")
     234                      .dwattr $C$DW$23, DW_AT_linkage_name("BTS_updateReference")
     235                      .dwattr $C$DW$23, DW_AT_declaration
     236                      .dwattr $C$DW$23, DW_AT_external
     237                      .dwattr $C$DW$23, DW_AT_decl_file("C:/Users/a0230328/workspace_v10/bts_F2800x_4ch_v2/bts.h")
     238                      .dwattr $C$DW$23, DW_AT_decl_line(0x122)
     239                      .dwattr $C$DW$23, DW_AT_decl_column(0x06)
     240              $C$DW$24        .dwtag  DW_TAG_formal_parameter
     241                      .dwattr $C$DW$24, DW_AT_type(*$C$DW$T$66)
     242              
     243              $C$DW$25        .dwtag  DW_TAG_formal_parameter
     244                      .dwattr $C$DW$25, DW_AT_type(*$C$DW$T$69)
     245              
     246                      .dwendtag $C$DW$23
     247              
     248              
     249              $C$DW$26        .dwtag  DW_TAG_subprogram
     250                      .dwattr $C$DW$26, DW_AT_name("BTS_monitor_Iout_Vout")
     251                      .dwattr $C$DW$26, DW_AT_linkage_name("BTS_monitor_Iout_Vout")
     252                      .dwattr $C$DW$26, DW_AT_declaration
     253                      .dwattr $C$DW$26, DW_AT_external
     254                      .dwattr $C$DW$26, DW_AT_decl_file("C:/Users/a0230328/workspace_v10/bts_F2800x_4ch_v2/bts.h")
     255                      .dwattr $C$DW$26, DW_AT_decl_line(0x126)
     256                      .dwattr $C$DW$26, DW_AT_decl_column(0x06)
     257              $C$DW$27        .dwtag  DW_TAG_formal_parameter
     258                      .dwattr $C$DW$27, DW_AT_type(*$C$DW$T$72)
     259              
     260                      .dwendtag $C$DW$26
     261              
     262              $C$DW$28        .dwtag  DW_TAG_variable
     263                      .dwattr $C$DW$28, DW_AT_name("BTS_ExAdcRxflag")
     264                      .dwattr $C$DW$28, DW_AT_linkage_name("BTS_ExAdcRxflag")
     265                      .dwattr $C$DW$28, DW_AT_type(*$C$DW$T$21)
     266                      .dwattr $C$DW$28, DW_AT_declaration
     267                      .dwattr $C$DW$28, DW_AT_external
     268                      .dwattr $C$DW$28, DW_AT_decl_file("C:\Users\a0230328\workspace_v10\bts_F2800x_4ch_v2\bts_hal.h")
     269                      .dwattr $C$DW$28, DW_AT_decl_line(0x41)
     270                      .dwattr $C$DW$28, DW_AT_decl_column(0x1a)
     271              
     272              $C$DW$29        .dwtag  DW_TAG_variable
     273                      .dwattr $C$DW$29, DW_AT_name("BTS_sfoStatus")
     274                      .dwattr $C$DW$29, DW_AT_linkage_name("BTS_sfoStatus")
     275                      .dwattr $C$DW$29, DW_AT_type(*$C$DW$T$20)
TMS320C2000 Assembler PC v20.2.1 Mon Nov  2 17:14:28 2020

Copyright (c) 1996-2018 Texas Instruments Incorporated
bts_main.asm                                                         PAGE    6

     276                      .dwattr $C$DW$29, DW_AT_declaration
     277                      .dwattr $C$DW$29, DW_AT_external
     278                      .dwattr $C$DW$29, DW_AT_decl_file("C:/Users/a0230328/workspace_v10/bts_F2800x_4ch_v2/bts.h")
     279                      .dwattr $C$DW$29, DW_AT_decl_line(0xfe)
     280                      .dwattr $C$DW$29, DW_AT_decl_column(0x13)
     281              
     282              
     283              $C$DW$30        .dwtag  DW_TAG_subprogram
     284                      .dwattr $C$DW$30, DW_AT_name("SFO")
     285                      .dwattr $C$DW$30, DW_AT_linkage_name("SFO")
     286                      .dwattr $C$DW$30, DW_AT_type(*$C$DW$T$10)
     287                      .dwattr $C$DW$30, DW_AT_declaration
     288                      .dwattr $C$DW$30, DW_AT_external
     289                      .dwattr $C$DW$30, DW_AT_decl_file("C:/Users/a0230328/workspace_v10/bts_F2800x_4ch_v2/libraries/SFO/SF
     290                      .dwattr $C$DW$30, DW_AT_decl_line(0x40)
     291                      .dwattr $C$DW$30, DW_AT_decl_column(0x05)
     292                      .dwendtag $C$DW$30
     293              
     294              $C$DW$31        .dwtag  DW_TAG_variable
     295                      .dwattr $C$DW$31, DW_AT_name("MEP_ScaleFactor")
     296                      .dwattr $C$DW$31, DW_AT_linkage_name("MEP_ScaleFactor")
     297                      .dwattr $C$DW$31, DW_AT_type(*$C$DW$T$41)
     298                      .dwattr $C$DW$31, DW_AT_declaration
     299                      .dwattr $C$DW$31, DW_AT_external
     300                      .dwattr $C$DW$31, DW_AT_decl_file("C:\Users\a0230328\workspace_v10\bts_F2800x_4ch_v2\bts_hal.h")
     301                      .dwattr $C$DW$31, DW_AT_decl_line(0x42)
     302                      .dwattr $C$DW$31, DW_AT_decl_column(0x12)
     303              
     304                      .global ||Alpha_State_Ptr||
     305 00000000               .bss    ||Alpha_State_Ptr||,2,1,1
     306              $C$DW$32        .dwtag  DW_TAG_variable
     307                      .dwattr $C$DW$32, DW_AT_name("Alpha_State_Ptr")
     308                      .dwattr $C$DW$32, DW_AT_linkage_name("Alpha_State_Ptr")
     309                      .dwattr $C$DW$32, DW_AT_location[DW_OP_addr ||Alpha_State_Ptr||]
     310                      .dwattr $C$DW$32, DW_AT_type(*$C$DW$T$79)
     311                      .dwattr $C$DW$32, DW_AT_external
     312                      .dwattr $C$DW$32, DW_AT_decl_file("../bts_main.c")
     313                      .dwattr $C$DW$32, DW_AT_decl_line(0x25)
     314                      .dwattr $C$DW$32, DW_AT_decl_column(0x08)
     315              
     316                      .global ||A_Task_Ptr||
     317 00000002               .bss    ||A_Task_Ptr||,2,1,1
     318              $C$DW$33        .dwtag  DW_TAG_variable
     319                      .dwattr $C$DW$33, DW_AT_name("A_Task_Ptr")
     320                      .dwattr $C$DW$33, DW_AT_linkage_name("A_Task_Ptr")
     321                      .dwattr $C$DW$33, DW_AT_location[DW_OP_addr ||A_Task_Ptr||]
     322                      .dwattr $C$DW$33, DW_AT_type(*$C$DW$T$79)
     323                      .dwattr $C$DW$33, DW_AT_external
     324                      .dwattr $C$DW$33, DW_AT_decl_file("../bts_main.c")
     325                      .dwattr $C$DW$33, DW_AT_decl_line(0x26)
     326                      .dwattr $C$DW$33, DW_AT_decl_column(0x08)
     327              
     328                      .global ||B_Task_Ptr||
     329 00000004               .bss    ||B_Task_Ptr||,2,1,1
     330              $C$DW$34        .dwtag  DW_TAG_variable
TMS320C2000 Assembler PC v20.2.1 Mon Nov  2 17:14:28 2020

Copyright (c) 1996-2018 Texas Instruments Incorporated
bts_main.asm                                                         PAGE    7

     331                      .dwattr $C$DW$34, DW_AT_name("B_Task_Ptr")
     332                      .dwattr $C$DW$34, DW_AT_linkage_name("B_Task_Ptr")
     333                      .dwattr $C$DW$34, DW_AT_location[DW_OP_addr ||B_Task_Ptr||]
     334                      .dwattr $C$DW$34, DW_AT_type(*$C$DW$T$79)
     335                      .dwattr $C$DW$34, DW_AT_external
     336                      .dwattr $C$DW$34, DW_AT_decl_file("../bts_main.c")
     337                      .dwattr $C$DW$34, DW_AT_decl_line(0x27)
     338                      .dwattr $C$DW$34, DW_AT_decl_column(0x08)
     339              
     340                      .global ||C_Task_Ptr||
     341 00000006               .bss    ||C_Task_Ptr||,2,1,1
     342              $C$DW$35        .dwtag  DW_TAG_variable
     343                      .dwattr $C$DW$35, DW_AT_name("C_Task_Ptr")
     344                      .dwattr $C$DW$35, DW_AT_linkage_name("C_Task_Ptr")
     345                      .dwattr $C$DW$35, DW_AT_location[DW_OP_addr ||C_Task_Ptr||]
     346                      .dwattr $C$DW$35, DW_AT_type(*$C$DW$T$79)
     347                      .dwattr $C$DW$35, DW_AT_external
     348                      .dwattr $C$DW$35, DW_AT_decl_file("../bts_main.c")
     349                      .dwattr $C$DW$35, DW_AT_decl_line(0x28)
     350                      .dwattr $C$DW$35, DW_AT_decl_column(0x08)
     351              
     352              
     353              $C$DW$36        .dwtag  DW_TAG_subprogram
     354                      .dwattr $C$DW$36, DW_AT_name("__eallow")
     355                      .dwattr $C$DW$36, DW_AT_linkage_name("__eallow")
     356                      .dwattr $C$DW$36, DW_AT_declaration
     357                      .dwattr $C$DW$36, DW_AT_external
     358                      .dwendtag $C$DW$36
     359              
     360              
     361              $C$DW$37        .dwtag  DW_TAG_subprogram
     362                      .dwattr $C$DW$37, DW_AT_name("__edis")
     363                      .dwattr $C$DW$37, DW_AT_linkage_name("__edis")
     364                      .dwattr $C$DW$37, DW_AT_declaration
     365                      .dwattr $C$DW$37, DW_AT_external
     366                      .dwendtag $C$DW$37
     367              
     368                      .global ||vTimer0||
     369 00000000       ||vTimer0||:    .usect  ".bss:vTimer0",4,0,0
     370              $C$DW$38        .dwtag  DW_TAG_variable
     371                      .dwattr $C$DW$38, DW_AT_name("vTimer0")
     372                      .dwattr $C$DW$38, DW_AT_linkage_name("vTimer0")
     373                      .dwattr $C$DW$38, DW_AT_location[DW_OP_addr ||vTimer0||]
     374                      .dwattr $C$DW$38, DW_AT_type(*$C$DW$T$117)
     375                      .dwattr $C$DW$38, DW_AT_external
     376                      .dwattr $C$DW$38, DW_AT_decl_file("../bts_main.c")
     377                      .dwattr $C$DW$38, DW_AT_decl_line(0x1e)
     378                      .dwattr $C$DW$38, DW_AT_decl_column(0x0a)
     379              
     380                      .global ||vTimer1||
     381 00000000       ||vTimer1||:    .usect  ".bss:vTimer1",4,0,0
     382              $C$DW$39        .dwtag  DW_TAG_variable
     383                      .dwattr $C$DW$39, DW_AT_name("vTimer1")
     384                      .dwattr $C$DW$39, DW_AT_linkage_name("vTimer1")
     385                      .dwattr $C$DW$39, DW_AT_location[DW_OP_addr ||vTimer1||]
TMS320C2000 Assembler PC v20.2.1 Mon Nov  2 17:14:28 2020

Copyright (c) 1996-2018 Texas Instruments Incorporated
bts_main.asm                                                         PAGE    8

     386                      .dwattr $C$DW$39, DW_AT_type(*$C$DW$T$117)
     387                      .dwattr $C$DW$39, DW_AT_external
     388                      .dwattr $C$DW$39, DW_AT_decl_file("../bts_main.c")
     389                      .dwattr $C$DW$39, DW_AT_decl_line(0x1f)
     390                      .dwattr $C$DW$39, DW_AT_decl_column(0x0a)
     391              
     392                      .global ||vTimer2||
     393 00000000       ||vTimer2||:    .usect  ".bss:vTimer2",4,0,0
     394              $C$DW$40        .dwtag  DW_TAG_variable
     395                      .dwattr $C$DW$40, DW_AT_name("vTimer2")
     396                      .dwattr $C$DW$40, DW_AT_linkage_name("vTimer2")
     397                      .dwattr $C$DW$40, DW_AT_location[DW_OP_addr ||vTimer2||]
     398                      .dwattr $C$DW$40, DW_AT_type(*$C$DW$T$117)
     399                      .dwattr $C$DW$40, DW_AT_external
     400                      .dwattr $C$DW$40, DW_AT_decl_file("../bts_main.c")
     401                      .dwattr $C$DW$40, DW_AT_decl_line(0x20)
     402                      .dwattr $C$DW$40, DW_AT_decl_column(0x0a)
     403              
     404              $C$DW$41        .dwtag  DW_TAG_variable
     405                      .dwattr $C$DW$41, DW_AT_name("BTS_ADC1")
     406                      .dwattr $C$DW$41, DW_AT_linkage_name("BTS_ADC1")
     407                      .dwattr $C$DW$41, DW_AT_type(*$C$DW$T$63)
     408                      .dwattr $C$DW$41, DW_AT_declaration
     409                      .dwattr $C$DW$41, DW_AT_external
     410                      .dwattr $C$DW$41, DW_AT_decl_file("C:\Users\a0230328\workspace_v10\bts_F2800x_4ch_v2\bts_hal.h")
     411                      .dwattr $C$DW$41, DW_AT_decl_line(0x40)
     412                      .dwattr $C$DW$41, DW_AT_decl_column(0x12)
     413              
     414              $C$DW$42        .dwtag  DW_TAG_variable
     415                      .dwattr $C$DW$42, DW_AT_name("BTS_ctrl_cc_ch1")
     416                      .dwattr $C$DW$42, DW_AT_linkage_name("BTS_ctrl_cc_ch1")
     417                      .dwattr $C$DW$42, DW_AT_type(*$C$DW$T$94)
     418                      .dwattr $C$DW$42, DW_AT_declaration
     419                      .dwattr $C$DW$42, DW_AT_external
     420                      .dwattr $C$DW$42, DW_AT_decl_file("C:/Users/a0230328/workspace_v10/bts_F2800x_4ch_v2/bts.h")
     421                      .dwattr $C$DW$42, DW_AT_decl_line(0xb3)
     422                      .dwattr $C$DW$42, DW_AT_decl_column(0x25)
     423              
     424              $C$DW$43        .dwtag  DW_TAG_variable
     425                      .dwattr $C$DW$43, DW_AT_name("BTS_ctrl_cc_ch2")
     426                      .dwattr $C$DW$43, DW_AT_linkage_name("BTS_ctrl_cc_ch2")
     427                      .dwattr $C$DW$43, DW_AT_type(*$C$DW$T$94)
     428                      .dwattr $C$DW$43, DW_AT_declaration
     429                      .dwattr $C$DW$43, DW_AT_external
     430                      .dwattr $C$DW$43, DW_AT_decl_file("C:/Users/a0230328/workspace_v10/bts_F2800x_4ch_v2/bts.h")
     431                      .dwattr $C$DW$43, DW_AT_decl_line(0xb4)
     432                      .dwattr $C$DW$43, DW_AT_decl_column(0x25)
     433              
     434              $C$DW$44        .dwtag  DW_TAG_variable
     435                      .dwattr $C$DW$44, DW_AT_name("BTS_ctrl_cc_ch3")
     436                      .dwattr $C$DW$44, DW_AT_linkage_name("BTS_ctrl_cc_ch3")
     437                      .dwattr $C$DW$44, DW_AT_type(*$C$DW$T$94)
     438                      .dwattr $C$DW$44, DW_AT_declaration
     439                      .dwattr $C$DW$44, DW_AT_external
     440                      .dwattr $C$DW$44, DW_AT_decl_file("C:/Users/a0230328/workspace_v10/bts_F2800x_4ch_v2/bts.h")
TMS320C2000 Assembler PC v20.2.1 Mon Nov  2 17:14:28 2020

Copyright (c) 1996-2018 Texas Instruments Incorporated
bts_main.asm                                                         PAGE    9

     441                      .dwattr $C$DW$44, DW_AT_decl_line(0xb5)
     442                      .dwattr $C$DW$44, DW_AT_decl_column(0x25)
     443              
     444              $C$DW$45        .dwtag  DW_TAG_variable
     445                      .dwattr $C$DW$45, DW_AT_name("BTS_ctrl_cc_ch4")
     446                      .dwattr $C$DW$45, DW_AT_linkage_name("BTS_ctrl_cc_ch4")
     447                      .dwattr $C$DW$45, DW_AT_type(*$C$DW$T$94)
     448                      .dwattr $C$DW$45, DW_AT_declaration
     449                      .dwattr $C$DW$45, DW_AT_external
     450                      .dwattr $C$DW$45, DW_AT_decl_file("C:/Users/a0230328/workspace_v10/bts_F2800x_4ch_v2/bts.h")
     451                      .dwattr $C$DW$45, DW_AT_decl_line(0xb6)
     452                      .dwattr $C$DW$45, DW_AT_decl_column(0x25)
     453              
     454              $C$DW$46        .dwtag  DW_TAG_variable
     455                      .dwattr $C$DW$46, DW_AT_name("BTS_ctrl_cv_ch1")
     456                      .dwattr $C$DW$46, DW_AT_linkage_name("BTS_ctrl_cv_ch1")
     457                      .dwattr $C$DW$46, DW_AT_type(*$C$DW$T$94)
     458                      .dwattr $C$DW$46, DW_AT_declaration
     459                      .dwattr $C$DW$46, DW_AT_external
     460                      .dwattr $C$DW$46, DW_AT_decl_file("C:/Users/a0230328/workspace_v10/bts_F2800x_4ch_v2/bts.h")
     461                      .dwattr $C$DW$46, DW_AT_decl_line(0xb9)
     462                      .dwattr $C$DW$46, DW_AT_decl_column(0x25)
     463              
     464              $C$DW$47        .dwtag  DW_TAG_variable
     465                      .dwattr $C$DW$47, DW_AT_name("BTS_ctrl_cv_ch2")
     466                      .dwattr $C$DW$47, DW_AT_linkage_name("BTS_ctrl_cv_ch2")
     467                      .dwattr $C$DW$47, DW_AT_type(*$C$DW$T$94)
     468                      .dwattr $C$DW$47, DW_AT_declaration
     469                      .dwattr $C$DW$47, DW_AT_external
     470                      .dwattr $C$DW$47, DW_AT_decl_file("C:/Users/a0230328/workspace_v10/bts_F2800x_4ch_v2/bts.h")
     471                      .dwattr $C$DW$47, DW_AT_decl_line(0xba)
     472                      .dwattr $C$DW$47, DW_AT_decl_column(0x25)
     473              
     474              $C$DW$48        .dwtag  DW_TAG_variable
     475                      .dwattr $C$DW$48, DW_AT_name("BTS_ctrl_cv_ch3")
     476                      .dwattr $C$DW$48, DW_AT_linkage_name("BTS_ctrl_cv_ch3")
     477                      .dwattr $C$DW$48, DW_AT_type(*$C$DW$T$94)
     478                      .dwattr $C$DW$48, DW_AT_declaration
     479                      .dwattr $C$DW$48, DW_AT_external
     480                      .dwattr $C$DW$48, DW_AT_decl_file("C:/Users/a0230328/workspace_v10/bts_F2800x_4ch_v2/bts.h")
     481                      .dwattr $C$DW$48, DW_AT_decl_line(0xbb)
     482                      .dwattr $C$DW$48, DW_AT_decl_column(0x25)
     483              
     484              $C$DW$49        .dwtag  DW_TAG_variable
     485                      .dwattr $C$DW$49, DW_AT_name("BTS_ctrl_cv_ch4")
     486                      .dwattr $C$DW$49, DW_AT_linkage_name("BTS_ctrl_cv_ch4")
     487                      .dwattr $C$DW$49, DW_AT_type(*$C$DW$T$94)
     488                      .dwattr $C$DW$49, DW_AT_declaration
     489                      .dwattr $C$DW$49, DW_AT_external
     490                      .dwattr $C$DW$49, DW_AT_decl_file("C:/Users/a0230328/workspace_v10/bts_F2800x_4ch_v2/bts.h")
     491                      .dwattr $C$DW$49, DW_AT_decl_line(0xbc)
     492                      .dwattr $C$DW$49, DW_AT_decl_column(0x25)
     493              
     494              $C$DW$50        .dwtag  DW_TAG_variable
     495                      .dwattr $C$DW$50, DW_AT_name("BTS_userInput_ch1")
TMS320C2000 Assembler PC v20.2.1 Mon Nov  2 17:14:28 2020

Copyright (c) 1996-2018 Texas Instruments Incorporated
bts_main.asm                                                         PAGE   10

     496                      .dwattr $C$DW$50, DW_AT_linkage_name("BTS_userInput_ch1")
     497                      .dwattr $C$DW$50, DW_AT_type(*$C$DW$T$65)
     498                      .dwattr $C$DW$50, DW_AT_declaration
     499                      .dwattr $C$DW$50, DW_AT_external
     500                      .dwattr $C$DW$50, DW_AT_decl_file("C:/Users/a0230328/workspace_v10/bts_F2800x_4ch_v2/bts.h")
     501                      .dwattr $C$DW$50, DW_AT_decl_line(0x88)
     502                      .dwattr $C$DW$50, DW_AT_decl_column(0x16)
     503              
     504              $C$DW$51        .dwtag  DW_TAG_variable
     505                      .dwattr $C$DW$51, DW_AT_name("BTS_userInput_ch2")
     506                      .dwattr $C$DW$51, DW_AT_linkage_name("BTS_userInput_ch2")
     507                      .dwattr $C$DW$51, DW_AT_type(*$C$DW$T$65)
     508                      .dwattr $C$DW$51, DW_AT_declaration
     509                      .dwattr $C$DW$51, DW_AT_external
     510                      .dwattr $C$DW$51, DW_AT_decl_file("C:/Users/a0230328/workspace_v10/bts_F2800x_4ch_v2/bts.h")
     511                      .dwattr $C$DW$51, DW_AT_decl_line(0x89)
     512                      .dwattr $C$DW$51, DW_AT_decl_column(0x16)
     513              
     514              $C$DW$52        .dwtag  DW_TAG_variable
     515                      .dwattr $C$DW$52, DW_AT_name("BTS_userInput_ch3")
     516                      .dwattr $C$DW$52, DW_AT_linkage_name("BTS_userInput_ch3")
     517                      .dwattr $C$DW$52, DW_AT_type(*$C$DW$T$65)
     518                      .dwattr $C$DW$52, DW_AT_declaration
     519                      .dwattr $C$DW$52, DW_AT_external
     520                      .dwattr $C$DW$52, DW_AT_decl_file("C:/Users/a0230328/workspace_v10/bts_F2800x_4ch_v2/bts.h")
     521                      .dwattr $C$DW$52, DW_AT_decl_line(0x8a)
     522                      .dwattr $C$DW$52, DW_AT_decl_column(0x16)
     523              
     524              $C$DW$53        .dwtag  DW_TAG_variable
     525                      .dwattr $C$DW$53, DW_AT_name("BTS_userInput_ch4")
     526                      .dwattr $C$DW$53, DW_AT_linkage_name("BTS_userInput_ch4")
     527                      .dwattr $C$DW$53, DW_AT_type(*$C$DW$T$65)
     528                      .dwattr $C$DW$53, DW_AT_declaration
     529                      .dwattr $C$DW$53, DW_AT_external
     530                      .dwattr $C$DW$53, DW_AT_decl_file("C:/Users/a0230328/workspace_v10/bts_F2800x_4ch_v2/bts.h")
     531                      .dwattr $C$DW$53, DW_AT_decl_line(0x8b)
     532                      .dwattr $C$DW$53, DW_AT_decl_column(0x16)
     533              
     534              $C$DW$54        .dwtag  DW_TAG_variable
     535                      .dwattr $C$DW$54, DW_AT_name("BTS_ctrlLoopVariable_ch1")
     536                      .dwattr $C$DW$54, DW_AT_linkage_name("BTS_ctrlLoopVariable_ch1")
     537                      .dwattr $C$DW$54, DW_AT_type(*$C$DW$T$68)
     538                      .dwattr $C$DW$54, DW_AT_declaration
     539                      .dwattr $C$DW$54, DW_AT_external
     540                      .dwattr $C$DW$54, DW_AT_decl_file("C:/Users/a0230328/workspace_v10/bts_F2800x_4ch_v2/bts.h")
     541                      .dwattr $C$DW$54, DW_AT_decl_line(0xac)
     542                      .dwattr $C$DW$54, DW_AT_decl_column(0x1d)
     543              
     544              $C$DW$55        .dwtag  DW_TAG_variable
     545                      .dwattr $C$DW$55, DW_AT_name("BTS_ctrlLoopVariable_ch2")
     546                      .dwattr $C$DW$55, DW_AT_linkage_name("BTS_ctrlLoopVariable_ch2")
     547                      .dwattr $C$DW$55, DW_AT_type(*$C$DW$T$68)
     548                      .dwattr $C$DW$55, DW_AT_declaration
     549                      .dwattr $C$DW$55, DW_AT_external
     550                      .dwattr $C$DW$55, DW_AT_decl_file("C:/Users/a0230328/workspace_v10/bts_F2800x_4ch_v2/bts.h")
TMS320C2000 Assembler PC v20.2.1 Mon Nov  2 17:14:28 2020

Copyright (c) 1996-2018 Texas Instruments Incorporated
bts_main.asm                                                         PAGE   11

     551                      .dwattr $C$DW$55, DW_AT_decl_line(0xad)
     552                      .dwattr $C$DW$55, DW_AT_decl_column(0x1d)
     553              
     554              $C$DW$56        .dwtag  DW_TAG_variable
     555                      .dwattr $C$DW$56, DW_AT_name("BTS_ctrlLoopVariable_ch3")
     556                      .dwattr $C$DW$56, DW_AT_linkage_name("BTS_ctrlLoopVariable_ch3")
     557                      .dwattr $C$DW$56, DW_AT_type(*$C$DW$T$68)
     558                      .dwattr $C$DW$56, DW_AT_declaration
     559                      .dwattr $C$DW$56, DW_AT_external
     560                      .dwattr $C$DW$56, DW_AT_decl_file("C:/Users/a0230328/workspace_v10/bts_F2800x_4ch_v2/bts.h")
     561                      .dwattr $C$DW$56, DW_AT_decl_line(0xae)
     562                      .dwattr $C$DW$56, DW_AT_decl_column(0x1d)
     563              
     564              $C$DW$57        .dwtag  DW_TAG_variable
     565                      .dwattr $C$DW$57, DW_AT_name("BTS_ctrlLoopVariable_ch4")
     566                      .dwattr $C$DW$57, DW_AT_linkage_name("BTS_ctrlLoopVariable_ch4")
     567                      .dwattr $C$DW$57, DW_AT_type(*$C$DW$T$68)
     568                      .dwattr $C$DW$57, DW_AT_declaration
     569                      .dwattr $C$DW$57, DW_AT_external
     570                      .dwattr $C$DW$57, DW_AT_decl_file("C:/Users/a0230328/workspace_v10/bts_F2800x_4ch_v2/bts.h")
     571                      .dwattr $C$DW$57, DW_AT_decl_line(0xaf)
     572                      .dwattr $C$DW$57, DW_AT_decl_column(0x1d)
     573              
     574              $C$DW$58        .dwtag  DW_TAG_variable
     575                      .dwattr $C$DW$58, DW_AT_name("BTS_measValues_ch1")
     576                      .dwattr $C$DW$58, DW_AT_linkage_name("BTS_measValues_ch1")
     577                      .dwattr $C$DW$58, DW_AT_type(*$C$DW$T$71)
     578                      .dwattr $C$DW$58, DW_AT_declaration
     579                      .dwattr $C$DW$58, DW_AT_external
     580                      .dwattr $C$DW$58, DW_AT_decl_file("C:/Users/a0230328/workspace_v10/bts_F2800x_4ch_v2/bts.h")
     581                      .dwattr $C$DW$58, DW_AT_decl_line(0x6d)
     582                      .dwattr $C$DW$58, DW_AT_decl_column(0x17)
     583              
     584              $C$DW$59        .dwtag  DW_TAG_variable
     585                      .dwattr $C$DW$59, DW_AT_name("BTS_measValues_ch2")
     586                      .dwattr $C$DW$59, DW_AT_linkage_name("BTS_measValues_ch2")
     587                      .dwattr $C$DW$59, DW_AT_type(*$C$DW$T$71)
     588                      .dwattr $C$DW$59, DW_AT_declaration
     589                      .dwattr $C$DW$59, DW_AT_external
     590                      .dwattr $C$DW$59, DW_AT_decl_file("C:/Users/a0230328/workspace_v10/bts_F2800x_4ch_v2/bts.h")
     591                      .dwattr $C$DW$59, DW_AT_decl_line(0x6e)
     592                      .dwattr $C$DW$59, DW_AT_decl_column(0x17)
     593              
     594              $C$DW$60        .dwtag  DW_TAG_variable
     595                      .dwattr $C$DW$60, DW_AT_name("BTS_measValues_ch3")
     596                      .dwattr $C$DW$60, DW_AT_linkage_name("BTS_measValues_ch3")
     597                      .dwattr $C$DW$60, DW_AT_type(*$C$DW$T$71)
     598                      .dwattr $C$DW$60, DW_AT_declaration
     599                      .dwattr $C$DW$60, DW_AT_external
     600                      .dwattr $C$DW$60, DW_AT_decl_file("C:/Users/a0230328/workspace_v10/bts_F2800x_4ch_v2/bts.h")
     601                      .dwattr $C$DW$60, DW_AT_decl_line(0x6f)
     602                      .dwattr $C$DW$60, DW_AT_decl_column(0x17)
     603              
     604              $C$DW$61        .dwtag  DW_TAG_variable
     605                      .dwattr $C$DW$61, DW_AT_name("BTS_measValues_ch4")
TMS320C2000 Assembler PC v20.2.1 Mon Nov  2 17:14:28 2020

Copyright (c) 1996-2018 Texas Instruments Incorporated
bts_main.asm                                                         PAGE   12

     606                      .dwattr $C$DW$61, DW_AT_linkage_name("BTS_measValues_ch4")
     607                      .dwattr $C$DW$61, DW_AT_type(*$C$DW$T$71)
     608                      .dwattr $C$DW$61, DW_AT_declaration
     609                      .dwattr $C$DW$61, DW_AT_external
     610                      .dwattr $C$DW$61, DW_AT_decl_file("C:/Users/a0230328/workspace_v10/bts_F2800x_4ch_v2/bts.h")
     611                      .dwattr $C$DW$61, DW_AT_decl_line(0x70)
     612                      .dwattr $C$DW$61, DW_AT_decl_column(0x17)
     613              
     614                      .sblock ".bss"
     615              ;       C:\ti\ccs1010\ccs\tools\compiler\ti-cgt-c2000_20.2.1.LTS\bin\opt2000.exe C:\\Users\\a0230328\\AppData
     616              ;       C:\ti\ccs1010\ccs\tools\compiler\ti-cgt-c2000_20.2.1.LTS\bin\acia2000.exe -@C:\\Users\\a0230328\\AppD
     617 00000000               .sect   ".text"
     618                      .clink
     619                      .global ||C3||
     620              
     621              $C$DW$62        .dwtag  DW_TAG_subprogram
     622                      .dwattr $C$DW$62, DW_AT_name("C3")
     623                      .dwattr $C$DW$62, DW_AT_low_pc(||C3||)
     624                      .dwattr $C$DW$62, DW_AT_high_pc(0x00)
     625                      .dwattr $C$DW$62, DW_AT_linkage_name("C3")
     626                      .dwattr $C$DW$62, DW_AT_external
     627                      .dwattr $C$DW$62, DW_AT_decl_file("../bts_main.c")
     628                      .dwattr $C$DW$62, DW_AT_decl_line(0x182)
     629                      .dwattr $C$DW$62, DW_AT_decl_column(0x06)
     630                      .dwattr $C$DW$62, DW_AT_TI_max_frame_size(-2)
     631                      .dwpsn  file "../bts_main.c",line 387,column 1,is_stmt,address ||C3||,isa 0
     632              
     633                      .dwfde $C$DW$CIE, ||C3||
     634              
     635              ;***************************************************************
     636              ;* FNAME: C3                            FR SIZE:   0           *
     637              ;*                                                             *
     638              ;* FUNCTION ENVIRONMENT                                        *
     639              ;*                                                             *
     640              ;* FUNCTION PROPERTIES                                         *
     641              ;*                            0 Parameter,  0 Auto,  0 SOE     *
     642              ;***************************************************************
     643              
     644 00000000       ||C3||:
     645                      .dwcfi  cfa_offset, -2
     646                      .dwcfi  save_reg_to_mem, 26, 0
     647                      .dwpsn  file "../bts_main.c",line 393,column 5,is_stmt,isa 0
     648 00000000 8F00!         MOVL      XAR4,#||C1||          ; [CPU_ARAU] |393| 
         00000001 0000 
     649 00000002 761F!         MOVW      DP,#||C_Task_Ptr||    ; [CPU_ARAU] 
         00000003 0000 
     650 00000004 A800!         MOVL      @||C_Task_Ptr||,XAR4  ; [CPU_ALU] |393| 
     651              $C$DW$63        .dwtag  DW_TAG_TI_branch
     652                      .dwattr $C$DW$63, DW_AT_low_pc(0x00)
     653                      .dwattr $C$DW$63, DW_AT_TI_return
     654              
     655 00000005 0006          LRETR     ; [CPU_ALU] 
     656                      ; return occurs ; [] 
     657                      .dwattr $C$DW$62, DW_AT_TI_end_file("../bts_main.c")
     658                      .dwattr $C$DW$62, DW_AT_TI_end_line(0x18a)
TMS320C2000 Assembler PC v20.2.1 Mon Nov  2 17:14:28 2020

Copyright (c) 1996-2018 Texas Instruments Incorporated
bts_main.asm                                                         PAGE   13

     659                      .dwattr $C$DW$62, DW_AT_TI_end_column(0x01)
     660                      .dwendentry
     661                      .dwendtag $C$DW$62
     662              
     663 00000006               .sect   ".text"
     664                      .clink
     665                      .global ||C2||
     666              
     667              $C$DW$64        .dwtag  DW_TAG_subprogram
     668                      .dwattr $C$DW$64, DW_AT_name("C2")
     669                      .dwattr $C$DW$64, DW_AT_low_pc(||C2||)
     670                      .dwattr $C$DW$64, DW_AT_high_pc(0x00)
     671                      .dwattr $C$DW$64, DW_AT_linkage_name("C2")
     672                      .dwattr $C$DW$64, DW_AT_external
     673                      .dwattr $C$DW$64, DW_AT_decl_file("../bts_main.c")
     674                      .dwattr $C$DW$64, DW_AT_decl_line(0x178)
     675                      .dwattr $C$DW$64, DW_AT_decl_column(0x06)
     676                      .dwattr $C$DW$64, DW_AT_TI_max_frame_size(-2)
     677                      .dwpsn  file "../bts_main.c",line 377,column 1,is_stmt,address ||C2||,isa 0
     678              
     679                      .dwfde $C$DW$CIE, ||C2||
     680              
     681              ;***************************************************************
     682              ;* FNAME: C2                            FR SIZE:   0           *
     683              ;*                                                             *
     684              ;* FUNCTION ENVIRONMENT                                        *
     685              ;*                                                             *
     686              ;* FUNCTION PROPERTIES                                         *
     687              ;*                            0 Parameter,  0 Auto,  0 SOE     *
     688              ;***************************************************************
     689              
     690 00000006       ||C2||:
     691                      .dwcfi  cfa_offset, -2
     692                      .dwcfi  save_reg_to_mem, 26, 0
     693                      .dwpsn  file "../bts_main.c",line 383,column 5,is_stmt,isa 0
     694 00000006 8F00!         MOVL      XAR4,#||C3||          ; [CPU_ARAU] |383| 
         00000007 0000 
     695 00000008 761F!         MOVW      DP,#||C_Task_Ptr||    ; [CPU_ARAU] 
         00000009 0000 
     696 0000000a A800!         MOVL      @||C_Task_Ptr||,XAR4  ; [CPU_ALU] |383| 
     697              $C$DW$65        .dwtag  DW_TAG_TI_branch
     698                      .dwattr $C$DW$65, DW_AT_low_pc(0x00)
     699                      .dwattr $C$DW$65, DW_AT_TI_return
     700              
     701 0000000b 0006          LRETR     ; [CPU_ALU] 
     702                      ; return occurs ; [] 
     703                      .dwattr $C$DW$64, DW_AT_TI_end_file("../bts_main.c")
     704                      .dwattr $C$DW$64, DW_AT_TI_end_line(0x180)
     705                      .dwattr $C$DW$64, DW_AT_TI_end_column(0x01)
     706                      .dwendentry
     707                      .dwendtag $C$DW$64
     708              
     709 0000000c               .sect   ".text"
     710                      .clink
     711                      .global ||B3||
TMS320C2000 Assembler PC v20.2.1 Mon Nov  2 17:14:28 2020

Copyright (c) 1996-2018 Texas Instruments Incorporated
bts_main.asm                                                         PAGE   14

     712              
     713              $C$DW$66        .dwtag  DW_TAG_subprogram
     714                      .dwattr $C$DW$66, DW_AT_name("B3")
     715                      .dwattr $C$DW$66, DW_AT_low_pc(||B3||)
     716                      .dwattr $C$DW$66, DW_AT_high_pc(0x00)
     717                      .dwattr $C$DW$66, DW_AT_linkage_name("B3")
     718                      .dwattr $C$DW$66, DW_AT_external
     719                      .dwattr $C$DW$66, DW_AT_decl_file("../bts_main.c")
     720                      .dwattr $C$DW$66, DW_AT_decl_line(0x157)
     721                      .dwattr $C$DW$66, DW_AT_decl_column(0x06)
     722                      .dwattr $C$DW$66, DW_AT_TI_max_frame_size(-2)
     723                      .dwpsn  file "../bts_main.c",line 344,column 1,is_stmt,address ||B3||,isa 0
     724              
     725                      .dwfde $C$DW$CIE, ||B3||
     726              
     727              ;***************************************************************
     728              ;* FNAME: B3                            FR SIZE:   0           *
     729              ;*                                                             *
     730              ;* FUNCTION ENVIRONMENT                                        *
     731              ;*                                                             *
     732              ;* FUNCTION PROPERTIES                                         *
     733              ;*                            0 Parameter,  0 Auto,  0 SOE     *
     734              ;***************************************************************
     735              
     736 0000000c       ||B3||:
     737                      .dwcfi  cfa_offset, -2
     738                      .dwcfi  save_reg_to_mem, 26, 0
     739                      .dwpsn  file "../bts_main.c",line 352,column 5,is_stmt,isa 0
     740 0000000c 8F00!         MOVL      XAR4,#||B1||          ; [CPU_ARAU] |352| 
         0000000d 0000 
     741 0000000e 761F!         MOVW      DP,#||B_Task_Ptr||    ; [CPU_ARAU] 
         0000000f 0000 
     742 00000010 A800!         MOVL      @||B_Task_Ptr||,XAR4  ; [CPU_ALU] |352| 
     743              $C$DW$67        .dwtag  DW_TAG_TI_branch
     744                      .dwattr $C$DW$67, DW_AT_low_pc(0x00)
     745                      .dwattr $C$DW$67, DW_AT_TI_return
     746              
     747 00000011 0006          LRETR     ; [CPU_ALU] 
     748                      ; return occurs ; [] 
     749                      .dwattr $C$DW$66, DW_AT_TI_end_file("../bts_main.c")
     750                      .dwattr $C$DW$66, DW_AT_TI_end_line(0x161)
     751                      .dwattr $C$DW$66, DW_AT_TI_end_column(0x01)
     752                      .dwendentry
     753                      .dwendtag $C$DW$66
     754              
     755 00000012               .sect   ".text"
     756                      .clink
     757                      .global ||B2||
     758              
     759              $C$DW$68        .dwtag  DW_TAG_subprogram
     760                      .dwattr $C$DW$68, DW_AT_name("B2")
     761                      .dwattr $C$DW$68, DW_AT_low_pc(||B2||)
     762                      .dwattr $C$DW$68, DW_AT_high_pc(0x00)
     763                      .dwattr $C$DW$68, DW_AT_linkage_name("B2")
     764                      .dwattr $C$DW$68, DW_AT_external
TMS320C2000 Assembler PC v20.2.1 Mon Nov  2 17:14:28 2020

Copyright (c) 1996-2018 Texas Instruments Incorporated
bts_main.asm                                                         PAGE   15

     765                      .dwattr $C$DW$68, DW_AT_decl_file("../bts_main.c")
     766                      .dwattr $C$DW$68, DW_AT_decl_line(0x14a)
     767                      .dwattr $C$DW$68, DW_AT_decl_column(0x06)
     768                      .dwattr $C$DW$68, DW_AT_TI_max_frame_size(-2)
     769                      .dwpsn  file "../bts_main.c",line 331,column 1,is_stmt,address ||B2||,isa 0
     770              
     771                      .dwfde $C$DW$CIE, ||B2||
     772              
     773              ;***************************************************************
     774              ;* FNAME: B2                            FR SIZE:   0           *
     775              ;*                                                             *
     776              ;* FUNCTION ENVIRONMENT                                        *
     777              ;*                                                             *
     778              ;* FUNCTION PROPERTIES                                         *
     779              ;*                            0 Parameter,  0 Auto,  0 SOE     *
     780              ;***************************************************************
     781              
     782 00000012       ||B2||:
     783                      .dwcfi  cfa_offset, -2
     784                      .dwcfi  save_reg_to_mem, 26, 0
     785                      .dwpsn  file "../bts_main.c",line 340,column 5,is_stmt,isa 0
     786 00000012 8F00!         MOVL      XAR4,#||B3||          ; [CPU_ARAU] |340| 
         00000013 0000 
     787 00000014 761F!         MOVW      DP,#||B_Task_Ptr||    ; [CPU_ARAU] 
         00000015 0000 
     788 00000016 A800!         MOVL      @||B_Task_Ptr||,XAR4  ; [CPU_ALU] |340| 
     789              $C$DW$69        .dwtag  DW_TAG_TI_branch
     790                      .dwattr $C$DW$69, DW_AT_low_pc(0x00)
     791                      .dwattr $C$DW$69, DW_AT_TI_return
     792              
     793 00000017 0006          LRETR     ; [CPU_ALU] 
     794                      ; return occurs ; [] 
     795                      .dwattr $C$DW$68, DW_AT_TI_end_file("../bts_main.c")
     796                      .dwattr $C$DW$68, DW_AT_TI_end_line(0x155)
     797                      .dwattr $C$DW$68, DW_AT_TI_end_column(0x01)
     798                      .dwendentry
     799                      .dwendtag $C$DW$68
     800              
     801 00000018               .sect   ".text"
     802                      .clink
     803                      .global ||A3||
     804              
     805              $C$DW$70        .dwtag  DW_TAG_subprogram
     806                      .dwattr $C$DW$70, DW_AT_name("A3")
     807                      .dwattr $C$DW$70, DW_AT_low_pc(||A3||)
     808                      .dwattr $C$DW$70, DW_AT_high_pc(0x00)
     809                      .dwattr $C$DW$70, DW_AT_linkage_name("A3")
     810                      .dwattr $C$DW$70, DW_AT_external
     811                      .dwattr $C$DW$70, DW_AT_decl_file("../bts_main.c")
     812                      .dwattr $C$DW$70, DW_AT_decl_line(0x12c)
     813                      .dwattr $C$DW$70, DW_AT_decl_column(0x06)
     814                      .dwattr $C$DW$70, DW_AT_TI_max_frame_size(-2)
     815                      .dwpsn  file "../bts_main.c",line 301,column 1,is_stmt,address ||A3||,isa 0
     816              
     817                      .dwfde $C$DW$CIE, ||A3||
TMS320C2000 Assembler PC v20.2.1 Mon Nov  2 17:14:28 2020

Copyright (c) 1996-2018 Texas Instruments Incorporated
bts_main.asm                                                         PAGE   16

     818              
     819              ;***************************************************************
     820              ;* FNAME: A3                            FR SIZE:   0           *
     821              ;*                                                             *
     822              ;* FUNCTION ENVIRONMENT                                        *
     823              ;*                                                             *
     824              ;* FUNCTION PROPERTIES                                         *
     825              ;*                            0 Parameter,  0 Auto,  0 SOE     *
     826              ;***************************************************************
     827              
     828 00000018       ||A3||:
     829                      .dwcfi  cfa_offset, -2
     830                      .dwcfi  save_reg_to_mem, 26, 0
     831                      .dwpsn  file "C:/Users/a0230328/workspace_v10/bts_F2800x_4ch_v2/bts.h",line 307,column 9,is_stmt,isa 
     832              $C$DW$71        .dwtag  DW_TAG_TI_branch
     833                      .dwattr $C$DW$71, DW_AT_low_pc(0x00)
     834                      .dwattr $C$DW$71, DW_AT_name("SFO")
     835                      .dwattr $C$DW$71, DW_AT_TI_call
     836              
     837 00000018 7640!         LCR       #||SFO||              ; [CPU_ALU] |307| 
         00000019 0000 
     838                      ; call occurs [#||SFO||] ; [] |307| 
     839 0000001a 761F!         MOVW      DP,#||A_Task_Ptr||    ; [CPU_ARAU] 
         0000001b 0000 
     840                      .dwpsn  file "../bts_main.c",line 310,column 5,is_stmt,isa 0
     841 0000001c 8F00!         MOVL      XAR4,#||A1||          ; [CPU_ARAU] |310| 
         0000001d 0000 
     842 0000001e A800!         MOVL      @||A_Task_Ptr||,XAR4  ; [CPU_ALU] |310| 
     843 0000001f 761F!         MOVW      DP,#||BTS_sfoStatus|| ; [CPU_ARAU] 
         00000020 0000 
     844                      .dwpsn  file "C:/Users/a0230328/workspace_v10/bts_F2800x_4ch_v2/bts.h",line 307,column 9,is_stmt,isa 
     845 00000021 9600!         MOV       @||BTS_sfoStatus||,AL ; [CPU_ALU] |307| 
     846              $C$DW$72        .dwtag  DW_TAG_TI_branch
     847                      .dwattr $C$DW$72, DW_AT_low_pc(0x00)
     848                      .dwattr $C$DW$72, DW_AT_TI_return
     849              
     850 00000022 0006          LRETR     ; [CPU_ALU] 
     851                      ; return occurs ; [] 
     852                      .dwattr $C$DW$70, DW_AT_TI_end_file("../bts_main.c")
     853                      .dwattr $C$DW$70, DW_AT_TI_end_line(0x137)
     854                      .dwattr $C$DW$70, DW_AT_TI_end_column(0x01)
     855                      .dwendentry
     856                      .dwendtag $C$DW$70
     857              
     858 00000023               .sect   ".text"
     859                      .clink
     860                      .global ||A2||
     861              
     862              $C$DW$73        .dwtag  DW_TAG_subprogram
     863                      .dwattr $C$DW$73, DW_AT_name("A2")
     864                      .dwattr $C$DW$73, DW_AT_low_pc(||A2||)
     865                      .dwattr $C$DW$73, DW_AT_high_pc(0x00)
     866                      .dwattr $C$DW$73, DW_AT_linkage_name("A2")
     867                      .dwattr $C$DW$73, DW_AT_external
     868                      .dwattr $C$DW$73, DW_AT_decl_file("../bts_main.c")
TMS320C2000 Assembler PC v20.2.1 Mon Nov  2 17:14:28 2020

Copyright (c) 1996-2018 Texas Instruments Incorporated
bts_main.asm                                                         PAGE   17

     869                      .dwattr $C$DW$73, DW_AT_decl_line(0x11f)
     870                      .dwattr $C$DW$73, DW_AT_decl_column(0x06)
     871                      .dwattr $C$DW$73, DW_AT_TI_max_frame_size(-2)
     872                      .dwpsn  file "../bts_main.c",line 288,column 1,is_stmt,address ||A2||,isa 0
     873              
     874                      .dwfde $C$DW$CIE, ||A2||
     875              
     876              ;***************************************************************
     877              ;* FNAME: A2                            FR SIZE:   0           *
     878              ;*                                                             *
     879              ;* FUNCTION ENVIRONMENT                                        *
     880              ;*                                                             *
     881              ;* FUNCTION PROPERTIES                                         *
     882              ;*                            0 Parameter,  0 Auto,  0 SOE     *
     883              ;***************************************************************
     884              
     885 00000023       ||A2||:
     886                      .dwcfi  cfa_offset, -2
     887                      .dwcfi  save_reg_to_mem, 26, 0
     888                      .dwpsn  file "../bts_main.c",line 297,column 5,is_stmt,isa 0
     889 00000023 8F00!         MOVL      XAR4,#||A3||          ; [CPU_ARAU] |297| 
         00000024 0000 
     890 00000025 761F!         MOVW      DP,#||A_Task_Ptr||    ; [CPU_ARAU] 
         00000026 0000 
     891 00000027 A800!         MOVL      @||A_Task_Ptr||,XAR4  ; [CPU_ALU] |297| 
     892              $C$DW$74        .dwtag  DW_TAG_TI_branch
     893                      .dwattr $C$DW$74, DW_AT_low_pc(0x00)
     894                      .dwattr $C$DW$74, DW_AT_TI_return
     895              
     896 00000028 0006          LRETR     ; [CPU_ALU] 
     897                      ; return occurs ; [] 
     898                      .dwattr $C$DW$73, DW_AT_TI_end_file("../bts_main.c")
     899                      .dwattr $C$DW$73, DW_AT_TI_end_line(0x12a)
     900                      .dwattr $C$DW$73, DW_AT_TI_end_column(0x01)
     901                      .dwendentry
     902                      .dwendtag $C$DW$73
     903              
     904 00000029               .sect   ".text"
     905                      .clink
     906                      .global ||C1||
     907              
     908              $C$DW$75        .dwtag  DW_TAG_subprogram
     909                      .dwattr $C$DW$75, DW_AT_name("C1")
     910                      .dwattr $C$DW$75, DW_AT_low_pc(||C1||)
     911                      .dwattr $C$DW$75, DW_AT_high_pc(0x00)
     912                      .dwattr $C$DW$75, DW_AT_linkage_name("C1")
     913                      .dwattr $C$DW$75, DW_AT_external
     914                      .dwattr $C$DW$75, DW_AT_decl_file("../bts_main.c")
     915                      .dwattr $C$DW$75, DW_AT_decl_line(0x168)
     916                      .dwattr $C$DW$75, DW_AT_decl_column(0x06)
     917                      .dwattr $C$DW$75, DW_AT_TI_max_frame_size(-2)
     918                      .dwpsn  file "../bts_main.c",line 361,column 1,is_stmt,address ||C1||,isa 0
     919              
     920                      .dwfde $C$DW$CIE, ||C1||
     921              
TMS320C2000 Assembler PC v20.2.1 Mon Nov  2 17:14:28 2020

Copyright (c) 1996-2018 Texas Instruments Incorporated
bts_main.asm                                                         PAGE   18

     922              ;***************************************************************
     923              ;* FNAME: C1                            FR SIZE:   0           *
     924              ;*                                                             *
     925              ;* FUNCTION ENVIRONMENT                                        *
     926              ;*                                                             *
     927              ;* FUNCTION PROPERTIES                                         *
     928              ;*                            0 Parameter,  0 Auto,  0 SOE     *
     929              ;***************************************************************
     930              
     931 00000029       ||C1||:
     932                      .dwcfi  cfa_offset, -2
     933                      .dwcfi  save_reg_to_mem, 26, 0
     934                      .dwpsn  file "../bts_main.c",line 364,column 5,is_stmt,isa 0
     935 00000029 8F00!         MOVL      XAR4,#||BTS_measValues_ch1|| ; [CPU_ARAU] |364| 
         0000002a 0000 
     936              $C$DW$76        .dwtag  DW_TAG_TI_branch
     937                      .dwattr $C$DW$76, DW_AT_low_pc(0x00)
     938                      .dwattr $C$DW$76, DW_AT_name("BTS_monitor_Iout_Vout")
     939                      .dwattr $C$DW$76, DW_AT_TI_call
     940              
     941 0000002b 7640!         LCR       #||BTS_monitor_Iout_Vout|| ; [CPU_ALU] |364| 
         0000002c 0000 
     942                      ; call occurs [#||BTS_monitor_Iout_Vout||] ; [] |364| 
     943                      .dwpsn  file "../bts_main.c",line 365,column 5,is_stmt,isa 0
     944 0000002d 8F00!         MOVL      XAR4,#||BTS_measValues_ch2|| ; [CPU_ARAU] |365| 
         0000002e 0000 
     945              $C$DW$77        .dwtag  DW_TAG_TI_branch
     946                      .dwattr $C$DW$77, DW_AT_low_pc(0x00)
     947                      .dwattr $C$DW$77, DW_AT_name("BTS_monitor_Iout_Vout")
     948                      .dwattr $C$DW$77, DW_AT_TI_call
     949              
     950 0000002f 7640!         LCR       #||BTS_monitor_Iout_Vout|| ; [CPU_ALU] |365| 
         00000030 0000 
     951                      ; call occurs [#||BTS_monitor_Iout_Vout||] ; [] |365| 
     952                      .dwpsn  file "../bts_main.c",line 366,column 5,is_stmt,isa 0
     953 00000031 8F00!         MOVL      XAR4,#||BTS_measValues_ch3|| ; [CPU_ARAU] |366| 
         00000032 0000 
     954              $C$DW$78        .dwtag  DW_TAG_TI_branch
     955                      .dwattr $C$DW$78, DW_AT_low_pc(0x00)
     956                      .dwattr $C$DW$78, DW_AT_name("BTS_monitor_Iout_Vout")
     957                      .dwattr $C$DW$78, DW_AT_TI_call
     958              
     959 00000033 7640!         LCR       #||BTS_monitor_Iout_Vout|| ; [CPU_ALU] |366| 
         00000034 0000 
     960                      ; call occurs [#||BTS_monitor_Iout_Vout||] ; [] |366| 
     961                      .dwpsn  file "../bts_main.c",line 367,column 5,is_stmt,isa 0
     962 00000035 8F00!         MOVL      XAR4,#||BTS_measValues_ch4|| ; [CPU_ARAU] |367| 
         00000036 0000 
     963              $C$DW$79        .dwtag  DW_TAG_TI_branch
     964                      .dwattr $C$DW$79, DW_AT_low_pc(0x00)
     965                      .dwattr $C$DW$79, DW_AT_name("BTS_monitor_Iout_Vout")
     966                      .dwattr $C$DW$79, DW_AT_TI_call
     967              
     968 00000037 7640!         LCR       #||BTS_monitor_Iout_Vout|| ; [CPU_ALU] |367| 
         00000038 0000 
TMS320C2000 Assembler PC v20.2.1 Mon Nov  2 17:14:28 2020

Copyright (c) 1996-2018 Texas Instruments Incorporated
bts_main.asm                                                         PAGE   19

     969                      ; call occurs [#||BTS_monitor_Iout_Vout||] ; [] |367| 
     970 00000039 761F!         MOVW      DP,#||C_Task_Ptr||    ; [CPU_ARAU] 
         0000003a 0000 
     971                      .dwpsn  file "../bts_main.c",line 373,column 5,is_stmt,isa 0
     972 0000003b 8F00!         MOVL      XAR4,#||C2||          ; [CPU_ARAU] |373| 
         0000003c 0000 
     973 0000003d A800!         MOVL      @||C_Task_Ptr||,XAR4  ; [CPU_ALU] |373| 
     974              $C$DW$80        .dwtag  DW_TAG_TI_branch
     975                      .dwattr $C$DW$80, DW_AT_low_pc(0x00)
     976                      .dwattr $C$DW$80, DW_AT_TI_return
     977              
     978 0000003e 0006          LRETR     ; [CPU_ALU] 
     979                      ; return occurs ; [] 
     980                      .dwattr $C$DW$75, DW_AT_TI_end_file("../bts_main.c")
     981                      .dwattr $C$DW$75, DW_AT_TI_end_line(0x176)
     982                      .dwattr $C$DW$75, DW_AT_TI_end_column(0x01)
     983                      .dwendentry
     984                      .dwendtag $C$DW$75
     985              
     986 0000003f               .sect   ".text"
     987                      .clink
     988                      .global ||B1||
     989              
     990              $C$DW$81        .dwtag  DW_TAG_subprogram
     991                      .dwattr $C$DW$81, DW_AT_name("B1")
     992                      .dwattr $C$DW$81, DW_AT_low_pc(||B1||)
     993                      .dwattr $C$DW$81, DW_AT_high_pc(0x00)
     994                      .dwattr $C$DW$81, DW_AT_linkage_name("B1")
     995                      .dwattr $C$DW$81, DW_AT_external
     996                      .dwattr $C$DW$81, DW_AT_decl_file("../bts_main.c")
     997                      .dwattr $C$DW$81, DW_AT_decl_line(0x13e)
     998                      .dwattr $C$DW$81, DW_AT_decl_column(0x06)
     999                      .dwattr $C$DW$81, DW_AT_TI_max_frame_size(-2)
    1000                      .dwpsn  file "../bts_main.c",line 319,column 1,is_stmt,address ||B1||,isa 0
    1001              
    1002                      .dwfde $C$DW$CIE, ||B1||
    1003              
    1004              ;***************************************************************
    1005              ;* FNAME: B1                            FR SIZE:   0           *
    1006              ;*                                                             *
    1007              ;* FUNCTION ENVIRONMENT                                        *
    1008              ;*                                                             *
    1009              ;* FUNCTION PROPERTIES                                         *
    1010              ;*                            0 Parameter,  0 Auto,  0 SOE     *
    1011              ;***************************************************************
    1012              
    1013 0000003f       ||B1||:
    1014                      .dwcfi  cfa_offset, -2
    1015                      .dwcfi  save_reg_to_mem, 26, 0
    1016                      .dwpsn  file "../bts_main.c",line 327,column 5,is_stmt,isa 0
    1017 0000003f 8F00!         MOVL      XAR4,#||B2||          ; [CPU_ARAU] |327| 
         00000040 0000 
    1018 00000041 761F!         MOVW      DP,#||B_Task_Ptr||    ; [CPU_ARAU] 
         00000042 0000 
    1019 00000043 A800!         MOVL      @||B_Task_Ptr||,XAR4  ; [CPU_ALU] |327| 
TMS320C2000 Assembler PC v20.2.1 Mon Nov  2 17:14:28 2020

Copyright (c) 1996-2018 Texas Instruments Incorporated
bts_main.asm                                                         PAGE   20

    1020              $C$DW$82        .dwtag  DW_TAG_TI_branch
    1021                      .dwattr $C$DW$82, DW_AT_low_pc(0x00)
    1022                      .dwattr $C$DW$82, DW_AT_TI_return
    1023              
    1024 00000044 0006          LRETR     ; [CPU_ALU] 
    1025                      ; return occurs ; [] 
    1026                      .dwattr $C$DW$81, DW_AT_TI_end_file("../bts_main.c")
    1027                      .dwattr $C$DW$81, DW_AT_TI_end_line(0x148)
    1028                      .dwattr $C$DW$81, DW_AT_TI_end_column(0x01)
    1029                      .dwendentry
    1030                      .dwendtag $C$DW$81
    1031              
    1032 00000045               .sect   ".text"
    1033                      .clink
    1034                      .global ||A1||
    1035              
    1036              $C$DW$83        .dwtag  DW_TAG_subprogram
    1037                      .dwattr $C$DW$83, DW_AT_name("A1")
    1038                      .dwattr $C$DW$83, DW_AT_low_pc(||A1||)
    1039                      .dwattr $C$DW$83, DW_AT_high_pc(0x00)
    1040                      .dwattr $C$DW$83, DW_AT_linkage_name("A1")
    1041                      .dwattr $C$DW$83, DW_AT_external
    1042                      .dwattr $C$DW$83, DW_AT_decl_file("../bts_main.c")
    1043                      .dwattr $C$DW$83, DW_AT_decl_line(0x10d)
    1044                      .dwattr $C$DW$83, DW_AT_decl_column(0x06)
    1045                      .dwattr $C$DW$83, DW_AT_TI_max_frame_size(-2)
    1046                      .dwpsn  file "../bts_main.c",line 270,column 1,is_stmt,address ||A1||,isa 0
    1047              
    1048                      .dwfde $C$DW$CIE, ||A1||
    1049              
    1050              ;***************************************************************
    1051              ;* FNAME: A1                            FR SIZE:   0           *
    1052              ;*                                                             *
    1053              ;* FUNCTION ENVIRONMENT                                        *
    1054              ;*                                                             *
    1055              ;* FUNCTION PROPERTIES                                         *
    1056              ;*                            0 Parameter,  0 Auto,  0 SOE     *
    1057              ;***************************************************************
    1058              
    1059 00000045       ||A1||:
    1060                      .dwcfi  cfa_offset, -2
    1061                      .dwcfi  save_reg_to_mem, 26, 0
    1062                      .dwpsn  file "../bts_main.c",line 276,column 5,is_stmt,isa 0
    1063 00000045 8F00!         MOVL      XAR4,#||BTS_userInput_ch1|| ; [CPU_ARAU] |276| 
         00000046 0000 
    1064 00000047 8F40!         MOVL      XAR5,#||BTS_ctrlLoopVariable_ch1|| ; [CPU_ARAU] |276| 
         00000048 0000 
    1065              $C$DW$84        .dwtag  DW_TAG_TI_branch
    1066                      .dwattr $C$DW$84, DW_AT_low_pc(0x00)
    1067                      .dwattr $C$DW$84, DW_AT_name("BTS_updateReference")
    1068                      .dwattr $C$DW$84, DW_AT_TI_call
    1069              
    1070 00000049 7640!         LCR       #||BTS_updateReference|| ; [CPU_ALU] |276| 
         0000004a 0000 
    1071                      ; call occurs [#||BTS_updateReference||] ; [] |276| 
TMS320C2000 Assembler PC v20.2.1 Mon Nov  2 17:14:28 2020

Copyright (c) 1996-2018 Texas Instruments Incorporated
bts_main.asm                                                         PAGE   21

    1072                      .dwpsn  file "../bts_main.c",line 277,column 5,is_stmt,isa 0
    1073 0000004b 8F00!         MOVL      XAR4,#||BTS_userInput_ch2|| ; [CPU_ARAU] |277| 
         0000004c 0000 
    1074 0000004d 8F40!         MOVL      XAR5,#||BTS_ctrlLoopVariable_ch2|| ; [CPU_ARAU] |277| 
         0000004e 0000 
    1075              $C$DW$85        .dwtag  DW_TAG_TI_branch
    1076                      .dwattr $C$DW$85, DW_AT_low_pc(0x00)
    1077                      .dwattr $C$DW$85, DW_AT_name("BTS_updateReference")
    1078                      .dwattr $C$DW$85, DW_AT_TI_call
    1079              
    1080 0000004f 7640!         LCR       #||BTS_updateReference|| ; [CPU_ALU] |277| 
         00000050 0000 
    1081                      ; call occurs [#||BTS_updateReference||] ; [] |277| 
    1082                      .dwpsn  file "../bts_main.c",line 278,column 5,is_stmt,isa 0
    1083 00000051 8F00!         MOVL      XAR4,#||BTS_userInput_ch3|| ; [CPU_ARAU] |278| 
         00000052 0000 
    1084 00000053 8F40!         MOVL      XAR5,#||BTS_ctrlLoopVariable_ch3|| ; [CPU_ARAU] |278| 
         00000054 0000 
    1085              $C$DW$86        .dwtag  DW_TAG_TI_branch
    1086                      .dwattr $C$DW$86, DW_AT_low_pc(0x00)
    1087                      .dwattr $C$DW$86, DW_AT_name("BTS_updateReference")
    1088                      .dwattr $C$DW$86, DW_AT_TI_call
    1089              
    1090 00000055 7640!         LCR       #||BTS_updateReference|| ; [CPU_ALU] |278| 
         00000056 0000 
    1091                      ; call occurs [#||BTS_updateReference||] ; [] |278| 
    1092                      .dwpsn  file "../bts_main.c",line 279,column 5,is_stmt,isa 0
    1093 00000057 8F00!         MOVL      XAR4,#||BTS_userInput_ch4|| ; [CPU_ARAU] |279| 
         00000058 0000 
    1094 00000059 8F40!         MOVL      XAR5,#||BTS_ctrlLoopVariable_ch4|| ; [CPU_ARAU] |279| 
         0000005a 0000 
    1095              $C$DW$87        .dwtag  DW_TAG_TI_branch
    1096                      .dwattr $C$DW$87, DW_AT_low_pc(0x00)
    1097                      .dwattr $C$DW$87, DW_AT_name("BTS_updateReference")
    1098                      .dwattr $C$DW$87, DW_AT_TI_call
    1099              
    1100 0000005b 7640!         LCR       #||BTS_updateReference|| ; [CPU_ALU] |279| 
         0000005c 0000 
    1101                      ; call occurs [#||BTS_updateReference||] ; [] |279| 
    1102 0000005d 761F!         MOVW      DP,#||A_Task_Ptr||    ; [CPU_ARAU] 
         0000005e 0000 
    1103                      .dwpsn  file "../bts_main.c",line 284,column 5,is_stmt,isa 0
    1104 0000005f 8F00!         MOVL      XAR4,#||A2||          ; [CPU_ARAU] |284| 
         00000060 0000 
    1105 00000061 A800!         MOVL      @||A_Task_Ptr||,XAR4  ; [CPU_ALU] |284| 
    1106              $C$DW$88        .dwtag  DW_TAG_TI_branch
    1107                      .dwattr $C$DW$88, DW_AT_low_pc(0x00)
    1108                      .dwattr $C$DW$88, DW_AT_TI_return
    1109              
    1110 00000062 0006          LRETR     ; [CPU_ALU] 
    1111                      ; return occurs ; [] 
    1112                      .dwattr $C$DW$83, DW_AT_TI_end_file("../bts_main.c")
    1113                      .dwattr $C$DW$83, DW_AT_TI_end_line(0x11d)
    1114                      .dwattr $C$DW$83, DW_AT_TI_end_column(0x01)
    1115                      .dwendentry
TMS320C2000 Assembler PC v20.2.1 Mon Nov  2 17:14:28 2020

Copyright (c) 1996-2018 Texas Instruments Incorporated
bts_main.asm                                                         PAGE   22

    1116                      .dwendtag $C$DW$83
    1117              
    1118 00000063               .sect   ".text"
    1119                      .clink
    1120                      .global ||A0||
    1121              
    1122              $C$DW$89        .dwtag  DW_TAG_subprogram
    1123                      .dwattr $C$DW$89, DW_AT_name("A0")
    1124                      .dwattr $C$DW$89, DW_AT_low_pc(||A0||)
    1125                      .dwattr $C$DW$89, DW_AT_high_pc(0x00)
    1126                      .dwattr $C$DW$89, DW_AT_linkage_name("A0")
    1127                      .dwattr $C$DW$89, DW_AT_external
    1128                      .dwattr $C$DW$89, DW_AT_decl_file("../bts_main.c")
    1129                      .dwattr $C$DW$89, DW_AT_decl_line(0xcd)
    1130                      .dwattr $C$DW$89, DW_AT_decl_column(0x06)
    1131                      .dwattr $C$DW$89, DW_AT_TI_max_frame_size(-2)
    1132                      .dwpsn  file "../bts_main.c",line 206,column 1,is_stmt,address ||A0||,isa 0
    1133              
    1134                      .dwfde $C$DW$CIE, ||A0||
    1135              
    1136              ;***************************************************************
    1137              ;* FNAME: A0                            FR SIZE:   0           *
    1138              ;*                                                             *
    1139              ;* FUNCTION ENVIRONMENT                                        *
    1140              ;*                                                             *
    1141              ;* FUNCTION PROPERTIES                                         *
    1142              ;*                            0 Parameter,  0 Auto,  0 SOE     *
    1143              ;***************************************************************
    1144              
    1145 00000063       ||A0||:
    1146              ;* AL    assigned to $O$R1
    1147                      .dwcfi  cfa_offset, -2
    1148                      .dwcfi  save_reg_to_mem, 26, 0
    1149                      .dwpsn  file "C:/ti/C2000Ware_DigitalPower_SDK_3_00_01_00/c2000ware/driverlib/f28004x/driverlib/cputi
    1150 00000063 F5A9          MOV       AL,*(0:0x0c04)        ; [CPU_ALU] |391| 
         00000064 0C04 
    1151 00000065 FFCE          LSR       AL,15                 ; [CPU_ALU] |391| 
    1152                      .dwpsn  file "../bts_main.c",line 210,column 5,is_stmt,isa 0
    1153 00000066 5201          CMPB      AL,#1                 ; [CPU_ALU] |210| 
    1154 00000067 600E          B         ||$C$L1||,NEQ         ; [CPU_ALU] |210| 
    1155                      ; branchcc occurs ; [] |210| 
    1156 00000068 761F!         MOVW      DP,#||A_Task_Ptr||    ; [CPU_ARAU] 
         00000069 0000 
    1157                      .dwpsn  file "C:/ti/C2000Ware_DigitalPower_SDK_3_00_01_00/c2000ware/driverlib/f28004x/driverlib/cputi
    1158 0000006a F5A9          MOV       AL,*(0:0x0c04)        ; [CPU_ALU] |167| 
         0000006b 0C04 
    1159                      .dwpsn  file "../bts_main.c",line 217,column 9,is_stmt,isa 0
    1160 0000006c C500!         MOVL      XAR7,@||A_Task_Ptr||  ; [CPU_ALU] |217| 
    1161                      .dwpsn  file "C:/ti/C2000Ware_DigitalPower_SDK_3_00_01_00/c2000ware/driverlib/f28004x/driverlib/cputi
    1162 0000006d 1AA9          OR        AL,#0x8000            ; [CPU_ALU] |167| 
         0000006e 8000 
    1163 0000006f F4A9          MOV       *(0:0x0c04),AL        ; [CPU_ALU] |167| 
         00000070 0C04 
    1164                      .dwpsn  file "../bts_main.c",line 217,column 9,is_stmt,isa 0
    1165              $C$DW$90        .dwtag  DW_TAG_TI_branch
TMS320C2000 Assembler PC v20.2.1 Mon Nov  2 17:14:28 2020

Copyright (c) 1996-2018 Texas Instruments Incorporated
bts_main.asm                                                         PAGE   23

    1166                      .dwattr $C$DW$90, DW_AT_low_pc(0x00)
    1167                      .dwattr $C$DW$90, DW_AT_TI_call
    1168                      .dwattr $C$DW$90, DW_AT_TI_indirect
    1169              
    1170 00000071 3E67          LCR       *XAR7                 ; [CPU_ALU] |217| 
    1171                      ; call occurs [XAR7] ; [] |217| 
    1172 00000072 761F!         MOVW      DP,#||vTimer0||       ; [CPU_ARAU] 
         00000073 0000 
    1173                      .dwpsn  file "../bts_main.c",line 219,column 9,is_stmt,isa 0
    1174 00000074 0A00!         INC       @||vTimer0||          ; [CPU_ALU] |219| 
    1175 00000075       ||$C$L1||:    
    1176                      .dwpsn  file "../bts_main.c",line 221,column 5,is_stmt,isa 0
    1177 00000075 8F00!         MOVL      XAR4,#||B0||          ; [CPU_ARAU] |221| 
         00000076 0000 
    1178 00000077 761F!         MOVW      DP,#||Alpha_State_Ptr|| ; [CPU_ARAU] 
         00000078 0000 
    1179 00000079 A800!         MOVL      @||Alpha_State_Ptr||,XAR4 ; [CPU_ALU] |221| 
    1180              $C$DW$91        .dwtag  DW_TAG_TI_branch
    1181                      .dwattr $C$DW$91, DW_AT_low_pc(0x00)
    1182                      .dwattr $C$DW$91, DW_AT_TI_return
    1183              
    1184 0000007a 0006          LRETR     ; [CPU_ALU] 
    1185                      ; return occurs ; [] 
    1186                      .dwattr $C$DW$89, DW_AT_TI_end_file("../bts_main.c")
    1187                      .dwattr $C$DW$89, DW_AT_TI_end_line(0xde)
    1188                      .dwattr $C$DW$89, DW_AT_TI_end_column(0x01)
    1189                      .dwendentry
    1190                      .dwendtag $C$DW$89
    1191              
    1192 0000007b               .sect   ".text"
    1193                      .clink
    1194                      .global ||B0||
    1195              
    1196              $C$DW$92        .dwtag  DW_TAG_subprogram
    1197                      .dwattr $C$DW$92, DW_AT_name("B0")
    1198                      .dwattr $C$DW$92, DW_AT_low_pc(||B0||)
    1199                      .dwattr $C$DW$92, DW_AT_high_pc(0x00)
    1200                      .dwattr $C$DW$92, DW_AT_linkage_name("B0")
    1201                      .dwattr $C$DW$92, DW_AT_external
    1202                      .dwattr $C$DW$92, DW_AT_decl_file("../bts_main.c")
    1203                      .dwattr $C$DW$92, DW_AT_decl_line(0xe0)
    1204                      .dwattr $C$DW$92, DW_AT_decl_column(0x06)
    1205                      .dwattr $C$DW$92, DW_AT_TI_max_frame_size(-2)
    1206                      .dwpsn  file "../bts_main.c",line 225,column 1,is_stmt,address ||B0||,isa 0
    1207              
    1208                      .dwfde $C$DW$CIE, ||B0||
    1209              
    1210              ;***************************************************************
    1211              ;* FNAME: B0                            FR SIZE:   0           *
    1212              ;*                                                             *
    1213              ;* FUNCTION ENVIRONMENT                                        *
    1214              ;*                                                             *
    1215              ;* FUNCTION PROPERTIES                                         *
    1216              ;*                            0 Parameter,  0 Auto,  0 SOE     *
    1217              ;***************************************************************
TMS320C2000 Assembler PC v20.2.1 Mon Nov  2 17:14:28 2020

Copyright (c) 1996-2018 Texas Instruments Incorporated
bts_main.asm                                                         PAGE   24

    1218              
    1219 0000007b       ||B0||:
    1220              ;* AL    assigned to $O$R1
    1221                      .dwcfi  cfa_offset, -2
    1222                      .dwcfi  save_reg_to_mem, 26, 0
    1223                      .dwpsn  file "C:/ti/C2000Ware_DigitalPower_SDK_3_00_01_00/c2000ware/driverlib/f28004x/driverlib/cputi
    1224 0000007b F5A9          MOV       AL,*(0:0x0c0c)        ; [CPU_ALU] |391| 
         0000007c 0C0C 
    1225 0000007d FFCE          LSR       AL,15                 ; [CPU_ALU] |391| 
    1226                      .dwpsn  file "../bts_main.c",line 229,column 5,is_stmt,isa 0
    1227 0000007e 5201          CMPB      AL,#1                 ; [CPU_ALU] |229| 
    1228 0000007f 600E          B         ||$C$L2||,NEQ         ; [CPU_ALU] |229| 
    1229                      ; branchcc occurs ; [] |229| 
    1230 00000080 761F!         MOVW      DP,#||B_Task_Ptr||    ; [CPU_ARAU] 
         00000081 0000 
    1231                      .dwpsn  file "C:/ti/C2000Ware_DigitalPower_SDK_3_00_01_00/c2000ware/driverlib/f28004x/driverlib/cputi
    1232 00000082 F5A9          MOV       AL,*(0:0x0c0c)        ; [CPU_ALU] |167| 
         00000083 0C0C 
    1233                      .dwpsn  file "../bts_main.c",line 236,column 9,is_stmt,isa 0
    1234 00000084 C500!         MOVL      XAR7,@||B_Task_Ptr||  ; [CPU_ALU] |236| 
    1235                      .dwpsn  file "C:/ti/C2000Ware_DigitalPower_SDK_3_00_01_00/c2000ware/driverlib/f28004x/driverlib/cputi
    1236 00000085 1AA9          OR        AL,#0x8000            ; [CPU_ALU] |167| 
         00000086 8000 
    1237 00000087 F4A9          MOV       *(0:0x0c0c),AL        ; [CPU_ALU] |167| 
         00000088 0C0C 
    1238                      .dwpsn  file "../bts_main.c",line 236,column 9,is_stmt,isa 0
    1239              $C$DW$93        .dwtag  DW_TAG_TI_branch
    1240                      .dwattr $C$DW$93, DW_AT_low_pc(0x00)
    1241                      .dwattr $C$DW$93, DW_AT_TI_call
    1242                      .dwattr $C$DW$93, DW_AT_TI_indirect
    1243              
    1244 00000089 3E67          LCR       *XAR7                 ; [CPU_ALU] |236| 
    1245                      ; call occurs [XAR7] ; [] |236| 
    1246 0000008a 761F!         MOVW      DP,#||vTimer1||       ; [CPU_ARAU] 
         0000008b 0000 
    1247                      .dwpsn  file "../bts_main.c",line 238,column 9,is_stmt,isa 0
    1248 0000008c 0A00!         INC       @||vTimer1||          ; [CPU_ALU] |238| 
    1249 0000008d       ||$C$L2||:    
    1250                      .dwpsn  file "../bts_main.c",line 241,column 5,is_stmt,isa 0
    1251 0000008d 8F00!         MOVL      XAR4,#||C0||          ; [CPU_ARAU] |241| 
         0000008e 0000 
    1252 0000008f 761F!         MOVW      DP,#||Alpha_State_Ptr|| ; [CPU_ARAU] 
         00000090 0000 
    1253 00000091 A800!         MOVL      @||Alpha_State_Ptr||,XAR4 ; [CPU_ALU] |241| 
    1254              $C$DW$94        .dwtag  DW_TAG_TI_branch
    1255                      .dwattr $C$DW$94, DW_AT_low_pc(0x00)
    1256                      .dwattr $C$DW$94, DW_AT_TI_return
    1257              
    1258 00000092 0006          LRETR     ; [CPU_ALU] 
    1259                      ; return occurs ; [] 
    1260                      .dwattr $C$DW$92, DW_AT_TI_end_file("../bts_main.c")
    1261                      .dwattr $C$DW$92, DW_AT_TI_end_line(0xf2)
    1262                      .dwattr $C$DW$92, DW_AT_TI_end_column(0x01)
    1263                      .dwendentry
    1264                      .dwendtag $C$DW$92
TMS320C2000 Assembler PC v20.2.1 Mon Nov  2 17:14:28 2020

Copyright (c) 1996-2018 Texas Instruments Incorporated
bts_main.asm                                                         PAGE   25

    1265              
    1266 00000093               .sect   ".text"
    1267                      .clink
    1268                      .global ||C0||
    1269              
    1270              $C$DW$95        .dwtag  DW_TAG_subprogram
    1271                      .dwattr $C$DW$95, DW_AT_name("C0")
    1272                      .dwattr $C$DW$95, DW_AT_low_pc(||C0||)
    1273                      .dwattr $C$DW$95, DW_AT_high_pc(0x00)
    1274                      .dwattr $C$DW$95, DW_AT_linkage_name("C0")
    1275                      .dwattr $C$DW$95, DW_AT_external
    1276                      .dwattr $C$DW$95, DW_AT_decl_file("../bts_main.c")
    1277                      .dwattr $C$DW$95, DW_AT_decl_line(0xf4)
    1278                      .dwattr $C$DW$95, DW_AT_decl_column(0x06)
    1279                      .dwattr $C$DW$95, DW_AT_TI_max_frame_size(-2)
    1280                      .dwpsn  file "../bts_main.c",line 245,column 1,is_stmt,address ||C0||,isa 0
    1281              
    1282                      .dwfde $C$DW$CIE, ||C0||
    1283              
    1284              ;***************************************************************
    1285              ;* FNAME: C0                            FR SIZE:   0           *
    1286              ;*                                                             *
    1287              ;* FUNCTION ENVIRONMENT                                        *
    1288              ;*                                                             *
    1289              ;* FUNCTION PROPERTIES                                         *
    1290              ;*                            0 Parameter,  0 Auto,  0 SOE     *
    1291              ;***************************************************************
    1292              
    1293 00000093       ||C0||:
    1294              ;* AL    assigned to $O$R1
    1295                      .dwcfi  cfa_offset, -2
    1296                      .dwcfi  save_reg_to_mem, 26, 0
    1297                      .dwpsn  file "C:/ti/C2000Ware_DigitalPower_SDK_3_00_01_00/c2000ware/driverlib/f28004x/driverlib/cputi
    1298 00000093 F5A9          MOV       AL,*(0:0x0c14)        ; [CPU_ALU] |391| 
         00000094 0C14 
    1299 00000095 FFCE          LSR       AL,15                 ; [CPU_ALU] |391| 
    1300                      .dwpsn  file "../bts_main.c",line 249,column 5,is_stmt,isa 0
    1301 00000096 5201          CMPB      AL,#1                 ; [CPU_ALU] |249| 
    1302 00000097 600E          B         ||$C$L3||,NEQ         ; [CPU_ALU] |249| 
    1303                      ; branchcc occurs ; [] |249| 
    1304 00000098 761F!         MOVW      DP,#||C_Task_Ptr||    ; [CPU_ARAU] 
         00000099 0000 
    1305                      .dwpsn  file "C:/ti/C2000Ware_DigitalPower_SDK_3_00_01_00/c2000ware/driverlib/f28004x/driverlib/cputi
    1306 0000009a F5A9          MOV       AL,*(0:0x0c14)        ; [CPU_ALU] |167| 
         0000009b 0C14 
    1307                      .dwpsn  file "../bts_main.c",line 256,column 9,is_stmt,isa 0
    1308 0000009c C500!         MOVL      XAR7,@||C_Task_Ptr||  ; [CPU_ALU] |256| 
    1309                      .dwpsn  file "C:/ti/C2000Ware_DigitalPower_SDK_3_00_01_00/c2000ware/driverlib/f28004x/driverlib/cputi
    1310 0000009d 1AA9          OR        AL,#0x8000            ; [CPU_ALU] |167| 
         0000009e 8000 
    1311 0000009f F4A9          MOV       *(0:0x0c14),AL        ; [CPU_ALU] |167| 
         000000a0 0C14 
    1312                      .dwpsn  file "../bts_main.c",line 256,column 9,is_stmt,isa 0
    1313              $C$DW$96        .dwtag  DW_TAG_TI_branch
    1314                      .dwattr $C$DW$96, DW_AT_low_pc(0x00)
TMS320C2000 Assembler PC v20.2.1 Mon Nov  2 17:14:28 2020

Copyright (c) 1996-2018 Texas Instruments Incorporated
bts_main.asm                                                         PAGE   26

    1315                      .dwattr $C$DW$96, DW_AT_TI_call
    1316                      .dwattr $C$DW$96, DW_AT_TI_indirect
    1317              
    1318 000000a1 3E67          LCR       *XAR7                 ; [CPU_ALU] |256| 
    1319                      ; call occurs [XAR7] ; [] |256| 
    1320 000000a2 761F!         MOVW      DP,#||vTimer2||       ; [CPU_ARAU] 
         000000a3 0000 
    1321                      .dwpsn  file "../bts_main.c",line 258,column 9,is_stmt,isa 0
    1322 000000a4 0A00!         INC       @||vTimer2||          ; [CPU_ALU] |258| 
    1323 000000a5       ||$C$L3||:    
    1324                      .dwpsn  file "../bts_main.c",line 261,column 5,is_stmt,isa 0
    1325 000000a5 8F00!         MOVL      XAR4,#||A0||          ; [CPU_ARAU] |261| 
         000000a6 0000 
    1326 000000a7 761F!         MOVW      DP,#||Alpha_State_Ptr|| ; [CPU_ARAU] 
         000000a8 0000 
    1327 000000a9 A800!         MOVL      @||Alpha_State_Ptr||,XAR4 ; [CPU_ALU] |261| 
    1328              $C$DW$97        .dwtag  DW_TAG_TI_branch
    1329                      .dwattr $C$DW$97, DW_AT_low_pc(0x00)
    1330                      .dwattr $C$DW$97, DW_AT_TI_return
    1331              
    1332 000000aa 0006          LRETR     ; [CPU_ALU] 
    1333                      ; return occurs ; [] 
    1334                      .dwattr $C$DW$95, DW_AT_TI_end_file("../bts_main.c")
    1335                      .dwattr $C$DW$95, DW_AT_TI_end_line(0x106)
    1336                      .dwattr $C$DW$95, DW_AT_TI_end_column(0x01)
    1337                      .dwendentry
    1338                      .dwendtag $C$DW$95
    1339              
    1340 000000ab               .sect   ".text"
    1341                      .clink
    1342                      .global ||main||
    1343              
    1344              $C$DW$98        .dwtag  DW_TAG_subprogram
    1345                      .dwattr $C$DW$98, DW_AT_name("main")
    1346                      .dwattr $C$DW$98, DW_AT_low_pc(||main||)
    1347                      .dwattr $C$DW$98, DW_AT_high_pc(0x00)
    1348                      .dwattr $C$DW$98, DW_AT_linkage_name("main")
    1349                      .dwattr $C$DW$98, DW_AT_external
    1350                      .dwattr $C$DW$98, DW_AT_decl_file("../bts_main.c")
    1351                      .dwattr $C$DW$98, DW_AT_decl_line(0x4b)
    1352                      .dwattr $C$DW$98, DW_AT_decl_column(0x06)
    1353                      .dwattr $C$DW$98, DW_AT_TI_max_frame_size(-2)
    1354                      .dwpsn  file "../bts_main.c",line 76,column 1,is_stmt,address ||main||,isa 0
    1355              
    1356                      .dwfde $C$DW$CIE, ||main||
    1357              
    1358              ;***************************************************************
    1359              ;* FNAME: main                          FR SIZE:   0           *
    1360              ;*                                                             *
    1361              ;* FUNCTION ENVIRONMENT                                        *
    1362              ;*                                                             *
    1363              ;* FUNCTION PROPERTIES                                         *
    1364              ;*                            0 Parameter,  0 Auto,  0 SOE     *
    1365              ;***************************************************************
    1366              
TMS320C2000 Assembler PC v20.2.1 Mon Nov  2 17:14:28 2020

Copyright (c) 1996-2018 Texas Instruments Incorporated
bts_main.asm                                                         PAGE   27

    1367 000000ab       ||main||:
    1368                      .dwcfi  cfa_offset, -2
    1369                      .dwcfi  save_reg_to_mem, 26, 0
    1370                      .dwpsn  file "../bts_main.c",line 82,column 5,is_stmt,isa 0
    1371              $C$DW$99        .dwtag  DW_TAG_TI_branch
    1372                      .dwattr $C$DW$99, DW_AT_low_pc(0x00)
    1373                      .dwattr $C$DW$99, DW_AT_name("BTS_HAL_setupDevice")
    1374                      .dwattr $C$DW$99, DW_AT_TI_call
    1375              
    1376 000000ab 7640!         LCR       #||BTS_HAL_setupDevice|| ; [CPU_ALU] |82| 
         000000ac 0000 
    1377                      ; call occurs [#||BTS_HAL_setupDevice||] ; [] |82| 
    1378                      .dwpsn  file "../bts_main.c",line 90,column 5,is_stmt,isa 0
    1379              $C$DW$100       .dwtag  DW_TAG_TI_branch
    1380                      .dwattr $C$DW$100, DW_AT_low_pc(0x00)
    1381                      .dwattr $C$DW$100, DW_AT_name("BTS_HAL_setupSyncBuckPinsGpio")
    1382                      .dwattr $C$DW$100, DW_AT_TI_call
    1383              
    1384 000000ad 7640!         LCR       #||BTS_HAL_setupSyncBuckPinsGpio|| ; [CPU_ALU] |90| 
         000000ae 0000 
    1385                      ; call occurs [#||BTS_HAL_setupSyncBuckPinsGpio||] ; [] |90| 
    1386 000000af 761F!         MOVW      DP,#||Alpha_State_Ptr|| ; [CPU_ARAU] 
         000000b0 0000 
    1387                      .dwpsn  file "../bts_main.c",line 95,column 5,is_stmt,isa 0
    1388 000000b1 76C0!         MOVL      XAR7,#||A0||          ; [CPU_ARAU] |95| 
         000000b2 0000 
    1389                      .dwpsn  file "../bts_main.c",line 96,column 5,is_stmt,isa 0
    1390 000000b3 7680!         MOVL      XAR6,#||A1||          ; [CPU_ARAU] |96| 
         000000b4 0000 
    1391                      .dwpsn  file "../bts_main.c",line 97,column 5,is_stmt,isa 0
    1392 000000b5 8F40!         MOVL      XAR5,#||B1||          ; [CPU_ARAU] |97| 
         000000b6 0000 
    1393                      .dwpsn  file "../bts_main.c",line 98,column 5,is_stmt,isa 0
    1394 000000b7 8F00!         MOVL      XAR4,#||C1||          ; [CPU_ARAU] |98| 
         000000b8 0000 
    1395                      .dwpsn  file "../bts_main.c",line 95,column 5,is_stmt,isa 0
    1396 000000b9 C300!         MOVL      @||Alpha_State_Ptr||,XAR7 ; [CPU_ALU] |95| 
    1397                      .dwpsn  file "../bts_main.c",line 96,column 5,is_stmt,isa 0
    1398 000000ba C200!         MOVL      @||A_Task_Ptr||,XAR6  ; [CPU_ALU] |96| 
    1399                      .dwpsn  file "../bts_main.c",line 97,column 5,is_stmt,isa 0
    1400 000000bb A000!         MOVL      @||B_Task_Ptr||,XAR5  ; [CPU_ALU] |97| 
    1401                      .dwpsn  file "../bts_main.c",line 98,column 5,is_stmt,isa 0
    1402 000000bc A800!         MOVL      @||C_Task_Ptr||,XAR4  ; [CPU_ALU] |98| 
    1403                      .dwpsn  file "../bts_main.c",line 103,column 5,is_stmt,isa 0
    1404              $C$DW$101       .dwtag  DW_TAG_TI_branch
    1405                      .dwattr $C$DW$101, DW_AT_low_pc(0x00)
    1406                      .dwattr $C$DW$101, DW_AT_name("BTS_HAL_disableEpwmCounting")
    1407                      .dwattr $C$DW$101, DW_AT_TI_call
    1408              
    1409 000000bd 7640!         LCR       #||BTS_HAL_disableEpwmCounting|| ; [CPU_ALU] |103| 
         000000be 0000 
    1410                      ; call occurs [#||BTS_HAL_disableEpwmCounting||] ; [] |103| 
    1411                      .dwpsn  file "../bts_main.c",line 110,column 5,is_stmt,isa 0
    1412 000000bf 8F00          MOVL      XAR4,#16384           ; [CPU_ARAU] |110| 
         000000c0 4000 
TMS320C2000 Assembler PC v20.2.1 Mon Nov  2 17:14:28 2020

Copyright (c) 1996-2018 Texas Instruments Incorporated
bts_main.asm                                                         PAGE   28

    1413 000000c1 A8A9          MOVL      ACC,XAR4              ; [CPU_ALU] |110| 
    1414              $C$DW$102       .dwtag  DW_TAG_TI_branch
    1415                      .dwattr $C$DW$102, DW_AT_low_pc(0x00)
    1416                      .dwattr $C$DW$102, DW_AT_name("BTS_HAL_setupSyncBuckPwm")
    1417                      .dwattr $C$DW$102, DW_AT_TI_call
    1418              
    1419 000000c2 7640!         LCR       #||BTS_HAL_setupSyncBuckPwm|| ; [CPU_ALU] |110| 
         000000c3 0000 
    1420                      ; call occurs [#||BTS_HAL_setupSyncBuckPwm||] ; [] |110| 
    1421                      .dwpsn  file "../bts_main.c",line 111,column 5,is_stmt,isa 0
    1422 000000c4 8F00          MOVL      XAR4,#16640           ; [CPU_ARAU] |111| 
         000000c5 4100 
    1423 000000c6 A8A9          MOVL      ACC,XAR4              ; [CPU_ALU] |111| 
    1424              $C$DW$103       .dwtag  DW_TAG_TI_branch
    1425                      .dwattr $C$DW$103, DW_AT_low_pc(0x00)
    1426                      .dwattr $C$DW$103, DW_AT_name("BTS_HAL_setupSyncBuckPwm")
    1427                      .dwattr $C$DW$103, DW_AT_TI_call
    1428              
    1429 000000c7 7640!         LCR       #||BTS_HAL_setupSyncBuckPwm|| ; [CPU_ALU] |111| 
         000000c8 0000 
    1430                      ; call occurs [#||BTS_HAL_setupSyncBuckPwm||] ; [] |111| 
    1431                      .dwpsn  file "../bts_main.c",line 112,column 5,is_stmt,isa 0
    1432 000000c9 8F00          MOVL      XAR4,#16896           ; [CPU_ARAU] |112| 
         000000ca 4200 
    1433 000000cb A8A9          MOVL      ACC,XAR4              ; [CPU_ALU] |112| 
    1434              $C$DW$104       .dwtag  DW_TAG_TI_branch
    1435                      .dwattr $C$DW$104, DW_AT_low_pc(0x00)
    1436                      .dwattr $C$DW$104, DW_AT_name("BTS_HAL_setupSyncBuckPwm")
    1437                      .dwattr $C$DW$104, DW_AT_TI_call
    1438              
    1439 000000cc 7640!         LCR       #||BTS_HAL_setupSyncBuckPwm|| ; [CPU_ALU] |112| 
         000000cd 0000 
    1440                      ; call occurs [#||BTS_HAL_setupSyncBuckPwm||] ; [] |112| 
    1441                      .dwpsn  file "../bts_main.c",line 113,column 5,is_stmt,isa 0
    1442 000000ce 8F00          MOVL      XAR4,#17152           ; [CPU_ARAU] |113| 
         000000cf 4300 
    1443 000000d0 A8A9          MOVL      ACC,XAR4              ; [CPU_ALU] |113| 
    1444              $C$DW$105       .dwtag  DW_TAG_TI_branch
    1445                      .dwattr $C$DW$105, DW_AT_low_pc(0x00)
    1446                      .dwattr $C$DW$105, DW_AT_name("BTS_HAL_setupSyncBuckPwm")
    1447                      .dwattr $C$DW$105, DW_AT_TI_call
    1448              
    1449 000000d1 7640!         LCR       #||BTS_HAL_setupSyncBuckPwm|| ; [CPU_ALU] |113| 
         000000d2 0000 
    1450                      ; call occurs [#||BTS_HAL_setupSyncBuckPwm||] ; [] |113| 
    1451                      .dwpsn  file "../bts_main.c",line 114,column 5,is_stmt,isa 0
    1452              $C$DW$106       .dwtag  DW_TAG_TI_branch
    1453                      .dwattr $C$DW$106, DW_AT_low_pc(0x00)
    1454                      .dwattr $C$DW$106, DW_AT_name("BTS_setupHrpwmMepScaleFactor")
    1455                      .dwattr $C$DW$106, DW_AT_TI_call
    1456              
    1457 000000d3 7640!         LCR       #||BTS_setupHrpwmMepScaleFactor|| ; [CPU_ALU] |114| 
         000000d4 0000 
    1458                      ; call occurs [#||BTS_setupHrpwmMepScaleFactor||] ; [] |114| 
    1459                      .dwpsn  file "../bts_main.c",line 120,column 5,is_stmt,isa 0
TMS320C2000 Assembler PC v20.2.1 Mon Nov  2 17:14:28 2020

Copyright (c) 1996-2018 Texas Instruments Incorporated
bts_main.asm                                                         PAGE   29

    1460              $C$DW$107       .dwtag  DW_TAG_TI_branch
    1461                      .dwattr $C$DW$107, DW_AT_low_pc(0x00)
    1462                      .dwattr $C$DW$107, DW_AT_name("BTS_HAL_SetupSpiPinsGpio")
    1463                      .dwattr $C$DW$107, DW_AT_TI_call
    1464              
    1465 000000d5 7640!         LCR       #||BTS_HAL_SetupSpiPinsGpio|| ; [CPU_ALU] |120| 
         000000d6 0000 
    1466                      ; call occurs [#||BTS_HAL_SetupSpiPinsGpio||] ; [] |120| 
    1467                      .dwpsn  file "../bts_main.c",line 121,column 5,is_stmt,isa 0
    1468              $C$DW$108       .dwtag  DW_TAG_TI_branch
    1469                      .dwattr $C$DW$108, DW_AT_low_pc(0x00)
    1470                      .dwattr $C$DW$108, DW_AT_name("BTS_HAL_SetupSpi")
    1471                      .dwattr $C$DW$108, DW_AT_TI_call
    1472              
    1473 000000d7 7640!         LCR       #||BTS_HAL_SetupSpi|| ; [CPU_ALU] |121| 
         000000d8 0000 
    1474                      ; call occurs [#||BTS_HAL_SetupSpi||] ; [] |121| 
    1475                      .dwpsn  file "../bts_main.c",line 123,column 5,is_stmt,isa 0
    1476              $C$DW$109       .dwtag  DW_TAG_TI_branch
    1477                      .dwattr $C$DW$109, DW_AT_low_pc(0x00)
    1478                      .dwattr $C$DW$109, DW_AT_name("BTS_HAL_setupExAdcGpio")
    1479                      .dwattr $C$DW$109, DW_AT_TI_call
    1480              
    1481 000000d9 7640!         LCR       #||BTS_HAL_setupExAdcGpio|| ; [CPU_ALU] |123| 
         000000da 0000 
    1482                      ; call occurs [#||BTS_HAL_setupExAdcGpio||] ; [] |123| 
    1483                      .dwpsn  file "../bts_main.c",line 124,column 5,is_stmt,isa 0
    1484              $C$DW$110       .dwtag  DW_TAG_TI_branch
    1485                      .dwattr $C$DW$110, DW_AT_low_pc(0x00)
    1486                      .dwattr $C$DW$110, DW_AT_name("BTS_HAL_setupExAdc")
    1487                      .dwattr $C$DW$110, DW_AT_TI_call
    1488              
    1489 000000db 7640!         LCR       #||BTS_HAL_setupExAdc|| ; [CPU_ALU] |124| 
         000000dc 0000 
    1490                      ; call occurs [#||BTS_HAL_setupExAdc||] ; [] |124| 
    1491                      .dwpsn  file "../bts_main.c",line 131,column 5,is_stmt,isa 0
    1492              $C$DW$111       .dwtag  DW_TAG_TI_branch
    1493                      .dwattr $C$DW$111, DW_AT_low_pc(0x00)
    1494                      .dwattr $C$DW$111, DW_AT_name("BTS_initUserVariables")
    1495                      .dwattr $C$DW$111, DW_AT_TI_call
    1496              
    1497 000000dd 7640!         LCR       #||BTS_initUserVariables|| ; [CPU_ALU] |131| 
         000000de 0000 
    1498                      ; call occurs [#||BTS_initUserVariables||] ; [] |131| 
    1499                      .dwpsn  file "../bts_main.c",line 132,column 5,is_stmt,isa 0
    1500              $C$DW$112       .dwtag  DW_TAG_TI_branch
    1501                      .dwattr $C$DW$112, DW_AT_low_pc(0x00)
    1502                      .dwattr $C$DW$112, DW_AT_name("BTS_initProgramVariables")
    1503                      .dwattr $C$DW$112, DW_AT_TI_call
    1504              
    1505 000000df 7640!         LCR       #||BTS_initProgramVariables|| ; [CPU_ALU] |132| 
         000000e0 0000 
    1506                      ; call occurs [#||BTS_initProgramVariables||] ; [] |132| 
    1507                      .dwpsn  file "../bts_main.c",line 133,column 5,is_stmt,isa 0
    1508              $C$DW$113       .dwtag  DW_TAG_TI_branch
TMS320C2000 Assembler PC v20.2.1 Mon Nov  2 17:14:28 2020

Copyright (c) 1996-2018 Texas Instruments Incorporated
bts_main.asm                                                         PAGE   30

    1509                      .dwattr $C$DW$113, DW_AT_low_pc(0x00)
    1510                      .dwattr $C$DW$113, DW_AT_name("BTS_initController")
    1511                      .dwattr $C$DW$113, DW_AT_TI_call
    1512              
    1513 000000e1 7640!         LCR       #||BTS_initController|| ; [CPU_ALU] |133| 
         000000e2 0000 
    1514                      ; call occurs [#||BTS_initController||] ; [] |133| 
    1515                      .dwpsn  file "../bts_main.c",line 138,column 5,is_stmt,isa 0
    1516              $C$DW$114       .dwtag  DW_TAG_TI_branch
    1517                      .dwattr $C$DW$114, DW_AT_low_pc(0x00)
    1518                      .dwattr $C$DW$114, DW_AT_name("BTS_setupSfra")
    1519                      .dwattr $C$DW$114, DW_AT_TI_call
    1520              
    1521 000000e3 7640!         LCR       #||BTS_setupSfra||    ; [CPU_ALU] |138| 
         000000e4 0000 
    1522                      ; call occurs [#||BTS_setupSfra||] ; [] |138| 
    1523                      .dwpsn  file "../bts_main.c",line 139,column 5,is_stmt,isa 0
    1524              $C$DW$115       .dwtag  DW_TAG_TI_branch
    1525                      .dwattr $C$DW$115, DW_AT_low_pc(0x00)
    1526                      .dwattr $C$DW$115, DW_AT_name("BTS_setupSfraGui")
    1527                      .dwattr $C$DW$115, DW_AT_TI_call
    1528              
    1529 000000e5 7640!         LCR       #||BTS_setupSfraGui|| ; [CPU_ALU] |139| 
         000000e6 0000 
    1530                      ; call occurs [#||BTS_setupSfraGui||] ; [] |139| 
    1531                      .dwpsn  file "../bts_main.c",line 144,column 5,is_stmt,isa 0
    1532              $C$DW$116       .dwtag  DW_TAG_TI_branch
    1533                      .dwattr $C$DW$116, DW_AT_low_pc(0x00)
    1534                      .dwattr $C$DW$116, DW_AT_name("BTS_HAL_setupInterruptTrigger")
    1535                      .dwattr $C$DW$116, DW_AT_TI_call
    1536              
    1537 000000e7 7640!         LCR       #||BTS_HAL_setupInterruptTrigger|| ; [CPU_ALU] |144| 
         000000e8 0000 
    1538                      ; call occurs [#||BTS_HAL_setupInterruptTrigger||] ; [] |144| 
    1539                      .dwpsn  file "../bts_main.c",line 145,column 5,is_stmt,isa 0
    1540              $C$DW$117       .dwtag  DW_TAG_TI_branch
    1541                      .dwattr $C$DW$117, DW_AT_low_pc(0x00)
    1542                      .dwattr $C$DW$117, DW_AT_name("BTS_HAL_setupInterrupt")
    1543                      .dwattr $C$DW$117, DW_AT_TI_call
    1544              
    1545 000000e9 7640!         LCR       #||BTS_HAL_setupInterrupt|| ; [CPU_ALU] |145| 
         000000ea 0000 
    1546                      ; call occurs [#||BTS_HAL_setupInterrupt||] ; [] |145| 
    1547                      .dwpsn  file "../bts_main.c",line 150,column 5,is_stmt,isa 0
    1548              $C$DW$118       .dwtag  DW_TAG_TI_branch
    1549                      .dwattr $C$DW$118, DW_AT_low_pc(0x00)
    1550                      .dwattr $C$DW$118, DW_AT_name("BTS_HAL_enableEpwmCounting")
    1551                      .dwattr $C$DW$118, DW_AT_TI_call
    1552              
    1553 000000eb 7640!         LCR       #||BTS_HAL_enableEpwmCounting|| ; [CPU_ALU] |150| 
         000000ec 0000 
    1554                      ; call occurs [#||BTS_HAL_enableEpwmCounting||] ; [] |150| 
    1555                      .dwpsn  file "../bts_main.c",line 155,column 5,is_stmt,isa 0
    1556              $C$DW$119       .dwtag  DW_TAG_TI_branch
    1557                      .dwattr $C$DW$119, DW_AT_low_pc(0x00)
TMS320C2000 Assembler PC v20.2.1 Mon Nov  2 17:14:28 2020

Copyright (c) 1996-2018 Texas Instruments Incorporated
bts_main.asm                                                         PAGE   31

    1558                      .dwattr $C$DW$119, DW_AT_name("BTS_HAL_setupSyncBuckPinsEpwm")
    1559                      .dwattr $C$DW$119, DW_AT_TI_call
    1560              
    1561 000000ed 7640!         LCR       #||BTS_HAL_setupSyncBuckPinsEpwm|| ; [CPU_ALU] |155| 
         000000ee 0000 
    1562                      ; call occurs [#||BTS_HAL_setupSyncBuckPinsEpwm||] ; [] |155| 
    1563                      .dwpsn  file "C:\Users\a0230328\workspace_v10\bts_F2800x_4ch_v2\bts_hal.h",line 115,column 5,is_stmt,
    1564 000000ef FF20          MOV       ACC,#0                ; [CPU_ALU] |115| 
         000000f0 0000 
    1565                      .dwpsn  file "C:\Users\a0230328\workspace_v10\bts_F2800x_4ch_v2\bts_hal.h",line 119,column 8,is_stmt,
    1566 000000f1 BE00          MOVB      XAR6,#0               ; [CPU_ALU] |119| 
    1567 000000f2 B600          MOVB      XAR7,#0               ; [CPU_ALU] |119| 
    1568                      .dwpsn  file "C:\Users\a0230328\workspace_v10\bts_F2800x_4ch_v2\bts_hal.h",line 112,column 5,is_stmt,
    1569 000000f3 F4A9          MOV       *(0:0x6108),AL        ; [CPU_ALU] |112| 
         000000f4 6108 
    1570                      .dwpsn  file "C:\Users\a0230328\workspace_v10\bts_F2800x_4ch_v2\bts_hal.h",line 115,column 5,is_stmt,
    1571 000000f5 F4A8          MOV       *(0:0x6108),AH        ; [CPU_ALU] |115| 
         000000f6 6108 
    1572                      .dwpsn  file "C:\Users\a0230328\workspace_v10\bts_F2800x_4ch_v2\bts_hal.h",line 119,column 8,is_stmt,
    1573 000000f7 F4A9          MOV       *(0:0x6108),AL        ; [CPU_ALU] |119| 
         000000f8 6108 
    1574 000000f9 F4A6          MOV       *(0:0x6108),AR6       ; [CPU_ALU] |119| 
         000000fa 6108 
    1575 000000fb F4A8          MOV       *(0:0x6108),AH        ; [CPU_ALU] |119| 
         000000fc 6108 
    1576 000000fd F4A9          MOV       *(0:0x6108),AL        ; [CPU_ALU] |119| 
         000000fe 6108 
    1577 000000ff F4A7          MOV       *(0:0x6108),AR7       ; [CPU_ALU] |119| 
         00000100 6108 
    1578 00000101 F4A6          MOV       *(0:0x6108),AR6       ; [CPU_ALU] |119| 
         00000102 6108 
    1579 00000103 F4A8          MOV       *(0:0x6108),AH        ; [CPU_ALU] |119| 
         00000104 6108 
    1580 00000105 F4A9          MOV       *(0:0x6108),AL        ; [CPU_ALU] |119| 
         00000106 6108 
    1581 00000107       ||$C$L4||:    
    1582 00000107 761F!         MOVW      DP,#||Alpha_State_Ptr|| ; [CPU_ARAU] 
         00000108 0000 
    1583                      .dwpsn  file "../bts_main.c",line 168,column 9,is_stmt,isa 0
    1584 00000109 C500!         MOVL      XAR7,@||Alpha_State_Ptr|| ; [CPU_ALU] |168| 
    1585              $C$DW$120       .dwtag  DW_TAG_TI_branch
    1586                      .dwattr $C$DW$120, DW_AT_low_pc(0x00)
    1587                      .dwattr $C$DW$120, DW_AT_TI_call
    1588                      .dwattr $C$DW$120, DW_AT_TI_indirect
    1589              
    1590 0000010a 3E67          LCR       *XAR7                 ; [CPU_ALU] |168| 
    1591                      ; call occurs [XAR7] ; [] |168| 
    1592                      .dwpsn  file "../bts_main.c",line 169,column 5,is_stmt,isa 0
    1593 0000010b 6FFC          B         ||$C$L4||,UNC         ; [CPU_ALU] |169| 
    1594                      ; branch occurs ; [] |169| 
    1595                      .dwattr $C$DW$98, DW_AT_TI_end_file("../bts_main.c")
    1596                      .dwattr $C$DW$98, DW_AT_TI_end_line(0xaa)
    1597                      .dwattr $C$DW$98, DW_AT_TI_end_column(0x01)
    1598                      .dwendentry
    1599                      .dwendtag $C$DW$98
TMS320C2000 Assembler PC v20.2.1 Mon Nov  2 17:14:28 2020

Copyright (c) 1996-2018 Texas Instruments Incorporated
bts_main.asm                                                         PAGE   32

    1600              
    1601 00000000               .sect   ".text:__signbitl"
    1602                      .clink
    1603                      .global ||__signbitl||
    1604              
    1605              $C$DW$121       .dwtag  DW_TAG_subprogram
    1606                      .dwattr $C$DW$121, DW_AT_name("__signbitl")
    1607                      .dwattr $C$DW$121, DW_AT_low_pc(||__signbitl||)
    1608                      .dwattr $C$DW$121, DW_AT_high_pc(0x00)
    1609                      .dwattr $C$DW$121, DW_AT_linkage_name("__signbitl")
    1610                      .dwattr $C$DW$121, DW_AT_external
    1611                      .dwattr $C$DW$121, DW_AT_type(*$C$DW$T$10)
    1612                      .dwattr $C$DW$121, DW_AT_decl_file("C:/ti/ccs1010/ccs/tools/compiler/ti-cgt-c2000_20.2.1.LTS/include/
    1613                      .dwattr $C$DW$121, DW_AT_decl_line(0x16e)
    1614                      .dwattr $C$DW$121, DW_AT_decl_column(0x25)
    1615                      .dwattr $C$DW$121, DW_AT_TI_max_frame_size(-6)
    1616                      .dwpsn  file "C:/ti/ccs1010/ccs/tools/compiler/ti-cgt-c2000_20.2.1.LTS/include/_defs.h",line 367,colu
    1617              
    1618                      .dwfde $C$DW$CIE, ||__signbitl||
    1619              $C$DW$122       .dwtag  DW_TAG_formal_parameter
    1620                      .dwattr $C$DW$122, DW_AT_name("e")
    1621                      .dwattr $C$DW$122, DW_AT_type(*$C$DW$T$131)
    1622                      .dwattr $C$DW$122, DW_AT_location[DW_OP_reg12]
    1623              
    1624              
    1625              ;***************************************************************
    1626              ;* FNAME: __signbitl                    FR SIZE:   4           *
    1627              ;*                                                             *
    1628              ;* FUNCTION ENVIRONMENT                                        *
    1629              ;*                                                             *
    1630              ;* FUNCTION PROPERTIES                                         *
    1631              ;*                            4 Parameter,  0 Auto,  0 SOE     *
    1632              ;***************************************************************
    1633              
    1634              ||__signbitl||:
    1635              ;* AR4   assigned to e
    1636              $C$DW$123       .dwtag  DW_TAG_variable
    1637                      .dwattr $C$DW$123, DW_AT_name("e")
    1638                      .dwattr $C$DW$123, DW_AT_type(*$C$DW$T$132)
    1639                      .dwattr $C$DW$123, DW_AT_location[DW_OP_reg12]
    1640              
    1641                      .dwcfi  cfa_offset, -2
    1642                      .dwcfi  save_reg_to_mem, 26, 0
    1643 00000000 FE04          ADDB      SP,#4                 ; [CPU_ARAU] 
    1644                      .dwcfi  cfa_offset, -6
    1645                      .dwpsn  file "C:/ti/ccs1010/ccs/tools/compiler/ti-cgt-c2000_20.2.1.LTS/include/_defs.h",line 367,colu
    1646 00000001 0200          MOVB      ACC,#0                ; [CPU_ALU] |367| 
    1647 00000002 1E44          MOVL      *-SP[4],ACC           ; [CPU_ALU] |367| 
    1648 00000003 2B42          MOV       *-SP[2],#0            ; [CPU_ALU] |367| 
    1649 00000004 2B41          MOV       *-SP[1],#0            ; [CPU_ALU] |367| 
    1650 00000005 A3C4          MOVL      P,*+XAR4[0]           ; [CPU_ALU] |367| 
    1651 00000006 06D4          MOVL      ACC,*+XAR4[2]         ; [CPU_ALU] |367| 
    1652 00000007 18AB          AND       PL,#0                 ; [CPU_ALU] |367| 
         00000008 0000 
    1653 00000009 18AA          AND       PH,#0                 ; [CPU_ALU] |367| 
TMS320C2000 Assembler PC v20.2.1 Mon Nov  2 17:14:28 2020

Copyright (c) 1996-2018 Texas Instruments Incorporated
bts_main.asm                                                         PAGE   33

         0000000a 0000 
    1654 0000000b 9000          ANDB      AL,#0                 ; [CPU_ALU] |367| 
    1655 0000000c 18A8          AND       AH,#32768             ; [CPU_ALU] |367| 
         0000000d 8000 
    1656              $C$DW$124       .dwtag  DW_TAG_TI_branch
    1657                      .dwattr $C$DW$124, DW_AT_low_pc(0x00)
    1658                      .dwattr $C$DW$124, DW_AT_name("__c28xabi_cmpull")
    1659                      .dwattr $C$DW$124, DW_AT_TI_call
    1660              
    1661 0000000e 7640!         LCR       #||__c28xabi_cmpull|| ; [CPU_ALU] |367| 
         0000000f 0000 
    1662                      ; call occurs [#||__c28xabi_cmpull||] ; [] |367| 
    1663 00000010 9B00          MOVB      AH,#0                 ; [CPU_ALU] |367| 
    1664 00000011 5200          CMPB      AL,#0                 ; [CPU_ALU] |367| 
    1665 00000012 56B0          MOVB      AH,#1,NEQ             ; [CPU_ALU] |367| 
         00000013 01A8 
    1666 00000014 92A8          MOV       AL,AH                 ; [CPU_ALU] |367| 
    1667 00000015 FE84          SUBB      SP,#4                 ; [CPU_ARAU] 
    1668                      .dwcfi  cfa_offset, -2
    1669              $C$DW$125       .dwtag  DW_TAG_TI_branch
    1670                      .dwattr $C$DW$125, DW_AT_low_pc(0x00)
    1671                      .dwattr $C$DW$125, DW_AT_TI_return
    1672              
    1673 00000016 0006          LRETR     ; [CPU_ALU] 
    1674                      ; return occurs ; [] 
    1675                      .dwattr $C$DW$121, DW_AT_TI_end_file("C:/ti/ccs1010/ccs/tools/compiler/ti-cgt-c2000_20.2.1.LTS/includ
    1676                      .dwattr $C$DW$121, DW_AT_TI_end_line(0x16f)
    1677                      .dwattr $C$DW$121, DW_AT_TI_end_column(0x2b)
    1678                      .dwendentry
    1679                      .dwendtag $C$DW$121
    1680              
    1681 00000000               .sect   ".text:__signbitf"
    1682                      .clink
    1683                      .global ||__signbitf||
    1684              
    1685              $C$DW$126       .dwtag  DW_TAG_subprogram
    1686                      .dwattr $C$DW$126, DW_AT_name("__signbitf")
    1687                      .dwattr $C$DW$126, DW_AT_low_pc(||__signbitf||)
    1688                      .dwattr $C$DW$126, DW_AT_high_pc(0x00)
    1689                      .dwattr $C$DW$126, DW_AT_linkage_name("__signbitf")
    1690                      .dwattr $C$DW$126, DW_AT_external
    1691                      .dwattr $C$DW$126, DW_AT_type(*$C$DW$T$10)
    1692                      .dwattr $C$DW$126, DW_AT_decl_file("C:/ti/ccs1010/ccs/tools/compiler/ti-cgt-c2000_20.2.1.LTS/include/
    1693                      .dwattr $C$DW$126, DW_AT_decl_line(0x16c)
    1694                      .dwattr $C$DW$126, DW_AT_decl_column(0x25)
    1695                      .dwattr $C$DW$126, DW_AT_TI_max_frame_size(-2)
    1696                      .dwpsn  file "C:/ti/ccs1010/ccs/tools/compiler/ti-cgt-c2000_20.2.1.LTS/include/_defs.h",line 365,colu
    1697              
    1698                      .dwfde $C$DW$CIE, ||__signbitf||
    1699              $C$DW$127       .dwtag  DW_TAG_formal_parameter
    1700                      .dwattr $C$DW$127, DW_AT_name("f")
    1701                      .dwattr $C$DW$127, DW_AT_type(*$C$DW$T$16)
    1702                      .dwattr $C$DW$127, DW_AT_location[DW_OP_regx 0x2b]
    1703              
    1704              
TMS320C2000 Assembler PC v20.2.1 Mon Nov  2 17:14:28 2020

Copyright (c) 1996-2018 Texas Instruments Incorporated
bts_main.asm                                                         PAGE   34

    1705              ;***************************************************************
    1706              ;* FNAME: __signbitf                    FR SIZE:   0           *
    1707              ;*                                                             *
    1708              ;* FUNCTION ENVIRONMENT                                        *
    1709              ;*                                                             *
    1710              ;* FUNCTION PROPERTIES                                         *
    1711              ;*                            0 Parameter,  0 Auto,  0 SOE     *
    1712              ;***************************************************************
    1713              
    1714              ||__signbitf||:
    1715              ;* R0    assigned to f
    1716              $C$DW$128       .dwtag  DW_TAG_variable
    1717                      .dwattr $C$DW$128, DW_AT_name("f")
    1718                      .dwattr $C$DW$128, DW_AT_type(*$C$DW$T$125)
    1719                      .dwattr $C$DW$128, DW_AT_location[DW_OP_regx 0x2b]
    1720              
    1721                      .dwcfi  cfa_offset, -2
    1722                      .dwcfi  save_reg_to_mem, 26, 0
    1723                      .dwpsn  file "C:/ti/ccs1010/ccs/tools/compiler/ti-cgt-c2000_20.2.1.LTS/include/_defs.h",line 365,colu
    1724 00000000 BFA9          MOV32     ACC,R0H               ; [CPU_FPU] |365| 
         00000001 0F12 
    1725 00000002 BE00          MOVB      XAR6,#0               ; [CPU_ALU] |365| 
    1726 00000003 9000          ANDB      AL,#0                 ; [CPU_ALU] |365| 
    1727 00000004 18A8          AND       AH,#32768             ; [CPU_ALU] |365| 
         00000005 8000 
    1728 00000006 FF58          TEST      ACC                   ; [CPU_ALU] |365| 
    1729 00000007 56B0          MOVB      XAR6,#1,NEQ           ; [CPU_ALU] |365| 
         00000008 01A6 
    1730 00000009 92A6          MOV       AL,AR6                ; [CPU_ALU] |365| 
    1731              $C$DW$129       .dwtag  DW_TAG_TI_branch
    1732                      .dwattr $C$DW$129, DW_AT_low_pc(0x00)
    1733                      .dwattr $C$DW$129, DW_AT_TI_return
    1734              
    1735 0000000a 0006          LRETR     ; [CPU_ALU] 
    1736                      ; return occurs ; [] 
    1737                      .dwattr $C$DW$126, DW_AT_TI_end_file("C:/ti/ccs1010/ccs/tools/compiler/ti-cgt-c2000_20.2.1.LTS/includ
    1738                      .dwattr $C$DW$126, DW_AT_TI_end_line(0x16d)
    1739                      .dwattr $C$DW$126, DW_AT_TI_end_column(0x29)
    1740                      .dwendentry
    1741                      .dwendtag $C$DW$126
    1742              
    1743 00000000               .sect   ".text:__signbit"
    1744                      .clink
    1745                      .global ||__signbit||
    1746              
    1747              $C$DW$130       .dwtag  DW_TAG_subprogram
    1748                      .dwattr $C$DW$130, DW_AT_name("__signbit")
    1749                      .dwattr $C$DW$130, DW_AT_low_pc(||__signbit||)
    1750                      .dwattr $C$DW$130, DW_AT_high_pc(0x00)
    1751                      .dwattr $C$DW$130, DW_AT_linkage_name("__signbit")
    1752                      .dwattr $C$DW$130, DW_AT_external
    1753                      .dwattr $C$DW$130, DW_AT_type(*$C$DW$T$10)
    1754                      .dwattr $C$DW$130, DW_AT_decl_file("C:/ti/ccs1010/ccs/tools/compiler/ti-cgt-c2000_20.2.1.LTS/include/
    1755                      .dwattr $C$DW$130, DW_AT_decl_line(0x16a)
    1756                      .dwattr $C$DW$130, DW_AT_decl_column(0x25)
TMS320C2000 Assembler PC v20.2.1 Mon Nov  2 17:14:28 2020

Copyright (c) 1996-2018 Texas Instruments Incorporated
bts_main.asm                                                         PAGE   35

    1757                      .dwattr $C$DW$130, DW_AT_TI_max_frame_size(-6)
    1758                      .dwpsn  file "C:/ti/ccs1010/ccs/tools/compiler/ti-cgt-c2000_20.2.1.LTS/include/_defs.h",line 363,colu
    1759              
    1760                      .dwfde $C$DW$CIE, ||__signbit||
    1761              $C$DW$131       .dwtag  DW_TAG_formal_parameter
    1762                      .dwattr $C$DW$131, DW_AT_name("d")
    1763                      .dwattr $C$DW$131, DW_AT_type(*$C$DW$T$128)
    1764                      .dwattr $C$DW$131, DW_AT_location[DW_OP_reg12]
    1765              
    1766              
    1767              ;***************************************************************
    1768              ;* FNAME: __signbit                     FR SIZE:   4           *
    1769              ;*                                                             *
    1770              ;* FUNCTION ENVIRONMENT                                        *
    1771              ;*                                                             *
    1772              ;* FUNCTION PROPERTIES                                         *
    1773              ;*                            4 Parameter,  0 Auto,  0 SOE     *
    1774              ;***************************************************************
    1775              
    1776              ||__signbit||:
    1777              ;* AR4   assigned to d
    1778              $C$DW$132       .dwtag  DW_TAG_variable
    1779                      .dwattr $C$DW$132, DW_AT_name("d")
    1780                      .dwattr $C$DW$132, DW_AT_type(*$C$DW$T$129)
    1781                      .dwattr $C$DW$132, DW_AT_location[DW_OP_reg12]
    1782              
    1783                      .dwcfi  cfa_offset, -2
    1784                      .dwcfi  save_reg_to_mem, 26, 0
    1785 00000000 FE04          ADDB      SP,#4                 ; [CPU_ARAU] 
    1786                      .dwcfi  cfa_offset, -6
    1787                      .dwpsn  file "C:/ti/ccs1010/ccs/tools/compiler/ti-cgt-c2000_20.2.1.LTS/include/_defs.h",line 363,colu
    1788 00000001 0200          MOVB      ACC,#0                ; [CPU_ALU] |363| 
    1789 00000002 1E44          MOVL      *-SP[4],ACC           ; [CPU_ALU] |363| 
    1790 00000003 2B42          MOV       *-SP[2],#0            ; [CPU_ALU] |363| 
    1791 00000004 2B41          MOV       *-SP[1],#0            ; [CPU_ALU] |363| 
    1792 00000005 A3C4          MOVL      P,*+XAR4[0]           ; [CPU_ALU] |363| 
    1793 00000006 06D4          MOVL      ACC,*+XAR4[2]         ; [CPU_ALU] |363| 
    1794 00000007 18AB          AND       PL,#0                 ; [CPU_ALU] |363| 
         00000008 0000 
    1795 00000009 18AA          AND       PH,#0                 ; [CPU_ALU] |363| 
         0000000a 0000 
    1796 0000000b 9000          ANDB      AL,#0                 ; [CPU_ALU] |363| 
    1797 0000000c 18A8          AND       AH,#32768             ; [CPU_ALU] |363| 
         0000000d 8000 
    1798              $C$DW$133       .dwtag  DW_TAG_TI_branch
    1799                      .dwattr $C$DW$133, DW_AT_low_pc(0x00)
    1800                      .dwattr $C$DW$133, DW_AT_name("__c28xabi_cmpull")
    1801                      .dwattr $C$DW$133, DW_AT_TI_call
    1802              
    1803 0000000e 7640!         LCR       #||__c28xabi_cmpull|| ; [CPU_ALU] |363| 
         0000000f 0000 
    1804                      ; call occurs [#||__c28xabi_cmpull||] ; [] |363| 
    1805 00000010 9B00          MOVB      AH,#0                 ; [CPU_ALU] |363| 
    1806 00000011 5200          CMPB      AL,#0                 ; [CPU_ALU] |363| 
    1807 00000012 56B0          MOVB      AH,#1,NEQ             ; [CPU_ALU] |363| 
TMS320C2000 Assembler PC v20.2.1 Mon Nov  2 17:14:28 2020

Copyright (c) 1996-2018 Texas Instruments Incorporated
bts_main.asm                                                         PAGE   36

         00000013 01A8 
    1808 00000014 92A8          MOV       AL,AH                 ; [CPU_ALU] |363| 
    1809 00000015 FE84          SUBB      SP,#4                 ; [CPU_ARAU] 
    1810                      .dwcfi  cfa_offset, -2
    1811              $C$DW$134       .dwtag  DW_TAG_TI_branch
    1812                      .dwattr $C$DW$134, DW_AT_low_pc(0x00)
    1813                      .dwattr $C$DW$134, DW_AT_TI_return
    1814              
    1815 00000016 0006          LRETR     ; [CPU_ALU] 
    1816                      ; return occurs ; [] 
    1817                      .dwattr $C$DW$130, DW_AT_TI_end_file("C:/ti/ccs1010/ccs/tools/compiler/ti-cgt-c2000_20.2.1.LTS/includ
    1818                      .dwattr $C$DW$130, DW_AT_TI_end_line(0x16b)
    1819                      .dwattr $C$DW$130, DW_AT_TI_end_column(0x2a)
    1820                      .dwendentry
    1821                      .dwendtag $C$DW$130
    1822              
    1823 00000000               .sect   ".text:__relaxed_sqrtf"
    1824                      .clink
    1825                      .global ||__relaxed_sqrtf||
    1826              
    1827              $C$DW$135       .dwtag  DW_TAG_subprogram
    1828                      .dwattr $C$DW$135, DW_AT_name("__relaxed_sqrtf")
    1829                      .dwattr $C$DW$135, DW_AT_low_pc(||__relaxed_sqrtf||)
    1830                      .dwattr $C$DW$135, DW_AT_high_pc(0x00)
    1831                      .dwattr $C$DW$135, DW_AT_linkage_name("__relaxed_sqrtf")
    1832                      .dwattr $C$DW$135, DW_AT_external
    1833                      .dwattr $C$DW$135, DW_AT_type(*$C$DW$T$16)
    1834                      .dwattr $C$DW$135, DW_AT_decl_file("C:/ti/ccs1010/ccs/tools/compiler/ti-cgt-c2000_20.2.1.LTS/include/
    1835                      .dwattr $C$DW$135, DW_AT_decl_line(0xe3)
    1836                      .dwattr $C$DW$135, DW_AT_decl_column(0x10)
    1837                      .dwattr $C$DW$135, DW_AT_TI_max_frame_size(-2)
    1838                      .dwpsn  file "C:/ti/ccs1010/ccs/tools/compiler/ti-cgt-c2000_20.2.1.LTS/include/math.h",line 228,colum
    1839              
    1840                      .dwfde $C$DW$CIE, ||__relaxed_sqrtf||
    1841              $C$DW$136       .dwtag  DW_TAG_formal_parameter
    1842                      .dwattr $C$DW$136, DW_AT_name("x")
    1843                      .dwattr $C$DW$136, DW_AT_type(*$C$DW$T$16)
    1844                      .dwattr $C$DW$136, DW_AT_location[DW_OP_regx 0x2b]
    1845              
    1846              
    1847              ;***************************************************************
    1848              ;* FNAME: __relaxed_sqrtf               FR SIZE:   0           *
    1849              ;*                                                             *
    1850              ;* FUNCTION ENVIRONMENT                                        *
    1851              ;*                                                             *
    1852              ;* FUNCTION PROPERTIES                                         *
    1853              ;*                            0 Parameter,  0 Auto,  0 SOE     *
    1854              ;***************************************************************
    1855              
    1856              ||__relaxed_sqrtf||:
    1857              ;* R0    assigned to x
    1858              $C$DW$137       .dwtag  DW_TAG_variable
    1859                      .dwattr $C$DW$137, DW_AT_name("x")
    1860                      .dwattr $C$DW$137, DW_AT_type(*$C$DW$T$125)
    1861                      .dwattr $C$DW$137, DW_AT_location[DW_OP_regx 0x2b]
TMS320C2000 Assembler PC v20.2.1 Mon Nov  2 17:14:28 2020

Copyright (c) 1996-2018 Texas Instruments Incorporated
bts_main.asm                                                         PAGE   37

    1862              
    1863                      .dwcfi  cfa_offset, -2
    1864                      .dwcfi  save_reg_to_mem, 26, 0
    1865                      .dwpsn  file "C:/ti/ccs1010/ccs/tools/compiler/ti-cgt-c2000_20.2.1.LTS/include/math.h",line 229,colum
    1866 00000000 E277          SQRTF32   R0H,R0H               ; [CPU_FPU] |229| 
         00000001 0000 
    1867 00000002 7700          NOP       ; [CPU_ALU] 
    1868 00000003 7700          NOP       ; [CPU_ALU] 
    1869 00000004 7700          NOP       ; [CPU_ALU] 
    1870              $C$DW$138       .dwtag  DW_TAG_TI_branch
    1871                      .dwattr $C$DW$138, DW_AT_low_pc(0x00)
    1872                      .dwattr $C$DW$138, DW_AT_TI_return
    1873              
    1874 00000005 0006          LRETR     ; [CPU_ALU] 
    1875                      ; return occurs ; [] 
    1876                      .dwattr $C$DW$135, DW_AT_TI_end_file("C:/ti/ccs1010/ccs/tools/compiler/ti-cgt-c2000_20.2.1.LTS/includ
    1877                      .dwattr $C$DW$135, DW_AT_TI_end_line(0xe6)
    1878                      .dwattr $C$DW$135, DW_AT_TI_end_column(0x01)
    1879                      .dwendentry
    1880                      .dwendtag $C$DW$135
    1881              
    1882 00000000               .sect   ".text:__relaxed_sinf"
    1883                      .clink
    1884                      .global ||__relaxed_sinf||
    1885              
    1886              $C$DW$139       .dwtag  DW_TAG_subprogram
    1887                      .dwattr $C$DW$139, DW_AT_name("__relaxed_sinf")
    1888                      .dwattr $C$DW$139, DW_AT_low_pc(||__relaxed_sinf||)
    1889                      .dwattr $C$DW$139, DW_AT_high_pc(0x00)
    1890                      .dwattr $C$DW$139, DW_AT_linkage_name("__relaxed_sinf")
    1891                      .dwattr $C$DW$139, DW_AT_external
    1892                      .dwattr $C$DW$139, DW_AT_type(*$C$DW$T$16)
    1893                      .dwattr $C$DW$139, DW_AT_decl_file("C:/ti/ccs1010/ccs/tools/compiler/ti-cgt-c2000_20.2.1.LTS/include/
    1894                      .dwattr $C$DW$139, DW_AT_decl_line(0xe8)
    1895                      .dwattr $C$DW$139, DW_AT_decl_column(0x10)
    1896                      .dwattr $C$DW$139, DW_AT_TI_max_frame_size(-2)
    1897                      .dwpsn  file "C:/ti/ccs1010/ccs/tools/compiler/ti-cgt-c2000_20.2.1.LTS/include/math.h",line 233,colum
    1898              
    1899                      .dwfde $C$DW$CIE, ||__relaxed_sinf||
    1900              $C$DW$140       .dwtag  DW_TAG_formal_parameter
    1901                      .dwattr $C$DW$140, DW_AT_name("x")
    1902                      .dwattr $C$DW$140, DW_AT_type(*$C$DW$T$16)
    1903                      .dwattr $C$DW$140, DW_AT_location[DW_OP_regx 0x2b]
    1904              
    1905              
    1906              ;***************************************************************
    1907              ;* FNAME: __relaxed_sinf                FR SIZE:   0           *
    1908              ;*                                                             *
    1909              ;* FUNCTION ENVIRONMENT                                        *
    1910              ;*                                                             *
    1911              ;* FUNCTION PROPERTIES                                         *
    1912              ;*                            0 Parameter,  0 Auto,  0 SOE     *
    1913              ;***************************************************************
    1914              
    1915              ||__relaxed_sinf||:
TMS320C2000 Assembler PC v20.2.1 Mon Nov  2 17:14:28 2020

Copyright (c) 1996-2018 Texas Instruments Incorporated
bts_main.asm                                                         PAGE   38

    1916              ;* R0    assigned to x
    1917              $C$DW$141       .dwtag  DW_TAG_variable
    1918                      .dwattr $C$DW$141, DW_AT_name("x")
    1919                      .dwattr $C$DW$141, DW_AT_type(*$C$DW$T$125)
    1920                      .dwattr $C$DW$141, DW_AT_location[DW_OP_regx 0x2b]
    1921              
    1922                      .dwcfi  cfa_offset, -2
    1923                      .dwcfi  save_reg_to_mem, 26, 0
    1924                      .dwpsn  file "C:/ti/ccs1010/ccs/tools/compiler/ti-cgt-c2000_20.2.1.LTS/include/math.h",line 234,colum
    1925 00000000 E271          DIV2PIF32 R0H,R0H               ; [CPU_FPU] |234| 
         00000001 0000 
    1926 00000002 7700          NOP       ; [CPU_ALU] 
    1927 00000003 E278          SINPUF32  R0H,R0H               ; [CPU_FPU] |234| 
         00000004 0000 
    1928 00000005 7700          NOP       ; [CPU_ALU] 
    1929 00000006 7700          NOP       ; [CPU_ALU] 
    1930              $C$DW$142       .dwtag  DW_TAG_TI_branch
    1931                      .dwattr $C$DW$142, DW_AT_low_pc(0x00)
    1932                      .dwattr $C$DW$142, DW_AT_TI_return
    1933              
    1934 00000007 0006          LRETR     ; [CPU_ALU] 
    1935                      ; return occurs ; [] 
    1936                      .dwattr $C$DW$139, DW_AT_TI_end_file("C:/ti/ccs1010/ccs/tools/compiler/ti-cgt-c2000_20.2.1.LTS/includ
    1937                      .dwattr $C$DW$139, DW_AT_TI_end_line(0xeb)
    1938                      .dwattr $C$DW$139, DW_AT_TI_end_column(0x01)
    1939                      .dwendentry
    1940                      .dwendtag $C$DW$139
    1941              
    1942 00000000               .sect   ".text:__relaxed_cosf"
    1943                      .clink
    1944                      .global ||__relaxed_cosf||
    1945              
    1946              $C$DW$143       .dwtag  DW_TAG_subprogram
    1947                      .dwattr $C$DW$143, DW_AT_name("__relaxed_cosf")
    1948                      .dwattr $C$DW$143, DW_AT_low_pc(||__relaxed_cosf||)
    1949                      .dwattr $C$DW$143, DW_AT_high_pc(0x00)
    1950                      .dwattr $C$DW$143, DW_AT_linkage_name("__relaxed_cosf")
    1951                      .dwattr $C$DW$143, DW_AT_external
    1952                      .dwattr $C$DW$143, DW_AT_type(*$C$DW$T$16)
    1953                      .dwattr $C$DW$143, DW_AT_decl_file("C:/ti/ccs1010/ccs/tools/compiler/ti-cgt-c2000_20.2.1.LTS/include/
    1954                      .dwattr $C$DW$143, DW_AT_decl_line(0xed)
    1955                      .dwattr $C$DW$143, DW_AT_decl_column(0x10)
    1956                      .dwattr $C$DW$143, DW_AT_TI_max_frame_size(-2)
    1957                      .dwpsn  file "C:/ti/ccs1010/ccs/tools/compiler/ti-cgt-c2000_20.2.1.LTS/include/math.h",line 238,colum
    1958              
    1959                      .dwfde $C$DW$CIE, ||__relaxed_cosf||
    1960              $C$DW$144       .dwtag  DW_TAG_formal_parameter
    1961                      .dwattr $C$DW$144, DW_AT_name("x")
    1962                      .dwattr $C$DW$144, DW_AT_type(*$C$DW$T$16)
    1963                      .dwattr $C$DW$144, DW_AT_location[DW_OP_regx 0x2b]
    1964              
    1965              
    1966              ;***************************************************************
    1967              ;* FNAME: __relaxed_cosf                FR SIZE:   0           *
    1968              ;*                                                             *
TMS320C2000 Assembler PC v20.2.1 Mon Nov  2 17:14:28 2020

Copyright (c) 1996-2018 Texas Instruments Incorporated
bts_main.asm                                                         PAGE   39

    1969              ;* FUNCTION ENVIRONMENT                                        *
    1970              ;*                                                             *
    1971              ;* FUNCTION PROPERTIES                                         *
    1972              ;*                            0 Parameter,  0 Auto,  0 SOE     *
    1973              ;***************************************************************
    1974              
    1975              ||__relaxed_cosf||:
    1976              ;* R0    assigned to x
    1977              $C$DW$145       .dwtag  DW_TAG_variable
    1978                      .dwattr $C$DW$145, DW_AT_name("x")
    1979                      .dwattr $C$DW$145, DW_AT_type(*$C$DW$T$125)
    1980                      .dwattr $C$DW$145, DW_AT_location[DW_OP_regx 0x2b]
    1981              
    1982                      .dwcfi  cfa_offset, -2
    1983                      .dwcfi  save_reg_to_mem, 26, 0
    1984                      .dwpsn  file "C:/ti/ccs1010/ccs/tools/compiler/ti-cgt-c2000_20.2.1.LTS/include/math.h",line 239,colum
    1985 00000000 E271          DIV2PIF32 R0H,R0H               ; [CPU_FPU] |239| 
         00000001 0000 
    1986 00000002 7700          NOP       ; [CPU_ALU] 
    1987 00000003 E279          COSPUF32  R0H,R0H               ; [CPU_FPU] |239| 
         00000004 0000 
    1988 00000005 7700          NOP       ; [CPU_ALU] 
    1989 00000006 7700          NOP       ; [CPU_ALU] 
    1990              $C$DW$146       .dwtag  DW_TAG_TI_branch
    1991                      .dwattr $C$DW$146, DW_AT_low_pc(0x00)
    1992                      .dwattr $C$DW$146, DW_AT_TI_return
    1993              
    1994 00000007 0006          LRETR     ; [CPU_ALU] 
    1995                      ; return occurs ; [] 
    1996                      .dwattr $C$DW$143, DW_AT_TI_end_file("C:/ti/ccs1010/ccs/tools/compiler/ti-cgt-c2000_20.2.1.LTS/includ
    1997                      .dwattr $C$DW$143, DW_AT_TI_end_line(0xf0)
    1998                      .dwattr $C$DW$143, DW_AT_TI_end_column(0x01)
    1999                      .dwendentry
    2000                      .dwendtag $C$DW$143
    2001              
    2002 00000000               .sect   ".text:__relaxed_atanf"
    2003                      .clink
    2004                      .global ||__relaxed_atanf||
    2005              
    2006              $C$DW$147       .dwtag  DW_TAG_subprogram
    2007                      .dwattr $C$DW$147, DW_AT_name("__relaxed_atanf")
    2008                      .dwattr $C$DW$147, DW_AT_low_pc(||__relaxed_atanf||)
    2009                      .dwattr $C$DW$147, DW_AT_high_pc(0x00)
    2010                      .dwattr $C$DW$147, DW_AT_linkage_name("__relaxed_atanf")
    2011                      .dwattr $C$DW$147, DW_AT_external
    2012                      .dwattr $C$DW$147, DW_AT_type(*$C$DW$T$16)
    2013                      .dwattr $C$DW$147, DW_AT_decl_file("C:/ti/ccs1010/ccs/tools/compiler/ti-cgt-c2000_20.2.1.LTS/include/
    2014                      .dwattr $C$DW$147, DW_AT_decl_line(0xf2)
    2015                      .dwattr $C$DW$147, DW_AT_decl_column(0x10)
    2016                      .dwattr $C$DW$147, DW_AT_TI_max_frame_size(-2)
    2017                      .dwpsn  file "C:/ti/ccs1010/ccs/tools/compiler/ti-cgt-c2000_20.2.1.LTS/include/math.h",line 243,colum
    2018              
    2019                      .dwfde $C$DW$CIE, ||__relaxed_atanf||
    2020              $C$DW$148       .dwtag  DW_TAG_formal_parameter
    2021                      .dwattr $C$DW$148, DW_AT_name("x")
TMS320C2000 Assembler PC v20.2.1 Mon Nov  2 17:14:28 2020

Copyright (c) 1996-2018 Texas Instruments Incorporated
bts_main.asm                                                         PAGE   40

    2022                      .dwattr $C$DW$148, DW_AT_type(*$C$DW$T$16)
    2023                      .dwattr $C$DW$148, DW_AT_location[DW_OP_regx 0x2b]
    2024              
    2025              
    2026              ;***************************************************************
    2027              ;* FNAME: __relaxed_atanf               FR SIZE:   0           *
    2028              ;*                                                             *
    2029              ;* FUNCTION ENVIRONMENT                                        *
    2030              ;*                                                             *
    2031              ;* FUNCTION PROPERTIES                                         *
    2032              ;*                            0 Parameter,  0 Auto,  0 SOE     *
    2033              ;***************************************************************
    2034              
    2035              ||__relaxed_atanf||:
    2036              ;* R0    assigned to x
    2037              $C$DW$149       .dwtag  DW_TAG_variable
    2038                      .dwattr $C$DW$149, DW_AT_name("x")
    2039                      .dwattr $C$DW$149, DW_AT_type(*$C$DW$T$125)
    2040                      .dwattr $C$DW$149, DW_AT_location[DW_OP_regx 0x2b]
    2041              
    2042                      .dwcfi  cfa_offset, -2
    2043                      .dwcfi  save_reg_to_mem, 26, 0
    2044                      .dwpsn  file "C:/ti/ccs1010/ccs/tools/compiler/ti-cgt-c2000_20.2.1.LTS/include/math.h",line 244,colum
    2045 00000000 E801          MOVIZ     R1H,#16256            ; [CPU_FPU] |244| 
         00000001 FC01 
    2046 00000002 E27C          QUADF32   R1H,R0H,R0H,R1H       ; [CPU_FPU] |244| 
         00000003 0201 
    2047 00000004 7700          NOP       ; [CPU_ALU] 
    2048 00000005 7700          NOP       ; [CPU_ALU] 
    2049 00000006 7700          NOP       ; [CPU_ALU] 
    2050 00000007 7700          NOP       ; [CPU_ALU] 
    2051 00000008 E27A          ATANPUF32 R0H,R0H               ; [CPU_FPU] |244| 
         00000009 0000 
    2052 0000000a 7700          NOP       ; [CPU_ALU] 
    2053 0000000b 7700          NOP       ; [CPU_ALU] 
    2054 0000000c 7700          NOP       ; [CPU_ALU] 
    2055 0000000d E710          ADDF32    R0H,R0H,R1H           ; [CPU_FPU] |244| 
         0000000e 0040 
    2056 0000000f 7700          NOP       ; [CPU_ALU] 
    2057 00000010 7700          NOP       ; [CPU_ALU] 
    2058 00000011 E270          MPY2PIF32 R0H,R0H               ; [CPU_FPU] |244| 
         00000012 0000 
    2059 00000013 7700          NOP       ; [CPU_ALU] 
    2060              $C$DW$150       .dwtag  DW_TAG_TI_branch
    2061                      .dwattr $C$DW$150, DW_AT_low_pc(0x00)
    2062                      .dwattr $C$DW$150, DW_AT_TI_return
    2063              
    2064 00000014 0006          LRETR     ; [CPU_ALU] 
    2065                      ; return occurs ; [] 
    2066                      .dwattr $C$DW$147, DW_AT_TI_end_file("C:/ti/ccs1010/ccs/tools/compiler/ti-cgt-c2000_20.2.1.LTS/includ
    2067                      .dwattr $C$DW$147, DW_AT_TI_end_line(0xf5)
    2068                      .dwattr $C$DW$147, DW_AT_TI_end_column(0x01)
    2069                      .dwendentry
    2070                      .dwendtag $C$DW$147
    2071              
TMS320C2000 Assembler PC v20.2.1 Mon Nov  2 17:14:28 2020

Copyright (c) 1996-2018 Texas Instruments Incorporated
bts_main.asm                                                         PAGE   41

    2072 00000000               .sect   ".text:__relaxed_atan2f"
    2073                      .clink
    2074                      .global ||__relaxed_atan2f||
    2075              
    2076              $C$DW$151       .dwtag  DW_TAG_subprogram
    2077                      .dwattr $C$DW$151, DW_AT_name("__relaxed_atan2f")
    2078                      .dwattr $C$DW$151, DW_AT_low_pc(||__relaxed_atan2f||)
    2079                      .dwattr $C$DW$151, DW_AT_high_pc(0x00)
    2080                      .dwattr $C$DW$151, DW_AT_linkage_name("__relaxed_atan2f")
    2081                      .dwattr $C$DW$151, DW_AT_external
    2082                      .dwattr $C$DW$151, DW_AT_type(*$C$DW$T$16)
    2083                      .dwattr $C$DW$151, DW_AT_decl_file("C:/ti/ccs1010/ccs/tools/compiler/ti-cgt-c2000_20.2.1.LTS/include/
    2084                      .dwattr $C$DW$151, DW_AT_decl_line(0xf7)
    2085                      .dwattr $C$DW$151, DW_AT_decl_column(0x10)
    2086                      .dwattr $C$DW$151, DW_AT_TI_max_frame_size(-2)
    2087                      .dwpsn  file "C:/ti/ccs1010/ccs/tools/compiler/ti-cgt-c2000_20.2.1.LTS/include/math.h",line 248,colum
    2088              
    2089                      .dwfde $C$DW$CIE, ||__relaxed_atan2f||
    2090              $C$DW$152       .dwtag  DW_TAG_formal_parameter
    2091                      .dwattr $C$DW$152, DW_AT_name("y")
    2092                      .dwattr $C$DW$152, DW_AT_type(*$C$DW$T$16)
    2093                      .dwattr $C$DW$152, DW_AT_location[DW_OP_regx 0x2b]
    2094              
    2095              $C$DW$153       .dwtag  DW_TAG_formal_parameter
    2096                      .dwattr $C$DW$153, DW_AT_name("x")
    2097                      .dwattr $C$DW$153, DW_AT_type(*$C$DW$T$16)
    2098                      .dwattr $C$DW$153, DW_AT_location[DW_OP_regx 0x2f]
    2099              
    2100              
    2101              ;***************************************************************
    2102              ;* FNAME: __relaxed_atan2f              FR SIZE:   0           *
    2103              ;*                                                             *
    2104              ;* FUNCTION ENVIRONMENT                                        *
    2105              ;*                                                             *
    2106              ;* FUNCTION PROPERTIES                                         *
    2107              ;*                            0 Parameter,  0 Auto,  0 SOE     *
    2108              ;***************************************************************
    2109              
    2110              ||__relaxed_atan2f||:
    2111              ;* R0    assigned to y
    2112              $C$DW$154       .dwtag  DW_TAG_variable
    2113                      .dwattr $C$DW$154, DW_AT_name("y")
    2114                      .dwattr $C$DW$154, DW_AT_type(*$C$DW$T$125)
    2115                      .dwattr $C$DW$154, DW_AT_location[DW_OP_regx 0x2b]
    2116              
    2117              ;* R1    assigned to x
    2118              $C$DW$155       .dwtag  DW_TAG_variable
    2119                      .dwattr $C$DW$155, DW_AT_name("x")
    2120                      .dwattr $C$DW$155, DW_AT_type(*$C$DW$T$125)
    2121                      .dwattr $C$DW$155, DW_AT_location[DW_OP_regx 0x2f]
    2122              
    2123                      .dwcfi  cfa_offset, -2
    2124                      .dwcfi  save_reg_to_mem, 26, 0
    2125                      .dwpsn  file "C:/ti/ccs1010/ccs/tools/compiler/ti-cgt-c2000_20.2.1.LTS/include/math.h",line 249,colum
    2126 00000000 E27C          QUADF32   R1H,R0H,R0H,R1H       ; [CPU_FPU] |249| 
TMS320C2000 Assembler PC v20.2.1 Mon Nov  2 17:14:28 2020

Copyright (c) 1996-2018 Texas Instruments Incorporated
bts_main.asm                                                         PAGE   42

         00000001 0201 
    2127 00000002 7700          NOP       ; [CPU_ALU] 
    2128 00000003 7700          NOP       ; [CPU_ALU] 
    2129 00000004 7700          NOP       ; [CPU_ALU] 
    2130 00000005 7700          NOP       ; [CPU_ALU] 
    2131 00000006 E27A          ATANPUF32 R0H,R0H               ; [CPU_FPU] |249| 
         00000007 0000 
    2132 00000008 7700          NOP       ; [CPU_ALU] 
    2133 00000009 7700          NOP       ; [CPU_ALU] 
    2134 0000000a 7700          NOP       ; [CPU_ALU] 
    2135 0000000b E710          ADDF32    R0H,R0H,R1H           ; [CPU_FPU] |249| 
         0000000c 0040 
    2136 0000000d 7700          NOP       ; [CPU_ALU] 
    2137 0000000e 7700          NOP       ; [CPU_ALU] 
    2138 0000000f E270          MPY2PIF32 R0H,R0H               ; [CPU_FPU] |249| 
         00000010 0000 
    2139 00000011 7700          NOP       ; [CPU_ALU] 
    2140              $C$DW$156       .dwtag  DW_TAG_TI_branch
    2141                      .dwattr $C$DW$156, DW_AT_low_pc(0x00)
    2142                      .dwattr $C$DW$156, DW_AT_TI_return
    2143              
    2144 00000012 0006          LRETR     ; [CPU_ALU] 
    2145                      ; return occurs ; [] 
    2146                      .dwattr $C$DW$151, DW_AT_TI_end_file("C:/ti/ccs1010/ccs/tools/compiler/ti-cgt-c2000_20.2.1.LTS/includ
    2147                      .dwattr $C$DW$151, DW_AT_TI_end_line(0xfa)
    2148                      .dwattr $C$DW$151, DW_AT_TI_end_column(0x01)
    2149                      .dwendentry
    2150                      .dwendtag $C$DW$151
    2151              
    2152 00000000               .sect   ".text:__isnormall"
    2153                      .clink
    2154                      .global ||__isnormall||
    2155              
    2156              $C$DW$157       .dwtag  DW_TAG_subprogram
    2157                      .dwattr $C$DW$157, DW_AT_name("__isnormall")
    2158                      .dwattr $C$DW$157, DW_AT_low_pc(||__isnormall||)
    2159                      .dwattr $C$DW$157, DW_AT_high_pc(0x00)
    2160                      .dwattr $C$DW$157, DW_AT_linkage_name("__isnormall")
    2161                      .dwattr $C$DW$157, DW_AT_external
    2162                      .dwattr $C$DW$157, DW_AT_type(*$C$DW$T$10)
    2163                      .dwattr $C$DW$157, DW_AT_decl_file("C:/ti/ccs1010/ccs/tools/compiler/ti-cgt-c2000_20.2.1.LTS/include/
    2164                      .dwattr $C$DW$157, DW_AT_decl_line(0x166)
    2165                      .dwattr $C$DW$157, DW_AT_decl_column(0x25)
    2166                      .dwattr $C$DW$157, DW_AT_TI_max_frame_size(-6)
    2167                      .dwpsn  file "C:/ti/ccs1010/ccs/tools/compiler/ti-cgt-c2000_20.2.1.LTS/include/_defs.h",line 359,colu
    2168              
    2169                      .dwfde $C$DW$CIE, ||__isnormall||
    2170              $C$DW$158       .dwtag  DW_TAG_formal_parameter
    2171                      .dwattr $C$DW$158, DW_AT_name("e")
    2172                      .dwattr $C$DW$158, DW_AT_type(*$C$DW$T$131)
    2173                      .dwattr $C$DW$158, DW_AT_location[DW_OP_reg12]
    2174              
    2175              
    2176              ;***************************************************************
    2177              ;* FNAME: __isnormall                   FR SIZE:   4           *
TMS320C2000 Assembler PC v20.2.1 Mon Nov  2 17:14:28 2020

Copyright (c) 1996-2018 Texas Instruments Incorporated
bts_main.asm                                                         PAGE   43

    2178              ;*                                                             *
    2179              ;* FUNCTION ENVIRONMENT                                        *
    2180              ;*                                                             *
    2181              ;* FUNCTION PROPERTIES                                         *
    2182              ;*                            4 Parameter,  0 Auto,  0 SOE     *
    2183              ;***************************************************************
    2184              
    2185              ||__isnormall||:
    2186              ;* AR5   assigned to $O$C2
    2187              ;* AR6   assigned to $O$S1
    2188              ;* AR4   assigned to e
    2189              $C$DW$159       .dwtag  DW_TAG_variable
    2190                      .dwattr $C$DW$159, DW_AT_name("e")
    2191                      .dwattr $C$DW$159, DW_AT_type(*$C$DW$T$132)
    2192                      .dwattr $C$DW$159, DW_AT_location[DW_OP_reg12]
    2193              
    2194                      .dwcfi  cfa_offset, -2
    2195                      .dwcfi  save_reg_to_mem, 26, 0
    2196 00000000 FE04          ADDB      SP,#4                 ; [CPU_ARAU] 
    2197                      .dwcfi  cfa_offset, -6
    2198                      .dwpsn  file "C:/ti/ccs1010/ccs/tools/compiler/ti-cgt-c2000_20.2.1.LTS/include/_defs.h",line 359,colu
    2199 00000001 83C4          MOVL      XAR5,*+XAR4[0]        ; [CPU_ALU] |359| 
    2200 00000002 8AD4          MOVL      XAR4,*+XAR4[2]        ; [CPU_ALU] |359| 
    2201 00000003 BE00          MOVB      XAR6,#0               ; [CPU_ALU] |359| 
    2202 00000004 28AC          MOV       T,#52                 ; [CPU_ALU] |359| 
         00000005 0034 
    2203 00000006 A0AB          MOVL      P,XAR5                ; [CPU_ALU] |359| 
    2204 00000007 A8A9          MOVL      ACC,XAR4              ; [CPU_ALU] |359| 
    2205 00000008 C244          MOVL      *-SP[4],XAR6          ; [CPU_ALU] |359| 
    2206 00000009 2B42          MOV       *-SP[2],#0            ; [CPU_ALU] |359| 
    2207 0000000a 565B          LSR64     ACC:P,T               ; [CPU_ALU] |359| 
    2208 0000000b 2B41          MOV       *-SP[1],#0            ; [CPU_FPU] |359| 
    2209 0000000c 9000          ANDB      AL,#0                 ; [CPU_ALU] |359| 
    2210 0000000d 9100          ANDB      AH,#0                 ; [CPU_ALU] |359| 
    2211 0000000e 18AB          AND       PL,#2047              ; [CPU_ALU] |359| 
         0000000f 07FF 
    2212 00000010 18AA          AND       PH,#0                 ; [CPU_ALU] |359| 
         00000011 0000 
    2213              $C$DW$160       .dwtag  DW_TAG_TI_branch
    2214                      .dwattr $C$DW$160, DW_AT_low_pc(0x00)
    2215                      .dwattr $C$DW$160, DW_AT_name("__c28xabi_cmpull")
    2216                      .dwattr $C$DW$160, DW_AT_TI_call
    2217              
    2218 00000012 7640!         LCR       #||__c28xabi_cmpull|| ; [CPU_ALU] |359| 
         00000013 0000 
    2219                      ; call occurs [#||__c28xabi_cmpull||] ; [] |359| 
    2220 00000014 BE00          MOVB      XAR6,#0               ; [CPU_ALU] |359| 
    2221 00000015 5200          CMPB      AL,#0                 ; [CPU_ALU] |359| 
    2222 00000016 610F          B         ||$C$L5||,EQ          ; [CPU_ALU] |359| 
    2223                      ; branchcc occurs ; [] |359| 
    2224 00000017 A0AB          MOVL      P,XAR5                ; [CPU_ALU] |359| 
    2225 00000018 A8A9          MOVL      ACC,XAR4              ; [CPU_ALU] |359| 
    2226 00000019 28AC          MOV       T,#48                 ; [CPU_ALU] |359| 
         0000001a 0030 
    2227 0000001b 565B          LSR64     ACC:P,T               ; [CPU_ALU] |359| 
TMS320C2000 Assembler PC v20.2.1 Mon Nov  2 17:14:28 2020

Copyright (c) 1996-2018 Texas Instruments Incorporated
bts_main.asm                                                         PAGE   44

    2228 0000001c 18AB          AND       PL,#0x7ff0            ; [CPU_ALU] |359| 
         0000001d 7FF0 
    2229 0000001e 80AB          MOVZ      AR7,PL                ; [CPU_ALU] |359| 
    2230 0000001f 8F00          MOVL      XAR4,#32752           ; [CPU_ARAU] |359| 
         00000020 7FF0 
    2231 00000021 A8A9          MOVL      ACC,XAR4              ; [CPU_ALU] |359| 
    2232 00000022 0FA7          CMPL      ACC,XAR7              ; [CPU_ALU] |359| 
    2233 00000023 56B0          MOVB      XAR6,#1,NEQ           ; [CPU_ALU] |359| 
         00000024 01A6 
    2234 00000025       ||$C$L5||:    
    2235 00000025 FE84          SUBB      SP,#4                 ; [CPU_ARAU] 
    2236                      .dwcfi  cfa_offset, -2
    2237 00000026 92A6          MOV       AL,AR6                ; [CPU_ALU] |359| 
    2238              $C$DW$161       .dwtag  DW_TAG_TI_branch
    2239                      .dwattr $C$DW$161, DW_AT_low_pc(0x00)
    2240                      .dwattr $C$DW$161, DW_AT_TI_return
    2241              
    2242 00000027 0006          LRETR     ; [CPU_ALU] 
    2243                      ; return occurs ; [] 
    2244                      .dwattr $C$DW$157, DW_AT_TI_end_file("C:/ti/ccs1010/ccs/tools/compiler/ti-cgt-c2000_20.2.1.LTS/includ
    2245                      .dwattr $C$DW$157, DW_AT_TI_end_line(0x168)
    2246                      .dwattr $C$DW$157, DW_AT_TI_end_column(0x31)
    2247                      .dwendentry
    2248                      .dwendtag $C$DW$157
    2249              
    2250 00000000               .sect   ".text:__isnormalf"
    2251                      .clink
    2252                      .global ||__isnormalf||
    2253              
    2254              $C$DW$162       .dwtag  DW_TAG_subprogram
    2255                      .dwattr $C$DW$162, DW_AT_name("__isnormalf")
    2256                      .dwattr $C$DW$162, DW_AT_low_pc(||__isnormalf||)
    2257                      .dwattr $C$DW$162, DW_AT_high_pc(0x00)
    2258                      .dwattr $C$DW$162, DW_AT_linkage_name("__isnormalf")
    2259                      .dwattr $C$DW$162, DW_AT_external
    2260                      .dwattr $C$DW$162, DW_AT_type(*$C$DW$T$10)
    2261                      .dwattr $C$DW$162, DW_AT_decl_file("C:/ti/ccs1010/ccs/tools/compiler/ti-cgt-c2000_20.2.1.LTS/include/
    2262                      .dwattr $C$DW$162, DW_AT_decl_line(0x162)
    2263                      .dwattr $C$DW$162, DW_AT_decl_column(0x25)
    2264                      .dwattr $C$DW$162, DW_AT_TI_max_frame_size(-2)
    2265                      .dwpsn  file "C:/ti/ccs1010/ccs/tools/compiler/ti-cgt-c2000_20.2.1.LTS/include/_defs.h",line 355,colu
    2266              
    2267                      .dwfde $C$DW$CIE, ||__isnormalf||
    2268              $C$DW$163       .dwtag  DW_TAG_formal_parameter
    2269                      .dwattr $C$DW$163, DW_AT_name("f")
    2270                      .dwattr $C$DW$163, DW_AT_type(*$C$DW$T$16)
    2271                      .dwattr $C$DW$163, DW_AT_location[DW_OP_regx 0x2b]
    2272              
    2273              
    2274              ;***************************************************************
    2275              ;* FNAME: __isnormalf                   FR SIZE:   0           *
    2276              ;*                                                             *
    2277              ;* FUNCTION ENVIRONMENT                                        *
    2278              ;*                                                             *
    2279              ;* FUNCTION PROPERTIES                                         *
TMS320C2000 Assembler PC v20.2.1 Mon Nov  2 17:14:28 2020

Copyright (c) 1996-2018 Texas Instruments Incorporated
bts_main.asm                                                         PAGE   45

    2280              ;*                            0 Parameter,  0 Auto,  0 SOE     *
    2281              ;***************************************************************
    2282              
    2283              ||__isnormalf||:
    2284              ;* PL    assigned to $O$K3
    2285              ;* AR6   assigned to $O$S1
    2286              ;* R0    assigned to f
    2287              $C$DW$164       .dwtag  DW_TAG_variable
    2288                      .dwattr $C$DW$164, DW_AT_name("f")
    2289                      .dwattr $C$DW$164, DW_AT_type(*$C$DW$T$125)
    2290                      .dwattr $C$DW$164, DW_AT_location[DW_OP_regx 0x2b]
    2291              
    2292                      .dwcfi  cfa_offset, -2
    2293                      .dwcfi  save_reg_to_mem, 26, 0
    2294                      .dwpsn  file "C:/ti/ccs1010/ccs/tools/compiler/ti-cgt-c2000_20.2.1.LTS/include/_defs.h",line 355,colu
    2295 00000000 BFAB          MOV32     P,R0H                 ; [CPU_FPU] |355| 
         00000001 0F12 
    2296 00000002 28AC          MOV       T,#23                 ; [CPU_ALU] |355| 
         00000003 0017 
    2297 00000004 A9A9          MOVL      ACC,P                 ; [CPU_ALU] |355| 
    2298 00000005 BE00          MOVB      XAR6,#0               ; [CPU_ALU] |355| 
    2299 00000006 5622          LSRL      ACC,T                 ; [CPU_ALU] |355| 
    2300 00000007 90FF          ANDB      AL,#0xff              ; [CPU_ALU] |355| 
    2301 00000008 610A          B         ||$C$L6||,EQ          ; [CPU_ALU] |355| 
    2302                      ; branchcc occurs ; [] |355| 
    2303 00000009 CCAA          AND       AL,PH,#0x7f80         ; [CPU_ALU] |355| 
         0000000a 7F80 
    2304 0000000b 80A9          MOVZ      AR7,AL                ; [CPU_ALU] |355| 
    2305 0000000c 8F00          MOVL      XAR4,#32640           ; [CPU_ARAU] |355| 
         0000000d 7F80 
    2306 0000000e A8A9          MOVL      ACC,XAR4              ; [CPU_ALU] |355| 
    2307 0000000f 0FA7          CMPL      ACC,XAR7              ; [CPU_ALU] |355| 
    2308 00000010 56B0          MOVB      XAR6,#1,NEQ           ; [CPU_ALU] |355| 
         00000011 01A6 
    2309 00000012       ||$C$L6||:    
    2310 00000012 92A6          MOV       AL,AR6                ; [CPU_ALU] |355| 
    2311              $C$DW$165       .dwtag  DW_TAG_TI_branch
    2312                      .dwattr $C$DW$165, DW_AT_low_pc(0x00)
    2313                      .dwattr $C$DW$165, DW_AT_TI_return
    2314              
    2315 00000013 0006          LRETR     ; [CPU_ALU] 
    2316                      ; return occurs ; [] 
    2317                      .dwattr $C$DW$162, DW_AT_TI_end_file("C:/ti/ccs1010/ccs/tools/compiler/ti-cgt-c2000_20.2.1.LTS/includ
    2318                      .dwattr $C$DW$162, DW_AT_TI_end_line(0x164)
    2319                      .dwattr $C$DW$162, DW_AT_TI_end_column(0x2f)
    2320                      .dwendentry
    2321                      .dwendtag $C$DW$162
    2322              
    2323 00000000               .sect   ".text:__isnormal"
    2324                      .clink
    2325                      .global ||__isnormal||
    2326              
    2327              $C$DW$166       .dwtag  DW_TAG_subprogram
    2328                      .dwattr $C$DW$166, DW_AT_name("__isnormal")
    2329                      .dwattr $C$DW$166, DW_AT_low_pc(||__isnormal||)
TMS320C2000 Assembler PC v20.2.1 Mon Nov  2 17:14:28 2020

Copyright (c) 1996-2018 Texas Instruments Incorporated
bts_main.asm                                                         PAGE   46

    2330                      .dwattr $C$DW$166, DW_AT_high_pc(0x00)
    2331                      .dwattr $C$DW$166, DW_AT_linkage_name("__isnormal")
    2332                      .dwattr $C$DW$166, DW_AT_external
    2333                      .dwattr $C$DW$166, DW_AT_type(*$C$DW$T$10)
    2334                      .dwattr $C$DW$166, DW_AT_decl_file("C:/ti/ccs1010/ccs/tools/compiler/ti-cgt-c2000_20.2.1.LTS/include/
    2335                      .dwattr $C$DW$166, DW_AT_decl_line(0x15e)
    2336                      .dwattr $C$DW$166, DW_AT_decl_column(0x25)
    2337                      .dwattr $C$DW$166, DW_AT_TI_max_frame_size(-6)
    2338                      .dwpsn  file "C:/ti/ccs1010/ccs/tools/compiler/ti-cgt-c2000_20.2.1.LTS/include/_defs.h",line 351,colu
    2339              
    2340                      .dwfde $C$DW$CIE, ||__isnormal||
    2341              $C$DW$167       .dwtag  DW_TAG_formal_parameter
    2342                      .dwattr $C$DW$167, DW_AT_name("d")
    2343                      .dwattr $C$DW$167, DW_AT_type(*$C$DW$T$128)
    2344                      .dwattr $C$DW$167, DW_AT_location[DW_OP_reg12]
    2345              
    2346              
    2347              ;***************************************************************
    2348              ;* FNAME: __isnormal                    FR SIZE:   4           *
    2349              ;*                                                             *
    2350              ;* FUNCTION ENVIRONMENT                                        *
    2351              ;*                                                             *
    2352              ;* FUNCTION PROPERTIES                                         *
    2353              ;*                            4 Parameter,  0 Auto,  0 SOE     *
    2354              ;***************************************************************
    2355              
    2356              ||__isnormal||:
    2357              ;* AR5   assigned to $O$C2
    2358              ;* AR6   assigned to $O$S1
    2359              ;* AR4   assigned to d
    2360              $C$DW$168       .dwtag  DW_TAG_variable
    2361                      .dwattr $C$DW$168, DW_AT_name("d")
    2362                      .dwattr $C$DW$168, DW_AT_type(*$C$DW$T$129)
    2363                      .dwattr $C$DW$168, DW_AT_location[DW_OP_reg12]
    2364              
    2365                      .dwcfi  cfa_offset, -2
    2366                      .dwcfi  save_reg_to_mem, 26, 0
    2367 00000000 FE04          ADDB      SP,#4                 ; [CPU_ARAU] 
    2368                      .dwcfi  cfa_offset, -6
    2369                      .dwpsn  file "C:/ti/ccs1010/ccs/tools/compiler/ti-cgt-c2000_20.2.1.LTS/include/_defs.h",line 351,colu
    2370 00000001 83C4          MOVL      XAR5,*+XAR4[0]        ; [CPU_ALU] |351| 
    2371 00000002 8AD4          MOVL      XAR4,*+XAR4[2]        ; [CPU_ALU] |351| 
    2372 00000003 BE00          MOVB      XAR6,#0               ; [CPU_ALU] |351| 
    2373 00000004 28AC          MOV       T,#52                 ; [CPU_ALU] |351| 
         00000005 0034 
    2374 00000006 A0AB          MOVL      P,XAR5                ; [CPU_ALU] |351| 
    2375 00000007 A8A9          MOVL      ACC,XAR4              ; [CPU_ALU] |351| 
    2376 00000008 C244          MOVL      *-SP[4],XAR6          ; [CPU_ALU] |351| 
    2377 00000009 2B42          MOV       *-SP[2],#0            ; [CPU_ALU] |351| 
    2378 0000000a 565B          LSR64     ACC:P,T               ; [CPU_ALU] |351| 
    2379 0000000b 2B41          MOV       *-SP[1],#0            ; [CPU_FPU] |351| 
    2380 0000000c 9000          ANDB      AL,#0                 ; [CPU_ALU] |351| 
    2381 0000000d 9100          ANDB      AH,#0                 ; [CPU_ALU] |351| 
    2382 0000000e 18AB          AND       PL,#2047              ; [CPU_ALU] |351| 
         0000000f 07FF 
TMS320C2000 Assembler PC v20.2.1 Mon Nov  2 17:14:28 2020

Copyright (c) 1996-2018 Texas Instruments Incorporated
bts_main.asm                                                         PAGE   47

    2383 00000010 18AA          AND       PH,#0                 ; [CPU_ALU] |351| 
         00000011 0000 
    2384              $C$DW$169       .dwtag  DW_TAG_TI_branch
    2385                      .dwattr $C$DW$169, DW_AT_low_pc(0x00)
    2386                      .dwattr $C$DW$169, DW_AT_name("__c28xabi_cmpull")
    2387                      .dwattr $C$DW$169, DW_AT_TI_call
    2388              
    2389 00000012 7640!         LCR       #||__c28xabi_cmpull|| ; [CPU_ALU] |351| 
         00000013 0000 
    2390                      ; call occurs [#||__c28xabi_cmpull||] ; [] |351| 
    2391 00000014 BE00          MOVB      XAR6,#0               ; [CPU_ALU] |351| 
    2392 00000015 5200          CMPB      AL,#0                 ; [CPU_ALU] |351| 
    2393 00000016 610F          B         ||$C$L7||,EQ          ; [CPU_ALU] |351| 
    2394                      ; branchcc occurs ; [] |351| 
    2395 00000017 A0AB          MOVL      P,XAR5                ; [CPU_ALU] |351| 
    2396 00000018 A8A9          MOVL      ACC,XAR4              ; [CPU_ALU] |351| 
    2397 00000019 28AC          MOV       T,#48                 ; [CPU_ALU] |351| 
         0000001a 0030 
    2398 0000001b 565B          LSR64     ACC:P,T               ; [CPU_ALU] |351| 
    2399 0000001c 18AB          AND       PL,#0x7ff0            ; [CPU_ALU] |351| 
         0000001d 7FF0 
    2400 0000001e 80AB          MOVZ      AR7,PL                ; [CPU_ALU] |351| 
    2401 0000001f 8F00          MOVL      XAR4,#32752           ; [CPU_ARAU] |351| 
         00000020 7FF0 
    2402 00000021 A8A9          MOVL      ACC,XAR4              ; [CPU_ALU] |351| 
    2403 00000022 0FA7          CMPL      ACC,XAR7              ; [CPU_ALU] |351| 
    2404 00000023 56B0          MOVB      XAR6,#1,NEQ           ; [CPU_ALU] |351| 
         00000024 01A6 
    2405 00000025       ||$C$L7||:    
    2406 00000025 FE84          SUBB      SP,#4                 ; [CPU_ARAU] 
    2407                      .dwcfi  cfa_offset, -2
    2408 00000026 92A6          MOV       AL,AR6                ; [CPU_ALU] |351| 
    2409              $C$DW$170       .dwtag  DW_TAG_TI_branch
    2410                      .dwattr $C$DW$170, DW_AT_low_pc(0x00)
    2411                      .dwattr $C$DW$170, DW_AT_TI_return
    2412              
    2413 00000027 0006          LRETR     ; [CPU_ALU] 
    2414                      ; return occurs ; [] 
    2415                      .dwattr $C$DW$166, DW_AT_TI_end_file("C:/ti/ccs1010/ccs/tools/compiler/ti-cgt-c2000_20.2.1.LTS/includ
    2416                      .dwattr $C$DW$166, DW_AT_TI_end_line(0x160)
    2417                      .dwattr $C$DW$166, DW_AT_TI_end_column(0x30)
    2418                      .dwendentry
    2419                      .dwendtag $C$DW$166
    2420              
    2421 00000000               .sect   ".text:__isnanl"
    2422                      .clink
    2423                      .global ||__isnanl||
    2424              
    2425              $C$DW$171       .dwtag  DW_TAG_subprogram
    2426                      .dwattr $C$DW$171, DW_AT_name("__isnanl")
    2427                      .dwattr $C$DW$171, DW_AT_low_pc(||__isnanl||)
    2428                      .dwattr $C$DW$171, DW_AT_high_pc(0x00)
    2429                      .dwattr $C$DW$171, DW_AT_linkage_name("__isnanl")
    2430                      .dwattr $C$DW$171, DW_AT_external
    2431                      .dwattr $C$DW$171, DW_AT_type(*$C$DW$T$10)
TMS320C2000 Assembler PC v20.2.1 Mon Nov  2 17:14:28 2020

Copyright (c) 1996-2018 Texas Instruments Incorporated
bts_main.asm                                                         PAGE   48

    2432                      .dwattr $C$DW$171, DW_AT_decl_file("C:/ti/ccs1010/ccs/tools/compiler/ti-cgt-c2000_20.2.1.LTS/include/
    2433                      .dwattr $C$DW$171, DW_AT_decl_line(0x15a)
    2434                      .dwattr $C$DW$171, DW_AT_decl_column(0x25)
    2435                      .dwattr $C$DW$171, DW_AT_TI_max_frame_size(-6)
    2436                      .dwpsn  file "C:/ti/ccs1010/ccs/tools/compiler/ti-cgt-c2000_20.2.1.LTS/include/_defs.h",line 347,colu
    2437              
    2438                      .dwfde $C$DW$CIE, ||__isnanl||
    2439              $C$DW$172       .dwtag  DW_TAG_formal_parameter
    2440                      .dwattr $C$DW$172, DW_AT_name("e")
    2441                      .dwattr $C$DW$172, DW_AT_type(*$C$DW$T$131)
    2442                      .dwattr $C$DW$172, DW_AT_location[DW_OP_reg12]
    2443              
    2444              
    2445              ;***************************************************************
    2446              ;* FNAME: __isnanl                      FR SIZE:   4           *
    2447              ;*                                                             *
    2448              ;* FUNCTION ENVIRONMENT                                        *
    2449              ;*                                                             *
    2450              ;* FUNCTION PROPERTIES                                         *
    2451              ;*                            4 Parameter,  0 Auto,  0 SOE     *
    2452              ;***************************************************************
    2453              
    2454              ||__isnanl||:
    2455              ;* AR7   assigned to $O$C2
    2456              ;* AR4   assigned to $O$S1
    2457              ;* AR4   assigned to e
    2458              $C$DW$173       .dwtag  DW_TAG_variable
    2459                      .dwattr $C$DW$173, DW_AT_name("e")
    2460                      .dwattr $C$DW$173, DW_AT_type(*$C$DW$T$132)
    2461                      .dwattr $C$DW$173, DW_AT_location[DW_OP_reg12]
    2462              
    2463                      .dwcfi  cfa_offset, -2
    2464                      .dwcfi  save_reg_to_mem, 26, 0
    2465 00000000 FE04          ADDB      SP,#4                 ; [CPU_ARAU] 
    2466                      .dwcfi  cfa_offset, -6
    2467                      .dwpsn  file "C:/ti/ccs1010/ccs/tools/compiler/ti-cgt-c2000_20.2.1.LTS/include/_defs.h",line 347,colu
    2468 00000001 06D4          MOVL      ACC,*+XAR4[2]         ; [CPU_ALU] |347| 
    2469 00000002 C5C4          MOVL      XAR7,*+XAR4[0]        ; [CPU_ALU] |347| 
    2470 00000003 28AC          MOV       T,#48                 ; [CPU_ALU] |347| 
         00000004 0030 
    2471 00000005 8F40          MOVL      XAR5,#32752           ; [CPU_ARAU] |347| 
         00000006 7FF0 
    2472 00000007 1EA6          MOVL      XAR6,ACC              ; [CPU_ALU] |347| 
    2473 00000008 A3A7          MOVL      P,XAR7                ; [CPU_ALU] |347| 
    2474 00000009 D400          MOVB      XAR4,#0               ; [CPU_ALU] |347| 
    2475 0000000a 565B          LSR64     ACC:P,T               ; [CPU_ALU] |347| 
    2476 0000000b 2BAA          MOV       PH,#0                 ; [CPU_ALU] |347| 
    2477 0000000c 18AB          AND       PL,#0x7ff0            ; [CPU_ALU] |347| 
         0000000d 7FF0 
    2478 0000000e A0A9          MOVL      ACC,XAR5              ; [CPU_ALU] |347| 
    2479 0000000f 0FAB          CMPL      ACC,P                 ; [CPU_ALU] |347| 
    2480 00000010 6013          B         ||$C$L8||,NEQ         ; [CPU_ALU] |347| 
    2481                      ; branchcc occurs ; [] |347| 
    2482 00000011 06A6          MOVL      ACC,XAR6              ; [CPU_ALU] |347| 
    2483 00000012 A3A7          MOVL      P,XAR7                ; [CPU_ALU] |347| 
TMS320C2000 Assembler PC v20.2.1 Mon Nov  2 17:14:28 2020

Copyright (c) 1996-2018 Texas Instruments Incorporated
bts_main.asm                                                         PAGE   49

    2484 00000013 BE00          MOVB      XAR6,#0               ; [CPU_ALU] |347| 
    2485 00000014 18A9          AND       AL,#65535             ; [CPU_ALU] |347| 
         00000015 FFFF 
    2486 00000016 910F          ANDB      AH,#15                ; [CPU_ALU] |347| 
    2487 00000017 18AB          AND       PL,#65535             ; [CPU_ALU] |347| 
         00000018 FFFF 
    2488 00000019 18AA          AND       PH,#65535             ; [CPU_ALU] |347| 
         0000001a FFFF 
    2489 0000001b C244          MOVL      *-SP[4],XAR6          ; [CPU_FPU] |347| 
    2490 0000001c 2B42          MOV       *-SP[2],#0            ; [CPU_FPU] |347| 
    2491 0000001d 2B41          MOV       *-SP[1],#0            ; [CPU_FPU] |347| 
    2492              $C$DW$174       .dwtag  DW_TAG_TI_branch
    2493                      .dwattr $C$DW$174, DW_AT_low_pc(0x00)
    2494                      .dwattr $C$DW$174, DW_AT_name("__c28xabi_cmpull")
    2495                      .dwattr $C$DW$174, DW_AT_TI_call
    2496              
    2497 0000001e 7640!         LCR       #||__c28xabi_cmpull|| ; [CPU_ALU] |347| 
         0000001f 0000 
    2498                      ; call occurs [#||__c28xabi_cmpull||] ; [] |347| 
    2499 00000020 5200          CMPB      AL,#0                 ; [CPU_ALU] |347| 
    2500 00000021 56B0          MOVB      XAR4,#1,NEQ           ; [CPU_ALU] |347| 
         00000022 01A4 
    2501 00000023       ||$C$L8||:    
    2502 00000023 FE84          SUBB      SP,#4                 ; [CPU_ARAU] 
    2503                      .dwcfi  cfa_offset, -2
    2504 00000024 92A4          MOV       AL,AR4                ; [CPU_ALU] |347| 
    2505              $C$DW$175       .dwtag  DW_TAG_TI_branch
    2506                      .dwattr $C$DW$175, DW_AT_low_pc(0x00)
    2507                      .dwattr $C$DW$175, DW_AT_TI_return
    2508              
    2509 00000025 0006          LRETR     ; [CPU_ALU] 
    2510                      ; return occurs ; [] 
    2511                      .dwattr $C$DW$171, DW_AT_TI_end_file("C:/ti/ccs1010/ccs/tools/compiler/ti-cgt-c2000_20.2.1.LTS/includ
    2512                      .dwattr $C$DW$171, DW_AT_TI_end_line(0x15c)
    2513                      .dwattr $C$DW$171, DW_AT_TI_end_column(0x30)
    2514                      .dwendentry
    2515                      .dwendtag $C$DW$171
    2516              
    2517 00000000               .sect   ".text:__isnanf"
    2518                      .clink
    2519                      .global ||__isnanf||
    2520              
    2521              $C$DW$176       .dwtag  DW_TAG_subprogram
    2522                      .dwattr $C$DW$176, DW_AT_name("__isnanf")
    2523                      .dwattr $C$DW$176, DW_AT_low_pc(||__isnanf||)
    2524                      .dwattr $C$DW$176, DW_AT_high_pc(0x00)
    2525                      .dwattr $C$DW$176, DW_AT_linkage_name("__isnanf")
    2526                      .dwattr $C$DW$176, DW_AT_external
    2527                      .dwattr $C$DW$176, DW_AT_type(*$C$DW$T$10)
    2528                      .dwattr $C$DW$176, DW_AT_decl_file("C:/ti/ccs1010/ccs/tools/compiler/ti-cgt-c2000_20.2.1.LTS/include/
    2529                      .dwattr $C$DW$176, DW_AT_decl_line(0x157)
    2530                      .dwattr $C$DW$176, DW_AT_decl_column(0x25)
    2531                      .dwattr $C$DW$176, DW_AT_TI_max_frame_size(-2)
    2532                      .dwpsn  file "C:/ti/ccs1010/ccs/tools/compiler/ti-cgt-c2000_20.2.1.LTS/include/_defs.h",line 344,colu
    2533              
TMS320C2000 Assembler PC v20.2.1 Mon Nov  2 17:14:28 2020

Copyright (c) 1996-2018 Texas Instruments Incorporated
bts_main.asm                                                         PAGE   50

    2534                      .dwfde $C$DW$CIE, ||__isnanf||
    2535              $C$DW$177       .dwtag  DW_TAG_formal_parameter
    2536                      .dwattr $C$DW$177, DW_AT_name("f")
    2537                      .dwattr $C$DW$177, DW_AT_type(*$C$DW$T$16)
    2538                      .dwattr $C$DW$177, DW_AT_location[DW_OP_regx 0x2b]
    2539              
    2540              
    2541              ;***************************************************************
    2542              ;* FNAME: __isnanf                      FR SIZE:   0           *
    2543              ;*                                                             *
    2544              ;* FUNCTION ENVIRONMENT                                        *
    2545              ;*                                                             *
    2546              ;* FUNCTION PROPERTIES                                         *
    2547              ;*                            0 Parameter,  0 Auto,  0 SOE     *
    2548              ;***************************************************************
    2549              
    2550              ||__isnanf||:
    2551              ;* PL    assigned to $O$K3
    2552              ;* AR6   assigned to $O$S1
    2553              ;* R0    assigned to f
    2554              $C$DW$178       .dwtag  DW_TAG_variable
    2555                      .dwattr $C$DW$178, DW_AT_name("f")
    2556                      .dwattr $C$DW$178, DW_AT_type(*$C$DW$T$125)
    2557                      .dwattr $C$DW$178, DW_AT_location[DW_OP_regx 0x2b]
    2558              
    2559                      .dwcfi  cfa_offset, -2
    2560                      .dwcfi  save_reg_to_mem, 26, 0
    2561                      .dwpsn  file "C:/ti/ccs1010/ccs/tools/compiler/ti-cgt-c2000_20.2.1.LTS/include/_defs.h",line 344,colu
    2562 00000000 BFAB          MOV32     P,R0H                 ; [CPU_FPU] |344| 
         00000001 0F12 
    2563 00000002 CCAA          AND       AL,PH,#0x7f80         ; [CPU_ALU] |344| 
         00000003 7F80 
    2564 00000004 80A9          MOVZ      AR7,AL                ; [CPU_ALU] |344| 
    2565 00000005 8F00          MOVL      XAR4,#32640           ; [CPU_ARAU] |344| 
         00000006 7F80 
    2566 00000007 BE00          MOVB      XAR6,#0               ; [CPU_ALU] |344| 
    2567 00000008 A8A9          MOVL      ACC,XAR4              ; [CPU_ALU] |344| 
    2568 00000009 0FA7          CMPL      ACC,XAR7              ; [CPU_ALU] |344| 
    2569 0000000a 6006          B         ||$C$L9||,NEQ         ; [CPU_ALU] |344| 
    2570                      ; branchcc occurs ; [] |344| 
    2571 0000000b A9A9          MOVL      ACC,P                 ; [CPU_ALU] |344| 
    2572 0000000c 917F          ANDB      AH,#127               ; [CPU_ALU] |344| 
    2573 0000000d FF58          TEST      ACC                   ; [CPU_ALU] |344| 
    2574 0000000e 56B0          MOVB      XAR6,#1,NEQ           ; [CPU_ALU] |344| 
         0000000f 01A6 
    2575 00000010       ||$C$L9||:    
    2576 00000010 92A6          MOV       AL,AR6                ; [CPU_ALU] |344| 
    2577              $C$DW$179       .dwtag  DW_TAG_TI_branch
    2578                      .dwattr $C$DW$179, DW_AT_low_pc(0x00)
    2579                      .dwattr $C$DW$179, DW_AT_TI_return
    2580              
    2581 00000011 0006          LRETR     ; [CPU_ALU] 
    2582                      ; return occurs ; [] 
    2583                      .dwattr $C$DW$176, DW_AT_TI_end_file("C:/ti/ccs1010/ccs/tools/compiler/ti-cgt-c2000_20.2.1.LTS/includ
    2584                      .dwattr $C$DW$176, DW_AT_TI_end_line(0x159)
TMS320C2000 Assembler PC v20.2.1 Mon Nov  2 17:14:28 2020

Copyright (c) 1996-2018 Texas Instruments Incorporated
bts_main.asm                                                         PAGE   51

    2585                      .dwattr $C$DW$176, DW_AT_TI_end_column(0x2e)
    2586                      .dwendentry
    2587                      .dwendtag $C$DW$176
    2588              
    2589 00000000               .sect   ".text:__isnan"
    2590                      .clink
    2591                      .global ||__isnan||
    2592              
    2593              $C$DW$180       .dwtag  DW_TAG_subprogram
    2594                      .dwattr $C$DW$180, DW_AT_name("__isnan")
    2595                      .dwattr $C$DW$180, DW_AT_low_pc(||__isnan||)
    2596                      .dwattr $C$DW$180, DW_AT_high_pc(0x00)
    2597                      .dwattr $C$DW$180, DW_AT_linkage_name("__isnan")
    2598                      .dwattr $C$DW$180, DW_AT_external
    2599                      .dwattr $C$DW$180, DW_AT_type(*$C$DW$T$10)
    2600                      .dwattr $C$DW$180, DW_AT_decl_file("C:/ti/ccs1010/ccs/tools/compiler/ti-cgt-c2000_20.2.1.LTS/include/
    2601                      .dwattr $C$DW$180, DW_AT_decl_line(0x154)
    2602                      .dwattr $C$DW$180, DW_AT_decl_column(0x25)
    2603                      .dwattr $C$DW$180, DW_AT_TI_max_frame_size(-6)
    2604                      .dwpsn  file "C:/ti/ccs1010/ccs/tools/compiler/ti-cgt-c2000_20.2.1.LTS/include/_defs.h",line 341,colu
    2605              
    2606                      .dwfde $C$DW$CIE, ||__isnan||
    2607              $C$DW$181       .dwtag  DW_TAG_formal_parameter
    2608                      .dwattr $C$DW$181, DW_AT_name("d")
    2609                      .dwattr $C$DW$181, DW_AT_type(*$C$DW$T$128)
    2610                      .dwattr $C$DW$181, DW_AT_location[DW_OP_reg12]
    2611              
    2612              
    2613              ;***************************************************************
    2614              ;* FNAME: __isnan                       FR SIZE:   4           *
    2615              ;*                                                             *
    2616              ;* FUNCTION ENVIRONMENT                                        *
    2617              ;*                                                             *
    2618              ;* FUNCTION PROPERTIES                                         *
    2619              ;*                            4 Parameter,  0 Auto,  0 SOE     *
    2620              ;***************************************************************
    2621              
    2622              ||__isnan||:
    2623              ;* AR7   assigned to $O$C2
    2624              ;* AR4   assigned to $O$S1
    2625              ;* AR4   assigned to d
    2626              $C$DW$182       .dwtag  DW_TAG_variable
    2627                      .dwattr $C$DW$182, DW_AT_name("d")
    2628                      .dwattr $C$DW$182, DW_AT_type(*$C$DW$T$129)
    2629                      .dwattr $C$DW$182, DW_AT_location[DW_OP_reg12]
    2630              
    2631                      .dwcfi  cfa_offset, -2
    2632                      .dwcfi  save_reg_to_mem, 26, 0
    2633 00000000 FE04          ADDB      SP,#4                 ; [CPU_ARAU] 
    2634                      .dwcfi  cfa_offset, -6
    2635                      .dwpsn  file "C:/ti/ccs1010/ccs/tools/compiler/ti-cgt-c2000_20.2.1.LTS/include/_defs.h",line 341,colu
    2636 00000001 06D4          MOVL      ACC,*+XAR4[2]         ; [CPU_ALU] |341| 
    2637 00000002 C5C4          MOVL      XAR7,*+XAR4[0]        ; [CPU_ALU] |341| 
    2638 00000003 28AC          MOV       T,#48                 ; [CPU_ALU] |341| 
         00000004 0030 
TMS320C2000 Assembler PC v20.2.1 Mon Nov  2 17:14:28 2020

Copyright (c) 1996-2018 Texas Instruments Incorporated
bts_main.asm                                                         PAGE   52

    2639 00000005 8F40          MOVL      XAR5,#32752           ; [CPU_ARAU] |341| 
         00000006 7FF0 
    2640 00000007 1EA6          MOVL      XAR6,ACC              ; [CPU_ALU] |341| 
    2641 00000008 A3A7          MOVL      P,XAR7                ; [CPU_ALU] |341| 
    2642 00000009 D400          MOVB      XAR4,#0               ; [CPU_ALU] |341| 
    2643 0000000a 565B          LSR64     ACC:P,T               ; [CPU_ALU] |341| 
    2644 0000000b 2BAA          MOV       PH,#0                 ; [CPU_ALU] |341| 
    2645 0000000c 18AB          AND       PL,#0x7ff0            ; [CPU_ALU] |341| 
         0000000d 7FF0 
    2646 0000000e A0A9          MOVL      ACC,XAR5              ; [CPU_ALU] |341| 
    2647 0000000f 0FAB          CMPL      ACC,P                 ; [CPU_ALU] |341| 
    2648 00000010 6013          B         ||$C$L10||,NEQ        ; [CPU_ALU] |341| 
    2649                      ; branchcc occurs ; [] |341| 
    2650 00000011 06A6          MOVL      ACC,XAR6              ; [CPU_ALU] |341| 
    2651 00000012 A3A7          MOVL      P,XAR7                ; [CPU_ALU] |341| 
    2652 00000013 BE00          MOVB      XAR6,#0               ; [CPU_ALU] |341| 
    2653 00000014 18A9          AND       AL,#65535             ; [CPU_ALU] |341| 
         00000015 FFFF 
    2654 00000016 910F          ANDB      AH,#15                ; [CPU_ALU] |341| 
    2655 00000017 18AB          AND       PL,#65535             ; [CPU_ALU] |341| 
         00000018 FFFF 
    2656 00000019 18AA          AND       PH,#65535             ; [CPU_ALU] |341| 
         0000001a FFFF 
    2657 0000001b C244          MOVL      *-SP[4],XAR6          ; [CPU_FPU] |341| 
    2658 0000001c 2B42          MOV       *-SP[2],#0            ; [CPU_FPU] |341| 
    2659 0000001d 2B41          MOV       *-SP[1],#0            ; [CPU_FPU] |341| 
    2660              $C$DW$183       .dwtag  DW_TAG_TI_branch
    2661                      .dwattr $C$DW$183, DW_AT_low_pc(0x00)
    2662                      .dwattr $C$DW$183, DW_AT_name("__c28xabi_cmpull")
    2663                      .dwattr $C$DW$183, DW_AT_TI_call
    2664              
    2665 0000001e 7640!         LCR       #||__c28xabi_cmpull|| ; [CPU_ALU] |341| 
         0000001f 0000 
    2666                      ; call occurs [#||__c28xabi_cmpull||] ; [] |341| 
    2667 00000020 5200          CMPB      AL,#0                 ; [CPU_ALU] |341| 
    2668 00000021 56B0          MOVB      XAR4,#1,NEQ           ; [CPU_ALU] |341| 
         00000022 01A4 
    2669 00000023       ||$C$L10||:    
    2670 00000023 FE84          SUBB      SP,#4                 ; [CPU_ARAU] 
    2671                      .dwcfi  cfa_offset, -2
    2672 00000024 92A4          MOV       AL,AR4                ; [CPU_ALU] |341| 
    2673              $C$DW$184       .dwtag  DW_TAG_TI_branch
    2674                      .dwattr $C$DW$184, DW_AT_low_pc(0x00)
    2675                      .dwattr $C$DW$184, DW_AT_TI_return
    2676              
    2677 00000025 0006          LRETR     ; [CPU_ALU] 
    2678                      ; return occurs ; [] 
    2679                      .dwattr $C$DW$180, DW_AT_TI_end_file("C:/ti/ccs1010/ccs/tools/compiler/ti-cgt-c2000_20.2.1.LTS/includ
    2680                      .dwattr $C$DW$180, DW_AT_TI_end_line(0x156)
    2681                      .dwattr $C$DW$180, DW_AT_TI_end_column(0x2f)
    2682                      .dwendentry
    2683                      .dwendtag $C$DW$180
    2684              
    2685 00000000               .sect   ".text:__isinfl"
    2686                      .clink
TMS320C2000 Assembler PC v20.2.1 Mon Nov  2 17:14:28 2020

Copyright (c) 1996-2018 Texas Instruments Incorporated
bts_main.asm                                                         PAGE   53

    2687                      .global ||__isinfl||
    2688              
    2689              $C$DW$185       .dwtag  DW_TAG_subprogram
    2690                      .dwattr $C$DW$185, DW_AT_name("__isinfl")
    2691                      .dwattr $C$DW$185, DW_AT_low_pc(||__isinfl||)
    2692                      .dwattr $C$DW$185, DW_AT_high_pc(0x00)
    2693                      .dwattr $C$DW$185, DW_AT_linkage_name("__isinfl")
    2694                      .dwattr $C$DW$185, DW_AT_external
    2695                      .dwattr $C$DW$185, DW_AT_type(*$C$DW$T$10)
    2696                      .dwattr $C$DW$185, DW_AT_decl_file("C:/ti/ccs1010/ccs/tools/compiler/ti-cgt-c2000_20.2.1.LTS/include/
    2697                      .dwattr $C$DW$185, DW_AT_decl_line(0x179)
    2698                      .dwattr $C$DW$185, DW_AT_decl_column(0x25)
    2699                      .dwattr $C$DW$185, DW_AT_TI_max_frame_size(-6)
    2700                      .dwpsn  file "C:/ti/ccs1010/ccs/tools/compiler/ti-cgt-c2000_20.2.1.LTS/include/_defs.h",line 378,colu
    2701              
    2702                      .dwfde $C$DW$CIE, ||__isinfl||
    2703              $C$DW$186       .dwtag  DW_TAG_formal_parameter
    2704                      .dwattr $C$DW$186, DW_AT_name("e")
    2705                      .dwattr $C$DW$186, DW_AT_type(*$C$DW$T$131)
    2706                      .dwattr $C$DW$186, DW_AT_location[DW_OP_reg12]
    2707              
    2708              
    2709              ;***************************************************************
    2710              ;* FNAME: __isinfl                      FR SIZE:   4           *
    2711              ;*                                                             *
    2712              ;* FUNCTION ENVIRONMENT                                        *
    2713              ;*                                                             *
    2714              ;* FUNCTION PROPERTIES                                         *
    2715              ;*                            4 Parameter,  0 Auto,  0 SOE     *
    2716              ;***************************************************************
    2717              
    2718              ||__isinfl||:
    2719              ;* AR7   assigned to $O$C2
    2720              ;* AR4   assigned to $O$S1
    2721              ;* AR4   assigned to e
    2722              $C$DW$187       .dwtag  DW_TAG_variable
    2723                      .dwattr $C$DW$187, DW_AT_name("e")
    2724                      .dwattr $C$DW$187, DW_AT_type(*$C$DW$T$132)
    2725                      .dwattr $C$DW$187, DW_AT_location[DW_OP_reg12]
    2726              
    2727                      .dwcfi  cfa_offset, -2
    2728                      .dwcfi  save_reg_to_mem, 26, 0
    2729 00000000 FE04          ADDB      SP,#4                 ; [CPU_ARAU] 
    2730                      .dwcfi  cfa_offset, -6
    2731                      .dwpsn  file "C:/ti/ccs1010/ccs/tools/compiler/ti-cgt-c2000_20.2.1.LTS/include/_defs.h",line 378,colu
    2732 00000001 06D4          MOVL      ACC,*+XAR4[2]         ; [CPU_ALU] |378| 
    2733 00000002 C5C4          MOVL      XAR7,*+XAR4[0]        ; [CPU_ALU] |378| 
    2734 00000003 28AC          MOV       T,#48                 ; [CPU_ALU] |378| 
         00000004 0030 
    2735 00000005 8F40          MOVL      XAR5,#32752           ; [CPU_ARAU] |378| 
         00000006 7FF0 
    2736 00000007 1EA6          MOVL      XAR6,ACC              ; [CPU_ALU] |378| 
    2737 00000008 A3A7          MOVL      P,XAR7                ; [CPU_ALU] |378| 
    2738 00000009 D400          MOVB      XAR4,#0               ; [CPU_ALU] |378| 
    2739 0000000a 565B          LSR64     ACC:P,T               ; [CPU_ALU] |378| 
TMS320C2000 Assembler PC v20.2.1 Mon Nov  2 17:14:28 2020

Copyright (c) 1996-2018 Texas Instruments Incorporated
bts_main.asm                                                         PAGE   54

    2740 0000000b 2BAA          MOV       PH,#0                 ; [CPU_ALU] |378| 
    2741 0000000c 18AB          AND       PL,#0x7ff0            ; [CPU_ALU] |378| 
         0000000d 7FF0 
    2742 0000000e A0A9          MOVL      ACC,XAR5              ; [CPU_ALU] |378| 
    2743 0000000f 0FAB          CMPL      ACC,P                 ; [CPU_ALU] |378| 
    2744 00000010 6013          B         ||$C$L11||,NEQ        ; [CPU_ALU] |378| 
    2745                      ; branchcc occurs ; [] |378| 
    2746 00000011 06A6          MOVL      ACC,XAR6              ; [CPU_ALU] |378| 
    2747 00000012 A3A7          MOVL      P,XAR7                ; [CPU_ALU] |378| 
    2748 00000013 BE00          MOVB      XAR6,#0               ; [CPU_ALU] |378| 
    2749 00000014 18A9          AND       AL,#65535             ; [CPU_ALU] |378| 
         00000015 FFFF 
    2750 00000016 910F          ANDB      AH,#15                ; [CPU_ALU] |378| 
    2751 00000017 18AB          AND       PL,#65535             ; [CPU_ALU] |378| 
         00000018 FFFF 
    2752 00000019 18AA          AND       PH,#65535             ; [CPU_ALU] |378| 
         0000001a FFFF 
    2753 0000001b C244          MOVL      *-SP[4],XAR6          ; [CPU_FPU] |378| 
    2754 0000001c 2B42          MOV       *-SP[2],#0            ; [CPU_FPU] |378| 
    2755 0000001d 2B41          MOV       *-SP[1],#0            ; [CPU_FPU] |378| 
    2756              $C$DW$188       .dwtag  DW_TAG_TI_branch
    2757                      .dwattr $C$DW$188, DW_AT_low_pc(0x00)
    2758                      .dwattr $C$DW$188, DW_AT_name("__c28xabi_cmpull")
    2759                      .dwattr $C$DW$188, DW_AT_TI_call
    2760              
    2761 0000001e 7640!         LCR       #||__c28xabi_cmpull|| ; [CPU_ALU] |378| 
         0000001f 0000 
    2762                      ; call occurs [#||__c28xabi_cmpull||] ; [] |378| 
    2763 00000020 5200          CMPB      AL,#0                 ; [CPU_ALU] |378| 
    2764 00000021 56B1          MOVB      XAR4,#1,EQ            ; [CPU_ALU] |378| 
         00000022 01A4 
    2765 00000023       ||$C$L11||:    
    2766 00000023 FE84          SUBB      SP,#4                 ; [CPU_ARAU] 
    2767                      .dwcfi  cfa_offset, -2
    2768 00000024 92A4          MOV       AL,AR4                ; [CPU_ALU] |378| 
    2769              $C$DW$189       .dwtag  DW_TAG_TI_branch
    2770                      .dwattr $C$DW$189, DW_AT_low_pc(0x00)
    2771                      .dwattr $C$DW$189, DW_AT_TI_return
    2772              
    2773 00000025 0006          LRETR     ; [CPU_ALU] 
    2774                      ; return occurs ; [] 
    2775                      .dwattr $C$DW$185, DW_AT_TI_end_file("C:/ti/ccs1010/ccs/tools/compiler/ti-cgt-c2000_20.2.1.LTS/includ
    2776                      .dwattr $C$DW$185, DW_AT_TI_end_line(0x17a)
    2777                      .dwattr $C$DW$185, DW_AT_TI_end_column(0x4c)
    2778                      .dwendentry
    2779                      .dwendtag $C$DW$185
    2780              
    2781 00000000               .sect   ".text:__isinff"
    2782                      .clink
    2783                      .global ||__isinff||
    2784              
    2785              $C$DW$190       .dwtag  DW_TAG_subprogram
    2786                      .dwattr $C$DW$190, DW_AT_name("__isinff")
    2787                      .dwattr $C$DW$190, DW_AT_low_pc(||__isinff||)
    2788                      .dwattr $C$DW$190, DW_AT_high_pc(0x00)
TMS320C2000 Assembler PC v20.2.1 Mon Nov  2 17:14:28 2020

Copyright (c) 1996-2018 Texas Instruments Incorporated
bts_main.asm                                                         PAGE   55

    2789                      .dwattr $C$DW$190, DW_AT_linkage_name("__isinff")
    2790                      .dwattr $C$DW$190, DW_AT_external
    2791                      .dwattr $C$DW$190, DW_AT_type(*$C$DW$T$10)
    2792                      .dwattr $C$DW$190, DW_AT_decl_file("C:/ti/ccs1010/ccs/tools/compiler/ti-cgt-c2000_20.2.1.LTS/include/
    2793                      .dwattr $C$DW$190, DW_AT_decl_line(0x175)
    2794                      .dwattr $C$DW$190, DW_AT_decl_column(0x25)
    2795                      .dwattr $C$DW$190, DW_AT_TI_max_frame_size(-2)
    2796                      .dwpsn  file "C:/ti/ccs1010/ccs/tools/compiler/ti-cgt-c2000_20.2.1.LTS/include/_defs.h",line 374,colu
    2797              
    2798                      .dwfde $C$DW$CIE, ||__isinff||
    2799              $C$DW$191       .dwtag  DW_TAG_formal_parameter
    2800                      .dwattr $C$DW$191, DW_AT_name("f")
    2801                      .dwattr $C$DW$191, DW_AT_type(*$C$DW$T$16)
    2802                      .dwattr $C$DW$191, DW_AT_location[DW_OP_regx 0x2b]
    2803              
    2804              
    2805              ;***************************************************************
    2806              ;* FNAME: __isinff                      FR SIZE:   0           *
    2807              ;*                                                             *
    2808              ;* FUNCTION ENVIRONMENT                                        *
    2809              ;*                                                             *
    2810              ;* FUNCTION PROPERTIES                                         *
    2811              ;*                            0 Parameter,  0 Auto,  0 SOE     *
    2812              ;***************************************************************
    2813              
    2814              ||__isinff||:
    2815              ;* PL    assigned to $O$K3
    2816              ;* AR6   assigned to $O$S1
    2817              ;* R0    assigned to f
    2818              $C$DW$192       .dwtag  DW_TAG_variable
    2819                      .dwattr $C$DW$192, DW_AT_name("f")
    2820                      .dwattr $C$DW$192, DW_AT_type(*$C$DW$T$125)
    2821                      .dwattr $C$DW$192, DW_AT_location[DW_OP_regx 0x2b]
    2822              
    2823                      .dwcfi  cfa_offset, -2
    2824                      .dwcfi  save_reg_to_mem, 26, 0
    2825                      .dwpsn  file "C:/ti/ccs1010/ccs/tools/compiler/ti-cgt-c2000_20.2.1.LTS/include/_defs.h",line 374,colu
    2826 00000000 BFAB          MOV32     P,R0H                 ; [CPU_FPU] |374| 
         00000001 0F12 
    2827 00000002 CCAA          AND       AL,PH,#0x7f80         ; [CPU_ALU] |374| 
         00000003 7F80 
    2828 00000004 80A9          MOVZ      AR7,AL                ; [CPU_ALU] |374| 
    2829 00000005 8F00          MOVL      XAR4,#32640           ; [CPU_ARAU] |374| 
         00000006 7F80 
    2830 00000007 BE00          MOVB      XAR6,#0               ; [CPU_ALU] |374| 
    2831 00000008 A8A9          MOVL      ACC,XAR4              ; [CPU_ALU] |374| 
    2832 00000009 0FA7          CMPL      ACC,XAR7              ; [CPU_ALU] |374| 
    2833 0000000a 6006          B         ||$C$L12||,NEQ        ; [CPU_ALU] |374| 
    2834                      ; branchcc occurs ; [] |374| 
    2835 0000000b A9A9          MOVL      ACC,P                 ; [CPU_ALU] |374| 
    2836 0000000c 917F          ANDB      AH,#127               ; [CPU_ALU] |374| 
    2837 0000000d FF58          TEST      ACC                   ; [CPU_ALU] |374| 
    2838 0000000e 56B1          MOVB      XAR6,#1,EQ            ; [CPU_ALU] |374| 
         0000000f 01A6 
    2839 00000010       ||$C$L12||:    
TMS320C2000 Assembler PC v20.2.1 Mon Nov  2 17:14:28 2020

Copyright (c) 1996-2018 Texas Instruments Incorporated
bts_main.asm                                                         PAGE   56

    2840 00000010 92A6          MOV       AL,AR6                ; [CPU_ALU] |374| 
    2841              $C$DW$193       .dwtag  DW_TAG_TI_branch
    2842                      .dwattr $C$DW$193, DW_AT_low_pc(0x00)
    2843                      .dwattr $C$DW$193, DW_AT_TI_return
    2844              
    2845 00000011 0006          LRETR     ; [CPU_ALU] 
    2846                      ; return occurs ; [] 
    2847                      .dwattr $C$DW$190, DW_AT_TI_end_file("C:/ti/ccs1010/ccs/tools/compiler/ti-cgt-c2000_20.2.1.LTS/includ
    2848                      .dwattr $C$DW$190, DW_AT_TI_end_line(0x176)
    2849                      .dwattr $C$DW$190, DW_AT_TI_end_column(0x48)
    2850                      .dwendentry
    2851                      .dwendtag $C$DW$190
    2852              
    2853 00000000               .sect   ".text:__isinf"
    2854                      .clink
    2855                      .global ||__isinf||
    2856              
    2857              $C$DW$194       .dwtag  DW_TAG_subprogram
    2858                      .dwattr $C$DW$194, DW_AT_name("__isinf")
    2859                      .dwattr $C$DW$194, DW_AT_low_pc(||__isinf||)
    2860                      .dwattr $C$DW$194, DW_AT_high_pc(0x00)
    2861                      .dwattr $C$DW$194, DW_AT_linkage_name("__isinf")
    2862                      .dwattr $C$DW$194, DW_AT_external
    2863                      .dwattr $C$DW$194, DW_AT_type(*$C$DW$T$10)
    2864                      .dwattr $C$DW$194, DW_AT_decl_file("C:/ti/ccs1010/ccs/tools/compiler/ti-cgt-c2000_20.2.1.LTS/include/
    2865                      .dwattr $C$DW$194, DW_AT_decl_line(0x177)
    2866                      .dwattr $C$DW$194, DW_AT_decl_column(0x25)
    2867                      .dwattr $C$DW$194, DW_AT_TI_max_frame_size(-6)
    2868                      .dwpsn  file "C:/ti/ccs1010/ccs/tools/compiler/ti-cgt-c2000_20.2.1.LTS/include/_defs.h",line 376,colu
    2869              
    2870                      .dwfde $C$DW$CIE, ||__isinf||
    2871              $C$DW$195       .dwtag  DW_TAG_formal_parameter
    2872                      .dwattr $C$DW$195, DW_AT_name("d")
    2873                      .dwattr $C$DW$195, DW_AT_type(*$C$DW$T$128)
    2874                      .dwattr $C$DW$195, DW_AT_location[DW_OP_reg12]
    2875              
    2876              
    2877              ;***************************************************************
    2878              ;* FNAME: __isinf                       FR SIZE:   4           *
    2879              ;*                                                             *
    2880              ;* FUNCTION ENVIRONMENT                                        *
    2881              ;*                                                             *
    2882              ;* FUNCTION PROPERTIES                                         *
    2883              ;*                            4 Parameter,  0 Auto,  0 SOE     *
    2884              ;***************************************************************
    2885              
    2886              ||__isinf||:
    2887              ;* AR7   assigned to $O$C2
    2888              ;* AR4   assigned to $O$S1
    2889              ;* AR4   assigned to d
    2890              $C$DW$196       .dwtag  DW_TAG_variable
    2891                      .dwattr $C$DW$196, DW_AT_name("d")
    2892                      .dwattr $C$DW$196, DW_AT_type(*$C$DW$T$129)
    2893                      .dwattr $C$DW$196, DW_AT_location[DW_OP_reg12]
    2894              
TMS320C2000 Assembler PC v20.2.1 Mon Nov  2 17:14:28 2020

Copyright (c) 1996-2018 Texas Instruments Incorporated
bts_main.asm                                                         PAGE   57

    2895                      .dwcfi  cfa_offset, -2
    2896                      .dwcfi  save_reg_to_mem, 26, 0
    2897 00000000 FE04          ADDB      SP,#4                 ; [CPU_ARAU] 
    2898                      .dwcfi  cfa_offset, -6
    2899                      .dwpsn  file "C:/ti/ccs1010/ccs/tools/compiler/ti-cgt-c2000_20.2.1.LTS/include/_defs.h",line 376,colu
    2900 00000001 06D4          MOVL      ACC,*+XAR4[2]         ; [CPU_ALU] |376| 
    2901 00000002 C5C4          MOVL      XAR7,*+XAR4[0]        ; [CPU_ALU] |376| 
    2902 00000003 28AC          MOV       T,#48                 ; [CPU_ALU] |376| 
         00000004 0030 
    2903 00000005 8F40          MOVL      XAR5,#32752           ; [CPU_ARAU] |376| 
         00000006 7FF0 
    2904 00000007 1EA6          MOVL      XAR6,ACC              ; [CPU_ALU] |376| 
    2905 00000008 A3A7          MOVL      P,XAR7                ; [CPU_ALU] |376| 
    2906 00000009 D400          MOVB      XAR4,#0               ; [CPU_ALU] |376| 
    2907 0000000a 565B          LSR64     ACC:P,T               ; [CPU_ALU] |376| 
    2908 0000000b 2BAA          MOV       PH,#0                 ; [CPU_ALU] |376| 
    2909 0000000c 18AB          AND       PL,#0x7ff0            ; [CPU_ALU] |376| 
         0000000d 7FF0 
    2910 0000000e A0A9          MOVL      ACC,XAR5              ; [CPU_ALU] |376| 
    2911 0000000f 0FAB          CMPL      ACC,P                 ; [CPU_ALU] |376| 
    2912 00000010 6013          B         ||$C$L13||,NEQ        ; [CPU_ALU] |376| 
    2913                      ; branchcc occurs ; [] |376| 
    2914 00000011 06A6          MOVL      ACC,XAR6              ; [CPU_ALU] |376| 
    2915 00000012 A3A7          MOVL      P,XAR7                ; [CPU_ALU] |376| 
    2916 00000013 BE00          MOVB      XAR6,#0               ; [CPU_ALU] |376| 
    2917 00000014 18A9          AND       AL,#65535             ; [CPU_ALU] |376| 
         00000015 FFFF 
    2918 00000016 910F          ANDB      AH,#15                ; [CPU_ALU] |376| 
    2919 00000017 18AB          AND       PL,#65535             ; [CPU_ALU] |376| 
         00000018 FFFF 
    2920 00000019 18AA          AND       PH,#65535             ; [CPU_ALU] |376| 
         0000001a FFFF 
    2921 0000001b C244          MOVL      *-SP[4],XAR6          ; [CPU_FPU] |376| 
    2922 0000001c 2B42          MOV       *-SP[2],#0            ; [CPU_FPU] |376| 
    2923 0000001d 2B41          MOV       *-SP[1],#0            ; [CPU_FPU] |376| 
    2924              $C$DW$197       .dwtag  DW_TAG_TI_branch
    2925                      .dwattr $C$DW$197, DW_AT_low_pc(0x00)
    2926                      .dwattr $C$DW$197, DW_AT_name("__c28xabi_cmpull")
    2927                      .dwattr $C$DW$197, DW_AT_TI_call
    2928              
    2929 0000001e 7640!         LCR       #||__c28xabi_cmpull|| ; [CPU_ALU] |376| 
         0000001f 0000 
    2930                      ; call occurs [#||__c28xabi_cmpull||] ; [] |376| 
    2931 00000020 5200          CMPB      AL,#0                 ; [CPU_ALU] |376| 
    2932 00000021 56B1          MOVB      XAR4,#1,EQ            ; [CPU_ALU] |376| 
         00000022 01A4 
    2933 00000023       ||$C$L13||:    
    2934 00000023 FE84          SUBB      SP,#4                 ; [CPU_ARAU] 
    2935                      .dwcfi  cfa_offset, -2
    2936 00000024 92A4          MOV       AL,AR4                ; [CPU_ALU] |376| 
    2937              $C$DW$198       .dwtag  DW_TAG_TI_branch
    2938                      .dwattr $C$DW$198, DW_AT_low_pc(0x00)
    2939                      .dwattr $C$DW$198, DW_AT_TI_return
    2940              
    2941 00000025 0006          LRETR     ; [CPU_ALU] 
TMS320C2000 Assembler PC v20.2.1 Mon Nov  2 17:14:28 2020

Copyright (c) 1996-2018 Texas Instruments Incorporated
bts_main.asm                                                         PAGE   58

    2942                      ; return occurs ; [] 
    2943                      .dwattr $C$DW$194, DW_AT_TI_end_file("C:/ti/ccs1010/ccs/tools/compiler/ti-cgt-c2000_20.2.1.LTS/includ
    2944                      .dwattr $C$DW$194, DW_AT_TI_end_line(0x178)
    2945                      .dwattr $C$DW$194, DW_AT_TI_end_column(0x4a)
    2946                      .dwendentry
    2947                      .dwendtag $C$DW$194
    2948              
    2949 00000000               .sect   ".text:__isfinitel"
    2950                      .clink
    2951                      .global ||__isfinitel||
    2952              
    2953              $C$DW$199       .dwtag  DW_TAG_subprogram
    2954                      .dwattr $C$DW$199, DW_AT_name("__isfinitel")
    2955                      .dwattr $C$DW$199, DW_AT_low_pc(||__isfinitel||)
    2956                      .dwattr $C$DW$199, DW_AT_high_pc(0x00)
    2957                      .dwattr $C$DW$199, DW_AT_linkage_name("__isfinitel")
    2958                      .dwattr $C$DW$199, DW_AT_external
    2959                      .dwattr $C$DW$199, DW_AT_type(*$C$DW$T$10)
    2960                      .dwattr $C$DW$199, DW_AT_decl_file("C:/ti/ccs1010/ccs/tools/compiler/ti-cgt-c2000_20.2.1.LTS/include/
    2961                      .dwattr $C$DW$199, DW_AT_decl_line(0x151)
    2962                      .dwattr $C$DW$199, DW_AT_decl_column(0x25)
    2963                      .dwattr $C$DW$199, DW_AT_TI_max_frame_size(-2)
    2964                      .dwpsn  file "C:/ti/ccs1010/ccs/tools/compiler/ti-cgt-c2000_20.2.1.LTS/include/_defs.h",line 338,colu
    2965              
    2966                      .dwfde $C$DW$CIE, ||__isfinitel||
    2967              $C$DW$200       .dwtag  DW_TAG_formal_parameter
    2968                      .dwattr $C$DW$200, DW_AT_name("e")
    2969                      .dwattr $C$DW$200, DW_AT_type(*$C$DW$T$131)
    2970                      .dwattr $C$DW$200, DW_AT_location[DW_OP_reg12]
    2971              
    2972              
    2973              ;***************************************************************
    2974              ;* FNAME: __isfinitel                   FR SIZE:   0           *
    2975              ;*                                                             *
    2976              ;* FUNCTION ENVIRONMENT                                        *
    2977              ;*                                                             *
    2978              ;* FUNCTION PROPERTIES                                         *
    2979              ;*                            0 Parameter,  0 Auto,  0 SOE     *
    2980              ;***************************************************************
    2981              
    2982              ||__isfinitel||:
    2983              ;* AR4   assigned to e
    2984              $C$DW$201       .dwtag  DW_TAG_variable
    2985                      .dwattr $C$DW$201, DW_AT_name("e")
    2986                      .dwattr $C$DW$201, DW_AT_type(*$C$DW$T$132)
    2987                      .dwattr $C$DW$201, DW_AT_location[DW_OP_reg12]
    2988              
    2989                      .dwcfi  cfa_offset, -2
    2990                      .dwcfi  save_reg_to_mem, 26, 0
    2991                      .dwpsn  file "C:/ti/ccs1010/ccs/tools/compiler/ti-cgt-c2000_20.2.1.LTS/include/_defs.h",line 338,colu
    2992 00000000 A3C4          MOVL      P,*+XAR4[0]           ; [CPU_ALU] |338| 
    2993 00000001 06D4          MOVL      ACC,*+XAR4[2]         ; [CPU_ALU] |338| 
    2994 00000002 28AC          MOV       T,#48                 ; [CPU_ALU] |338| 
         00000003 0030 
    2995 00000004 565B          LSR64     ACC:P,T               ; [CPU_ALU] |338| 
TMS320C2000 Assembler PC v20.2.1 Mon Nov  2 17:14:28 2020

Copyright (c) 1996-2018 Texas Instruments Incorporated
bts_main.asm                                                         PAGE   59

    2996 00000005 18AB          AND       PL,#0x7ff0            ; [CPU_ALU] |338| 
         00000006 7FF0 
    2997 00000007 80AB          MOVZ      AR7,PL                ; [CPU_ALU] |338| 
    2998 00000008 8F00          MOVL      XAR4,#32752           ; [CPU_ARAU] |338| 
         00000009 7FF0 
    2999 0000000a BE00          MOVB      XAR6,#0               ; [CPU_ALU] |338| 
    3000 0000000b A8A9          MOVL      ACC,XAR4              ; [CPU_ALU] |338| 
    3001 0000000c 0FA7          CMPL      ACC,XAR7              ; [CPU_ALU] |338| 
    3002 0000000d 56B0          MOVB      XAR6,#1,NEQ           ; [CPU_ALU] |338| 
         0000000e 01A6 
    3003 0000000f 92A6          MOV       AL,AR6                ; [CPU_ALU] |338| 
    3004              $C$DW$202       .dwtag  DW_TAG_TI_branch
    3005                      .dwattr $C$DW$202, DW_AT_low_pc(0x00)
    3006                      .dwattr $C$DW$202, DW_AT_TI_return
    3007              
    3008 00000010 0006          LRETR     ; [CPU_ALU] 
    3009                      ; return occurs ; [] 
    3010                      .dwattr $C$DW$199, DW_AT_TI_end_file("C:/ti/ccs1010/ccs/tools/compiler/ti-cgt-c2000_20.2.1.LTS/includ
    3011                      .dwattr $C$DW$199, DW_AT_TI_end_line(0x152)
    3012                      .dwattr $C$DW$199, DW_AT_TI_end_column(0x2f)
    3013                      .dwendentry
    3014                      .dwendtag $C$DW$199
    3015              
    3016 00000000               .sect   ".text:__isfinitef"
    3017                      .clink
    3018                      .global ||__isfinitef||
    3019              
    3020              $C$DW$203       .dwtag  DW_TAG_subprogram
    3021                      .dwattr $C$DW$203, DW_AT_name("__isfinitef")
    3022                      .dwattr $C$DW$203, DW_AT_low_pc(||__isfinitef||)
    3023                      .dwattr $C$DW$203, DW_AT_high_pc(0x00)
    3024                      .dwattr $C$DW$203, DW_AT_linkage_name("__isfinitef")
    3025                      .dwattr $C$DW$203, DW_AT_external
    3026                      .dwattr $C$DW$203, DW_AT_type(*$C$DW$T$10)
    3027                      .dwattr $C$DW$203, DW_AT_decl_file("C:/ti/ccs1010/ccs/tools/compiler/ti-cgt-c2000_20.2.1.LTS/include/
    3028                      .dwattr $C$DW$203, DW_AT_decl_line(0x14f)
    3029                      .dwattr $C$DW$203, DW_AT_decl_column(0x25)
    3030                      .dwattr $C$DW$203, DW_AT_TI_max_frame_size(-2)
    3031                      .dwpsn  file "C:/ti/ccs1010/ccs/tools/compiler/ti-cgt-c2000_20.2.1.LTS/include/_defs.h",line 336,colu
    3032              
    3033                      .dwfde $C$DW$CIE, ||__isfinitef||
    3034              $C$DW$204       .dwtag  DW_TAG_formal_parameter
    3035                      .dwattr $C$DW$204, DW_AT_name("f")
    3036                      .dwattr $C$DW$204, DW_AT_type(*$C$DW$T$16)
    3037                      .dwattr $C$DW$204, DW_AT_location[DW_OP_regx 0x2b]
    3038              
    3039              
    3040              ;***************************************************************
    3041              ;* FNAME: __isfinitef                   FR SIZE:   0           *
    3042              ;*                                                             *
    3043              ;* FUNCTION ENVIRONMENT                                        *
    3044              ;*                                                             *
    3045              ;* FUNCTION PROPERTIES                                         *
    3046              ;*                            0 Parameter,  0 Auto,  0 SOE     *
    3047              ;***************************************************************
TMS320C2000 Assembler PC v20.2.1 Mon Nov  2 17:14:28 2020

Copyright (c) 1996-2018 Texas Instruments Incorporated
bts_main.asm                                                         PAGE   60

    3048              
    3049              ||__isfinitef||:
    3050              ;* R0    assigned to f
    3051              $C$DW$205       .dwtag  DW_TAG_variable
    3052                      .dwattr $C$DW$205, DW_AT_name("f")
    3053                      .dwattr $C$DW$205, DW_AT_type(*$C$DW$T$125)
    3054                      .dwattr $C$DW$205, DW_AT_location[DW_OP_regx 0x2b]
    3055              
    3056                      .dwcfi  cfa_offset, -2
    3057                      .dwcfi  save_reg_to_mem, 26, 0
    3058                      .dwpsn  file "C:/ti/ccs1010/ccs/tools/compiler/ti-cgt-c2000_20.2.1.LTS/include/_defs.h",line 336,colu
    3059 00000000 BFA9          MOV32     ACC,R0H               ; [CPU_FPU] |336| 
         00000001 0F12 
    3060 00000002 18A8          AND       AH,#0x7f80            ; [CPU_ALU] |336| 
         00000003 7F80 
    3061 00000004 80A8          MOVZ      AR7,AH                ; [CPU_ALU] |336| 
    3062 00000005 8F00          MOVL      XAR4,#32640           ; [CPU_ARAU] |336| 
         00000006 7F80 
    3063 00000007 BE00          MOVB      XAR6,#0               ; [CPU_ALU] |336| 
    3064 00000008 A8A9          MOVL      ACC,XAR4              ; [CPU_ALU] |336| 
    3065 00000009 0FA7          CMPL      ACC,XAR7              ; [CPU_ALU] |336| 
    3066 0000000a 56B0          MOVB      XAR6,#1,NEQ           ; [CPU_ALU] |336| 
         0000000b 01A6 
    3067 0000000c 92A6          MOV       AL,AR6                ; [CPU_ALU] |336| 
    3068              $C$DW$206       .dwtag  DW_TAG_TI_branch
    3069                      .dwattr $C$DW$206, DW_AT_low_pc(0x00)
    3070                      .dwattr $C$DW$206, DW_AT_TI_return
    3071              
    3072 0000000d 0006          LRETR     ; [CPU_ALU] 
    3073                      ; return occurs ; [] 
    3074                      .dwattr $C$DW$203, DW_AT_TI_end_file("C:/ti/ccs1010/ccs/tools/compiler/ti-cgt-c2000_20.2.1.LTS/includ
    3075                      .dwattr $C$DW$203, DW_AT_TI_end_line(0x150)
    3076                      .dwattr $C$DW$203, DW_AT_TI_end_column(0x2d)
    3077                      .dwendentry
    3078                      .dwendtag $C$DW$203
    3079              
    3080 00000000               .sect   ".text:__isfinite"
    3081                      .clink
    3082                      .global ||__isfinite||
    3083              
    3084              $C$DW$207       .dwtag  DW_TAG_subprogram
    3085                      .dwattr $C$DW$207, DW_AT_name("__isfinite")
    3086                      .dwattr $C$DW$207, DW_AT_low_pc(||__isfinite||)
    3087                      .dwattr $C$DW$207, DW_AT_high_pc(0x00)
    3088                      .dwattr $C$DW$207, DW_AT_linkage_name("__isfinite")
    3089                      .dwattr $C$DW$207, DW_AT_external
    3090                      .dwattr $C$DW$207, DW_AT_type(*$C$DW$T$10)
    3091                      .dwattr $C$DW$207, DW_AT_decl_file("C:/ti/ccs1010/ccs/tools/compiler/ti-cgt-c2000_20.2.1.LTS/include/
    3092                      .dwattr $C$DW$207, DW_AT_decl_line(0x14d)
    3093                      .dwattr $C$DW$207, DW_AT_decl_column(0x25)
    3094                      .dwattr $C$DW$207, DW_AT_TI_max_frame_size(-2)
    3095                      .dwpsn  file "C:/ti/ccs1010/ccs/tools/compiler/ti-cgt-c2000_20.2.1.LTS/include/_defs.h",line 334,colu
    3096              
    3097                      .dwfde $C$DW$CIE, ||__isfinite||
    3098              $C$DW$208       .dwtag  DW_TAG_formal_parameter
TMS320C2000 Assembler PC v20.2.1 Mon Nov  2 17:14:28 2020

Copyright (c) 1996-2018 Texas Instruments Incorporated
bts_main.asm                                                         PAGE   61

    3099                      .dwattr $C$DW$208, DW_AT_name("d")
    3100                      .dwattr $C$DW$208, DW_AT_type(*$C$DW$T$128)
    3101                      .dwattr $C$DW$208, DW_AT_location[DW_OP_reg12]
    3102              
    3103              
    3104              ;***************************************************************
    3105              ;* FNAME: __isfinite                    FR SIZE:   0           *
    3106              ;*                                                             *
    3107              ;* FUNCTION ENVIRONMENT                                        *
    3108              ;*                                                             *
    3109              ;* FUNCTION PROPERTIES                                         *
    3110              ;*                            0 Parameter,  0 Auto,  0 SOE     *
    3111              ;***************************************************************
    3112              
    3113              ||__isfinite||:
    3114              ;* AR4   assigned to d
    3115              $C$DW$209       .dwtag  DW_TAG_variable
    3116                      .dwattr $C$DW$209, DW_AT_name("d")
    3117                      .dwattr $C$DW$209, DW_AT_type(*$C$DW$T$129)
    3118                      .dwattr $C$DW$209, DW_AT_location[DW_OP_reg12]
    3119              
    3120                      .dwcfi  cfa_offset, -2
    3121                      .dwcfi  save_reg_to_mem, 26, 0
    3122                      .dwpsn  file "C:/ti/ccs1010/ccs/tools/compiler/ti-cgt-c2000_20.2.1.LTS/include/_defs.h",line 334,colu
    3123 00000000 A3C4          MOVL      P,*+XAR4[0]           ; [CPU_ALU] |334| 
    3124 00000001 06D4          MOVL      ACC,*+XAR4[2]         ; [CPU_ALU] |334| 
    3125 00000002 28AC          MOV       T,#48                 ; [CPU_ALU] |334| 
         00000003 0030 
    3126 00000004 565B          LSR64     ACC:P,T               ; [CPU_ALU] |334| 
    3127 00000005 18AB          AND       PL,#0x7ff0            ; [CPU_ALU] |334| 
         00000006 7FF0 
    3128 00000007 80AB          MOVZ      AR7,PL                ; [CPU_ALU] |334| 
    3129 00000008 8F00          MOVL      XAR4,#32752           ; [CPU_ARAU] |334| 
         00000009 7FF0 
    3130 0000000a BE00          MOVB      XAR6,#0               ; [CPU_ALU] |334| 
    3131 0000000b A8A9          MOVL      ACC,XAR4              ; [CPU_ALU] |334| 
    3132 0000000c 0FA7          CMPL      ACC,XAR7              ; [CPU_ALU] |334| 
    3133 0000000d 56B0          MOVB      XAR6,#1,NEQ           ; [CPU_ALU] |334| 
         0000000e 01A6 
    3134 0000000f 92A6          MOV       AL,AR6                ; [CPU_ALU] |334| 
    3135              $C$DW$210       .dwtag  DW_TAG_TI_branch
    3136                      .dwattr $C$DW$210, DW_AT_low_pc(0x00)
    3137                      .dwattr $C$DW$210, DW_AT_TI_return
    3138              
    3139 00000010 0006          LRETR     ; [CPU_ALU] 
    3140                      ; return occurs ; [] 
    3141                      .dwattr $C$DW$207, DW_AT_TI_end_file("C:/ti/ccs1010/ccs/tools/compiler/ti-cgt-c2000_20.2.1.LTS/includ
    3142                      .dwattr $C$DW$207, DW_AT_TI_end_line(0x14e)
    3143                      .dwattr $C$DW$207, DW_AT_TI_end_column(0x2e)
    3144                      .dwendentry
    3145                      .dwendtag $C$DW$207
    3146              
    3147 00000000               .sect   ".text:__fpclassifyl"
    3148                      .clink
    3149                      .global ||__fpclassifyl||
TMS320C2000 Assembler PC v20.2.1 Mon Nov  2 17:14:28 2020

Copyright (c) 1996-2018 Texas Instruments Incorporated
bts_main.asm                                                         PAGE   62

    3150              
    3151              $C$DW$211       .dwtag  DW_TAG_subprogram
    3152                      .dwattr $C$DW$211, DW_AT_name("__fpclassifyl")
    3153                      .dwattr $C$DW$211, DW_AT_low_pc(||__fpclassifyl||)
    3154                      .dwattr $C$DW$211, DW_AT_high_pc(0x00)
    3155                      .dwattr $C$DW$211, DW_AT_linkage_name("__fpclassifyl")
    3156                      .dwattr $C$DW$211, DW_AT_external
    3157                      .dwattr $C$DW$211, DW_AT_type(*$C$DW$T$10)
    3158                      .dwattr $C$DW$211, DW_AT_decl_file("C:/ti/ccs1010/ccs/tools/compiler/ti-cgt-c2000_20.2.1.LTS/include/
    3159                      .dwattr $C$DW$211, DW_AT_decl_line(0x1ad)
    3160                      .dwattr $C$DW$211, DW_AT_decl_column(0x25)
    3161                      .dwattr $C$DW$211, DW_AT_TI_max_frame_size(-10)
    3162                      .dwpsn  file "C:/ti/ccs1010/ccs/tools/compiler/ti-cgt-c2000_20.2.1.LTS/include/_defs.h",line 430,colu
    3163              
    3164                      .dwfde $C$DW$CIE, ||__fpclassifyl||
    3165              $C$DW$212       .dwtag  DW_TAG_formal_parameter
    3166                      .dwattr $C$DW$212, DW_AT_name("e")
    3167                      .dwattr $C$DW$212, DW_AT_type(*$C$DW$T$131)
    3168                      .dwattr $C$DW$212, DW_AT_location[DW_OP_reg12]
    3169              
    3170              
    3171              ;***************************************************************
    3172              ;* FNAME: __fpclassifyl                 FR SIZE:   8           *
    3173              ;*                                                             *
    3174              ;* FUNCTION ENVIRONMENT                                        *
    3175              ;*                                                             *
    3176              ;* FUNCTION PROPERTIES                                         *
    3177              ;*                            4 Parameter,  4 Auto,  0 SOE     *
    3178              ;***************************************************************
    3179              
    3180              ||__fpclassifyl||:
    3181              $C$DW$213       .dwtag  DW_TAG_variable
    3182                      .dwattr $C$DW$213, DW_AT_name("e")
    3183                      .dwattr $C$DW$213, DW_AT_type(*$C$DW$T$18)
    3184                      .dwattr $C$DW$213, DW_AT_location[DW_OP_breg20 -8]
    3185              
    3186              ;* AR5   assigned to $O$C1
    3187              ;* AR4   assigned to e
    3188              $C$DW$214       .dwtag  DW_TAG_variable
    3189                      .dwattr $C$DW$214, DW_AT_name("e")
    3190                      .dwattr $C$DW$214, DW_AT_type(*$C$DW$T$132)
    3191                      .dwattr $C$DW$214, DW_AT_location[DW_OP_reg12]
    3192              
    3193                      .dwcfi  cfa_offset, -2
    3194                      .dwcfi  save_reg_to_mem, 26, 0
    3195 00000000 FE08          ADDB      SP,#8                 ; [CPU_ARAU] 
    3196                      .dwcfi  cfa_offset, -10
    3197 00000001 C4D4          MOVL      XAR6,*+XAR4[2]        ; [CPU_ALU] |430| 
    3198 00000002 06C4          MOVL      ACC,*+XAR4[0]         ; [CPU_ALU] |430| 
    3199 00000003 1E48          MOVL      *-SP[8],ACC           ; [CPU_ALU] |430| 
    3200 00000004 C246          MOVL      *-SP[6],XAR6          ; [CPU_ALU] |430| 
    3201                      .dwpsn  file "C:/ti/ccs1010/ccs/tools/compiler/ti-cgt-c2000_20.2.1.LTS/include/_defs.h",line 431,colu
    3202 00000005 8348          MOVL      XAR5,*-SP[8]          ; [CPU_ALU] |431| 
    3203 00000006 8A46          MOVL      XAR4,*-SP[6]          ; [CPU_ALU] |431| 
    3204                      .dwpsn  file "C:/ti/ccs1010/ccs/tools/compiler/ti-cgt-c2000_20.2.1.LTS/include/_defs.h",line 435,colu
TMS320C2000 Assembler PC v20.2.1 Mon Nov  2 17:14:28 2020

Copyright (c) 1996-2018 Texas Instruments Incorporated
bts_main.asm                                                         PAGE   63

    3205 00000007 28AC          MOV       T,#48                 ; [CPU_ALU] |435| 
         00000008 0030 
    3206 00000009 A0AB          MOVL      P,XAR5                ; [CPU_ALU] |435| 
    3207 0000000a A8A9          MOVL      ACC,XAR4              ; [CPU_ALU] |435| 
    3208 0000000b 565B          LSR64     ACC:P,T               ; [CPU_ALU] |435| 
    3209 0000000c 18AB          AND       PL,#0x7ff0            ; [CPU_ALU] |435| 
         0000000d 7FF0 
    3210 0000000e 80AB          MOVZ      AR7,PL                ; [CPU_ALU] |435| 
    3211 0000000f 7680          MOVL      XAR6,#32752           ; [CPU_ARAU] |435| 
         00000010 7FF0 
    3212 00000011 06A6          MOVL      ACC,XAR6              ; [CPU_ALU] |435| 
    3213 00000012 0FA7          CMPL      ACC,XAR7              ; [CPU_ALU] |435| 
    3214 00000013 6016          B         ||$C$L15||,NEQ        ; [CPU_ALU] |435| 
    3215                      ; branchcc occurs ; [] |435| 
    3216 00000014 0200          MOVB      ACC,#0                ; [CPU_ALU] |435| 
    3217 00000015 1E44          MOVL      *-SP[4],ACC           ; [CPU_ALU] |435| 
    3218 00000016 2B42          MOV       *-SP[2],#0            ; [CPU_ALU] |435| 
    3219 00000017 2B41          MOV       *-SP[1],#0            ; [CPU_ALU] |435| 
    3220 00000018 A348          MOVL      P,*-SP[8]             ; [CPU_ALU] |435| 
    3221 00000019 0646          MOVL      ACC,*-SP[6]           ; [CPU_ALU] |435| 
    3222 0000001a 18AB          AND       PL,#65535             ; [CPU_ALU] |435| 
         0000001b FFFF 
    3223 0000001c 18AA          AND       PH,#65535             ; [CPU_ALU] |435| 
         0000001d FFFF 
    3224 0000001e 18A9          AND       AL,#65535             ; [CPU_ALU] |435| 
         0000001f FFFF 
    3225 00000020 910F          ANDB      AH,#15                ; [CPU_ALU] |435| 
    3226              $C$DW$215       .dwtag  DW_TAG_TI_branch
    3227                      .dwattr $C$DW$215, DW_AT_low_pc(0x00)
    3228                      .dwattr $C$DW$215, DW_AT_name("__c28xabi_cmpull")
    3229                      .dwattr $C$DW$215, DW_AT_TI_call
    3230              
    3231 00000021 7640!         LCR       #||__c28xabi_cmpull|| ; [CPU_ALU] |435| 
         00000022 0000 
    3232                      ; call occurs [#||__c28xabi_cmpull||] ; [] |435| 
    3233 00000023 5200          CMPB      AL,#0                 ; [CPU_ALU] |435| 
    3234 00000024 6103          B         ||$C$L14||,EQ         ; [CPU_ALU] |435| 
    3235                      ; branchcc occurs ; [] |435| 
    3236 00000025 9A02          MOVB      AL,#2                 ; [CPU_ALU] |435| 
    3237 00000026 6F2D          B         ||$C$L18||,UNC        ; [CPU_ALU] |435| 
    3238                      ; branch occurs ; [] |435| 
    3239 00000027       ||$C$L14||:    
    3240 00000027 9A01          MOVB      AL,#1                 ; [CPU_ALU] |435| 
    3241 00000028 6F2B          B         ||$C$L18||,UNC        ; [CPU_ALU] |435| 
    3242                      ; branch occurs ; [] |435| 
    3243 00000029       ||$C$L15||:    
    3244 00000029 BE00          MOVB      XAR6,#0               ; [CPU_ALU] |435| 
    3245 0000002a A0AB          MOVL      P,XAR5                ; [CPU_ALU] |435| 
    3246 0000002b A8A9          MOVL      ACC,XAR4              ; [CPU_ALU] |435| 
    3247 0000002c 28AC          MOV       T,#52                 ; [CPU_ALU] |435| 
         0000002d 0034 
    3248 0000002e C244          MOVL      *-SP[4],XAR6          ; [CPU_ALU] |435| 
    3249 0000002f 2B42          MOV       *-SP[2],#0            ; [CPU_ALU] |435| 
    3250 00000030 565B          LSR64     ACC:P,T               ; [CPU_ALU] |435| 
    3251 00000031 2B41          MOV       *-SP[1],#0            ; [CPU_FPU] |435| 
TMS320C2000 Assembler PC v20.2.1 Mon Nov  2 17:14:28 2020

Copyright (c) 1996-2018 Texas Instruments Incorporated
bts_main.asm                                                         PAGE   64

    3252 00000032 9000          ANDB      AL,#0                 ; [CPU_ALU] |435| 
    3253 00000033 9100          ANDB      AH,#0                 ; [CPU_ALU] |435| 
    3254 00000034 18AB          AND       PL,#2047              ; [CPU_ALU] |435| 
         00000035 07FF 
    3255 00000036 18AA          AND       PH,#0                 ; [CPU_ALU] |435| 
         00000037 0000 
    3256              $C$DW$216       .dwtag  DW_TAG_TI_branch
    3257                      .dwattr $C$DW$216, DW_AT_low_pc(0x00)
    3258                      .dwattr $C$DW$216, DW_AT_name("__c28xabi_cmpull")
    3259                      .dwattr $C$DW$216, DW_AT_TI_call
    3260              
    3261 00000038 7640!         LCR       #||__c28xabi_cmpull|| ; [CPU_ALU] |435| 
         00000039 0000 
    3262                      ; call occurs [#||__c28xabi_cmpull||] ; [] |435| 
    3263 0000003a 5200          CMPB      AL,#0                 ; [CPU_ALU] |435| 
    3264 0000003b 6104          B         ||$C$L16||,EQ         ; [CPU_ALU] |435| 
    3265                      ; branchcc occurs ; [] |435| 
    3266 0000003c 28A9          MOV       AL,#-1                ; [CPU_ALU] |435| 
         0000003d FFFF 
    3267 0000003e 6F15          B         ||$C$L18||,UNC        ; [CPU_ALU] |435| 
    3268                      ; branch occurs ; [] |435| 
    3269 0000003f       ||$C$L16||:    
    3270 0000003f C244          MOVL      *-SP[4],XAR6          ; [CPU_ALU] |435| 
    3271 00000040 A8A9          MOVL      ACC,XAR4              ; [CPU_ALU] |435| 
    3272 00000041 A0AB          MOVL      P,XAR5                ; [CPU_ALU] |435| 
    3273 00000042 2B42          MOV       *-SP[2],#0            ; [CPU_ALU] |435| 
    3274 00000043 18A9          AND       AL,#65535             ; [CPU_ALU] |435| 
         00000044 FFFF 
    3275 00000045 910F          ANDB      AH,#15                ; [CPU_ALU] |435| 
    3276 00000046 18AB          AND       PL,#65535             ; [CPU_ALU] |435| 
         00000047 FFFF 
    3277 00000048 18AA          AND       PH,#65535             ; [CPU_ALU] |435| 
         00000049 FFFF 
    3278 0000004a 2B41          MOV       *-SP[1],#0            ; [CPU_FPU] |435| 
    3279              $C$DW$217       .dwtag  DW_TAG_TI_branch
    3280                      .dwattr $C$DW$217, DW_AT_low_pc(0x00)
    3281                      .dwattr $C$DW$217, DW_AT_name("__c28xabi_cmpull")
    3282                      .dwattr $C$DW$217, DW_AT_TI_call
    3283              
    3284 0000004b 7640!         LCR       #||__c28xabi_cmpull|| ; [CPU_ALU] |435| 
         0000004c 0000 
    3285                      ; call occurs [#||__c28xabi_cmpull||] ; [] |435| 
    3286 0000004d 5200          CMPB      AL,#0                 ; [CPU_ALU] |435| 
    3287 0000004e 6104          B         ||$C$L17||,EQ         ; [CPU_ALU] |435| 
    3288                      ; branchcc occurs ; [] |435| 
    3289 0000004f 28A9          MOV       AL,#-2                ; [CPU_ALU] |435| 
         00000050 FFFE 
    3290 00000051 6F02          B         ||$C$L18||,UNC        ; [CPU_ALU] |435| 
    3291                      ; branch occurs ; [] |435| 
    3292 00000052       ||$C$L17||:    
    3293 00000052 9A00          MOVB      AL,#0                 ; [CPU_ALU] |435| 
    3294 00000053       ||$C$L18||:    
    3295 00000053 FE88          SUBB      SP,#8                 ; [CPU_ARAU] 
    3296                      .dwcfi  cfa_offset, -2
    3297              $C$DW$218       .dwtag  DW_TAG_TI_branch
TMS320C2000 Assembler PC v20.2.1 Mon Nov  2 17:14:28 2020

Copyright (c) 1996-2018 Texas Instruments Incorporated
bts_main.asm                                                         PAGE   65

    3298                      .dwattr $C$DW$218, DW_AT_low_pc(0x00)
    3299                      .dwattr $C$DW$218, DW_AT_TI_return
    3300              
    3301 00000054 0006          LRETR     ; [CPU_ALU] 
    3302                      ; return occurs ; [] 
    3303                      .dwattr $C$DW$211, DW_AT_TI_end_file("C:/ti/ccs1010/ccs/tools/compiler/ti-cgt-c2000_20.2.1.LTS/includ
    3304                      .dwattr $C$DW$211, DW_AT_TI_end_line(0x1bc)
    3305                      .dwattr $C$DW$211, DW_AT_TI_end_column(0x01)
    3306                      .dwendentry
    3307                      .dwendtag $C$DW$211
    3308              
    3309 00000000               .sect   ".text:__fpclassifyf"
    3310                      .clink
    3311                      .global ||__fpclassifyf||
    3312              
    3313              $C$DW$219       .dwtag  DW_TAG_subprogram
    3314                      .dwattr $C$DW$219, DW_AT_name("__fpclassifyf")
    3315                      .dwattr $C$DW$219, DW_AT_low_pc(||__fpclassifyf||)
    3316                      .dwattr $C$DW$219, DW_AT_high_pc(0x00)
    3317                      .dwattr $C$DW$219, DW_AT_linkage_name("__fpclassifyf")
    3318                      .dwattr $C$DW$219, DW_AT_external
    3319                      .dwattr $C$DW$219, DW_AT_type(*$C$DW$T$10)
    3320                      .dwattr $C$DW$219, DW_AT_decl_file("C:/ti/ccs1010/ccs/tools/compiler/ti-cgt-c2000_20.2.1.LTS/include/
    3321                      .dwattr $C$DW$219, DW_AT_decl_line(0x18b)
    3322                      .dwattr $C$DW$219, DW_AT_decl_column(0x25)
    3323                      .dwattr $C$DW$219, DW_AT_TI_max_frame_size(-2)
    3324                      .dwpsn  file "C:/ti/ccs1010/ccs/tools/compiler/ti-cgt-c2000_20.2.1.LTS/include/_defs.h",line 396,colu
    3325              
    3326                      .dwfde $C$DW$CIE, ||__fpclassifyf||
    3327              $C$DW$220       .dwtag  DW_TAG_formal_parameter
    3328                      .dwattr $C$DW$220, DW_AT_name("f")
    3329                      .dwattr $C$DW$220, DW_AT_type(*$C$DW$T$16)
    3330                      .dwattr $C$DW$220, DW_AT_location[DW_OP_regx 0x2b]
    3331              
    3332              
    3333              ;***************************************************************
    3334              ;* FNAME: __fpclassifyf                 FR SIZE:   0           *
    3335              ;*                                                             *
    3336              ;* FUNCTION ENVIRONMENT                                        *
    3337              ;*                                                             *
    3338              ;* FUNCTION PROPERTIES                                         *
    3339              ;*                            0 Parameter,  0 Auto,  0 SOE     *
    3340              ;***************************************************************
    3341              
    3342              ||__fpclassifyf||:
    3343              ;* PL    assigned to $O$K1
    3344              ;* R0    assigned to f
    3345              $C$DW$221       .dwtag  DW_TAG_variable
    3346                      .dwattr $C$DW$221, DW_AT_name("f")
    3347                      .dwattr $C$DW$221, DW_AT_type(*$C$DW$T$125)
    3348                      .dwattr $C$DW$221, DW_AT_location[DW_OP_regx 0x2b]
    3349              
    3350                      .dwcfi  cfa_offset, -2
    3351                      .dwcfi  save_reg_to_mem, 26, 0
    3352                      .dwpsn  file "C:/ti/ccs1010/ccs/tools/compiler/ti-cgt-c2000_20.2.1.LTS/include/_defs.h",line 397,colu
TMS320C2000 Assembler PC v20.2.1 Mon Nov  2 17:14:28 2020

Copyright (c) 1996-2018 Texas Instruments Incorporated
bts_main.asm                                                         PAGE   66

    3353 00000000 BFAB          MOV32     P,R0H                 ; [CPU_FPU] |397| 
         00000001 0F12 
    3354                      .dwpsn  file "C:/ti/ccs1010/ccs/tools/compiler/ti-cgt-c2000_20.2.1.LTS/include/_defs.h",line 401,colu
    3355 00000002 CCAA          AND       AL,PH,#0x7f80         ; [CPU_ALU] |401| 
         00000003 7F80 
    3356 00000004 88A9          MOVZ      AR6,AL                ; [CPU_ALU] |401| 
    3357 00000005 8F00          MOVL      XAR4,#32640           ; [CPU_ARAU] |401| 
         00000006 7F80 
    3358 00000007 A8A9          MOVL      ACC,XAR4              ; [CPU_ALU] |401| 
    3359 00000008 0FA6          CMPL      ACC,XAR6              ; [CPU_ALU] |401| 
    3360 00000009 6009          B         ||$C$L20||,NEQ        ; [CPU_ALU] |401| 
    3361                      ; branchcc occurs ; [] |401| 
    3362 0000000a A9A9          MOVL      ACC,P                 ; [CPU_ALU] |401| 
    3363 0000000b 917F          ANDB      AH,#127               ; [CPU_ALU] |401| 
    3364 0000000c FF58          TEST      ACC                   ; [CPU_ALU] |401| 
