TMS320C2000 Assembler PC v20.2.4 Mon Jan 11 05:48:47 2021

Copyright (c) 1996-2018 Texas Instruments Incorporated
bts.asm                                                              PAGE    1

       1              ;***************************************************************
       2              ;* TMS320C2000 G3 C/C++ Codegen                               PC v20.2.4.LTS *
       3              ;* Date/Time created: Mon Jan 11 05:48:46 2021                 *
       4              ;***************************************************************
       5                      .compiler_opts --abi=eabi --cla_support=cla1 --diag_wrap=off --float_support=fpu32 --hll_source=on --
       6                      .asg    XAR2, FP
       7              
       8              $C$DW$CU        .dwtag  DW_TAG_compile_unit
       9                      .dwattr $C$DW$CU, DW_AT_name("../bts.c")
      10                      .dwattr $C$DW$CU, DW_AT_producer("TI TMS320C2000 G3 C/C++ Codegen PC v20.2.4.LTS Copyright (c) 1996-2
      11                      .dwattr $C$DW$CU, DW_AT_TI_version(0x01)
      12                      .dwattr $C$DW$CU, DW_AT_comp_dir("C:\sandbox\github\Lion-IRVT\Hardware\source\tida-010086\bts_F2837xD
      13                      .global ||BUCK_sfoStatus||
      14 00000000               .bss    ||BUCK_sfoStatus||,1,1,0
      15              $C$DW$1 .dwtag  DW_TAG_variable
      16                      .dwattr $C$DW$1, DW_AT_name("BUCK_sfoStatus")
      17                      .dwattr $C$DW$1, DW_AT_linkage_name("BUCK_sfoStatus")
      18                      .dwattr $C$DW$1, DW_AT_location[DW_OP_addr ||BUCK_sfoStatus||]
      19                      .dwattr $C$DW$1, DW_AT_type(*$C$DW$T$22)
      20                      .dwattr $C$DW$1, DW_AT_external
      21                      .dwattr $C$DW$1, DW_AT_decl_file("../bts.c")
      22                      .dwattr $C$DW$1, DW_AT_decl_line(0x53)
      23                      .dwattr $C$DW$1, DW_AT_decl_column(0x16)
      24              
      25                      .global ||BTS_sfoStatus||
      26 00000001               .bss    ||BTS_sfoStatus||,1,1,0
      27              $C$DW$2 .dwtag  DW_TAG_variable
      28                      .dwattr $C$DW$2, DW_AT_name("BTS_sfoStatus")
      29                      .dwattr $C$DW$2, DW_AT_linkage_name("BTS_sfoStatus")
      30                      .dwattr $C$DW$2, DW_AT_location[DW_OP_addr ||BTS_sfoStatus||]
      31                      .dwattr $C$DW$2, DW_AT_type(*$C$DW$T$22)
      32                      .dwattr $C$DW$2, DW_AT_external
      33                      .dwattr $C$DW$2, DW_AT_decl_file("../bts.c")
      34                      .dwattr $C$DW$2, DW_AT_decl_line(0x54)
      35                      .dwattr $C$DW$2, DW_AT_decl_column(0x16)
      36              
      37              
      38              $C$DW$3 .dwtag  DW_TAG_subprogram
      39                      .dwattr $C$DW$3, DW_AT_name("SFO")
      40                      .dwattr $C$DW$3, DW_AT_linkage_name("SFO")
      41                      .dwattr $C$DW$3, DW_AT_type(*$C$DW$T$10)
      42                      .dwattr $C$DW$3, DW_AT_declaration
      43                      .dwattr $C$DW$3, DW_AT_external
      44                      .dwattr $C$DW$3, DW_AT_decl_file("C:/sandbox/github/Lion-IRVT/Hardware/source/tida-010086/bts_F2837xD
      45                      .dwattr $C$DW$3, DW_AT_decl_line(0x40)
      46                      .dwattr $C$DW$3, DW_AT_decl_column(0x05)
      47                      .dwendtag $C$DW$3
      48              
      49                      .global ||MEP_ScaleFactor||
      50 00000002               .bss    ||MEP_ScaleFactor||,2,1,1
      51              $C$DW$4 .dwtag  DW_TAG_variable
      52                      .dwattr $C$DW$4, DW_AT_name("MEP_ScaleFactor")
      53                      .dwattr $C$DW$4, DW_AT_linkage_name("MEP_ScaleFactor")
      54                      .dwattr $C$DW$4, DW_AT_location[DW_OP_addr ||MEP_ScaleFactor||]
      55                      .dwattr $C$DW$4, DW_AT_type(*$C$DW$T$39)
TMS320C2000 Assembler PC v20.2.4 Mon Jan 11 05:48:47 2021

Copyright (c) 1996-2018 Texas Instruments Incorporated
bts.asm                                                              PAGE    2

      56                      .dwattr $C$DW$4, DW_AT_external
      57                      .dwattr $C$DW$4, DW_AT_decl_file("../bts.c")
      58                      .dwattr $C$DW$4, DW_AT_decl_line(0x52)
      59                      .dwattr $C$DW$4, DW_AT_decl_column(0x16)
      60              
      61                      .global ||BTS_ctrl_cc_ch1||
      62 00000000               .data
      63                      .align  2
      64                      .elfsym ||BTS_ctrl_cc_ch1||,SYM_SIZE(18),SYM_BLOCKED(1)
      65 00000000       ||BTS_ctrl_cc_ch1||:
      66 00000000 0000          .xfloat $strtod("0x1p+0")               ; BTS_ctrl_cc_ch1.b0 @ 0
         00000001 3F80 
      67 00000002 0000          .xfloat $strtod("0x0p+0")               ; BTS_ctrl_cc_ch1.b1 @ 32
         00000003 0000 
      68 00000004 0000          .xfloat $strtod("0x0p+0")               ; BTS_ctrl_cc_ch1.b2 @ 64
         00000005 0000 
      69 00000006 0000          .xfloat $strtod("0x0p+0")               ; BTS_ctrl_cc_ch1.a1 @ 96
         00000007 0000 
      70 00000008 0000          .xfloat $strtod("0x0p+0")               ; BTS_ctrl_cc_ch1.a2 @ 128
         00000009 0000 
      71 0000000a 0000          .xfloat $strtod("0x0p+0")               ; BTS_ctrl_cc_ch1.x1 @ 160
         0000000b 0000 
      72 0000000c 0000          .xfloat $strtod("0x0p+0")               ; BTS_ctrl_cc_ch1.x2 @ 192
         0000000d 0000 
      73 0000000e 0000          .bits           0,32
         0000000f 0000 
      74                                      ; BTS_ctrl_cc_ch1.sps @ 224
      75 00000010 0000          .bits           0,32
         00000011 0000 
      76                                      ; BTS_ctrl_cc_ch1.css @ 256
      77              
      78              $C$DW$5 .dwtag  DW_TAG_variable
      79                      .dwattr $C$DW$5, DW_AT_name("BTS_ctrl_cc_ch1")
      80                      .dwattr $C$DW$5, DW_AT_linkage_name("BTS_ctrl_cc_ch1")
      81                      .dwattr $C$DW$5, DW_AT_location[DW_OP_addr ||BTS_ctrl_cc_ch1||]
      82                      .dwattr $C$DW$5, DW_AT_type(*$C$DW$T$91)
      83                      .dwattr $C$DW$5, DW_AT_external
      84                      .dwattr $C$DW$5, DW_AT_decl_file("../bts.c")
      85                      .dwattr $C$DW$5, DW_AT_decl_line(0x33)
      86                      .dwattr $C$DW$5, DW_AT_decl_column(0x15)
      87              
      88                      .global ||BTS_ctrl_cc_ch2||
      89 00000012               .data
      90                      .align  2
      91                      .elfsym ||BTS_ctrl_cc_ch2||,SYM_SIZE(18),SYM_BLOCKED(1)
      92 00000012       ||BTS_ctrl_cc_ch2||:
      93 00000012 0000          .xfloat $strtod("0x1p+0")               ; BTS_ctrl_cc_ch2.b0 @ 0
         00000013 3F80 
      94 00000014 0000          .xfloat $strtod("0x0p+0")               ; BTS_ctrl_cc_ch2.b1 @ 32
         00000015 0000 
      95 00000016 0000          .xfloat $strtod("0x0p+0")               ; BTS_ctrl_cc_ch2.b2 @ 64
         00000017 0000 
      96 00000018 0000          .xfloat $strtod("0x0p+0")               ; BTS_ctrl_cc_ch2.a1 @ 96
         00000019 0000 
      97 0000001a 0000          .xfloat $strtod("0x0p+0")               ; BTS_ctrl_cc_ch2.a2 @ 128
TMS320C2000 Assembler PC v20.2.4 Mon Jan 11 05:48:47 2021

Copyright (c) 1996-2018 Texas Instruments Incorporated
bts.asm                                                              PAGE    3

         0000001b 0000 
      98 0000001c 0000          .xfloat $strtod("0x0p+0")               ; BTS_ctrl_cc_ch2.x1 @ 160
         0000001d 0000 
      99 0000001e 0000          .xfloat $strtod("0x0p+0")               ; BTS_ctrl_cc_ch2.x2 @ 192
         0000001f 0000 
     100 00000020 0000          .bits           0,32
         00000021 0000 
     101                                      ; BTS_ctrl_cc_ch2.sps @ 224
     102 00000022 0000          .bits           0,32
         00000023 0000 
     103                                      ; BTS_ctrl_cc_ch2.css @ 256
     104              
     105              $C$DW$6 .dwtag  DW_TAG_variable
     106                      .dwattr $C$DW$6, DW_AT_name("BTS_ctrl_cc_ch2")
     107                      .dwattr $C$DW$6, DW_AT_linkage_name("BTS_ctrl_cc_ch2")
     108                      .dwattr $C$DW$6, DW_AT_location[DW_OP_addr ||BTS_ctrl_cc_ch2||]
     109                      .dwattr $C$DW$6, DW_AT_type(*$C$DW$T$91)
     110                      .dwattr $C$DW$6, DW_AT_external
     111                      .dwattr $C$DW$6, DW_AT_decl_file("../bts.c")
     112                      .dwattr $C$DW$6, DW_AT_decl_line(0x34)
     113                      .dwattr $C$DW$6, DW_AT_decl_column(0x15)
     114              
     115                      .global ||BTS_ctrl_cc_ch3||
     116 00000024               .data
     117                      .align  2
     118                      .elfsym ||BTS_ctrl_cc_ch3||,SYM_SIZE(18),SYM_BLOCKED(1)
     119 00000024       ||BTS_ctrl_cc_ch3||:
     120 00000024 0000          .xfloat $strtod("0x1p+0")               ; BTS_ctrl_cc_ch3.b0 @ 0
         00000025 3F80 
     121 00000026 0000          .xfloat $strtod("0x0p+0")               ; BTS_ctrl_cc_ch3.b1 @ 32
         00000027 0000 
     122 00000028 0000          .xfloat $strtod("0x0p+0")               ; BTS_ctrl_cc_ch3.b2 @ 64
         00000029 0000 
     123 0000002a 0000          .xfloat $strtod("0x0p+0")               ; BTS_ctrl_cc_ch3.a1 @ 96
         0000002b 0000 
     124 0000002c 0000          .xfloat $strtod("0x0p+0")               ; BTS_ctrl_cc_ch3.a2 @ 128
         0000002d 0000 
     125 0000002e 0000          .xfloat $strtod("0x0p+0")               ; BTS_ctrl_cc_ch3.x1 @ 160
         0000002f 0000 
     126 00000030 0000          .xfloat $strtod("0x0p+0")               ; BTS_ctrl_cc_ch3.x2 @ 192
         00000031 0000 
     127 00000032 0000          .bits           0,32
         00000033 0000 
     128                                      ; BTS_ctrl_cc_ch3.sps @ 224
     129 00000034 0000          .bits           0,32
         00000035 0000 
     130                                      ; BTS_ctrl_cc_ch3.css @ 256
     131              
     132              $C$DW$7 .dwtag  DW_TAG_variable
     133                      .dwattr $C$DW$7, DW_AT_name("BTS_ctrl_cc_ch3")
     134                      .dwattr $C$DW$7, DW_AT_linkage_name("BTS_ctrl_cc_ch3")
     135                      .dwattr $C$DW$7, DW_AT_location[DW_OP_addr ||BTS_ctrl_cc_ch3||]
     136                      .dwattr $C$DW$7, DW_AT_type(*$C$DW$T$91)
     137                      .dwattr $C$DW$7, DW_AT_external
     138                      .dwattr $C$DW$7, DW_AT_decl_file("../bts.c")
TMS320C2000 Assembler PC v20.2.4 Mon Jan 11 05:48:47 2021

Copyright (c) 1996-2018 Texas Instruments Incorporated
bts.asm                                                              PAGE    4

     139                      .dwattr $C$DW$7, DW_AT_decl_line(0x35)
     140                      .dwattr $C$DW$7, DW_AT_decl_column(0x15)
     141              
     142                      .global ||BTS_ctrl_cc_ch4||
     143 00000036               .data
     144                      .align  2
     145                      .elfsym ||BTS_ctrl_cc_ch4||,SYM_SIZE(18),SYM_BLOCKED(1)
     146 00000040       ||BTS_ctrl_cc_ch4||:
     147 00000040 0000          .xfloat $strtod("0x1p+0")               ; BTS_ctrl_cc_ch4.b0 @ 0
         00000041 3F80 
     148 00000042 0000          .xfloat $strtod("0x0p+0")               ; BTS_ctrl_cc_ch4.b1 @ 32
         00000043 0000 
     149 00000044 0000          .xfloat $strtod("0x0p+0")               ; BTS_ctrl_cc_ch4.b2 @ 64
         00000045 0000 
     150 00000046 0000          .xfloat $strtod("0x0p+0")               ; BTS_ctrl_cc_ch4.a1 @ 96
         00000047 0000 
     151 00000048 0000          .xfloat $strtod("0x0p+0")               ; BTS_ctrl_cc_ch4.a2 @ 128
         00000049 0000 
     152 0000004a 0000          .xfloat $strtod("0x0p+0")               ; BTS_ctrl_cc_ch4.x1 @ 160
         0000004b 0000 
     153 0000004c 0000          .xfloat $strtod("0x0p+0")               ; BTS_ctrl_cc_ch4.x2 @ 192
         0000004d 0000 
     154 0000004e 0000          .bits           0,32
         0000004f 0000 
     155                                      ; BTS_ctrl_cc_ch4.sps @ 224
     156 00000050 0000          .bits           0,32
         00000051 0000 
     157                                      ; BTS_ctrl_cc_ch4.css @ 256
     158              
     159              $C$DW$8 .dwtag  DW_TAG_variable
     160                      .dwattr $C$DW$8, DW_AT_name("BTS_ctrl_cc_ch4")
     161                      .dwattr $C$DW$8, DW_AT_linkage_name("BTS_ctrl_cc_ch4")
     162                      .dwattr $C$DW$8, DW_AT_location[DW_OP_addr ||BTS_ctrl_cc_ch4||]
     163                      .dwattr $C$DW$8, DW_AT_type(*$C$DW$T$91)
     164                      .dwattr $C$DW$8, DW_AT_external
     165                      .dwattr $C$DW$8, DW_AT_decl_file("../bts.c")
     166                      .dwattr $C$DW$8, DW_AT_decl_line(0x36)
     167                      .dwattr $C$DW$8, DW_AT_decl_column(0x15)
     168              
     169                      .global ||BTS_ctrl_cv_ch1||
     170 00000052               .data
     171                      .align  2
     172                      .elfsym ||BTS_ctrl_cv_ch1||,SYM_SIZE(18),SYM_BLOCKED(1)
     173 00000052       ||BTS_ctrl_cv_ch1||:
     174 00000052 0000          .xfloat $strtod("0x1p+0")               ; BTS_ctrl_cv_ch1.b0 @ 0
         00000053 3F80 
     175 00000054 0000          .xfloat $strtod("0x0p+0")               ; BTS_ctrl_cv_ch1.b1 @ 32
         00000055 0000 
     176 00000056 0000          .xfloat $strtod("0x0p+0")               ; BTS_ctrl_cv_ch1.b2 @ 64
         00000057 0000 
     177 00000058 0000          .xfloat $strtod("0x0p+0")               ; BTS_ctrl_cv_ch1.a1 @ 96
         00000059 0000 
     178 0000005a 0000          .xfloat $strtod("0x0p+0")               ; BTS_ctrl_cv_ch1.a2 @ 128
         0000005b 0000 
     179 0000005c 0000          .xfloat $strtod("0x0p+0")               ; BTS_ctrl_cv_ch1.x1 @ 160
TMS320C2000 Assembler PC v20.2.4 Mon Jan 11 05:48:47 2021

Copyright (c) 1996-2018 Texas Instruments Incorporated
bts.asm                                                              PAGE    5

         0000005d 0000 
     180 0000005e 0000          .xfloat $strtod("0x0p+0")               ; BTS_ctrl_cv_ch1.x2 @ 192
         0000005f 0000 
     181 00000060 0000          .bits           0,32
         00000061 0000 
     182                                      ; BTS_ctrl_cv_ch1.sps @ 224
     183 00000062 0000          .bits           0,32
         00000063 0000 
     184                                      ; BTS_ctrl_cv_ch1.css @ 256
     185              
     186              $C$DW$9 .dwtag  DW_TAG_variable
     187                      .dwattr $C$DW$9, DW_AT_name("BTS_ctrl_cv_ch1")
     188                      .dwattr $C$DW$9, DW_AT_linkage_name("BTS_ctrl_cv_ch1")
     189                      .dwattr $C$DW$9, DW_AT_location[DW_OP_addr ||BTS_ctrl_cv_ch1||]
     190                      .dwattr $C$DW$9, DW_AT_type(*$C$DW$T$91)
     191                      .dwattr $C$DW$9, DW_AT_external
     192                      .dwattr $C$DW$9, DW_AT_decl_file("../bts.c")
     193                      .dwattr $C$DW$9, DW_AT_decl_line(0x39)
     194                      .dwattr $C$DW$9, DW_AT_decl_column(0x15)
     195              
     196                      .global ||BTS_ctrl_cv_ch2||
     197 00000064               .data
     198                      .align  2
     199                      .elfsym ||BTS_ctrl_cv_ch2||,SYM_SIZE(18),SYM_BLOCKED(1)
     200 00000064       ||BTS_ctrl_cv_ch2||:
     201 00000064 0000          .xfloat $strtod("0x1p+0")               ; BTS_ctrl_cv_ch2.b0 @ 0
         00000065 3F80 
     202 00000066 0000          .xfloat $strtod("0x0p+0")               ; BTS_ctrl_cv_ch2.b1 @ 32
         00000067 0000 
     203 00000068 0000          .xfloat $strtod("0x0p+0")               ; BTS_ctrl_cv_ch2.b2 @ 64
         00000069 0000 
     204 0000006a 0000          .xfloat $strtod("0x0p+0")               ; BTS_ctrl_cv_ch2.a1 @ 96
         0000006b 0000 
     205 0000006c 0000          .xfloat $strtod("0x0p+0")               ; BTS_ctrl_cv_ch2.a2 @ 128
         0000006d 0000 
     206 0000006e 0000          .xfloat $strtod("0x0p+0")               ; BTS_ctrl_cv_ch2.x1 @ 160
         0000006f 0000 
     207 00000070 0000          .xfloat $strtod("0x0p+0")               ; BTS_ctrl_cv_ch2.x2 @ 192
         00000071 0000 
     208 00000072 0000          .bits           0,32
         00000073 0000 
     209                                      ; BTS_ctrl_cv_ch2.sps @ 224
     210 00000074 0000          .bits           0,32
         00000075 0000 
     211                                      ; BTS_ctrl_cv_ch2.css @ 256
     212              
     213              $C$DW$10        .dwtag  DW_TAG_variable
     214                      .dwattr $C$DW$10, DW_AT_name("BTS_ctrl_cv_ch2")
     215                      .dwattr $C$DW$10, DW_AT_linkage_name("BTS_ctrl_cv_ch2")
     216                      .dwattr $C$DW$10, DW_AT_location[DW_OP_addr ||BTS_ctrl_cv_ch2||]
     217                      .dwattr $C$DW$10, DW_AT_type(*$C$DW$T$91)
     218                      .dwattr $C$DW$10, DW_AT_external
     219                      .dwattr $C$DW$10, DW_AT_decl_file("../bts.c")
     220                      .dwattr $C$DW$10, DW_AT_decl_line(0x3a)
     221                      .dwattr $C$DW$10, DW_AT_decl_column(0x15)
TMS320C2000 Assembler PC v20.2.4 Mon Jan 11 05:48:47 2021

Copyright (c) 1996-2018 Texas Instruments Incorporated
bts.asm                                                              PAGE    6

     222              
     223                      .global ||BTS_ctrl_cv_ch3||
     224 00000076               .data
     225                      .align  2
     226                      .elfsym ||BTS_ctrl_cv_ch3||,SYM_SIZE(18),SYM_BLOCKED(1)
     227 00000080       ||BTS_ctrl_cv_ch3||:
     228 00000080 0000          .xfloat $strtod("0x1p+0")               ; BTS_ctrl_cv_ch3.b0 @ 0
         00000081 3F80 
     229 00000082 0000          .xfloat $strtod("0x0p+0")               ; BTS_ctrl_cv_ch3.b1 @ 32
         00000083 0000 
     230 00000084 0000          .xfloat $strtod("0x0p+0")               ; BTS_ctrl_cv_ch3.b2 @ 64
         00000085 0000 
     231 00000086 0000          .xfloat $strtod("0x0p+0")               ; BTS_ctrl_cv_ch3.a1 @ 96
         00000087 0000 
     232 00000088 0000          .xfloat $strtod("0x0p+0")               ; BTS_ctrl_cv_ch3.a2 @ 128
         00000089 0000 
     233 0000008a 0000          .xfloat $strtod("0x0p+0")               ; BTS_ctrl_cv_ch3.x1 @ 160
         0000008b 0000 
     234 0000008c 0000          .xfloat $strtod("0x0p+0")               ; BTS_ctrl_cv_ch3.x2 @ 192
         0000008d 0000 
     235 0000008e 0000          .bits           0,32
         0000008f 0000 
     236                                      ; BTS_ctrl_cv_ch3.sps @ 224
     237 00000090 0000          .bits           0,32
         00000091 0000 
     238                                      ; BTS_ctrl_cv_ch3.css @ 256
     239              
     240              $C$DW$11        .dwtag  DW_TAG_variable
     241                      .dwattr $C$DW$11, DW_AT_name("BTS_ctrl_cv_ch3")
     242                      .dwattr $C$DW$11, DW_AT_linkage_name("BTS_ctrl_cv_ch3")
     243                      .dwattr $C$DW$11, DW_AT_location[DW_OP_addr ||BTS_ctrl_cv_ch3||]
     244                      .dwattr $C$DW$11, DW_AT_type(*$C$DW$T$91)
     245                      .dwattr $C$DW$11, DW_AT_external
     246                      .dwattr $C$DW$11, DW_AT_decl_file("../bts.c")
     247                      .dwattr $C$DW$11, DW_AT_decl_line(0x3b)
     248                      .dwattr $C$DW$11, DW_AT_decl_column(0x15)
     249              
     250                      .global ||BTS_ctrl_cv_ch4||
     251 00000092               .data
     252                      .align  2
     253                      .elfsym ||BTS_ctrl_cv_ch4||,SYM_SIZE(18),SYM_BLOCKED(1)
     254 00000092       ||BTS_ctrl_cv_ch4||:
     255 00000092 0000          .xfloat $strtod("0x1p+0")               ; BTS_ctrl_cv_ch4.b0 @ 0
         00000093 3F80 
     256 00000094 0000          .xfloat $strtod("0x0p+0")               ; BTS_ctrl_cv_ch4.b1 @ 32
         00000095 0000 
     257 00000096 0000          .xfloat $strtod("0x0p+0")               ; BTS_ctrl_cv_ch4.b2 @ 64
         00000097 0000 
     258 00000098 0000          .xfloat $strtod("0x0p+0")               ; BTS_ctrl_cv_ch4.a1 @ 96
         00000099 0000 
     259 0000009a 0000          .xfloat $strtod("0x0p+0")               ; BTS_ctrl_cv_ch4.a2 @ 128
         0000009b 0000 
     260 0000009c 0000          .xfloat $strtod("0x0p+0")               ; BTS_ctrl_cv_ch4.x1 @ 160
         0000009d 0000 
     261 0000009e 0000          .xfloat $strtod("0x0p+0")               ; BTS_ctrl_cv_ch4.x2 @ 192
TMS320C2000 Assembler PC v20.2.4 Mon Jan 11 05:48:47 2021

Copyright (c) 1996-2018 Texas Instruments Incorporated
bts.asm                                                              PAGE    7

         0000009f 0000 
     262 000000a0 0000          .bits           0,32
         000000a1 0000 
     263                                      ; BTS_ctrl_cv_ch4.sps @ 224
     264 000000a2 0000          .bits           0,32
         000000a3 0000 
     265                                      ; BTS_ctrl_cv_ch4.css @ 256
     266              
     267              $C$DW$12        .dwtag  DW_TAG_variable
     268                      .dwattr $C$DW$12, DW_AT_name("BTS_ctrl_cv_ch4")
     269                      .dwattr $C$DW$12, DW_AT_linkage_name("BTS_ctrl_cv_ch4")
     270                      .dwattr $C$DW$12, DW_AT_location[DW_OP_addr ||BTS_ctrl_cv_ch4||]
     271                      .dwattr $C$DW$12, DW_AT_type(*$C$DW$T$91)
     272                      .dwattr $C$DW$12, DW_AT_external
     273                      .dwattr $C$DW$12, DW_AT_decl_file("../bts.c")
     274                      .dwattr $C$DW$12, DW_AT_decl_line(0x3c)
     275                      .dwattr $C$DW$12, DW_AT_decl_column(0x15)
     276              
     277                      .global ||BTS_ctrl_ch1||
     278 000000a4               .data
     279                      .align  2
     280                      .elfsym ||BTS_ctrl_ch1||,SYM_SIZE(18),SYM_BLOCKED(1)
     281 000000a4       ||BTS_ctrl_ch1||:
     282 000000a4 0000          .xfloat $strtod("0x1p+0")               ; BTS_ctrl_ch1.b0 @ 0
         000000a5 3F80 
     283 000000a6 0000          .xfloat $strtod("0x0p+0")               ; BTS_ctrl_ch1.b1 @ 32
         000000a7 0000 
     284 000000a8 0000          .xfloat $strtod("0x0p+0")               ; BTS_ctrl_ch1.b2 @ 64
         000000a9 0000 
     285 000000aa 0000          .xfloat $strtod("0x0p+0")               ; BTS_ctrl_ch1.a1 @ 96
         000000ab 0000 
     286 000000ac 0000          .xfloat $strtod("0x0p+0")               ; BTS_ctrl_ch1.a2 @ 128
         000000ad 0000 
     287 000000ae 0000          .xfloat $strtod("0x0p+0")               ; BTS_ctrl_ch1.x1 @ 160
         000000af 0000 
     288 000000b0 0000          .xfloat $strtod("0x0p+0")               ; BTS_ctrl_ch1.x2 @ 192
         000000b1 0000 
     289 000000b2 0000          .bits           0,32
         000000b3 0000 
     290                                      ; BTS_ctrl_ch1.sps @ 224
     291 000000b4 0000          .bits           0,32
         000000b5 0000 
     292                                      ; BTS_ctrl_ch1.css @ 256
     293              
     294              $C$DW$13        .dwtag  DW_TAG_variable
     295                      .dwattr $C$DW$13, DW_AT_name("BTS_ctrl_ch1")
     296                      .dwattr $C$DW$13, DW_AT_linkage_name("BTS_ctrl_ch1")
     297                      .dwattr $C$DW$13, DW_AT_location[DW_OP_addr ||BTS_ctrl_ch1||]
     298                      .dwattr $C$DW$13, DW_AT_type(*$C$DW$T$91)
     299                      .dwattr $C$DW$13, DW_AT_external
     300                      .dwattr $C$DW$13, DW_AT_decl_file("../bts.c")
     301                      .dwattr $C$DW$13, DW_AT_decl_line(0x66)
     302                      .dwattr $C$DW$13, DW_AT_decl_column(0x1e)
     303              
     304                      .global ||BTS_ctrl_ch2||
TMS320C2000 Assembler PC v20.2.4 Mon Jan 11 05:48:47 2021

Copyright (c) 1996-2018 Texas Instruments Incorporated
bts.asm                                                              PAGE    8

     305 000000b6               .data
     306                      .align  2
     307                      .elfsym ||BTS_ctrl_ch2||,SYM_SIZE(18),SYM_BLOCKED(1)
     308 000000c0       ||BTS_ctrl_ch2||:
     309 000000c0 0000          .xfloat $strtod("0x1p+0")               ; BTS_ctrl_ch2.b0 @ 0
         000000c1 3F80 
     310 000000c2 0000          .xfloat $strtod("0x0p+0")               ; BTS_ctrl_ch2.b1 @ 32
         000000c3 0000 
     311 000000c4 0000          .xfloat $strtod("0x0p+0")               ; BTS_ctrl_ch2.b2 @ 64
         000000c5 0000 
     312 000000c6 0000          .xfloat $strtod("0x0p+0")               ; BTS_ctrl_ch2.a1 @ 96
         000000c7 0000 
     313 000000c8 0000          .xfloat $strtod("0x0p+0")               ; BTS_ctrl_ch2.a2 @ 128
         000000c9 0000 
     314 000000ca 0000          .xfloat $strtod("0x0p+0")               ; BTS_ctrl_ch2.x1 @ 160
         000000cb 0000 
     315 000000cc 0000          .xfloat $strtod("0x0p+0")               ; BTS_ctrl_ch2.x2 @ 192
         000000cd 0000 
     316 000000ce 0000          .bits           0,32
         000000cf 0000 
     317                                      ; BTS_ctrl_ch2.sps @ 224
     318 000000d0 0000          .bits           0,32
         000000d1 0000 
     319                                      ; BTS_ctrl_ch2.css @ 256
     320              
     321              $C$DW$14        .dwtag  DW_TAG_variable
     322                      .dwattr $C$DW$14, DW_AT_name("BTS_ctrl_ch2")
     323                      .dwattr $C$DW$14, DW_AT_linkage_name("BTS_ctrl_ch2")
     324                      .dwattr $C$DW$14, DW_AT_location[DW_OP_addr ||BTS_ctrl_ch2||]
     325                      .dwattr $C$DW$14, DW_AT_type(*$C$DW$T$91)
     326                      .dwattr $C$DW$14, DW_AT_external
     327                      .dwattr $C$DW$14, DW_AT_decl_file("../bts.c")
     328                      .dwattr $C$DW$14, DW_AT_decl_line(0x67)
     329                      .dwattr $C$DW$14, DW_AT_decl_column(0x1e)
     330              
     331                      .global ||BTS_ctrl_ch3||
     332 000000d2               .data
     333                      .align  2
     334                      .elfsym ||BTS_ctrl_ch3||,SYM_SIZE(18),SYM_BLOCKED(1)
     335 000000d2       ||BTS_ctrl_ch3||:
     336 000000d2 0000          .xfloat $strtod("0x1p+0")               ; BTS_ctrl_ch3.b0 @ 0
         000000d3 3F80 
     337 000000d4 0000          .xfloat $strtod("0x0p+0")               ; BTS_ctrl_ch3.b1 @ 32
         000000d5 0000 
     338 000000d6 0000          .xfloat $strtod("0x0p+0")               ; BTS_ctrl_ch3.b2 @ 64
         000000d7 0000 
     339 000000d8 0000          .xfloat $strtod("0x0p+0")               ; BTS_ctrl_ch3.a1 @ 96
         000000d9 0000 
     340 000000da 0000          .xfloat $strtod("0x0p+0")               ; BTS_ctrl_ch3.a2 @ 128
         000000db 0000 
     341 000000dc 0000          .xfloat $strtod("0x0p+0")               ; BTS_ctrl_ch3.x1 @ 160
         000000dd 0000 
     342 000000de 0000          .xfloat $strtod("0x0p+0")               ; BTS_ctrl_ch3.x2 @ 192
         000000df 0000 
     343 000000e0 0000          .bits           0,32
TMS320C2000 Assembler PC v20.2.4 Mon Jan 11 05:48:47 2021

Copyright (c) 1996-2018 Texas Instruments Incorporated
bts.asm                                                              PAGE    9

         000000e1 0000 
     344                                      ; BTS_ctrl_ch3.sps @ 224
     345 000000e2 0000          .bits           0,32
         000000e3 0000 
     346                                      ; BTS_ctrl_ch3.css @ 256
     347              
     348              $C$DW$15        .dwtag  DW_TAG_variable
     349                      .dwattr $C$DW$15, DW_AT_name("BTS_ctrl_ch3")
     350                      .dwattr $C$DW$15, DW_AT_linkage_name("BTS_ctrl_ch3")
     351                      .dwattr $C$DW$15, DW_AT_location[DW_OP_addr ||BTS_ctrl_ch3||]
     352                      .dwattr $C$DW$15, DW_AT_type(*$C$DW$T$91)
     353                      .dwattr $C$DW$15, DW_AT_external
     354                      .dwattr $C$DW$15, DW_AT_decl_file("../bts.c")
     355                      .dwattr $C$DW$15, DW_AT_decl_line(0x68)
     356                      .dwattr $C$DW$15, DW_AT_decl_column(0x1e)
     357              
     358                      .global ||BTS_ctrl_ch4||
     359 000000e4               .data
     360                      .align  2
     361                      .elfsym ||BTS_ctrl_ch4||,SYM_SIZE(18),SYM_BLOCKED(1)
     362 000000e4       ||BTS_ctrl_ch4||:
     363 000000e4 0000          .xfloat $strtod("0x1p+0")               ; BTS_ctrl_ch4.b0 @ 0
         000000e5 3F80 
     364 000000e6 0000          .xfloat $strtod("0x0p+0")               ; BTS_ctrl_ch4.b1 @ 32
         000000e7 0000 
     365 000000e8 0000          .xfloat $strtod("0x0p+0")               ; BTS_ctrl_ch4.b2 @ 64
         000000e9 0000 
     366 000000ea 0000          .xfloat $strtod("0x0p+0")               ; BTS_ctrl_ch4.a1 @ 96
         000000eb 0000 
     367 000000ec 0000          .xfloat $strtod("0x0p+0")               ; BTS_ctrl_ch4.a2 @ 128
         000000ed 0000 
     368 000000ee 0000          .xfloat $strtod("0x0p+0")               ; BTS_ctrl_ch4.x1 @ 160
         000000ef 0000 
     369 000000f0 0000          .xfloat $strtod("0x0p+0")               ; BTS_ctrl_ch4.x2 @ 192
         000000f1 0000 
     370 000000f2 0000          .bits           0,32
         000000f3 0000 
     371                                      ; BTS_ctrl_ch4.sps @ 224
     372 000000f4 0000          .bits           0,32
         000000f5 0000 
     373                                      ; BTS_ctrl_ch4.css @ 256
     374              
     375              $C$DW$16        .dwtag  DW_TAG_variable
     376                      .dwattr $C$DW$16, DW_AT_name("BTS_ctrl_ch4")
     377                      .dwattr $C$DW$16, DW_AT_linkage_name("BTS_ctrl_ch4")
     378                      .dwattr $C$DW$16, DW_AT_location[DW_OP_addr ||BTS_ctrl_ch4||]
     379                      .dwattr $C$DW$16, DW_AT_type(*$C$DW$T$91)
     380                      .dwattr $C$DW$16, DW_AT_external
     381                      .dwattr $C$DW$16, DW_AT_decl_file("../bts.c")
     382                      .dwattr $C$DW$16, DW_AT_decl_line(0x69)
     383                      .dwattr $C$DW$16, DW_AT_decl_column(0x1e)
     384              
     385                      .global ||BTS_userInput_ch1||
     386 00000004               .bss    ||BTS_userInput_ch1||,30,1,1
     387              $C$DW$17        .dwtag  DW_TAG_variable
TMS320C2000 Assembler PC v20.2.4 Mon Jan 11 05:48:47 2021

Copyright (c) 1996-2018 Texas Instruments Incorporated
bts.asm                                                              PAGE   10

     388                      .dwattr $C$DW$17, DW_AT_name("BTS_userInput_ch1")
     389                      .dwattr $C$DW$17, DW_AT_linkage_name("BTS_userInput_ch1")
     390                      .dwattr $C$DW$17, DW_AT_location[DW_OP_addr ||BTS_userInput_ch1||]
     391                      .dwattr $C$DW$17, DW_AT_type(*$C$DW$T$49)
     392                      .dwattr $C$DW$17, DW_AT_external
     393                      .dwattr $C$DW$17, DW_AT_decl_file("../bts.c")
     394                      .dwattr $C$DW$17, DW_AT_decl_line(0x28)
     395                      .dwattr $C$DW$17, DW_AT_decl_column(0x0f)
     396              
     397                      .global ||BTS_userInput_ch2||
     398 00000022               .bss    ||BTS_userInput_ch2||,30,1,1
     399              $C$DW$18        .dwtag  DW_TAG_variable
     400                      .dwattr $C$DW$18, DW_AT_name("BTS_userInput_ch2")
     401                      .dwattr $C$DW$18, DW_AT_linkage_name("BTS_userInput_ch2")
     402                      .dwattr $C$DW$18, DW_AT_location[DW_OP_addr ||BTS_userInput_ch2||]
     403                      .dwattr $C$DW$18, DW_AT_type(*$C$DW$T$49)
     404                      .dwattr $C$DW$18, DW_AT_external
     405                      .dwattr $C$DW$18, DW_AT_decl_file("../bts.c")
     406                      .dwattr $C$DW$18, DW_AT_decl_line(0x29)
     407                      .dwattr $C$DW$18, DW_AT_decl_column(0x0f)
     408              
     409                      .global ||BTS_userInput_ch3||
     410 00000040               .bss    ||BTS_userInput_ch3||,30,1,1
     411              $C$DW$19        .dwtag  DW_TAG_variable
     412                      .dwattr $C$DW$19, DW_AT_name("BTS_userInput_ch3")
     413                      .dwattr $C$DW$19, DW_AT_linkage_name("BTS_userInput_ch3")
     414                      .dwattr $C$DW$19, DW_AT_location[DW_OP_addr ||BTS_userInput_ch3||]
     415                      .dwattr $C$DW$19, DW_AT_type(*$C$DW$T$49)
     416                      .dwattr $C$DW$19, DW_AT_external
     417                      .dwattr $C$DW$19, DW_AT_decl_file("../bts.c")
     418                      .dwattr $C$DW$19, DW_AT_decl_line(0x2a)
     419                      .dwattr $C$DW$19, DW_AT_decl_column(0x0f)
     420              
     421                      .global ||BTS_userInput_ch4||
     422 0000005e               .bss    ||BTS_userInput_ch4||,30,1,1
     423              $C$DW$20        .dwtag  DW_TAG_variable
     424                      .dwattr $C$DW$20, DW_AT_name("BTS_userInput_ch4")
     425                      .dwattr $C$DW$20, DW_AT_linkage_name("BTS_userInput_ch4")
     426                      .dwattr $C$DW$20, DW_AT_location[DW_OP_addr ||BTS_userInput_ch4||]
     427                      .dwattr $C$DW$20, DW_AT_type(*$C$DW$T$49)
     428                      .dwattr $C$DW$20, DW_AT_external
     429                      .dwattr $C$DW$20, DW_AT_decl_file("../bts.c")
     430                      .dwattr $C$DW$20, DW_AT_decl_line(0x2b)
     431                      .dwattr $C$DW$20, DW_AT_decl_column(0x0f)
     432              
     433                      .global ||BTS_ctrlLoopVariable_ch1||
     434 00000080               .bss    ||BTS_ctrlLoopVariable_ch1||,36,1,1
     435              $C$DW$21        .dwtag  DW_TAG_variable
     436                      .dwattr $C$DW$21, DW_AT_name("BTS_ctrlLoopVariable_ch1")
     437                      .dwattr $C$DW$21, DW_AT_linkage_name("BTS_ctrlLoopVariable_ch1")
     438                      .dwattr $C$DW$21, DW_AT_location[DW_OP_addr ||BTS_ctrlLoopVariable_ch1||]
     439                      .dwattr $C$DW$21, DW_AT_type(*$C$DW$T$54)
     440                      .dwattr $C$DW$21, DW_AT_external
     441                      .dwattr $C$DW$21, DW_AT_decl_file("../bts.c")
     442                      .dwattr $C$DW$21, DW_AT_decl_line(0x2d)
TMS320C2000 Assembler PC v20.2.4 Mon Jan 11 05:48:47 2021

Copyright (c) 1996-2018 Texas Instruments Incorporated
bts.asm                                                              PAGE   11

     443                      .dwattr $C$DW$21, DW_AT_decl_column(0x16)
     444              
     445                      .global ||BTS_ctrlLoopVariable_ch2||
     446 000000c0               .bss    ||BTS_ctrlLoopVariable_ch2||,36,1,1
     447              $C$DW$22        .dwtag  DW_TAG_variable
     448                      .dwattr $C$DW$22, DW_AT_name("BTS_ctrlLoopVariable_ch2")
     449                      .dwattr $C$DW$22, DW_AT_linkage_name("BTS_ctrlLoopVariable_ch2")
     450                      .dwattr $C$DW$22, DW_AT_location[DW_OP_addr ||BTS_ctrlLoopVariable_ch2||]
     451                      .dwattr $C$DW$22, DW_AT_type(*$C$DW$T$54)
     452                      .dwattr $C$DW$22, DW_AT_external
     453                      .dwattr $C$DW$22, DW_AT_decl_file("../bts.c")
     454                      .dwattr $C$DW$22, DW_AT_decl_line(0x2e)
     455                      .dwattr $C$DW$22, DW_AT_decl_column(0x16)
     456              
     457                      .global ||BTS_ctrlLoopVariable_ch3||
     458 00000100               .bss    ||BTS_ctrlLoopVariable_ch3||,36,1,1
     459              $C$DW$23        .dwtag  DW_TAG_variable
     460                      .dwattr $C$DW$23, DW_AT_name("BTS_ctrlLoopVariable_ch3")
     461                      .dwattr $C$DW$23, DW_AT_linkage_name("BTS_ctrlLoopVariable_ch3")
     462                      .dwattr $C$DW$23, DW_AT_location[DW_OP_addr ||BTS_ctrlLoopVariable_ch3||]
     463                      .dwattr $C$DW$23, DW_AT_type(*$C$DW$T$54)
     464                      .dwattr $C$DW$23, DW_AT_external
     465                      .dwattr $C$DW$23, DW_AT_decl_file("../bts.c")
     466                      .dwattr $C$DW$23, DW_AT_decl_line(0x2f)
     467                      .dwattr $C$DW$23, DW_AT_decl_column(0x16)
     468              
     469                      .global ||BTS_ctrlLoopVariable_ch4||
     470 00000140               .bss    ||BTS_ctrlLoopVariable_ch4||,36,1,1
     471              $C$DW$24        .dwtag  DW_TAG_variable
     472                      .dwattr $C$DW$24, DW_AT_name("BTS_ctrlLoopVariable_ch4")
     473                      .dwattr $C$DW$24, DW_AT_linkage_name("BTS_ctrlLoopVariable_ch4")
     474                      .dwattr $C$DW$24, DW_AT_location[DW_OP_addr ||BTS_ctrlLoopVariable_ch4||]
     475                      .dwattr $C$DW$24, DW_AT_type(*$C$DW$T$54)
     476                      .dwattr $C$DW$24, DW_AT_external
     477                      .dwattr $C$DW$24, DW_AT_decl_file("../bts.c")
     478                      .dwattr $C$DW$24, DW_AT_decl_line(0x30)
     479                      .dwattr $C$DW$24, DW_AT_decl_column(0x16)
     480              
     481                      .global ||BTS_measValues_ch1||
     482 00000180               .bss    ||BTS_measValues_ch1||,82,1,1
     483              $C$DW$25        .dwtag  DW_TAG_variable
     484                      .dwattr $C$DW$25, DW_AT_name("BTS_measValues_ch1")
     485                      .dwattr $C$DW$25, DW_AT_linkage_name("BTS_measValues_ch1")
     486                      .dwattr $C$DW$25, DW_AT_location[DW_OP_addr ||BTS_measValues_ch1||]
     487                      .dwattr $C$DW$25, DW_AT_type(*$C$DW$T$59)
     488                      .dwattr $C$DW$25, DW_AT_external
     489                      .dwattr $C$DW$25, DW_AT_decl_file("../bts.c")
     490                      .dwattr $C$DW$25, DW_AT_decl_line(0x21)
     491                      .dwattr $C$DW$25, DW_AT_decl_column(0x10)
     492              
     493                      .global ||BTS_measValues_ch2||
     494 00000200               .bss    ||BTS_measValues_ch2||,82,1,1
     495              $C$DW$26        .dwtag  DW_TAG_variable
     496                      .dwattr $C$DW$26, DW_AT_name("BTS_measValues_ch2")
     497                      .dwattr $C$DW$26, DW_AT_linkage_name("BTS_measValues_ch2")
TMS320C2000 Assembler PC v20.2.4 Mon Jan 11 05:48:47 2021

Copyright (c) 1996-2018 Texas Instruments Incorporated
bts.asm                                                              PAGE   12

     498                      .dwattr $C$DW$26, DW_AT_location[DW_OP_addr ||BTS_measValues_ch2||]
     499                      .dwattr $C$DW$26, DW_AT_type(*$C$DW$T$59)
     500                      .dwattr $C$DW$26, DW_AT_external
     501                      .dwattr $C$DW$26, DW_AT_decl_file("../bts.c")
     502                      .dwattr $C$DW$26, DW_AT_decl_line(0x22)
     503                      .dwattr $C$DW$26, DW_AT_decl_column(0x10)
     504              
     505                      .global ||BTS_measValues_ch3||
     506 00000280               .bss    ||BTS_measValues_ch3||,82,1,1
     507              $C$DW$27        .dwtag  DW_TAG_variable
     508                      .dwattr $C$DW$27, DW_AT_name("BTS_measValues_ch3")
     509                      .dwattr $C$DW$27, DW_AT_linkage_name("BTS_measValues_ch3")
     510                      .dwattr $C$DW$27, DW_AT_location[DW_OP_addr ||BTS_measValues_ch3||]
     511                      .dwattr $C$DW$27, DW_AT_type(*$C$DW$T$59)
     512                      .dwattr $C$DW$27, DW_AT_external
     513                      .dwattr $C$DW$27, DW_AT_decl_file("../bts.c")
     514                      .dwattr $C$DW$27, DW_AT_decl_line(0x23)
     515                      .dwattr $C$DW$27, DW_AT_decl_column(0x10)
     516              
     517                      .global ||BTS_measValues_ch4||
     518 00000300               .bss    ||BTS_measValues_ch4||,82,1,1
     519              $C$DW$28        .dwtag  DW_TAG_variable
     520                      .dwattr $C$DW$28, DW_AT_name("BTS_measValues_ch4")
     521                      .dwattr $C$DW$28, DW_AT_linkage_name("BTS_measValues_ch4")
     522                      .dwattr $C$DW$28, DW_AT_location[DW_OP_addr ||BTS_measValues_ch4||]
     523                      .dwattr $C$DW$28, DW_AT_type(*$C$DW$T$59)
     524                      .dwattr $C$DW$28, DW_AT_external
     525                      .dwattr $C$DW$28, DW_AT_decl_file("../bts.c")
     526                      .dwattr $C$DW$28, DW_AT_decl_line(0x24)
     527                      .dwattr $C$DW$28, DW_AT_decl_column(0x10)
     528              
     529                      .sblock ".bss"
     530                      .sblock ".data"
     531              ;       C:\ti\ccs1011\ccs\tools\compiler\ti-cgt-c2000_20.2.4.LTS\bin\opt2000.exe C:\\Users\\LUCAS~1.OLD\\AppD
     532              ;       C:\ti\ccs1011\ccs\tools\compiler\ti-cgt-c2000_20.2.4.LTS\bin\acia2000.exe -@C:\\Users\\LUCAS~1.OLD\\A
     533 00000000               .sect   ".text:__signbitl"
     534                      .clink
     535                      .global ||__signbitl||
     536              
     537              $C$DW$29        .dwtag  DW_TAG_subprogram
     538                      .dwattr $C$DW$29, DW_AT_name("__signbitl")
     539                      .dwattr $C$DW$29, DW_AT_low_pc(||__signbitl||)
     540                      .dwattr $C$DW$29, DW_AT_high_pc(0x00)
     541                      .dwattr $C$DW$29, DW_AT_linkage_name("__signbitl")
     542                      .dwattr $C$DW$29, DW_AT_external
     543                      .dwattr $C$DW$29, DW_AT_type(*$C$DW$T$10)
     544                      .dwattr $C$DW$29, DW_AT_decl_file("C:/ti/ccs1011/ccs/tools/compiler/ti-cgt-c2000_20.2.4.LTS/include/_
     545                      .dwattr $C$DW$29, DW_AT_decl_line(0x16f)
     546                      .dwattr $C$DW$29, DW_AT_decl_column(0x25)
     547                      .dwattr $C$DW$29, DW_AT_TI_max_frame_size(-6)
     548                      .dwpsn  file "C:/ti/ccs1011/ccs/tools/compiler/ti-cgt-c2000_20.2.4.LTS/include/_defs.h",line 368,colu
     549              
     550                      .dwfde $C$DW$CIE, ||__signbitl||
     551              $C$DW$30        .dwtag  DW_TAG_formal_parameter
     552                      .dwattr $C$DW$30, DW_AT_name("e")
TMS320C2000 Assembler PC v20.2.4 Mon Jan 11 05:48:47 2021

Copyright (c) 1996-2018 Texas Instruments Incorporated
bts.asm                                                              PAGE   13

     553                      .dwattr $C$DW$30, DW_AT_type(*$C$DW$T$87)
     554                      .dwattr $C$DW$30, DW_AT_location[DW_OP_reg12]
     555              
     556              
     557              ;***************************************************************
     558              ;* FNAME: __signbitl                    FR SIZE:   4           *
     559              ;*                                                             *
     560              ;* FUNCTION ENVIRONMENT                                        *
     561              ;*                                                             *
     562              ;* FUNCTION PROPERTIES                                         *
     563              ;*                            4 Parameter,  0 Auto,  0 SOE     *
     564              ;***************************************************************
     565              
     566              ||__signbitl||:
     567              ;* AR4   assigned to e
     568              $C$DW$31        .dwtag  DW_TAG_variable
     569                      .dwattr $C$DW$31, DW_AT_name("e")
     570                      .dwattr $C$DW$31, DW_AT_type(*$C$DW$T$88)
     571                      .dwattr $C$DW$31, DW_AT_location[DW_OP_reg12]
     572              
     573                      .dwcfi  cfa_offset, -2
     574                      .dwcfi  save_reg_to_mem, 26, 0
     575 00000000 FE04          ADDB      SP,#4                 ; [CPU_ARAU] 
     576                      .dwcfi  cfa_offset, -6
     577                      .dwpsn  file "C:/ti/ccs1011/ccs/tools/compiler/ti-cgt-c2000_20.2.4.LTS/include/_defs.h",line 368,colu
     578 00000001 0200          MOVB      ACC,#0                ; [CPU_ALU] |368| 
     579 00000002 1E44          MOVL      *-SP[4],ACC           ; [CPU_ALU] |368| 
     580 00000003 2B42          MOV       *-SP[2],#0            ; [CPU_ALU] |368| 
     581 00000004 2B41          MOV       *-SP[1],#0            ; [CPU_ALU] |368| 
     582 00000005 A3C4          MOVL      P,*+XAR4[0]           ; [CPU_ALU] |368| 
     583 00000006 06D4          MOVL      ACC,*+XAR4[2]         ; [CPU_ALU] |368| 
     584 00000007 18AB          AND       PL,#0                 ; [CPU_ALU] |368| 
         00000008 0000 
     585 00000009 18AA          AND       PH,#0                 ; [CPU_ALU] |368| 
         0000000a 0000 
     586 0000000b 9000          ANDB      AL,#0                 ; [CPU_ALU] |368| 
     587 0000000c 18A8          AND       AH,#32768             ; [CPU_ALU] |368| 
         0000000d 8000 
     588              $C$DW$32        .dwtag  DW_TAG_TI_branch
     589                      .dwattr $C$DW$32, DW_AT_low_pc(0x00)
     590                      .dwattr $C$DW$32, DW_AT_name("__c28xabi_cmpull")
     591                      .dwattr $C$DW$32, DW_AT_TI_call
     592              
     593 0000000e 7640!         LCR       #||__c28xabi_cmpull|| ; [CPU_ALU] |368| 
         0000000f 0000 
     594                      ; call occurs [#||__c28xabi_cmpull||] ; [] |368| 
     595 00000010 9B00          MOVB      AH,#0                 ; [CPU_ALU] |368| 
     596 00000011 5200          CMPB      AL,#0                 ; [CPU_ALU] |368| 
     597 00000012 56B0          MOVB      AH,#1,NEQ             ; [CPU_ALU] |368| 
         00000013 01A8 
     598 00000014 92A8          MOV       AL,AH                 ; [CPU_ALU] |368| 
     599 00000015 FE84          SUBB      SP,#4                 ; [CPU_ARAU] 
     600                      .dwcfi  cfa_offset, -2
     601              $C$DW$33        .dwtag  DW_TAG_TI_branch
     602                      .dwattr $C$DW$33, DW_AT_low_pc(0x00)
TMS320C2000 Assembler PC v20.2.4 Mon Jan 11 05:48:47 2021

Copyright (c) 1996-2018 Texas Instruments Incorporated
bts.asm                                                              PAGE   14

     603                      .dwattr $C$DW$33, DW_AT_TI_return
     604              
     605 00000016 0006          LRETR     ; [CPU_ALU] 
     606                      ; return occurs ; [] 
     607                      .dwattr $C$DW$29, DW_AT_TI_end_file("C:/ti/ccs1011/ccs/tools/compiler/ti-cgt-c2000_20.2.4.LTS/include
     608                      .dwattr $C$DW$29, DW_AT_TI_end_line(0x170)
     609                      .dwattr $C$DW$29, DW_AT_TI_end_column(0x2b)
     610                      .dwendentry
     611                      .dwendtag $C$DW$29
     612              
     613 00000000               .sect   ".text:__signbitf"
     614                      .clink
     615                      .global ||__signbitf||
     616              
     617              $C$DW$34        .dwtag  DW_TAG_subprogram
     618                      .dwattr $C$DW$34, DW_AT_name("__signbitf")
     619                      .dwattr $C$DW$34, DW_AT_low_pc(||__signbitf||)
     620                      .dwattr $C$DW$34, DW_AT_high_pc(0x00)
     621                      .dwattr $C$DW$34, DW_AT_linkage_name("__signbitf")
     622                      .dwattr $C$DW$34, DW_AT_external
     623                      .dwattr $C$DW$34, DW_AT_type(*$C$DW$T$10)
     624                      .dwattr $C$DW$34, DW_AT_decl_file("C:/ti/ccs1011/ccs/tools/compiler/ti-cgt-c2000_20.2.4.LTS/include/_
     625                      .dwattr $C$DW$34, DW_AT_decl_line(0x16d)
     626                      .dwattr $C$DW$34, DW_AT_decl_column(0x25)
     627                      .dwattr $C$DW$34, DW_AT_TI_max_frame_size(-2)
     628                      .dwpsn  file "C:/ti/ccs1011/ccs/tools/compiler/ti-cgt-c2000_20.2.4.LTS/include/_defs.h",line 366,colu
     629              
     630                      .dwfde $C$DW$CIE, ||__signbitf||
     631              $C$DW$35        .dwtag  DW_TAG_formal_parameter
     632                      .dwattr $C$DW$35, DW_AT_name("f")
     633                      .dwattr $C$DW$35, DW_AT_type(*$C$DW$T$16)
     634                      .dwattr $C$DW$35, DW_AT_location[DW_OP_regx 0x2b]
     635              
     636              
     637              ;***************************************************************
     638              ;* FNAME: __signbitf                    FR SIZE:   0           *
     639              ;*                                                             *
     640              ;* FUNCTION ENVIRONMENT                                        *
     641              ;*                                                             *
     642              ;* FUNCTION PROPERTIES                                         *
     643              ;*                            0 Parameter,  0 Auto,  0 SOE     *
     644              ;***************************************************************
     645              
     646              ||__signbitf||:
     647              ;* R0    assigned to f
     648              $C$DW$36        .dwtag  DW_TAG_variable
     649                      .dwattr $C$DW$36, DW_AT_name("f")
     650                      .dwattr $C$DW$36, DW_AT_type(*$C$DW$T$82)
     651                      .dwattr $C$DW$36, DW_AT_location[DW_OP_regx 0x2b]
     652              
     653                      .dwcfi  cfa_offset, -2
     654                      .dwcfi  save_reg_to_mem, 26, 0
     655                      .dwpsn  file "C:/ti/ccs1011/ccs/tools/compiler/ti-cgt-c2000_20.2.4.LTS/include/_defs.h",line 366,colu
     656 00000000 BFA9          MOV32     ACC,R0H               ; [CPU_FPU] |366| 
         00000001 0F12 
TMS320C2000 Assembler PC v20.2.4 Mon Jan 11 05:48:47 2021

Copyright (c) 1996-2018 Texas Instruments Incorporated
bts.asm                                                              PAGE   15

     657 00000002 BE00          MOVB      XAR6,#0               ; [CPU_ALU] |366| 
     658 00000003 9000          ANDB      AL,#0                 ; [CPU_ALU] |366| 
     659 00000004 18A8          AND       AH,#32768             ; [CPU_ALU] |366| 
         00000005 8000 
     660 00000006 FF58          TEST      ACC                   ; [CPU_ALU] |366| 
     661 00000007 56B0          MOVB      XAR6,#1,NEQ           ; [CPU_ALU] |366| 
         00000008 01A6 
     662 00000009 92A6          MOV       AL,AR6                ; [CPU_ALU] |366| 
     663              $C$DW$37        .dwtag  DW_TAG_TI_branch
     664                      .dwattr $C$DW$37, DW_AT_low_pc(0x00)
     665                      .dwattr $C$DW$37, DW_AT_TI_return
     666              
     667 0000000a 0006          LRETR     ; [CPU_ALU] 
     668                      ; return occurs ; [] 
     669                      .dwattr $C$DW$34, DW_AT_TI_end_file("C:/ti/ccs1011/ccs/tools/compiler/ti-cgt-c2000_20.2.4.LTS/include
     670                      .dwattr $C$DW$34, DW_AT_TI_end_line(0x16e)
     671                      .dwattr $C$DW$34, DW_AT_TI_end_column(0x29)
     672                      .dwendentry
     673                      .dwendtag $C$DW$34
     674              
     675 00000000               .sect   ".text:__signbit"
     676                      .clink
     677                      .global ||__signbit||
     678              
     679              $C$DW$38        .dwtag  DW_TAG_subprogram
     680                      .dwattr $C$DW$38, DW_AT_name("__signbit")
     681                      .dwattr $C$DW$38, DW_AT_low_pc(||__signbit||)
     682                      .dwattr $C$DW$38, DW_AT_high_pc(0x00)
     683                      .dwattr $C$DW$38, DW_AT_linkage_name("__signbit")
     684                      .dwattr $C$DW$38, DW_AT_external
     685                      .dwattr $C$DW$38, DW_AT_type(*$C$DW$T$10)
     686                      .dwattr $C$DW$38, DW_AT_decl_file("C:/ti/ccs1011/ccs/tools/compiler/ti-cgt-c2000_20.2.4.LTS/include/_
     687                      .dwattr $C$DW$38, DW_AT_decl_line(0x16b)
     688                      .dwattr $C$DW$38, DW_AT_decl_column(0x25)
     689                      .dwattr $C$DW$38, DW_AT_TI_max_frame_size(-6)
     690                      .dwpsn  file "C:/ti/ccs1011/ccs/tools/compiler/ti-cgt-c2000_20.2.4.LTS/include/_defs.h",line 364,colu
     691              
     692                      .dwfde $C$DW$CIE, ||__signbit||
     693              $C$DW$39        .dwtag  DW_TAG_formal_parameter
     694                      .dwattr $C$DW$39, DW_AT_name("d")
     695                      .dwattr $C$DW$39, DW_AT_type(*$C$DW$T$84)
     696                      .dwattr $C$DW$39, DW_AT_location[DW_OP_reg12]
     697              
     698              
     699              ;***************************************************************
     700              ;* FNAME: __signbit                     FR SIZE:   4           *
     701              ;*                                                             *
     702              ;* FUNCTION ENVIRONMENT                                        *
     703              ;*                                                             *
     704              ;* FUNCTION PROPERTIES                                         *
     705              ;*                            4 Parameter,  0 Auto,  0 SOE     *
     706              ;***************************************************************
     707              
     708              ||__signbit||:
     709              ;* AR4   assigned to d
TMS320C2000 Assembler PC v20.2.4 Mon Jan 11 05:48:47 2021

Copyright (c) 1996-2018 Texas Instruments Incorporated
bts.asm                                                              PAGE   16

     710              $C$DW$40        .dwtag  DW_TAG_variable
     711                      .dwattr $C$DW$40, DW_AT_name("d")
     712                      .dwattr $C$DW$40, DW_AT_type(*$C$DW$T$85)
     713                      .dwattr $C$DW$40, DW_AT_location[DW_OP_reg12]
     714              
     715                      .dwcfi  cfa_offset, -2
     716                      .dwcfi  save_reg_to_mem, 26, 0
     717 00000000 FE04          ADDB      SP,#4                 ; [CPU_ARAU] 
     718                      .dwcfi  cfa_offset, -6
     719                      .dwpsn  file "C:/ti/ccs1011/ccs/tools/compiler/ti-cgt-c2000_20.2.4.LTS/include/_defs.h",line 364,colu
     720 00000001 0200          MOVB      ACC,#0                ; [CPU_ALU] |364| 
     721 00000002 1E44          MOVL      *-SP[4],ACC           ; [CPU_ALU] |364| 
     722 00000003 2B42          MOV       *-SP[2],#0            ; [CPU_ALU] |364| 
     723 00000004 2B41          MOV       *-SP[1],#0            ; [CPU_ALU] |364| 
     724 00000005 A3C4          MOVL      P,*+XAR4[0]           ; [CPU_ALU] |364| 
     725 00000006 06D4          MOVL      ACC,*+XAR4[2]         ; [CPU_ALU] |364| 
     726 00000007 18AB          AND       PL,#0                 ; [CPU_ALU] |364| 
         00000008 0000 
     727 00000009 18AA          AND       PH,#0                 ; [CPU_ALU] |364| 
         0000000a 0000 
     728 0000000b 9000          ANDB      AL,#0                 ; [CPU_ALU] |364| 
     729 0000000c 18A8          AND       AH,#32768             ; [CPU_ALU] |364| 
         0000000d 8000 
     730              $C$DW$41        .dwtag  DW_TAG_TI_branch
     731                      .dwattr $C$DW$41, DW_AT_low_pc(0x00)
     732                      .dwattr $C$DW$41, DW_AT_name("__c28xabi_cmpull")
     733                      .dwattr $C$DW$41, DW_AT_TI_call
     734              
     735 0000000e 7640!         LCR       #||__c28xabi_cmpull|| ; [CPU_ALU] |364| 
         0000000f 0000 
     736                      ; call occurs [#||__c28xabi_cmpull||] ; [] |364| 
     737 00000010 9B00          MOVB      AH,#0                 ; [CPU_ALU] |364| 
     738 00000011 5200          CMPB      AL,#0                 ; [CPU_ALU] |364| 
     739 00000012 56B0          MOVB      AH,#1,NEQ             ; [CPU_ALU] |364| 
         00000013 01A8 
     740 00000014 92A8          MOV       AL,AH                 ; [CPU_ALU] |364| 
     741 00000015 FE84          SUBB      SP,#4                 ; [CPU_ARAU] 
     742                      .dwcfi  cfa_offset, -2
     743              $C$DW$42        .dwtag  DW_TAG_TI_branch
     744                      .dwattr $C$DW$42, DW_AT_low_pc(0x00)
     745                      .dwattr $C$DW$42, DW_AT_TI_return
     746              
     747 00000016 0006          LRETR     ; [CPU_ALU] 
     748                      ; return occurs ; [] 
     749                      .dwattr $C$DW$38, DW_AT_TI_end_file("C:/ti/ccs1011/ccs/tools/compiler/ti-cgt-c2000_20.2.4.LTS/include
     750                      .dwattr $C$DW$38, DW_AT_TI_end_line(0x16c)
     751                      .dwattr $C$DW$38, DW_AT_TI_end_column(0x2a)
     752                      .dwendentry
     753                      .dwendtag $C$DW$38
     754              
     755 00000000               .sect   ".text:__relaxed_sqrtf"
     756                      .clink
     757                      .global ||__relaxed_sqrtf||
     758              
     759              $C$DW$43        .dwtag  DW_TAG_subprogram
TMS320C2000 Assembler PC v20.2.4 Mon Jan 11 05:48:47 2021

Copyright (c) 1996-2018 Texas Instruments Incorporated
bts.asm                                                              PAGE   17

     760                      .dwattr $C$DW$43, DW_AT_name("__relaxed_sqrtf")
     761                      .dwattr $C$DW$43, DW_AT_low_pc(||__relaxed_sqrtf||)
     762                      .dwattr $C$DW$43, DW_AT_high_pc(0x00)
     763                      .dwattr $C$DW$43, DW_AT_linkage_name("__relaxed_sqrtf")
     764                      .dwattr $C$DW$43, DW_AT_external
     765                      .dwattr $C$DW$43, DW_AT_type(*$C$DW$T$16)
     766                      .dwattr $C$DW$43, DW_AT_decl_file("C:/ti/ccs1011/ccs/tools/compiler/ti-cgt-c2000_20.2.4.LTS/include/m
     767                      .dwattr $C$DW$43, DW_AT_decl_line(0xe4)
     768                      .dwattr $C$DW$43, DW_AT_decl_column(0x10)
     769                      .dwattr $C$DW$43, DW_AT_TI_max_frame_size(-2)
     770                      .dwpsn  file "C:/ti/ccs1011/ccs/tools/compiler/ti-cgt-c2000_20.2.4.LTS/include/math.h",line 229,colum
     771              
     772                      .dwfde $C$DW$CIE, ||__relaxed_sqrtf||
     773              $C$DW$44        .dwtag  DW_TAG_formal_parameter
     774                      .dwattr $C$DW$44, DW_AT_name("x")
     775                      .dwattr $C$DW$44, DW_AT_type(*$C$DW$T$16)
     776                      .dwattr $C$DW$44, DW_AT_location[DW_OP_regx 0x2b]
     777              
     778              
     779              ;***************************************************************
     780              ;* FNAME: __relaxed_sqrtf               FR SIZE:   0           *
     781              ;*                                                             *
     782              ;* FUNCTION ENVIRONMENT                                        *
     783              ;*                                                             *
     784              ;* FUNCTION PROPERTIES                                         *
     785              ;*                            0 Parameter,  0 Auto,  0 SOE     *
     786              ;***************************************************************
     787              
     788              ||__relaxed_sqrtf||:
     789              ;* R0    assigned to x
     790              $C$DW$45        .dwtag  DW_TAG_variable
     791                      .dwattr $C$DW$45, DW_AT_name("x")
     792                      .dwattr $C$DW$45, DW_AT_type(*$C$DW$T$82)
     793                      .dwattr $C$DW$45, DW_AT_location[DW_OP_regx 0x2b]
     794              
     795                      .dwcfi  cfa_offset, -2
     796                      .dwcfi  save_reg_to_mem, 26, 0
     797                      .dwpsn  file "C:/ti/ccs1011/ccs/tools/compiler/ti-cgt-c2000_20.2.4.LTS/include/math.h",line 230,colum
     798 00000000 E277          SQRTF32   R0H,R0H               ; [CPU_FPU] |230| 
         00000001 0000 
     799 00000002 7700          NOP       ; [CPU_ALU] 
     800 00000003 7700          NOP       ; [CPU_ALU] 
     801 00000004 7700          NOP       ; [CPU_ALU] 
     802              $C$DW$46        .dwtag  DW_TAG_TI_branch
     803                      .dwattr $C$DW$46, DW_AT_low_pc(0x00)
     804                      .dwattr $C$DW$46, DW_AT_TI_return
     805              
     806 00000005 0006          LRETR     ; [CPU_ALU] 
     807                      ; return occurs ; [] 
     808                      .dwattr $C$DW$43, DW_AT_TI_end_file("C:/ti/ccs1011/ccs/tools/compiler/ti-cgt-c2000_20.2.4.LTS/include
     809                      .dwattr $C$DW$43, DW_AT_TI_end_line(0xe7)
     810                      .dwattr $C$DW$43, DW_AT_TI_end_column(0x01)
     811                      .dwendentry
     812                      .dwendtag $C$DW$43
     813              
TMS320C2000 Assembler PC v20.2.4 Mon Jan 11 05:48:47 2021

Copyright (c) 1996-2018 Texas Instruments Incorporated
bts.asm                                                              PAGE   18

     814 00000000               .sect   ".text:__relaxed_sinf"
     815                      .clink
     816                      .global ||__relaxed_sinf||
     817              
     818              $C$DW$47        .dwtag  DW_TAG_subprogram
     819                      .dwattr $C$DW$47, DW_AT_name("__relaxed_sinf")
     820                      .dwattr $C$DW$47, DW_AT_low_pc(||__relaxed_sinf||)
     821                      .dwattr $C$DW$47, DW_AT_high_pc(0x00)
     822                      .dwattr $C$DW$47, DW_AT_linkage_name("__relaxed_sinf")
     823                      .dwattr $C$DW$47, DW_AT_external
     824                      .dwattr $C$DW$47, DW_AT_type(*$C$DW$T$16)
     825                      .dwattr $C$DW$47, DW_AT_decl_file("C:/ti/ccs1011/ccs/tools/compiler/ti-cgt-c2000_20.2.4.LTS/include/m
     826                      .dwattr $C$DW$47, DW_AT_decl_line(0xe9)
     827                      .dwattr $C$DW$47, DW_AT_decl_column(0x10)
     828                      .dwattr $C$DW$47, DW_AT_TI_max_frame_size(-2)
     829                      .dwpsn  file "C:/ti/ccs1011/ccs/tools/compiler/ti-cgt-c2000_20.2.4.LTS/include/math.h",line 234,colum
     830              
     831                      .dwfde $C$DW$CIE, ||__relaxed_sinf||
     832              $C$DW$48        .dwtag  DW_TAG_formal_parameter
     833                      .dwattr $C$DW$48, DW_AT_name("x")
     834                      .dwattr $C$DW$48, DW_AT_type(*$C$DW$T$16)
     835                      .dwattr $C$DW$48, DW_AT_location[DW_OP_regx 0x2b]
     836              
     837              
     838              ;***************************************************************
     839              ;* FNAME: __relaxed_sinf                FR SIZE:   0           *
     840              ;*                                                             *
     841              ;* FUNCTION ENVIRONMENT                                        *
     842              ;*                                                             *
     843              ;* FUNCTION PROPERTIES                                         *
     844              ;*                            0 Parameter,  0 Auto,  0 SOE     *
     845              ;***************************************************************
     846              
     847              ||__relaxed_sinf||:
     848              ;* R0    assigned to x
     849              $C$DW$49        .dwtag  DW_TAG_variable
     850                      .dwattr $C$DW$49, DW_AT_name("x")
     851                      .dwattr $C$DW$49, DW_AT_type(*$C$DW$T$82)
     852                      .dwattr $C$DW$49, DW_AT_location[DW_OP_regx 0x2b]
     853              
     854                      .dwcfi  cfa_offset, -2
     855                      .dwcfi  save_reg_to_mem, 26, 0
     856                      .dwpsn  file "C:/ti/ccs1011/ccs/tools/compiler/ti-cgt-c2000_20.2.4.LTS/include/math.h",line 235,colum
     857 00000000 E271          DIV2PIF32 R0H,R0H               ; [CPU_FPU] |235| 
         00000001 0000 
     858 00000002 7700          NOP       ; [CPU_ALU] 
     859 00000003 E278          SINPUF32  R0H,R0H               ; [CPU_FPU] |235| 
         00000004 0000 
     860 00000005 7700          NOP       ; [CPU_ALU] 
     861 00000006 7700          NOP       ; [CPU_ALU] 
     862              $C$DW$50        .dwtag  DW_TAG_TI_branch
     863                      .dwattr $C$DW$50, DW_AT_low_pc(0x00)
     864                      .dwattr $C$DW$50, DW_AT_TI_return
     865              
     866 00000007 0006          LRETR     ; [CPU_ALU] 
TMS320C2000 Assembler PC v20.2.4 Mon Jan 11 05:48:47 2021

Copyright (c) 1996-2018 Texas Instruments Incorporated
bts.asm                                                              PAGE   19

     867                      ; return occurs ; [] 
     868                      .dwattr $C$DW$47, DW_AT_TI_end_file("C:/ti/ccs1011/ccs/tools/compiler/ti-cgt-c2000_20.2.4.LTS/include
     869                      .dwattr $C$DW$47, DW_AT_TI_end_line(0xec)
     870                      .dwattr $C$DW$47, DW_AT_TI_end_column(0x01)
     871                      .dwendentry
     872                      .dwendtag $C$DW$47
     873              
     874 00000000               .sect   ".text:__relaxed_cosf"
     875                      .clink
     876                      .global ||__relaxed_cosf||
     877              
     878              $C$DW$51        .dwtag  DW_TAG_subprogram
     879                      .dwattr $C$DW$51, DW_AT_name("__relaxed_cosf")
     880                      .dwattr $C$DW$51, DW_AT_low_pc(||__relaxed_cosf||)
     881                      .dwattr $C$DW$51, DW_AT_high_pc(0x00)
     882                      .dwattr $C$DW$51, DW_AT_linkage_name("__relaxed_cosf")
     883                      .dwattr $C$DW$51, DW_AT_external
     884                      .dwattr $C$DW$51, DW_AT_type(*$C$DW$T$16)
     885                      .dwattr $C$DW$51, DW_AT_decl_file("C:/ti/ccs1011/ccs/tools/compiler/ti-cgt-c2000_20.2.4.LTS/include/m
     886                      .dwattr $C$DW$51, DW_AT_decl_line(0xee)
     887                      .dwattr $C$DW$51, DW_AT_decl_column(0x10)
     888                      .dwattr $C$DW$51, DW_AT_TI_max_frame_size(-2)
     889                      .dwpsn  file "C:/ti/ccs1011/ccs/tools/compiler/ti-cgt-c2000_20.2.4.LTS/include/math.h",line 239,colum
     890              
     891                      .dwfde $C$DW$CIE, ||__relaxed_cosf||
     892              $C$DW$52        .dwtag  DW_TAG_formal_parameter
     893                      .dwattr $C$DW$52, DW_AT_name("x")
     894                      .dwattr $C$DW$52, DW_AT_type(*$C$DW$T$16)
     895                      .dwattr $C$DW$52, DW_AT_location[DW_OP_regx 0x2b]
     896              
     897              
     898              ;***************************************************************
     899              ;* FNAME: __relaxed_cosf                FR SIZE:   0           *
     900              ;*                                                             *
     901              ;* FUNCTION ENVIRONMENT                                        *
     902              ;*                                                             *
     903              ;* FUNCTION PROPERTIES                                         *
     904              ;*                            0 Parameter,  0 Auto,  0 SOE     *
     905              ;***************************************************************
     906              
     907              ||__relaxed_cosf||:
     908              ;* R0    assigned to x
     909              $C$DW$53        .dwtag  DW_TAG_variable
     910                      .dwattr $C$DW$53, DW_AT_name("x")
     911                      .dwattr $C$DW$53, DW_AT_type(*$C$DW$T$82)
     912                      .dwattr $C$DW$53, DW_AT_location[DW_OP_regx 0x2b]
     913              
     914                      .dwcfi  cfa_offset, -2
     915                      .dwcfi  save_reg_to_mem, 26, 0
     916                      .dwpsn  file "C:/ti/ccs1011/ccs/tools/compiler/ti-cgt-c2000_20.2.4.LTS/include/math.h",line 240,colum
     917 00000000 E271          DIV2PIF32 R0H,R0H               ; [CPU_FPU] |240| 
         00000001 0000 
     918 00000002 7700          NOP       ; [CPU_ALU] 
     919 00000003 E279          COSPUF32  R0H,R0H               ; [CPU_FPU] |240| 
         00000004 0000 
TMS320C2000 Assembler PC v20.2.4 Mon Jan 11 05:48:47 2021

Copyright (c) 1996-2018 Texas Instruments Incorporated
bts.asm                                                              PAGE   20

     920 00000005 7700          NOP       ; [CPU_ALU] 
     921 00000006 7700          NOP       ; [CPU_ALU] 
     922              $C$DW$54        .dwtag  DW_TAG_TI_branch
     923                      .dwattr $C$DW$54, DW_AT_low_pc(0x00)
     924                      .dwattr $C$DW$54, DW_AT_TI_return
     925              
     926 00000007 0006          LRETR     ; [CPU_ALU] 
     927                      ; return occurs ; [] 
     928                      .dwattr $C$DW$51, DW_AT_TI_end_file("C:/ti/ccs1011/ccs/tools/compiler/ti-cgt-c2000_20.2.4.LTS/include
     929                      .dwattr $C$DW$51, DW_AT_TI_end_line(0xf1)
     930                      .dwattr $C$DW$51, DW_AT_TI_end_column(0x01)
     931                      .dwendentry
     932                      .dwendtag $C$DW$51
     933              
     934 00000000               .sect   ".text:__relaxed_atanf"
     935                      .clink
     936                      .global ||__relaxed_atanf||
     937              
     938              $C$DW$55        .dwtag  DW_TAG_subprogram
     939                      .dwattr $C$DW$55, DW_AT_name("__relaxed_atanf")
     940                      .dwattr $C$DW$55, DW_AT_low_pc(||__relaxed_atanf||)
     941                      .dwattr $C$DW$55, DW_AT_high_pc(0x00)
     942                      .dwattr $C$DW$55, DW_AT_linkage_name("__relaxed_atanf")
     943                      .dwattr $C$DW$55, DW_AT_external
     944                      .dwattr $C$DW$55, DW_AT_type(*$C$DW$T$16)
     945                      .dwattr $C$DW$55, DW_AT_decl_file("C:/ti/ccs1011/ccs/tools/compiler/ti-cgt-c2000_20.2.4.LTS/include/m
     946                      .dwattr $C$DW$55, DW_AT_decl_line(0xf3)
     947                      .dwattr $C$DW$55, DW_AT_decl_column(0x10)
     948                      .dwattr $C$DW$55, DW_AT_TI_max_frame_size(-2)
     949                      .dwpsn  file "C:/ti/ccs1011/ccs/tools/compiler/ti-cgt-c2000_20.2.4.LTS/include/math.h",line 244,colum
     950              
     951                      .dwfde $C$DW$CIE, ||__relaxed_atanf||
     952              $C$DW$56        .dwtag  DW_TAG_formal_parameter
     953                      .dwattr $C$DW$56, DW_AT_name("x")
     954                      .dwattr $C$DW$56, DW_AT_type(*$C$DW$T$16)
     955                      .dwattr $C$DW$56, DW_AT_location[DW_OP_regx 0x2b]
     956              
     957              
     958              ;***************************************************************
     959              ;* FNAME: __relaxed_atanf               FR SIZE:   0           *
     960              ;*                                                             *
     961              ;* FUNCTION ENVIRONMENT                                        *
     962              ;*                                                             *
     963              ;* FUNCTION PROPERTIES                                         *
     964              ;*                            0 Parameter,  0 Auto,  0 SOE     *
     965              ;***************************************************************
     966              
     967              ||__relaxed_atanf||:
     968              ;* R0    assigned to x
     969              $C$DW$57        .dwtag  DW_TAG_variable
     970                      .dwattr $C$DW$57, DW_AT_name("x")
     971                      .dwattr $C$DW$57, DW_AT_type(*$C$DW$T$82)
     972                      .dwattr $C$DW$57, DW_AT_location[DW_OP_regx 0x2b]
     973              
     974                      .dwcfi  cfa_offset, -2
TMS320C2000 Assembler PC v20.2.4 Mon Jan 11 05:48:47 2021

Copyright (c) 1996-2018 Texas Instruments Incorporated
bts.asm                                                              PAGE   21

     975                      .dwcfi  save_reg_to_mem, 26, 0
     976                      .dwpsn  file "C:/ti/ccs1011/ccs/tools/compiler/ti-cgt-c2000_20.2.4.LTS/include/math.h",line 245,colum
     977 00000000 E801          MOVIZ     R1H,#16256            ; [CPU_FPU] |245| 
         00000001 FC01 
     978 00000002 E27C          QUADF32   R1H,R0H,R0H,R1H       ; [CPU_FPU] |245| 
         00000003 0201 
     979 00000004 7700          NOP       ; [CPU_ALU] 
     980 00000005 7700          NOP       ; [CPU_ALU] 
     981 00000006 7700          NOP       ; [CPU_ALU] 
     982 00000007 7700          NOP       ; [CPU_ALU] 
     983 00000008 E27A          ATANPUF32 R0H,R0H               ; [CPU_FPU] |245| 
         00000009 0000 
     984 0000000a 7700          NOP       ; [CPU_ALU] 
     985 0000000b 7700          NOP       ; [CPU_ALU] 
     986 0000000c 7700          NOP       ; [CPU_ALU] 
     987 0000000d E710          ADDF32    R0H,R0H,R1H           ; [CPU_FPU] |245| 
         0000000e 0040 
     988 0000000f 7700          NOP       ; [CPU_ALU] 
     989 00000010 7700          NOP       ; [CPU_ALU] 
     990 00000011 E270          MPY2PIF32 R0H,R0H               ; [CPU_FPU] |245| 
         00000012 0000 
     991 00000013 7700          NOP       ; [CPU_ALU] 
     992              $C$DW$58        .dwtag  DW_TAG_TI_branch
     993                      .dwattr $C$DW$58, DW_AT_low_pc(0x00)
     994                      .dwattr $C$DW$58, DW_AT_TI_return
     995              
     996 00000014 0006          LRETR     ; [CPU_ALU] 
     997                      ; return occurs ; [] 
     998                      .dwattr $C$DW$55, DW_AT_TI_end_file("C:/ti/ccs1011/ccs/tools/compiler/ti-cgt-c2000_20.2.4.LTS/include
     999                      .dwattr $C$DW$55, DW_AT_TI_end_line(0xf6)
    1000                      .dwattr $C$DW$55, DW_AT_TI_end_column(0x01)
    1001                      .dwendentry
    1002                      .dwendtag $C$DW$55
    1003              
    1004 00000000               .sect   ".text:__relaxed_atan2f"
    1005                      .clink
    1006                      .global ||__relaxed_atan2f||
    1007              
    1008              $C$DW$59        .dwtag  DW_TAG_subprogram
    1009                      .dwattr $C$DW$59, DW_AT_name("__relaxed_atan2f")
    1010                      .dwattr $C$DW$59, DW_AT_low_pc(||__relaxed_atan2f||)
    1011                      .dwattr $C$DW$59, DW_AT_high_pc(0x00)
    1012                      .dwattr $C$DW$59, DW_AT_linkage_name("__relaxed_atan2f")
    1013                      .dwattr $C$DW$59, DW_AT_external
    1014                      .dwattr $C$DW$59, DW_AT_type(*$C$DW$T$16)
    1015                      .dwattr $C$DW$59, DW_AT_decl_file("C:/ti/ccs1011/ccs/tools/compiler/ti-cgt-c2000_20.2.4.LTS/include/m
    1016                      .dwattr $C$DW$59, DW_AT_decl_line(0xf8)
    1017                      .dwattr $C$DW$59, DW_AT_decl_column(0x10)
    1018                      .dwattr $C$DW$59, DW_AT_TI_max_frame_size(-2)
    1019                      .dwpsn  file "C:/ti/ccs1011/ccs/tools/compiler/ti-cgt-c2000_20.2.4.LTS/include/math.h",line 249,colum
    1020              
    1021                      .dwfde $C$DW$CIE, ||__relaxed_atan2f||
    1022              $C$DW$60        .dwtag  DW_TAG_formal_parameter
    1023                      .dwattr $C$DW$60, DW_AT_name("y")
    1024                      .dwattr $C$DW$60, DW_AT_type(*$C$DW$T$16)
TMS320C2000 Assembler PC v20.2.4 Mon Jan 11 05:48:47 2021

Copyright (c) 1996-2018 Texas Instruments Incorporated
bts.asm                                                              PAGE   22

    1025                      .dwattr $C$DW$60, DW_AT_location[DW_OP_regx 0x2b]
    1026              
    1027              $C$DW$61        .dwtag  DW_TAG_formal_parameter
    1028                      .dwattr $C$DW$61, DW_AT_name("x")
    1029                      .dwattr $C$DW$61, DW_AT_type(*$C$DW$T$16)
    1030                      .dwattr $C$DW$61, DW_AT_location[DW_OP_regx 0x2f]
    1031              
    1032              
    1033              ;***************************************************************
    1034              ;* FNAME: __relaxed_atan2f              FR SIZE:   0           *
    1035              ;*                                                             *
    1036              ;* FUNCTION ENVIRONMENT                                        *
    1037              ;*                                                             *
    1038              ;* FUNCTION PROPERTIES                                         *
    1039              ;*                            0 Parameter,  0 Auto,  0 SOE     *
    1040              ;***************************************************************
    1041              
    1042              ||__relaxed_atan2f||:
    1043              ;* R0    assigned to y
    1044              $C$DW$62        .dwtag  DW_TAG_variable
    1045                      .dwattr $C$DW$62, DW_AT_name("y")
    1046                      .dwattr $C$DW$62, DW_AT_type(*$C$DW$T$82)
    1047                      .dwattr $C$DW$62, DW_AT_location[DW_OP_regx 0x2b]
    1048              
    1049              ;* R1    assigned to x
    1050              $C$DW$63        .dwtag  DW_TAG_variable
    1051                      .dwattr $C$DW$63, DW_AT_name("x")
    1052                      .dwattr $C$DW$63, DW_AT_type(*$C$DW$T$82)
    1053                      .dwattr $C$DW$63, DW_AT_location[DW_OP_regx 0x2f]
    1054              
    1055                      .dwcfi  cfa_offset, -2
    1056                      .dwcfi  save_reg_to_mem, 26, 0
    1057                      .dwpsn  file "C:/ti/ccs1011/ccs/tools/compiler/ti-cgt-c2000_20.2.4.LTS/include/math.h",line 250,colum
    1058 00000000 E27C          QUADF32   R1H,R0H,R0H,R1H       ; [CPU_FPU] |250| 
         00000001 0201 
    1059 00000002 7700          NOP       ; [CPU_ALU] 
    1060 00000003 7700          NOP       ; [CPU_ALU] 
    1061 00000004 7700          NOP       ; [CPU_ALU] 
    1062 00000005 7700          NOP       ; [CPU_ALU] 
    1063 00000006 E27A          ATANPUF32 R0H,R0H               ; [CPU_FPU] |250| 
         00000007 0000 
    1064 00000008 7700          NOP       ; [CPU_ALU] 
    1065 00000009 7700          NOP       ; [CPU_ALU] 
    1066 0000000a 7700          NOP       ; [CPU_ALU] 
    1067 0000000b E710          ADDF32    R0H,R0H,R1H           ; [CPU_FPU] |250| 
         0000000c 0040 
    1068 0000000d 7700          NOP       ; [CPU_ALU] 
    1069 0000000e 7700          NOP       ; [CPU_ALU] 
    1070 0000000f E270          MPY2PIF32 R0H,R0H               ; [CPU_FPU] |250| 
         00000010 0000 
    1071 00000011 7700          NOP       ; [CPU_ALU] 
    1072              $C$DW$64        .dwtag  DW_TAG_TI_branch
    1073                      .dwattr $C$DW$64, DW_AT_low_pc(0x00)
    1074                      .dwattr $C$DW$64, DW_AT_TI_return
    1075              
TMS320C2000 Assembler PC v20.2.4 Mon Jan 11 05:48:47 2021

Copyright (c) 1996-2018 Texas Instruments Incorporated
bts.asm                                                              PAGE   23

    1076 00000012 0006          LRETR     ; [CPU_ALU] 
    1077                      ; return occurs ; [] 
    1078                      .dwattr $C$DW$59, DW_AT_TI_end_file("C:/ti/ccs1011/ccs/tools/compiler/ti-cgt-c2000_20.2.4.LTS/include
    1079                      .dwattr $C$DW$59, DW_AT_TI_end_line(0xfb)
    1080                      .dwattr $C$DW$59, DW_AT_TI_end_column(0x01)
    1081                      .dwendentry
    1082                      .dwendtag $C$DW$59
    1083              
    1084 00000000               .sect   ".text:__isnormall"
    1085                      .clink
    1086                      .global ||__isnormall||
    1087              
    1088              $C$DW$65        .dwtag  DW_TAG_subprogram
    1089                      .dwattr $C$DW$65, DW_AT_name("__isnormall")
    1090                      .dwattr $C$DW$65, DW_AT_low_pc(||__isnormall||)
    1091                      .dwattr $C$DW$65, DW_AT_high_pc(0x00)
    1092                      .dwattr $C$DW$65, DW_AT_linkage_name("__isnormall")
    1093                      .dwattr $C$DW$65, DW_AT_external
    1094                      .dwattr $C$DW$65, DW_AT_type(*$C$DW$T$10)
    1095                      .dwattr $C$DW$65, DW_AT_decl_file("C:/ti/ccs1011/ccs/tools/compiler/ti-cgt-c2000_20.2.4.LTS/include/_
    1096                      .dwattr $C$DW$65, DW_AT_decl_line(0x167)
    1097                      .dwattr $C$DW$65, DW_AT_decl_column(0x25)
    1098                      .dwattr $C$DW$65, DW_AT_TI_max_frame_size(-6)
    1099                      .dwpsn  file "C:/ti/ccs1011/ccs/tools/compiler/ti-cgt-c2000_20.2.4.LTS/include/_defs.h",line 360,colu
    1100              
    1101                      .dwfde $C$DW$CIE, ||__isnormall||
    1102              $C$DW$66        .dwtag  DW_TAG_formal_parameter
    1103                      .dwattr $C$DW$66, DW_AT_name("e")
    1104                      .dwattr $C$DW$66, DW_AT_type(*$C$DW$T$87)
    1105                      .dwattr $C$DW$66, DW_AT_location[DW_OP_reg12]
    1106              
    1107              
    1108              ;***************************************************************
    1109              ;* FNAME: __isnormall                   FR SIZE:   4           *
    1110              ;*                                                             *
    1111              ;* FUNCTION ENVIRONMENT                                        *
    1112              ;*                                                             *
    1113              ;* FUNCTION PROPERTIES                                         *
    1114              ;*                            4 Parameter,  0 Auto,  0 SOE     *
    1115              ;***************************************************************
    1116              
    1117              ||__isnormall||:
    1118              ;* AR5   assigned to $O$C2
    1119              ;* AR6   assigned to $O$S1
    1120              ;* AR4   assigned to e
    1121              $C$DW$67        .dwtag  DW_TAG_variable
    1122                      .dwattr $C$DW$67, DW_AT_name("e")
    1123                      .dwattr $C$DW$67, DW_AT_type(*$C$DW$T$88)
    1124                      .dwattr $C$DW$67, DW_AT_location[DW_OP_reg12]
    1125              
    1126                      .dwcfi  cfa_offset, -2
    1127                      .dwcfi  save_reg_to_mem, 26, 0
    1128 00000000 FE04          ADDB      SP,#4                 ; [CPU_ARAU] 
    1129                      .dwcfi  cfa_offset, -6
    1130                      .dwpsn  file "C:/ti/ccs1011/ccs/tools/compiler/ti-cgt-c2000_20.2.4.LTS/include/_defs.h",line 360,colu
TMS320C2000 Assembler PC v20.2.4 Mon Jan 11 05:48:47 2021

Copyright (c) 1996-2018 Texas Instruments Incorporated
bts.asm                                                              PAGE   24

    1131 00000001 83C4          MOVL      XAR5,*+XAR4[0]        ; [CPU_ALU] |360| 
    1132 00000002 8AD4          MOVL      XAR4,*+XAR4[2]        ; [CPU_ALU] |360| 
    1133 00000003 BE00          MOVB      XAR6,#0               ; [CPU_ALU] |360| 
    1134 00000004 28AC          MOV       T,#52                 ; [CPU_ALU] |360| 
         00000005 0034 
    1135 00000006 A0AB          MOVL      P,XAR5                ; [CPU_ALU] |360| 
    1136 00000007 A8A9          MOVL      ACC,XAR4              ; [CPU_ALU] |360| 
    1137 00000008 C244          MOVL      *-SP[4],XAR6          ; [CPU_ALU] |360| 
    1138 00000009 2B42          MOV       *-SP[2],#0            ; [CPU_ALU] |360| 
    1139 0000000a 565B          LSR64     ACC:P,T               ; [CPU_ALU] |360| 
    1140 0000000b 2B41          MOV       *-SP[1],#0            ; [CPU_FPU] |360| 
    1141 0000000c 9000          ANDB      AL,#0                 ; [CPU_ALU] |360| 
    1142 0000000d 9100          ANDB      AH,#0                 ; [CPU_ALU] |360| 
    1143 0000000e 18AB          AND       PL,#2047              ; [CPU_ALU] |360| 
         0000000f 07FF 
    1144 00000010 18AA          AND       PH,#0                 ; [CPU_ALU] |360| 
         00000011 0000 
    1145              $C$DW$68        .dwtag  DW_TAG_TI_branch
    1146                      .dwattr $C$DW$68, DW_AT_low_pc(0x00)
    1147                      .dwattr $C$DW$68, DW_AT_name("__c28xabi_cmpull")
    1148                      .dwattr $C$DW$68, DW_AT_TI_call
    1149              
    1150 00000012 7640!         LCR       #||__c28xabi_cmpull|| ; [CPU_ALU] |360| 
         00000013 0000 
    1151                      ; call occurs [#||__c28xabi_cmpull||] ; [] |360| 
    1152 00000014 BE00          MOVB      XAR6,#0               ; [CPU_ALU] |360| 
    1153 00000015 5200          CMPB      AL,#0                 ; [CPU_ALU] |360| 
    1154 00000016 610F          B         ||$C$L1||,EQ          ; [CPU_ALU] |360| 
    1155                      ; branchcc occurs ; [] |360| 
    1156 00000017 A0AB          MOVL      P,XAR5                ; [CPU_ALU] |360| 
    1157 00000018 A8A9          MOVL      ACC,XAR4              ; [CPU_ALU] |360| 
    1158 00000019 28AC          MOV       T,#48                 ; [CPU_ALU] |360| 
         0000001a 0030 
    1159 0000001b 565B          LSR64     ACC:P,T               ; [CPU_ALU] |360| 
    1160 0000001c 18AB          AND       PL,#0x7ff0            ; [CPU_ALU] |360| 
         0000001d 7FF0 
    1161 0000001e 80AB          MOVZ      AR7,PL                ; [CPU_ALU] |360| 
    1162 0000001f 8F00          MOVL      XAR4,#32752           ; [CPU_ARAU] |360| 
         00000020 7FF0 
    1163 00000021 A8A9          MOVL      ACC,XAR4              ; [CPU_ALU] |360| 
    1164 00000022 0FA7          CMPL      ACC,XAR7              ; [CPU_ALU] |360| 
    1165 00000023 56B0          MOVB      XAR6,#1,NEQ           ; [CPU_ALU] |360| 
         00000024 01A6 
    1166 00000025       ||$C$L1||:    
    1167 00000025 FE84          SUBB      SP,#4                 ; [CPU_ARAU] 
    1168                      .dwcfi  cfa_offset, -2
    1169 00000026 92A6          MOV       AL,AR6                ; [CPU_ALU] |360| 
    1170              $C$DW$69        .dwtag  DW_TAG_TI_branch
    1171                      .dwattr $C$DW$69, DW_AT_low_pc(0x00)
    1172                      .dwattr $C$DW$69, DW_AT_TI_return
    1173              
    1174 00000027 0006          LRETR     ; [CPU_ALU] 
    1175                      ; return occurs ; [] 
    1176                      .dwattr $C$DW$65, DW_AT_TI_end_file("C:/ti/ccs1011/ccs/tools/compiler/ti-cgt-c2000_20.2.4.LTS/include
    1177                      .dwattr $C$DW$65, DW_AT_TI_end_line(0x169)
TMS320C2000 Assembler PC v20.2.4 Mon Jan 11 05:48:47 2021

Copyright (c) 1996-2018 Texas Instruments Incorporated
bts.asm                                                              PAGE   25

    1178                      .dwattr $C$DW$65, DW_AT_TI_end_column(0x31)
    1179                      .dwendentry
    1180                      .dwendtag $C$DW$65
    1181              
    1182 00000000               .sect   ".text:__isnormalf"
    1183                      .clink
    1184                      .global ||__isnormalf||
    1185              
    1186              $C$DW$70        .dwtag  DW_TAG_subprogram
    1187                      .dwattr $C$DW$70, DW_AT_name("__isnormalf")
    1188                      .dwattr $C$DW$70, DW_AT_low_pc(||__isnormalf||)
    1189                      .dwattr $C$DW$70, DW_AT_high_pc(0x00)
    1190                      .dwattr $C$DW$70, DW_AT_linkage_name("__isnormalf")
    1191                      .dwattr $C$DW$70, DW_AT_external
    1192                      .dwattr $C$DW$70, DW_AT_type(*$C$DW$T$10)
    1193                      .dwattr $C$DW$70, DW_AT_decl_file("C:/ti/ccs1011/ccs/tools/compiler/ti-cgt-c2000_20.2.4.LTS/include/_
    1194                      .dwattr $C$DW$70, DW_AT_decl_line(0x163)
    1195                      .dwattr $C$DW$70, DW_AT_decl_column(0x25)
    1196                      .dwattr $C$DW$70, DW_AT_TI_max_frame_size(-2)
    1197                      .dwpsn  file "C:/ti/ccs1011/ccs/tools/compiler/ti-cgt-c2000_20.2.4.LTS/include/_defs.h",line 356,colu
    1198              
    1199                      .dwfde $C$DW$CIE, ||__isnormalf||
    1200              $C$DW$71        .dwtag  DW_TAG_formal_parameter
    1201                      .dwattr $C$DW$71, DW_AT_name("f")
    1202                      .dwattr $C$DW$71, DW_AT_type(*$C$DW$T$16)
    1203                      .dwattr $C$DW$71, DW_AT_location[DW_OP_regx 0x2b]
    1204              
    1205              
    1206              ;***************************************************************
    1207              ;* FNAME: __isnormalf                   FR SIZE:   0           *
    1208              ;*                                                             *
    1209              ;* FUNCTION ENVIRONMENT                                        *
    1210              ;*                                                             *
    1211              ;* FUNCTION PROPERTIES                                         *
    1212              ;*                            0 Parameter,  0 Auto,  0 SOE     *
    1213              ;***************************************************************
    1214              
    1215              ||__isnormalf||:
    1216              ;* PL    assigned to $O$K3
    1217              ;* AR6   assigned to $O$S1
    1218              ;* R0    assigned to f
    1219              $C$DW$72        .dwtag  DW_TAG_variable
    1220                      .dwattr $C$DW$72, DW_AT_name("f")
    1221                      .dwattr $C$DW$72, DW_AT_type(*$C$DW$T$82)
    1222                      .dwattr $C$DW$72, DW_AT_location[DW_OP_regx 0x2b]
    1223              
    1224                      .dwcfi  cfa_offset, -2
    1225                      .dwcfi  save_reg_to_mem, 26, 0
    1226                      .dwpsn  file "C:/ti/ccs1011/ccs/tools/compiler/ti-cgt-c2000_20.2.4.LTS/include/_defs.h",line 356,colu
    1227 00000000 BFAB          MOV32     P,R0H                 ; [CPU_FPU] |356| 
         00000001 0F12 
    1228 00000002 28AC          MOV       T,#23                 ; [CPU_ALU] |356| 
         00000003 0017 
    1229 00000004 A9A9          MOVL      ACC,P                 ; [CPU_ALU] |356| 
    1230 00000005 BE00          MOVB      XAR6,#0               ; [CPU_ALU] |356| 
TMS320C2000 Assembler PC v20.2.4 Mon Jan 11 05:48:47 2021

Copyright (c) 1996-2018 Texas Instruments Incorporated
bts.asm                                                              PAGE   26

    1231 00000006 5622          LSRL      ACC,T                 ; [CPU_ALU] |356| 
    1232 00000007 90FF          ANDB      AL,#0xff              ; [CPU_ALU] |356| 
    1233 00000008 610A          B         ||$C$L2||,EQ          ; [CPU_ALU] |356| 
    1234                      ; branchcc occurs ; [] |356| 
    1235 00000009 CCAA          AND       AL,PH,#0x7f80         ; [CPU_ALU] |356| 
         0000000a 7F80 
    1236 0000000b 80A9          MOVZ      AR7,AL                ; [CPU_ALU] |356| 
    1237 0000000c 8F00          MOVL      XAR4,#32640           ; [CPU_ARAU] |356| 
         0000000d 7F80 
    1238 0000000e A8A9          MOVL      ACC,XAR4              ; [CPU_ALU] |356| 
    1239 0000000f 0FA7          CMPL      ACC,XAR7              ; [CPU_ALU] |356| 
    1240 00000010 56B0          MOVB      XAR6,#1,NEQ           ; [CPU_ALU] |356| 
         00000011 01A6 
    1241 00000012       ||$C$L2||:    
    1242 00000012 92A6          MOV       AL,AR6                ; [CPU_ALU] |356| 
    1243              $C$DW$73        .dwtag  DW_TAG_TI_branch
    1244                      .dwattr $C$DW$73, DW_AT_low_pc(0x00)
    1245                      .dwattr $C$DW$73, DW_AT_TI_return
    1246              
    1247 00000013 0006          LRETR     ; [CPU_ALU] 
    1248                      ; return occurs ; [] 
    1249                      .dwattr $C$DW$70, DW_AT_TI_end_file("C:/ti/ccs1011/ccs/tools/compiler/ti-cgt-c2000_20.2.4.LTS/include
    1250                      .dwattr $C$DW$70, DW_AT_TI_end_line(0x165)
    1251                      .dwattr $C$DW$70, DW_AT_TI_end_column(0x2f)
    1252                      .dwendentry
    1253                      .dwendtag $C$DW$70
    1254              
    1255 00000000               .sect   ".text:__isnormal"
    1256                      .clink
    1257                      .global ||__isnormal||
    1258              
    1259              $C$DW$74        .dwtag  DW_TAG_subprogram
    1260                      .dwattr $C$DW$74, DW_AT_name("__isnormal")
    1261                      .dwattr $C$DW$74, DW_AT_low_pc(||__isnormal||)
    1262                      .dwattr $C$DW$74, DW_AT_high_pc(0x00)
    1263                      .dwattr $C$DW$74, DW_AT_linkage_name("__isnormal")
    1264                      .dwattr $C$DW$74, DW_AT_external
    1265                      .dwattr $C$DW$74, DW_AT_type(*$C$DW$T$10)
    1266                      .dwattr $C$DW$74, DW_AT_decl_file("C:/ti/ccs1011/ccs/tools/compiler/ti-cgt-c2000_20.2.4.LTS/include/_
    1267                      .dwattr $C$DW$74, DW_AT_decl_line(0x15f)
    1268                      .dwattr $C$DW$74, DW_AT_decl_column(0x25)
    1269                      .dwattr $C$DW$74, DW_AT_TI_max_frame_size(-6)
    1270                      .dwpsn  file "C:/ti/ccs1011/ccs/tools/compiler/ti-cgt-c2000_20.2.4.LTS/include/_defs.h",line 352,colu
    1271              
    1272                      .dwfde $C$DW$CIE, ||__isnormal||
    1273              $C$DW$75        .dwtag  DW_TAG_formal_parameter
    1274                      .dwattr $C$DW$75, DW_AT_name("d")
    1275                      .dwattr $C$DW$75, DW_AT_type(*$C$DW$T$84)
    1276                      .dwattr $C$DW$75, DW_AT_location[DW_OP_reg12]
    1277              
    1278              
    1279              ;***************************************************************
    1280              ;* FNAME: __isnormal                    FR SIZE:   4           *
    1281              ;*                                                             *
    1282              ;* FUNCTION ENVIRONMENT                                        *
TMS320C2000 Assembler PC v20.2.4 Mon Jan 11 05:48:47 2021

Copyright (c) 1996-2018 Texas Instruments Incorporated
bts.asm                                                              PAGE   27

    1283              ;*                                                             *
    1284              ;* FUNCTION PROPERTIES                                         *
    1285              ;*                            4 Parameter,  0 Auto,  0 SOE     *
    1286              ;***************************************************************
    1287              
    1288              ||__isnormal||:
    1289              ;* AR5   assigned to $O$C2
    1290              ;* AR6   assigned to $O$S1
    1291              ;* AR4   assigned to d
    1292              $C$DW$76        .dwtag  DW_TAG_variable
    1293                      .dwattr $C$DW$76, DW_AT_name("d")
    1294                      .dwattr $C$DW$76, DW_AT_type(*$C$DW$T$85)
    1295                      .dwattr $C$DW$76, DW_AT_location[DW_OP_reg12]
    1296              
    1297                      .dwcfi  cfa_offset, -2
    1298                      .dwcfi  save_reg_to_mem, 26, 0
    1299 00000000 FE04          ADDB      SP,#4                 ; [CPU_ARAU] 
    1300                      .dwcfi  cfa_offset, -6
    1301                      .dwpsn  file "C:/ti/ccs1011/ccs/tools/compiler/ti-cgt-c2000_20.2.4.LTS/include/_defs.h",line 352,colu
    1302 00000001 83C4          MOVL      XAR5,*+XAR4[0]        ; [CPU_ALU] |352| 
    1303 00000002 8AD4          MOVL      XAR4,*+XAR4[2]        ; [CPU_ALU] |352| 
    1304 00000003 BE00          MOVB      XAR6,#0               ; [CPU_ALU] |352| 
    1305 00000004 28AC          MOV       T,#52                 ; [CPU_ALU] |352| 
         00000005 0034 
    1306 00000006 A0AB          MOVL      P,XAR5                ; [CPU_ALU] |352| 
    1307 00000007 A8A9          MOVL      ACC,XAR4              ; [CPU_ALU] |352| 
    1308 00000008 C244          MOVL      *-SP[4],XAR6          ; [CPU_ALU] |352| 
    1309 00000009 2B42          MOV       *-SP[2],#0            ; [CPU_ALU] |352| 
    1310 0000000a 565B          LSR64     ACC:P,T               ; [CPU_ALU] |352| 
    1311 0000000b 2B41          MOV       *-SP[1],#0            ; [CPU_FPU] |352| 
    1312 0000000c 9000          ANDB      AL,#0                 ; [CPU_ALU] |352| 
    1313 0000000d 9100          ANDB      AH,#0                 ; [CPU_ALU] |352| 
    1314 0000000e 18AB          AND       PL,#2047              ; [CPU_ALU] |352| 
         0000000f 07FF 
    1315 00000010 18AA          AND       PH,#0                 ; [CPU_ALU] |352| 
         00000011 0000 
    1316              $C$DW$77        .dwtag  DW_TAG_TI_branch
    1317                      .dwattr $C$DW$77, DW_AT_low_pc(0x00)
    1318                      .dwattr $C$DW$77, DW_AT_name("__c28xabi_cmpull")
    1319                      .dwattr $C$DW$77, DW_AT_TI_call
    1320              
    1321 00000012 7640!         LCR       #||__c28xabi_cmpull|| ; [CPU_ALU] |352| 
         00000013 0000 
    1322                      ; call occurs [#||__c28xabi_cmpull||] ; [] |352| 
    1323 00000014 BE00          MOVB      XAR6,#0               ; [CPU_ALU] |352| 
    1324 00000015 5200          CMPB      AL,#0                 ; [CPU_ALU] |352| 
    1325 00000016 610F          B         ||$C$L3||,EQ          ; [CPU_ALU] |352| 
    1326                      ; branchcc occurs ; [] |352| 
    1327 00000017 A0AB          MOVL      P,XAR5                ; [CPU_ALU] |352| 
    1328 00000018 A8A9          MOVL      ACC,XAR4              ; [CPU_ALU] |352| 
    1329 00000019 28AC          MOV       T,#48                 ; [CPU_ALU] |352| 
         0000001a 0030 
    1330 0000001b 565B          LSR64     ACC:P,T               ; [CPU_ALU] |352| 
    1331 0000001c 18AB          AND       PL,#0x7ff0            ; [CPU_ALU] |352| 
         0000001d 7FF0 
TMS320C2000 Assembler PC v20.2.4 Mon Jan 11 05:48:47 2021

Copyright (c) 1996-2018 Texas Instruments Incorporated
bts.asm                                                              PAGE   28

    1332 0000001e 80AB          MOVZ      AR7,PL                ; [CPU_ALU] |352| 
    1333 0000001f 8F00          MOVL      XAR4,#32752           ; [CPU_ARAU] |352| 
         00000020 7FF0 
    1334 00000021 A8A9          MOVL      ACC,XAR4              ; [CPU_ALU] |352| 
    1335 00000022 0FA7          CMPL      ACC,XAR7              ; [CPU_ALU] |352| 
    1336 00000023 56B0          MOVB      XAR6,#1,NEQ           ; [CPU_ALU] |352| 
         00000024 01A6 
    1337 00000025       ||$C$L3||:    
    1338 00000025 FE84          SUBB      SP,#4                 ; [CPU_ARAU] 
    1339                      .dwcfi  cfa_offset, -2
    1340 00000026 92A6          MOV       AL,AR6                ; [CPU_ALU] |352| 
    1341              $C$DW$78        .dwtag  DW_TAG_TI_branch
    1342                      .dwattr $C$DW$78, DW_AT_low_pc(0x00)
    1343                      .dwattr $C$DW$78, DW_AT_TI_return
    1344              
    1345 00000027 0006          LRETR     ; [CPU_ALU] 
    1346                      ; return occurs ; [] 
    1347                      .dwattr $C$DW$74, DW_AT_TI_end_file("C:/ti/ccs1011/ccs/tools/compiler/ti-cgt-c2000_20.2.4.LTS/include
    1348                      .dwattr $C$DW$74, DW_AT_TI_end_line(0x161)
    1349                      .dwattr $C$DW$74, DW_AT_TI_end_column(0x30)
    1350                      .dwendentry
    1351                      .dwendtag $C$DW$74
    1352              
    1353 00000000               .sect   ".text:__isnanl"
    1354                      .clink
    1355                      .global ||__isnanl||
    1356              
    1357              $C$DW$79        .dwtag  DW_TAG_subprogram
    1358                      .dwattr $C$DW$79, DW_AT_name("__isnanl")
    1359                      .dwattr $C$DW$79, DW_AT_low_pc(||__isnanl||)
    1360                      .dwattr $C$DW$79, DW_AT_high_pc(0x00)
    1361                      .dwattr $C$DW$79, DW_AT_linkage_name("__isnanl")
    1362                      .dwattr $C$DW$79, DW_AT_external
    1363                      .dwattr $C$DW$79, DW_AT_type(*$C$DW$T$10)
    1364                      .dwattr $C$DW$79, DW_AT_decl_file("C:/ti/ccs1011/ccs/tools/compiler/ti-cgt-c2000_20.2.4.LTS/include/_
    1365                      .dwattr $C$DW$79, DW_AT_decl_line(0x15b)
    1366                      .dwattr $C$DW$79, DW_AT_decl_column(0x25)
    1367                      .dwattr $C$DW$79, DW_AT_TI_max_frame_size(-6)
    1368                      .dwpsn  file "C:/ti/ccs1011/ccs/tools/compiler/ti-cgt-c2000_20.2.4.LTS/include/_defs.h",line 348,colu
    1369              
    1370                      .dwfde $C$DW$CIE, ||__isnanl||
    1371              $C$DW$80        .dwtag  DW_TAG_formal_parameter
    1372                      .dwattr $C$DW$80, DW_AT_name("e")
    1373                      .dwattr $C$DW$80, DW_AT_type(*$C$DW$T$87)
    1374                      .dwattr $C$DW$80, DW_AT_location[DW_OP_reg12]
    1375              
    1376              
    1377              ;***************************************************************
    1378              ;* FNAME: __isnanl                      FR SIZE:   4           *
    1379              ;*                                                             *
    1380              ;* FUNCTION ENVIRONMENT                                        *
    1381              ;*                                                             *
    1382              ;* FUNCTION PROPERTIES                                         *
    1383              ;*                            4 Parameter,  0 Auto,  0 SOE     *
    1384              ;***************************************************************
TMS320C2000 Assembler PC v20.2.4 Mon Jan 11 05:48:47 2021

Copyright (c) 1996-2018 Texas Instruments Incorporated
bts.asm                                                              PAGE   29

    1385              
    1386              ||__isnanl||:
    1387              ;* AR7   assigned to $O$C2
    1388              ;* AR4   assigned to $O$S1
    1389              ;* AR4   assigned to e
    1390              $C$DW$81        .dwtag  DW_TAG_variable
    1391                      .dwattr $C$DW$81, DW_AT_name("e")
    1392                      .dwattr $C$DW$81, DW_AT_type(*$C$DW$T$88)
    1393                      .dwattr $C$DW$81, DW_AT_location[DW_OP_reg12]
    1394              
    1395                      .dwcfi  cfa_offset, -2
    1396                      .dwcfi  save_reg_to_mem, 26, 0
    1397 00000000 FE04          ADDB      SP,#4                 ; [CPU_ARAU] 
    1398                      .dwcfi  cfa_offset, -6
    1399                      .dwpsn  file "C:/ti/ccs1011/ccs/tools/compiler/ti-cgt-c2000_20.2.4.LTS/include/_defs.h",line 348,colu
    1400 00000001 06D4          MOVL      ACC,*+XAR4[2]         ; [CPU_ALU] |348| 
    1401 00000002 C5C4          MOVL      XAR7,*+XAR4[0]        ; [CPU_ALU] |348| 
    1402 00000003 28AC          MOV       T,#48                 ; [CPU_ALU] |348| 
         00000004 0030 
    1403 00000005 8F40          MOVL      XAR5,#32752           ; [CPU_ARAU] |348| 
         00000006 7FF0 
    1404 00000007 1EA6          MOVL      XAR6,ACC              ; [CPU_ALU] |348| 
    1405 00000008 A3A7          MOVL      P,XAR7                ; [CPU_ALU] |348| 
    1406 00000009 D400          MOVB      XAR4,#0               ; [CPU_ALU] |348| 
    1407 0000000a 565B          LSR64     ACC:P,T               ; [CPU_ALU] |348| 
    1408 0000000b 2BAA          MOV       PH,#0                 ; [CPU_ALU] |348| 
    1409 0000000c 18AB          AND       PL,#0x7ff0            ; [CPU_ALU] |348| 
         0000000d 7FF0 
    1410 0000000e A0A9          MOVL      ACC,XAR5              ; [CPU_ALU] |348| 
    1411 0000000f 0FAB          CMPL      ACC,P                 ; [CPU_ALU] |348| 
    1412 00000010 6013          B         ||$C$L4||,NEQ         ; [CPU_ALU] |348| 
    1413                      ; branchcc occurs ; [] |348| 
    1414 00000011 06A6          MOVL      ACC,XAR6              ; [CPU_ALU] |348| 
    1415 00000012 A3A7          MOVL      P,XAR7                ; [CPU_ALU] |348| 
    1416 00000013 BE00          MOVB      XAR6,#0               ; [CPU_ALU] |348| 
    1417 00000014 18A9          AND       AL,#65535             ; [CPU_ALU] |348| 
         00000015 FFFF 
    1418 00000016 910F          ANDB      AH,#15                ; [CPU_ALU] |348| 
    1419 00000017 18AB          AND       PL,#65535             ; [CPU_ALU] |348| 
         00000018 FFFF 
    1420 00000019 18AA          AND       PH,#65535             ; [CPU_ALU] |348| 
         0000001a FFFF 
    1421 0000001b C244          MOVL      *-SP[4],XAR6          ; [CPU_FPU] |348| 
    1422 0000001c 2B42          MOV       *-SP[2],#0            ; [CPU_FPU] |348| 
    1423 0000001d 2B41          MOV       *-SP[1],#0            ; [CPU_FPU] |348| 
    1424              $C$DW$82        .dwtag  DW_TAG_TI_branch
    1425                      .dwattr $C$DW$82, DW_AT_low_pc(0x00)
    1426                      .dwattr $C$DW$82, DW_AT_name("__c28xabi_cmpull")
    1427                      .dwattr $C$DW$82, DW_AT_TI_call
    1428              
    1429 0000001e 7640!         LCR       #||__c28xabi_cmpull|| ; [CPU_ALU] |348| 
         0000001f 0000 
    1430                      ; call occurs [#||__c28xabi_cmpull||] ; [] |348| 
    1431 00000020 5200          CMPB      AL,#0                 ; [CPU_ALU] |348| 
    1432 00000021 56B0          MOVB      XAR4,#1,NEQ           ; [CPU_ALU] |348| 
TMS320C2000 Assembler PC v20.2.4 Mon Jan 11 05:48:47 2021

Copyright (c) 1996-2018 Texas Instruments Incorporated
bts.asm                                                              PAGE   30

         00000022 01A4 
    1433 00000023       ||$C$L4||:    
    1434 00000023 FE84          SUBB      SP,#4                 ; [CPU_ARAU] 
    1435                      .dwcfi  cfa_offset, -2
    1436 00000024 92A4          MOV       AL,AR4                ; [CPU_ALU] |348| 
    1437              $C$DW$83        .dwtag  DW_TAG_TI_branch
    1438                      .dwattr $C$DW$83, DW_AT_low_pc(0x00)
    1439                      .dwattr $C$DW$83, DW_AT_TI_return
    1440              
    1441 00000025 0006          LRETR     ; [CPU_ALU] 
    1442                      ; return occurs ; [] 
    1443                      .dwattr $C$DW$79, DW_AT_TI_end_file("C:/ti/ccs1011/ccs/tools/compiler/ti-cgt-c2000_20.2.4.LTS/include
    1444                      .dwattr $C$DW$79, DW_AT_TI_end_line(0x15d)
    1445                      .dwattr $C$DW$79, DW_AT_TI_end_column(0x30)
    1446                      .dwendentry
    1447                      .dwendtag $C$DW$79
    1448              
    1449 00000000               .sect   ".text:__isnanf"
    1450                      .clink
    1451                      .global ||__isnanf||
    1452              
    1453              $C$DW$84        .dwtag  DW_TAG_subprogram
    1454                      .dwattr $C$DW$84, DW_AT_name("__isnanf")
    1455                      .dwattr $C$DW$84, DW_AT_low_pc(||__isnanf||)
    1456                      .dwattr $C$DW$84, DW_AT_high_pc(0x00)
    1457                      .dwattr $C$DW$84, DW_AT_linkage_name("__isnanf")
    1458                      .dwattr $C$DW$84, DW_AT_external
    1459                      .dwattr $C$DW$84, DW_AT_type(*$C$DW$T$10)
    1460                      .dwattr $C$DW$84, DW_AT_decl_file("C:/ti/ccs1011/ccs/tools/compiler/ti-cgt-c2000_20.2.4.LTS/include/_
    1461                      .dwattr $C$DW$84, DW_AT_decl_line(0x158)
    1462                      .dwattr $C$DW$84, DW_AT_decl_column(0x25)
    1463                      .dwattr $C$DW$84, DW_AT_TI_max_frame_size(-2)
    1464                      .dwpsn  file "C:/ti/ccs1011/ccs/tools/compiler/ti-cgt-c2000_20.2.4.LTS/include/_defs.h",line 345,colu
    1465              
    1466                      .dwfde $C$DW$CIE, ||__isnanf||
    1467              $C$DW$85        .dwtag  DW_TAG_formal_parameter
    1468                      .dwattr $C$DW$85, DW_AT_name("f")
    1469                      .dwattr $C$DW$85, DW_AT_type(*$C$DW$T$16)
    1470                      .dwattr $C$DW$85, DW_AT_location[DW_OP_regx 0x2b]
    1471              
    1472              
    1473              ;***************************************************************
    1474              ;* FNAME: __isnanf                      FR SIZE:   0           *
    1475              ;*                                                             *
    1476              ;* FUNCTION ENVIRONMENT                                        *
    1477              ;*                                                             *
    1478              ;* FUNCTION PROPERTIES                                         *
    1479              ;*                            0 Parameter,  0 Auto,  0 SOE     *
    1480              ;***************************************************************
    1481              
    1482              ||__isnanf||:
    1483              ;* PL    assigned to $O$K3
    1484              ;* AR6   assigned to $O$S1
    1485              ;* R0    assigned to f
    1486              $C$DW$86        .dwtag  DW_TAG_variable
TMS320C2000 Assembler PC v20.2.4 Mon Jan 11 05:48:47 2021

Copyright (c) 1996-2018 Texas Instruments Incorporated
bts.asm                                                              PAGE   31

    1487                      .dwattr $C$DW$86, DW_AT_name("f")
    1488                      .dwattr $C$DW$86, DW_AT_type(*$C$DW$T$82)
    1489                      .dwattr $C$DW$86, DW_AT_location[DW_OP_regx 0x2b]
    1490              
    1491                      .dwcfi  cfa_offset, -2
    1492                      .dwcfi  save_reg_to_mem, 26, 0
    1493                      .dwpsn  file "C:/ti/ccs1011/ccs/tools/compiler/ti-cgt-c2000_20.2.4.LTS/include/_defs.h",line 345,colu
    1494 00000000 BFAB          MOV32     P,R0H                 ; [CPU_FPU] |345| 
         00000001 0F12 
    1495 00000002 CCAA          AND       AL,PH,#0x7f80         ; [CPU_ALU] |345| 
         00000003 7F80 
    1496 00000004 80A9          MOVZ      AR7,AL                ; [CPU_ALU] |345| 
    1497 00000005 8F00          MOVL      XAR4,#32640           ; [CPU_ARAU] |345| 
         00000006 7F80 
    1498 00000007 BE00          MOVB      XAR6,#0               ; [CPU_ALU] |345| 
    1499 00000008 A8A9          MOVL      ACC,XAR4              ; [CPU_ALU] |345| 
    1500 00000009 0FA7          CMPL      ACC,XAR7              ; [CPU_ALU] |345| 
    1501 0000000a 6006          B         ||$C$L5||,NEQ         ; [CPU_ALU] |345| 
    1502                      ; branchcc occurs ; [] |345| 
    1503 0000000b A9A9          MOVL      ACC,P                 ; [CPU_ALU] |345| 
    1504 0000000c 917F          ANDB      AH,#127               ; [CPU_ALU] |345| 
    1505 0000000d FF58          TEST      ACC                   ; [CPU_ALU] |345| 
    1506 0000000e 56B0          MOVB      XAR6,#1,NEQ           ; [CPU_ALU] |345| 
         0000000f 01A6 
    1507 00000010       ||$C$L5||:    
    1508 00000010 92A6          MOV       AL,AR6                ; [CPU_ALU] |345| 
    1509              $C$DW$87        .dwtag  DW_TAG_TI_branch
    1510                      .dwattr $C$DW$87, DW_AT_low_pc(0x00)
    1511                      .dwattr $C$DW$87, DW_AT_TI_return
    1512              
    1513 00000011 0006          LRETR     ; [CPU_ALU] 
    1514                      ; return occurs ; [] 
    1515                      .dwattr $C$DW$84, DW_AT_TI_end_file("C:/ti/ccs1011/ccs/tools/compiler/ti-cgt-c2000_20.2.4.LTS/include
    1516                      .dwattr $C$DW$84, DW_AT_TI_end_line(0x15a)
    1517                      .dwattr $C$DW$84, DW_AT_TI_end_column(0x2e)
    1518                      .dwendentry
    1519                      .dwendtag $C$DW$84
    1520              
    1521 00000000               .sect   ".text:__isnan"
    1522                      .clink
    1523                      .global ||__isnan||
    1524              
    1525              $C$DW$88        .dwtag  DW_TAG_subprogram
    1526                      .dwattr $C$DW$88, DW_AT_name("__isnan")
    1527                      .dwattr $C$DW$88, DW_AT_low_pc(||__isnan||)
    1528                      .dwattr $C$DW$88, DW_AT_high_pc(0x00)
    1529                      .dwattr $C$DW$88, DW_AT_linkage_name("__isnan")
    1530                      .dwattr $C$DW$88, DW_AT_external
    1531                      .dwattr $C$DW$88, DW_AT_type(*$C$DW$T$10)
    1532                      .dwattr $C$DW$88, DW_AT_decl_file("C:/ti/ccs1011/ccs/tools/compiler/ti-cgt-c2000_20.2.4.LTS/include/_
    1533                      .dwattr $C$DW$88, DW_AT_decl_line(0x155)
    1534                      .dwattr $C$DW$88, DW_AT_decl_column(0x25)
    1535                      .dwattr $C$DW$88, DW_AT_TI_max_frame_size(-6)
    1536                      .dwpsn  file "C:/ti/ccs1011/ccs/tools/compiler/ti-cgt-c2000_20.2.4.LTS/include/_defs.h",line 342,colu
    1537              
TMS320C2000 Assembler PC v20.2.4 Mon Jan 11 05:48:47 2021

Copyright (c) 1996-2018 Texas Instruments Incorporated
bts.asm                                                              PAGE   32

    1538                      .dwfde $C$DW$CIE, ||__isnan||
    1539              $C$DW$89        .dwtag  DW_TAG_formal_parameter
    1540                      .dwattr $C$DW$89, DW_AT_name("d")
    1541                      .dwattr $C$DW$89, DW_AT_type(*$C$DW$T$84)
    1542                      .dwattr $C$DW$89, DW_AT_location[DW_OP_reg12]
    1543              
    1544              
    1545              ;***************************************************************
    1546              ;* FNAME: __isnan                       FR SIZE:   4           *
    1547              ;*                                                             *
    1548              ;* FUNCTION ENVIRONMENT                                        *
    1549              ;*                                                             *
    1550              ;* FUNCTION PROPERTIES                                         *
    1551              ;*                            4 Parameter,  0 Auto,  0 SOE     *
    1552              ;***************************************************************
    1553              
    1554              ||__isnan||:
    1555              ;* AR7   assigned to $O$C2
    1556              ;* AR4   assigned to $O$S1
    1557              ;* AR4   assigned to d
    1558              $C$DW$90        .dwtag  DW_TAG_variable
    1559                      .dwattr $C$DW$90, DW_AT_name("d")
    1560                      .dwattr $C$DW$90, DW_AT_type(*$C$DW$T$85)
    1561                      .dwattr $C$DW$90, DW_AT_location[DW_OP_reg12]
    1562              
    1563                      .dwcfi  cfa_offset, -2
    1564                      .dwcfi  save_reg_to_mem, 26, 0
    1565 00000000 FE04          ADDB      SP,#4                 ; [CPU_ARAU] 
    1566                      .dwcfi  cfa_offset, -6
    1567                      .dwpsn  file "C:/ti/ccs1011/ccs/tools/compiler/ti-cgt-c2000_20.2.4.LTS/include/_defs.h",line 342,colu
    1568 00000001 06D4          MOVL      ACC,*+XAR4[2]         ; [CPU_ALU] |342| 
    1569 00000002 C5C4          MOVL      XAR7,*+XAR4[0]        ; [CPU_ALU] |342| 
    1570 00000003 28AC          MOV       T,#48                 ; [CPU_ALU] |342| 
         00000004 0030 
    1571 00000005 8F40          MOVL      XAR5,#32752           ; [CPU_ARAU] |342| 
         00000006 7FF0 
    1572 00000007 1EA6          MOVL      XAR6,ACC              ; [CPU_ALU] |342| 
    1573 00000008 A3A7          MOVL      P,XAR7                ; [CPU_ALU] |342| 
    1574 00000009 D400          MOVB      XAR4,#0               ; [CPU_ALU] |342| 
    1575 0000000a 565B          LSR64     ACC:P,T               ; [CPU_ALU] |342| 
    1576 0000000b 2BAA          MOV       PH,#0                 ; [CPU_ALU] |342| 
    1577 0000000c 18AB          AND       PL,#0x7ff0            ; [CPU_ALU] |342| 
         0000000d 7FF0 
    1578 0000000e A0A9          MOVL      ACC,XAR5              ; [CPU_ALU] |342| 
    1579 0000000f 0FAB          CMPL      ACC,P                 ; [CPU_ALU] |342| 
    1580 00000010 6013          B         ||$C$L6||,NEQ         ; [CPU_ALU] |342| 
    1581                      ; branchcc occurs ; [] |342| 
    1582 00000011 06A6          MOVL      ACC,XAR6              ; [CPU_ALU] |342| 
    1583 00000012 A3A7          MOVL      P,XAR7                ; [CPU_ALU] |342| 
    1584 00000013 BE00          MOVB      XAR6,#0               ; [CPU_ALU] |342| 
    1585 00000014 18A9          AND       AL,#65535             ; [CPU_ALU] |342| 
         00000015 FFFF 
    1586 00000016 910F          ANDB      AH,#15                ; [CPU_ALU] |342| 
    1587 00000017 18AB          AND       PL,#65535             ; [CPU_ALU] |342| 
         00000018 FFFF 
TMS320C2000 Assembler PC v20.2.4 Mon Jan 11 05:48:47 2021

Copyright (c) 1996-2018 Texas Instruments Incorporated
bts.asm                                                              PAGE   33

    1588 00000019 18AA          AND       PH,#65535             ; [CPU_ALU] |342| 
         0000001a FFFF 
    1589 0000001b C244          MOVL      *-SP[4],XAR6          ; [CPU_FPU] |342| 
    1590 0000001c 2B42          MOV       *-SP[2],#0            ; [CPU_FPU] |342| 
    1591 0000001d 2B41          MOV       *-SP[1],#0            ; [CPU_FPU] |342| 
    1592              $C$DW$91        .dwtag  DW_TAG_TI_branch
    1593                      .dwattr $C$DW$91, DW_AT_low_pc(0x00)
    1594                      .dwattr $C$DW$91, DW_AT_name("__c28xabi_cmpull")
    1595                      .dwattr $C$DW$91, DW_AT_TI_call
    1596              
    1597 0000001e 7640!         LCR       #||__c28xabi_cmpull|| ; [CPU_ALU] |342| 
         0000001f 0000 
    1598                      ; call occurs [#||__c28xabi_cmpull||] ; [] |342| 
    1599 00000020 5200          CMPB      AL,#0                 ; [CPU_ALU] |342| 
    1600 00000021 56B0          MOVB      XAR4,#1,NEQ           ; [CPU_ALU] |342| 
         00000022 01A4 
    1601 00000023       ||$C$L6||:    
    1602 00000023 FE84          SUBB      SP,#4                 ; [CPU_ARAU] 
    1603                      .dwcfi  cfa_offset, -2
    1604 00000024 92A4          MOV       AL,AR4                ; [CPU_ALU] |342| 
    1605              $C$DW$92        .dwtag  DW_TAG_TI_branch
    1606                      .dwattr $C$DW$92, DW_AT_low_pc(0x00)
    1607                      .dwattr $C$DW$92, DW_AT_TI_return
    1608              
    1609 00000025 0006          LRETR     ; [CPU_ALU] 
    1610                      ; return occurs ; [] 
    1611                      .dwattr $C$DW$88, DW_AT_TI_end_file("C:/ti/ccs1011/ccs/tools/compiler/ti-cgt-c2000_20.2.4.LTS/include
    1612                      .dwattr $C$DW$88, DW_AT_TI_end_line(0x157)
    1613                      .dwattr $C$DW$88, DW_AT_TI_end_column(0x2f)
    1614                      .dwendentry
    1615                      .dwendtag $C$DW$88
    1616              
    1617 00000000               .sect   ".text:__isinfl"
    1618                      .clink
    1619                      .global ||__isinfl||
    1620              
    1621              $C$DW$93        .dwtag  DW_TAG_subprogram
    1622                      .dwattr $C$DW$93, DW_AT_name("__isinfl")
    1623                      .dwattr $C$DW$93, DW_AT_low_pc(||__isinfl||)
    1624                      .dwattr $C$DW$93, DW_AT_high_pc(0x00)
    1625                      .dwattr $C$DW$93, DW_AT_linkage_name("__isinfl")
    1626                      .dwattr $C$DW$93, DW_AT_external
    1627                      .dwattr $C$DW$93, DW_AT_type(*$C$DW$T$10)
    1628                      .dwattr $C$DW$93, DW_AT_decl_file("C:/ti/ccs1011/ccs/tools/compiler/ti-cgt-c2000_20.2.4.LTS/include/_
    1629                      .dwattr $C$DW$93, DW_AT_decl_line(0x17a)
    1630                      .dwattr $C$DW$93, DW_AT_decl_column(0x25)
    1631                      .dwattr $C$DW$93, DW_AT_TI_max_frame_size(-6)
    1632                      .dwpsn  file "C:/ti/ccs1011/ccs/tools/compiler/ti-cgt-c2000_20.2.4.LTS/include/_defs.h",line 379,colu
    1633              
    1634                      .dwfde $C$DW$CIE, ||__isinfl||
    1635              $C$DW$94        .dwtag  DW_TAG_formal_parameter
    1636                      .dwattr $C$DW$94, DW_AT_name("e")
    1637                      .dwattr $C$DW$94, DW_AT_type(*$C$DW$T$87)
    1638                      .dwattr $C$DW$94, DW_AT_location[DW_OP_reg12]
    1639              
TMS320C2000 Assembler PC v20.2.4 Mon Jan 11 05:48:47 2021

Copyright (c) 1996-2018 Texas Instruments Incorporated
bts.asm                                                              PAGE   34

    1640              
    1641              ;***************************************************************
    1642              ;* FNAME: __isinfl                      FR SIZE:   4           *
    1643              ;*                                                             *
    1644              ;* FUNCTION ENVIRONMENT                                        *
    1645              ;*                                                             *
    1646              ;* FUNCTION PROPERTIES                                         *
    1647              ;*                            4 Parameter,  0 Auto,  0 SOE     *
    1648              ;***************************************************************
    1649              
    1650              ||__isinfl||:
    1651              ;* AR7   assigned to $O$C2
    1652              ;* AR4   assigned to $O$S1
    1653              ;* AR4   assigned to e
    1654              $C$DW$95        .dwtag  DW_TAG_variable
    1655                      .dwattr $C$DW$95, DW_AT_name("e")
    1656                      .dwattr $C$DW$95, DW_AT_type(*$C$DW$T$88)
    1657                      .dwattr $C$DW$95, DW_AT_location[DW_OP_reg12]
    1658              
    1659                      .dwcfi  cfa_offset, -2
    1660                      .dwcfi  save_reg_to_mem, 26, 0
    1661 00000000 FE04          ADDB      SP,#4                 ; [CPU_ARAU] 
    1662                      .dwcfi  cfa_offset, -6
    1663                      .dwpsn  file "C:/ti/ccs1011/ccs/tools/compiler/ti-cgt-c2000_20.2.4.LTS/include/_defs.h",line 379,colu
    1664 00000001 06D4          MOVL      ACC,*+XAR4[2]         ; [CPU_ALU] |379| 
    1665 00000002 C5C4          MOVL      XAR7,*+XAR4[0]        ; [CPU_ALU] |379| 
    1666 00000003 28AC          MOV       T,#48                 ; [CPU_ALU] |379| 
         00000004 0030 
    1667 00000005 8F40          MOVL      XAR5,#32752           ; [CPU_ARAU] |379| 
         00000006 7FF0 
    1668 00000007 1EA6          MOVL      XAR6,ACC              ; [CPU_ALU] |379| 
    1669 00000008 A3A7          MOVL      P,XAR7                ; [CPU_ALU] |379| 
    1670 00000009 D400          MOVB      XAR4,#0               ; [CPU_ALU] |379| 
    1671 0000000a 565B          LSR64     ACC:P,T               ; [CPU_ALU] |379| 
    1672 0000000b 2BAA          MOV       PH,#0                 ; [CPU_ALU] |379| 
    1673 0000000c 18AB          AND       PL,#0x7ff0            ; [CPU_ALU] |379| 
         0000000d 7FF0 
    1674 0000000e A0A9          MOVL      ACC,XAR5              ; [CPU_ALU] |379| 
    1675 0000000f 0FAB          CMPL      ACC,P                 ; [CPU_ALU] |379| 
    1676 00000010 6013          B         ||$C$L7||,NEQ         ; [CPU_ALU] |379| 
    1677                      ; branchcc occurs ; [] |379| 
    1678 00000011 06A6          MOVL      ACC,XAR6              ; [CPU_ALU] |379| 
    1679 00000012 A3A7          MOVL      P,XAR7                ; [CPU_ALU] |379| 
    1680 00000013 BE00          MOVB      XAR6,#0               ; [CPU_ALU] |379| 
    1681 00000014 18A9          AND       AL,#65535             ; [CPU_ALU] |379| 
         00000015 FFFF 
    1682 00000016 910F          ANDB      AH,#15                ; [CPU_ALU] |379| 
    1683 00000017 18AB          AND       PL,#65535             ; [CPU_ALU] |379| 
         00000018 FFFF 
    1684 00000019 18AA          AND       PH,#65535             ; [CPU_ALU] |379| 
         0000001a FFFF 
    1685 0000001b C244          MOVL      *-SP[4],XAR6          ; [CPU_FPU] |379| 
    1686 0000001c 2B42          MOV       *-SP[2],#0            ; [CPU_FPU] |379| 
    1687 0000001d 2B41          MOV       *-SP[1],#0            ; [CPU_FPU] |379| 
    1688              $C$DW$96        .dwtag  DW_TAG_TI_branch
TMS320C2000 Assembler PC v20.2.4 Mon Jan 11 05:48:47 2021

Copyright (c) 1996-2018 Texas Instruments Incorporated
bts.asm                                                              PAGE   35

    1689                      .dwattr $C$DW$96, DW_AT_low_pc(0x00)
    1690                      .dwattr $C$DW$96, DW_AT_name("__c28xabi_cmpull")
    1691                      .dwattr $C$DW$96, DW_AT_TI_call
    1692              
    1693 0000001e 7640!         LCR       #||__c28xabi_cmpull|| ; [CPU_ALU] |379| 
         0000001f 0000 
    1694                      ; call occurs [#||__c28xabi_cmpull||] ; [] |379| 
    1695 00000020 5200          CMPB      AL,#0                 ; [CPU_ALU] |379| 
    1696 00000021 56B1          MOVB      XAR4,#1,EQ            ; [CPU_ALU] |379| 
         00000022 01A4 
    1697 00000023       ||$C$L7||:    
    1698 00000023 FE84          SUBB      SP,#4                 ; [CPU_ARAU] 
    1699                      .dwcfi  cfa_offset, -2
    1700 00000024 92A4          MOV       AL,AR4                ; [CPU_ALU] |379| 
    1701              $C$DW$97        .dwtag  DW_TAG_TI_branch
    1702                      .dwattr $C$DW$97, DW_AT_low_pc(0x00)
    1703                      .dwattr $C$DW$97, DW_AT_TI_return
    1704              
    1705 00000025 0006          LRETR     ; [CPU_ALU] 
    1706                      ; return occurs ; [] 
    1707                      .dwattr $C$DW$93, DW_AT_TI_end_file("C:/ti/ccs1011/ccs/tools/compiler/ti-cgt-c2000_20.2.4.LTS/include
    1708                      .dwattr $C$DW$93, DW_AT_TI_end_line(0x17b)
    1709                      .dwattr $C$DW$93, DW_AT_TI_end_column(0x4c)
    1710                      .dwendentry
    1711                      .dwendtag $C$DW$93
    1712              
    1713 00000000               .sect   ".text:__isinff"
    1714                      .clink
    1715                      .global ||__isinff||
    1716              
    1717              $C$DW$98        .dwtag  DW_TAG_subprogram
    1718                      .dwattr $C$DW$98, DW_AT_name("__isinff")
    1719                      .dwattr $C$DW$98, DW_AT_low_pc(||__isinff||)
    1720                      .dwattr $C$DW$98, DW_AT_high_pc(0x00)
    1721                      .dwattr $C$DW$98, DW_AT_linkage_name("__isinff")
    1722                      .dwattr $C$DW$98, DW_AT_external
    1723                      .dwattr $C$DW$98, DW_AT_type(*$C$DW$T$10)
    1724                      .dwattr $C$DW$98, DW_AT_decl_file("C:/ti/ccs1011/ccs/tools/compiler/ti-cgt-c2000_20.2.4.LTS/include/_
    1725                      .dwattr $C$DW$98, DW_AT_decl_line(0x176)
    1726                      .dwattr $C$DW$98, DW_AT_decl_column(0x25)
    1727                      .dwattr $C$DW$98, DW_AT_TI_max_frame_size(-2)
    1728                      .dwpsn  file "C:/ti/ccs1011/ccs/tools/compiler/ti-cgt-c2000_20.2.4.LTS/include/_defs.h",line 375,colu
    1729              
    1730                      .dwfde $C$DW$CIE, ||__isinff||
    1731              $C$DW$99        .dwtag  DW_TAG_formal_parameter
    1732                      .dwattr $C$DW$99, DW_AT_name("f")
    1733                      .dwattr $C$DW$99, DW_AT_type(*$C$DW$T$16)
    1734                      .dwattr $C$DW$99, DW_AT_location[DW_OP_regx 0x2b]
    1735              
    1736              
    1737              ;***************************************************************
    1738              ;* FNAME: __isinff                      FR SIZE:   0           *
    1739              ;*                                                             *
    1740              ;* FUNCTION ENVIRONMENT                                        *
    1741              ;*                                                             *
TMS320C2000 Assembler PC v20.2.4 Mon Jan 11 05:48:47 2021

Copyright (c) 1996-2018 Texas Instruments Incorporated
bts.asm                                                              PAGE   36

    1742              ;* FUNCTION PROPERTIES                                         *
    1743              ;*                            0 Parameter,  0 Auto,  0 SOE     *
    1744              ;***************************************************************
    1745              
    1746              ||__isinff||:
    1747              ;* PL    assigned to $O$K3
    1748              ;* AR6   assigned to $O$S1
    1749              ;* R0    assigned to f
    1750              $C$DW$100       .dwtag  DW_TAG_variable
    1751                      .dwattr $C$DW$100, DW_AT_name("f")
    1752                      .dwattr $C$DW$100, DW_AT_type(*$C$DW$T$82)
    1753                      .dwattr $C$DW$100, DW_AT_location[DW_OP_regx 0x2b]
    1754              
    1755                      .dwcfi  cfa_offset, -2
    1756                      .dwcfi  save_reg_to_mem, 26, 0
    1757                      .dwpsn  file "C:/ti/ccs1011/ccs/tools/compiler/ti-cgt-c2000_20.2.4.LTS/include/_defs.h",line 375,colu
    1758 00000000 BFAB          MOV32     P,R0H                 ; [CPU_FPU] |375| 
         00000001 0F12 
    1759 00000002 CCAA          AND       AL,PH,#0x7f80         ; [CPU_ALU] |375| 
         00000003 7F80 
    1760 00000004 80A9          MOVZ      AR7,AL                ; [CPU_ALU] |375| 
    1761 00000005 8F00          MOVL      XAR4,#32640           ; [CPU_ARAU] |375| 
         00000006 7F80 
    1762 00000007 BE00          MOVB      XAR6,#0               ; [CPU_ALU] |375| 
    1763 00000008 A8A9          MOVL      ACC,XAR4              ; [CPU_ALU] |375| 
    1764 00000009 0FA7          CMPL      ACC,XAR7              ; [CPU_ALU] |375| 
    1765 0000000a 6006          B         ||$C$L8||,NEQ         ; [CPU_ALU] |375| 
    1766                      ; branchcc occurs ; [] |375| 
    1767 0000000b A9A9          MOVL      ACC,P                 ; [CPU_ALU] |375| 
    1768 0000000c 917F          ANDB      AH,#127               ; [CPU_ALU] |375| 
    1769 0000000d FF58          TEST      ACC                   ; [CPU_ALU] |375| 
    1770 0000000e 56B1          MOVB      XAR6,#1,EQ            ; [CPU_ALU] |375| 
         0000000f 01A6 
    1771 00000010       ||$C$L8||:    
    1772 00000010 92A6          MOV       AL,AR6                ; [CPU_ALU] |375| 
    1773              $C$DW$101       .dwtag  DW_TAG_TI_branch
    1774                      .dwattr $C$DW$101, DW_AT_low_pc(0x00)
    1775                      .dwattr $C$DW$101, DW_AT_TI_return
    1776              
    1777 00000011 0006          LRETR     ; [CPU_ALU] 
    1778                      ; return occurs ; [] 
    1779                      .dwattr $C$DW$98, DW_AT_TI_end_file("C:/ti/ccs1011/ccs/tools/compiler/ti-cgt-c2000_20.2.4.LTS/include
    1780                      .dwattr $C$DW$98, DW_AT_TI_end_line(0x177)
    1781                      .dwattr $C$DW$98, DW_AT_TI_end_column(0x48)
    1782                      .dwendentry
    1783                      .dwendtag $C$DW$98
    1784              
    1785 00000000               .sect   ".text:__isinf"
    1786                      .clink
    1787                      .global ||__isinf||
    1788              
    1789              $C$DW$102       .dwtag  DW_TAG_subprogram
    1790                      .dwattr $C$DW$102, DW_AT_name("__isinf")
    1791                      .dwattr $C$DW$102, DW_AT_low_pc(||__isinf||)
    1792                      .dwattr $C$DW$102, DW_AT_high_pc(0x00)
TMS320C2000 Assembler PC v20.2.4 Mon Jan 11 05:48:47 2021

Copyright (c) 1996-2018 Texas Instruments Incorporated
bts.asm                                                              PAGE   37

    1793                      .dwattr $C$DW$102, DW_AT_linkage_name("__isinf")
    1794                      .dwattr $C$DW$102, DW_AT_external
    1795                      .dwattr $C$DW$102, DW_AT_type(*$C$DW$T$10)
    1796                      .dwattr $C$DW$102, DW_AT_decl_file("C:/ti/ccs1011/ccs/tools/compiler/ti-cgt-c2000_20.2.4.LTS/include/
    1797                      .dwattr $C$DW$102, DW_AT_decl_line(0x178)
    1798                      .dwattr $C$DW$102, DW_AT_decl_column(0x25)
    1799                      .dwattr $C$DW$102, DW_AT_TI_max_frame_size(-6)
    1800                      .dwpsn  file "C:/ti/ccs1011/ccs/tools/compiler/ti-cgt-c2000_20.2.4.LTS/include/_defs.h",line 377,colu
    1801              
    1802                      .dwfde $C$DW$CIE, ||__isinf||
    1803              $C$DW$103       .dwtag  DW_TAG_formal_parameter
    1804                      .dwattr $C$DW$103, DW_AT_name("d")
    1805                      .dwattr $C$DW$103, DW_AT_type(*$C$DW$T$84)
    1806                      .dwattr $C$DW$103, DW_AT_location[DW_OP_reg12]
    1807              
    1808              
    1809              ;***************************************************************
    1810              ;* FNAME: __isinf                       FR SIZE:   4           *
    1811              ;*                                                             *
    1812              ;* FUNCTION ENVIRONMENT                                        *
    1813              ;*                                                             *
    1814              ;* FUNCTION PROPERTIES                                         *
    1815              ;*                            4 Parameter,  0 Auto,  0 SOE     *
    1816              ;***************************************************************
    1817              
    1818              ||__isinf||:
    1819              ;* AR7   assigned to $O$C2
    1820              ;* AR4   assigned to $O$S1
    1821              ;* AR4   assigned to d
    1822              $C$DW$104       .dwtag  DW_TAG_variable
    1823                      .dwattr $C$DW$104, DW_AT_name("d")
    1824                      .dwattr $C$DW$104, DW_AT_type(*$C$DW$T$85)
    1825                      .dwattr $C$DW$104, DW_AT_location[DW_OP_reg12]
    1826              
    1827                      .dwcfi  cfa_offset, -2
    1828                      .dwcfi  save_reg_to_mem, 26, 0
    1829 00000000 FE04          ADDB      SP,#4                 ; [CPU_ARAU] 
    1830                      .dwcfi  cfa_offset, -6
    1831                      .dwpsn  file "C:/ti/ccs1011/ccs/tools/compiler/ti-cgt-c2000_20.2.4.LTS/include/_defs.h",line 377,colu
    1832 00000001 06D4          MOVL      ACC,*+XAR4[2]         ; [CPU_ALU] |377| 
    1833 00000002 C5C4          MOVL      XAR7,*+XAR4[0]        ; [CPU_ALU] |377| 
    1834 00000003 28AC          MOV       T,#48                 ; [CPU_ALU] |377| 
         00000004 0030 
    1835 00000005 8F40          MOVL      XAR5,#32752           ; [CPU_ARAU] |377| 
         00000006 7FF0 
    1836 00000007 1EA6          MOVL      XAR6,ACC              ; [CPU_ALU] |377| 
    1837 00000008 A3A7          MOVL      P,XAR7                ; [CPU_ALU] |377| 
    1838 00000009 D400          MOVB      XAR4,#0               ; [CPU_ALU] |377| 
    1839 0000000a 565B          LSR64     ACC:P,T               ; [CPU_ALU] |377| 
    1840 0000000b 2BAA          MOV       PH,#0                 ; [CPU_ALU] |377| 
    1841 0000000c 18AB          AND       PL,#0x7ff0            ; [CPU_ALU] |377| 
         0000000d 7FF0 
    1842 0000000e A0A9          MOVL      ACC,XAR5              ; [CPU_ALU] |377| 
    1843 0000000f 0FAB          CMPL      ACC,P                 ; [CPU_ALU] |377| 
    1844 00000010 6013          B         ||$C$L9||,NEQ         ; [CPU_ALU] |377| 
TMS320C2000 Assembler PC v20.2.4 Mon Jan 11 05:48:47 2021

Copyright (c) 1996-2018 Texas Instruments Incorporated
bts.asm                                                              PAGE   38

    1845                      ; branchcc occurs ; [] |377| 
    1846 00000011 06A6          MOVL      ACC,XAR6              ; [CPU_ALU] |377| 
    1847 00000012 A3A7          MOVL      P,XAR7                ; [CPU_ALU] |377| 
    1848 00000013 BE00          MOVB      XAR6,#0               ; [CPU_ALU] |377| 
    1849 00000014 18A9          AND       AL,#65535             ; [CPU_ALU] |377| 
         00000015 FFFF 
    1850 00000016 910F          ANDB      AH,#15                ; [CPU_ALU] |377| 
    1851 00000017 18AB          AND       PL,#65535             ; [CPU_ALU] |377| 
         00000018 FFFF 
    1852 00000019 18AA          AND       PH,#65535             ; [CPU_ALU] |377| 
         0000001a FFFF 
    1853 0000001b C244          MOVL      *-SP[4],XAR6          ; [CPU_FPU] |377| 
    1854 0000001c 2B42          MOV       *-SP[2],#0            ; [CPU_FPU] |377| 
    1855 0000001d 2B41          MOV       *-SP[1],#0            ; [CPU_FPU] |377| 
    1856              $C$DW$105       .dwtag  DW_TAG_TI_branch
    1857                      .dwattr $C$DW$105, DW_AT_low_pc(0x00)
    1858                      .dwattr $C$DW$105, DW_AT_name("__c28xabi_cmpull")
    1859                      .dwattr $C$DW$105, DW_AT_TI_call
    1860              
    1861 0000001e 7640!         LCR       #||__c28xabi_cmpull|| ; [CPU_ALU] |377| 
         0000001f 0000 
    1862                      ; call occurs [#||__c28xabi_cmpull||] ; [] |377| 
    1863 00000020 5200          CMPB      AL,#0                 ; [CPU_ALU] |377| 
    1864 00000021 56B1          MOVB      XAR4,#1,EQ            ; [CPU_ALU] |377| 
         00000022 01A4 
    1865 00000023       ||$C$L9||:    
    1866 00000023 FE84          SUBB      SP,#4                 ; [CPU_ARAU] 
    1867                      .dwcfi  cfa_offset, -2
    1868 00000024 92A4          MOV       AL,AR4                ; [CPU_ALU] |377| 
    1869              $C$DW$106       .dwtag  DW_TAG_TI_branch
    1870                      .dwattr $C$DW$106, DW_AT_low_pc(0x00)
    1871                      .dwattr $C$DW$106, DW_AT_TI_return
    1872              
    1873 00000025 0006          LRETR     ; [CPU_ALU] 
    1874                      ; return occurs ; [] 
    1875                      .dwattr $C$DW$102, DW_AT_TI_end_file("C:/ti/ccs1011/ccs/tools/compiler/ti-cgt-c2000_20.2.4.LTS/includ
    1876                      .dwattr $C$DW$102, DW_AT_TI_end_line(0x179)
    1877                      .dwattr $C$DW$102, DW_AT_TI_end_column(0x4a)
    1878                      .dwendentry
    1879                      .dwendtag $C$DW$102
    1880              
    1881 00000000               .sect   ".text:__isfinitel"
    1882                      .clink
    1883                      .global ||__isfinitel||
    1884              
    1885              $C$DW$107       .dwtag  DW_TAG_subprogram
    1886                      .dwattr $C$DW$107, DW_AT_name("__isfinitel")
    1887                      .dwattr $C$DW$107, DW_AT_low_pc(||__isfinitel||)
    1888                      .dwattr $C$DW$107, DW_AT_high_pc(0x00)
    1889                      .dwattr $C$DW$107, DW_AT_linkage_name("__isfinitel")
    1890                      .dwattr $C$DW$107, DW_AT_external
    1891                      .dwattr $C$DW$107, DW_AT_type(*$C$DW$T$10)
    1892                      .dwattr $C$DW$107, DW_AT_decl_file("C:/ti/ccs1011/ccs/tools/compiler/ti-cgt-c2000_20.2.4.LTS/include/
    1893                      .dwattr $C$DW$107, DW_AT_decl_line(0x152)
    1894                      .dwattr $C$DW$107, DW_AT_decl_column(0x25)
TMS320C2000 Assembler PC v20.2.4 Mon Jan 11 05:48:47 2021

Copyright (c) 1996-2018 Texas Instruments Incorporated
bts.asm                                                              PAGE   39

    1895                      .dwattr $C$DW$107, DW_AT_TI_max_frame_size(-2)
    1896                      .dwpsn  file "C:/ti/ccs1011/ccs/tools/compiler/ti-cgt-c2000_20.2.4.LTS/include/_defs.h",line 339,colu
    1897              
    1898                      .dwfde $C$DW$CIE, ||__isfinitel||
    1899              $C$DW$108       .dwtag  DW_TAG_formal_parameter
    1900                      .dwattr $C$DW$108, DW_AT_name("e")
    1901                      .dwattr $C$DW$108, DW_AT_type(*$C$DW$T$87)
    1902                      .dwattr $C$DW$108, DW_AT_location[DW_OP_reg12]
    1903              
    1904              
    1905              ;***************************************************************
    1906              ;* FNAME: __isfinitel                   FR SIZE:   0           *
    1907              ;*                                                             *
    1908              ;* FUNCTION ENVIRONMENT                                        *
    1909              ;*                                                             *
    1910              ;* FUNCTION PROPERTIES                                         *
    1911              ;*                            0 Parameter,  0 Auto,  0 SOE     *
    1912              ;***************************************************************
    1913              
    1914              ||__isfinitel||:
    1915              ;* AR4   assigned to e
    1916              $C$DW$109       .dwtag  DW_TAG_variable
    1917                      .dwattr $C$DW$109, DW_AT_name("e")
    1918                      .dwattr $C$DW$109, DW_AT_type(*$C$DW$T$88)
    1919                      .dwattr $C$DW$109, DW_AT_location[DW_OP_reg12]
    1920              
    1921                      .dwcfi  cfa_offset, -2
    1922                      .dwcfi  save_reg_to_mem, 26, 0
    1923                      .dwpsn  file "C:/ti/ccs1011/ccs/tools/compiler/ti-cgt-c2000_20.2.4.LTS/include/_defs.h",line 339,colu
    1924 00000000 A3C4          MOVL      P,*+XAR4[0]           ; [CPU_ALU] |339| 
    1925 00000001 06D4          MOVL      ACC,*+XAR4[2]         ; [CPU_ALU] |339| 
    1926 00000002 28AC          MOV       T,#48                 ; [CPU_ALU] |339| 
         00000003 0030 
    1927 00000004 565B          LSR64     ACC:P,T               ; [CPU_ALU] |339| 
    1928 00000005 18AB          AND       PL,#0x7ff0            ; [CPU_ALU] |339| 
         00000006 7FF0 
    1929 00000007 80AB          MOVZ      AR7,PL                ; [CPU_ALU] |339| 
    1930 00000008 8F00          MOVL      XAR4,#32752           ; [CPU_ARAU] |339| 
         00000009 7FF0 
    1931 0000000a BE00          MOVB      XAR6,#0               ; [CPU_ALU] |339| 
    1932 0000000b A8A9          MOVL      ACC,XAR4              ; [CPU_ALU] |339| 
    1933 0000000c 0FA7          CMPL      ACC,XAR7              ; [CPU_ALU] |339| 
    1934 0000000d 56B0          MOVB      XAR6,#1,NEQ           ; [CPU_ALU] |339| 
         0000000e 01A6 
    1935 0000000f 92A6          MOV       AL,AR6                ; [CPU_ALU] |339| 
    1936              $C$DW$110       .dwtag  DW_TAG_TI_branch
    1937                      .dwattr $C$DW$110, DW_AT_low_pc(0x00)
    1938                      .dwattr $C$DW$110, DW_AT_TI_return
    1939              
    1940 00000010 0006          LRETR     ; [CPU_ALU] 
    1941                      ; return occurs ; [] 
    1942                      .dwattr $C$DW$107, DW_AT_TI_end_file("C:/ti/ccs1011/ccs/tools/compiler/ti-cgt-c2000_20.2.4.LTS/includ
    1943                      .dwattr $C$DW$107, DW_AT_TI_end_line(0x153)
    1944                      .dwattr $C$DW$107, DW_AT_TI_end_column(0x2f)
    1945                      .dwendentry
TMS320C2000 Assembler PC v20.2.4 Mon Jan 11 05:48:47 2021

Copyright (c) 1996-2018 Texas Instruments Incorporated
bts.asm                                                              PAGE   40

    1946                      .dwendtag $C$DW$107
    1947              
    1948 00000000               .sect   ".text:__isfinitef"
    1949                      .clink
    1950                      .global ||__isfinitef||
    1951              
    1952              $C$DW$111       .dwtag  DW_TAG_subprogram
    1953                      .dwattr $C$DW$111, DW_AT_name("__isfinitef")
    1954                      .dwattr $C$DW$111, DW_AT_low_pc(||__isfinitef||)
    1955                      .dwattr $C$DW$111, DW_AT_high_pc(0x00)
    1956                      .dwattr $C$DW$111, DW_AT_linkage_name("__isfinitef")
    1957                      .dwattr $C$DW$111, DW_AT_external
    1958                      .dwattr $C$DW$111, DW_AT_type(*$C$DW$T$10)
    1959                      .dwattr $C$DW$111, DW_AT_decl_file("C:/ti/ccs1011/ccs/tools/compiler/ti-cgt-c2000_20.2.4.LTS/include/
    1960                      .dwattr $C$DW$111, DW_AT_decl_line(0x150)
    1961                      .dwattr $C$DW$111, DW_AT_decl_column(0x25)
    1962                      .dwattr $C$DW$111, DW_AT_TI_max_frame_size(-2)
    1963                      .dwpsn  file "C:/ti/ccs1011/ccs/tools/compiler/ti-cgt-c2000_20.2.4.LTS/include/_defs.h",line 337,colu
    1964              
    1965                      .dwfde $C$DW$CIE, ||__isfinitef||
    1966              $C$DW$112       .dwtag  DW_TAG_formal_parameter
    1967                      .dwattr $C$DW$112, DW_AT_name("f")
    1968                      .dwattr $C$DW$112, DW_AT_type(*$C$DW$T$16)
    1969                      .dwattr $C$DW$112, DW_AT_location[DW_OP_regx 0x2b]
    1970              
    1971              
    1972              ;***************************************************************
    1973              ;* FNAME: __isfinitef                   FR SIZE:   0           *
    1974              ;*                                                             *
    1975              ;* FUNCTION ENVIRONMENT                                        *
    1976              ;*                                                             *
    1977              ;* FUNCTION PROPERTIES                                         *
    1978              ;*                            0 Parameter,  0 Auto,  0 SOE     *
    1979              ;***************************************************************
    1980              
    1981              ||__isfinitef||:
    1982              ;* R0    assigned to f
    1983              $C$DW$113       .dwtag  DW_TAG_variable
    1984                      .dwattr $C$DW$113, DW_AT_name("f")
    1985                      .dwattr $C$DW$113, DW_AT_type(*$C$DW$T$82)
    1986                      .dwattr $C$DW$113, DW_AT_location[DW_OP_regx 0x2b]
    1987              
    1988                      .dwcfi  cfa_offset, -2
    1989                      .dwcfi  save_reg_to_mem, 26, 0
    1990                      .dwpsn  file "C:/ti/ccs1011/ccs/tools/compiler/ti-cgt-c2000_20.2.4.LTS/include/_defs.h",line 337,colu
    1991 00000000 BFA9          MOV32     ACC,R0H               ; [CPU_FPU] |337| 
         00000001 0F12 
    1992 00000002 18A8          AND       AH,#0x7f80            ; [CPU_ALU] |337| 
         00000003 7F80 
    1993 00000004 80A8          MOVZ      AR7,AH                ; [CPU_ALU] |337| 
    1994 00000005 8F00          MOVL      XAR4,#32640           ; [CPU_ARAU] |337| 
         00000006 7F80 
    1995 00000007 BE00          MOVB      XAR6,#0               ; [CPU_ALU] |337| 
    1996 00000008 A8A9          MOVL      ACC,XAR4              ; [CPU_ALU] |337| 
    1997 00000009 0FA7          CMPL      ACC,XAR7              ; [CPU_ALU] |337| 
TMS320C2000 Assembler PC v20.2.4 Mon Jan 11 05:48:47 2021

Copyright (c) 1996-2018 Texas Instruments Incorporated
bts.asm                                                              PAGE   41

    1998 0000000a 56B0          MOVB      XAR6,#1,NEQ           ; [CPU_ALU] |337| 
         0000000b 01A6 
    1999 0000000c 92A6          MOV       AL,AR6                ; [CPU_ALU] |337| 
    2000              $C$DW$114       .dwtag  DW_TAG_TI_branch
    2001                      .dwattr $C$DW$114, DW_AT_low_pc(0x00)
    2002                      .dwattr $C$DW$114, DW_AT_TI_return
    2003              
    2004 0000000d 0006          LRETR     ; [CPU_ALU] 
    2005                      ; return occurs ; [] 
    2006                      .dwattr $C$DW$111, DW_AT_TI_end_file("C:/ti/ccs1011/ccs/tools/compiler/ti-cgt-c2000_20.2.4.LTS/includ
    2007                      .dwattr $C$DW$111, DW_AT_TI_end_line(0x151)
    2008                      .dwattr $C$DW$111, DW_AT_TI_end_column(0x2d)
    2009                      .dwendentry
    2010                      .dwendtag $C$DW$111
    2011              
    2012 00000000               .sect   ".text:__isfinite"
    2013                      .clink
    2014                      .global ||__isfinite||
    2015              
    2016              $C$DW$115       .dwtag  DW_TAG_subprogram
    2017                      .dwattr $C$DW$115, DW_AT_name("__isfinite")
    2018                      .dwattr $C$DW$115, DW_AT_low_pc(||__isfinite||)
    2019                      .dwattr $C$DW$115, DW_AT_high_pc(0x00)
    2020                      .dwattr $C$DW$115, DW_AT_linkage_name("__isfinite")
    2021                      .dwattr $C$DW$115, DW_AT_external
    2022                      .dwattr $C$DW$115, DW_AT_type(*$C$DW$T$10)
    2023                      .dwattr $C$DW$115, DW_AT_decl_file("C:/ti/ccs1011/ccs/tools/compiler/ti-cgt-c2000_20.2.4.LTS/include/
    2024                      .dwattr $C$DW$115, DW_AT_decl_line(0x14e)
    2025                      .dwattr $C$DW$115, DW_AT_decl_column(0x25)
    2026                      .dwattr $C$DW$115, DW_AT_TI_max_frame_size(-2)
    2027                      .dwpsn  file "C:/ti/ccs1011/ccs/tools/compiler/ti-cgt-c2000_20.2.4.LTS/include/_defs.h",line 335,colu
    2028              
    2029                      .dwfde $C$DW$CIE, ||__isfinite||
    2030              $C$DW$116       .dwtag  DW_TAG_formal_parameter
    2031                      .dwattr $C$DW$116, DW_AT_name("d")
    2032                      .dwattr $C$DW$116, DW_AT_type(*$C$DW$T$84)
    2033                      .dwattr $C$DW$116, DW_AT_location[DW_OP_reg12]
    2034              
    2035              
    2036              ;***************************************************************
    2037              ;* FNAME: __isfinite                    FR SIZE:   0           *
    2038              ;*                                                             *
    2039              ;* FUNCTION ENVIRONMENT                                        *
    2040              ;*                                                             *
    2041              ;* FUNCTION PROPERTIES                                         *
    2042              ;*                            0 Parameter,  0 Auto,  0 SOE     *
    2043              ;***************************************************************
    2044              
    2045              ||__isfinite||:
    2046              ;* AR4   assigned to d
    2047              $C$DW$117       .dwtag  DW_TAG_variable
    2048                      .dwattr $C$DW$117, DW_AT_name("d")
    2049                      .dwattr $C$DW$117, DW_AT_type(*$C$DW$T$85)
    2050                      .dwattr $C$DW$117, DW_AT_location[DW_OP_reg12]
    2051              
TMS320C2000 Assembler PC v20.2.4 Mon Jan 11 05:48:47 2021

Copyright (c) 1996-2018 Texas Instruments Incorporated
bts.asm                                                              PAGE   42

    2052                      .dwcfi  cfa_offset, -2
    2053                      .dwcfi  save_reg_to_mem, 26, 0
    2054                      .dwpsn  file "C:/ti/ccs1011/ccs/tools/compiler/ti-cgt-c2000_20.2.4.LTS/include/_defs.h",line 335,colu
    2055 00000000 A3C4          MOVL      P,*+XAR4[0]           ; [CPU_ALU] |335| 
    2056 00000001 06D4          MOVL      ACC,*+XAR4[2]         ; [CPU_ALU] |335| 
    2057 00000002 28AC          MOV       T,#48                 ; [CPU_ALU] |335| 
         00000003 0030 
    2058 00000004 565B          LSR64     ACC:P,T               ; [CPU_ALU] |335| 
    2059 00000005 18AB          AND       PL,#0x7ff0            ; [CPU_ALU] |335| 
         00000006 7FF0 
    2060 00000007 80AB          MOVZ      AR7,PL                ; [CPU_ALU] |335| 
    2061 00000008 8F00          MOVL      XAR4,#32752           ; [CPU_ARAU] |335| 
         00000009 7FF0 
    2062 0000000a BE00          MOVB      XAR6,#0               ; [CPU_ALU] |335| 
    2063 0000000b A8A9          MOVL      ACC,XAR4              ; [CPU_ALU] |335| 
    2064 0000000c 0FA7          CMPL      ACC,XAR7              ; [CPU_ALU] |335| 
    2065 0000000d 56B0          MOVB      XAR6,#1,NEQ           ; [CPU_ALU] |335| 
         0000000e 01A6 
    2066 0000000f 92A6          MOV       AL,AR6                ; [CPU_ALU] |335| 
    2067              $C$DW$118       .dwtag  DW_TAG_TI_branch
    2068                      .dwattr $C$DW$118, DW_AT_low_pc(0x00)
    2069                      .dwattr $C$DW$118, DW_AT_TI_return
    2070              
    2071 00000010 0006          LRETR     ; [CPU_ALU] 
    2072                      ; return occurs ; [] 
    2073                      .dwattr $C$DW$115, DW_AT_TI_end_file("C:/ti/ccs1011/ccs/tools/compiler/ti-cgt-c2000_20.2.4.LTS/includ
    2074                      .dwattr $C$DW$115, DW_AT_TI_end_line(0x14f)
    2075                      .dwattr $C$DW$115, DW_AT_TI_end_column(0x2e)
    2076                      .dwendentry
    2077                      .dwendtag $C$DW$115
    2078              
    2079 00000000               .sect   ".text:__fpclassifyl"
    2080                      .clink
    2081                      .global ||__fpclassifyl||
    2082              
    2083              $C$DW$119       .dwtag  DW_TAG_subprogram
    2084                      .dwattr $C$DW$119, DW_AT_name("__fpclassifyl")
    2085                      .dwattr $C$DW$119, DW_AT_low_pc(||__fpclassifyl||)
    2086                      .dwattr $C$DW$119, DW_AT_high_pc(0x00)
    2087                      .dwattr $C$DW$119, DW_AT_linkage_name("__fpclassifyl")
    2088                      .dwattr $C$DW$119, DW_AT_external
    2089                      .dwattr $C$DW$119, DW_AT_type(*$C$DW$T$10)
    2090                      .dwattr $C$DW$119, DW_AT_decl_file("C:/ti/ccs1011/ccs/tools/compiler/ti-cgt-c2000_20.2.4.LTS/include/
    2091                      .dwattr $C$DW$119, DW_AT_decl_line(0x1ae)
    2092                      .dwattr $C$DW$119, DW_AT_decl_column(0x25)
    2093                      .dwattr $C$DW$119, DW_AT_TI_max_frame_size(-10)
    2094                      .dwpsn  file "C:/ti/ccs1011/ccs/tools/compiler/ti-cgt-c2000_20.2.4.LTS/include/_defs.h",line 431,colu
    2095              
    2096                      .dwfde $C$DW$CIE, ||__fpclassifyl||
    2097              $C$DW$120       .dwtag  DW_TAG_formal_parameter
    2098                      .dwattr $C$DW$120, DW_AT_name("e")
    2099                      .dwattr $C$DW$120, DW_AT_type(*$C$DW$T$87)
    2100                      .dwattr $C$DW$120, DW_AT_location[DW_OP_reg12]
    2101              
    2102              
TMS320C2000 Assembler PC v20.2.4 Mon Jan 11 05:48:47 2021

Copyright (c) 1996-2018 Texas Instruments Incorporated
bts.asm                                                              PAGE   43

    2103              ;***************************************************************
    2104              ;* FNAME: __fpclassifyl                 FR SIZE:   8           *
    2105              ;*                                                             *
    2106              ;* FUNCTION ENVIRONMENT                                        *
    2107              ;*                                                             *
    2108              ;* FUNCTION PROPERTIES                                         *
    2109              ;*                            4 Parameter,  4 Auto,  0 SOE     *
    2110              ;***************************************************************
    2111              
    2112              ||__fpclassifyl||:
    2113              $C$DW$121       .dwtag  DW_TAG_variable
    2114                      .dwattr $C$DW$121, DW_AT_name("e")
    2115                      .dwattr $C$DW$121, DW_AT_type(*$C$DW$T$18)
    2116                      .dwattr $C$DW$121, DW_AT_location[DW_OP_breg20 -8]
    2117              
    2118              ;* AR5   assigned to $O$C1
    2119              ;* AR4   assigned to e
    2120              $C$DW$122       .dwtag  DW_TAG_variable
    2121                      .dwattr $C$DW$122, DW_AT_name("e")
    2122                      .dwattr $C$DW$122, DW_AT_type(*$C$DW$T$88)
    2123                      .dwattr $C$DW$122, DW_AT_location[DW_OP_reg12]
    2124              
    2125                      .dwcfi  cfa_offset, -2
    2126                      .dwcfi  save_reg_to_mem, 26, 0
    2127 00000000 FE08          ADDB      SP,#8                 ; [CPU_ARAU] 
    2128                      .dwcfi  cfa_offset, -10
    2129 00000001 C4D4          MOVL      XAR6,*+XAR4[2]        ; [CPU_ALU] |431| 
    2130 00000002 06C4          MOVL      ACC,*+XAR4[0]         ; [CPU_ALU] |431| 
    2131 00000003 1E48          MOVL      *-SP[8],ACC           ; [CPU_ALU] |431| 
    2132 00000004 C246          MOVL      *-SP[6],XAR6          ; [CPU_ALU] |431| 
    2133                      .dwpsn  file "C:/ti/ccs1011/ccs/tools/compiler/ti-cgt-c2000_20.2.4.LTS/include/_defs.h",line 432,colu
    2134 00000005 8348          MOVL      XAR5,*-SP[8]          ; [CPU_ALU] |432| 
    2135 00000006 8A46          MOVL      XAR4,*-SP[6]          ; [CPU_ALU] |432| 
    2136                      .dwpsn  file "C:/ti/ccs1011/ccs/tools/compiler/ti-cgt-c2000_20.2.4.LTS/include/_defs.h",line 436,colu
    2137 00000007 28AC          MOV       T,#48                 ; [CPU_ALU] |436| 
         00000008 0030 
    2138 00000009 A0AB          MOVL      P,XAR5                ; [CPU_ALU] |436| 
    2139 0000000a A8A9          MOVL      ACC,XAR4              ; [CPU_ALU] |436| 
    2140 0000000b 565B          LSR64     ACC:P,T               ; [CPU_ALU] |436| 
    2141 0000000c 18AB          AND       PL,#0x7ff0            ; [CPU_ALU] |436| 
         0000000d 7FF0 
    2142 0000000e 80AB          MOVZ      AR7,PL                ; [CPU_ALU] |436| 
    2143 0000000f 7680          MOVL      XAR6,#32752           ; [CPU_ARAU] |436| 
         00000010 7FF0 
    2144 00000011 06A6          MOVL      ACC,XAR6              ; [CPU_ALU] |436| 
    2145 00000012 0FA7          CMPL      ACC,XAR7              ; [CPU_ALU] |436| 
    2146 00000013 6016          B         ||$C$L11||,NEQ        ; [CPU_ALU] |436| 
    2147                      ; branchcc occurs ; [] |436| 
    2148 00000014 0200          MOVB      ACC,#0                ; [CPU_ALU] |436| 
    2149 00000015 1E44          MOVL      *-SP[4],ACC           ; [CPU_ALU] |436| 
    2150 00000016 2B42          MOV       *-SP[2],#0            ; [CPU_ALU] |436| 
    2151 00000017 2B41          MOV       *-SP[1],#0            ; [CPU_ALU] |436| 
    2152 00000018 A348          MOVL      P,*-SP[8]             ; [CPU_ALU] |436| 
    2153 00000019 0646          MOVL      ACC,*-SP[6]           ; [CPU_ALU] |436| 
    2154 0000001a 18AB          AND       PL,#65535             ; [CPU_ALU] |436| 
TMS320C2000 Assembler PC v20.2.4 Mon Jan 11 05:48:47 2021

Copyright (c) 1996-2018 Texas Instruments Incorporated
bts.asm                                                              PAGE   44

         0000001b FFFF 
    2155 0000001c 18AA          AND       PH,#65535             ; [CPU_ALU] |436| 
         0000001d FFFF 
    2156 0000001e 18A9          AND       AL,#65535             ; [CPU_ALU] |436| 
         0000001f FFFF 
    2157 00000020 910F          ANDB      AH,#15                ; [CPU_ALU] |436| 
    2158              $C$DW$123       .dwtag  DW_TAG_TI_branch
    2159                      .dwattr $C$DW$123, DW_AT_low_pc(0x00)
    2160                      .dwattr $C$DW$123, DW_AT_name("__c28xabi_cmpull")
    2161                      .dwattr $C$DW$123, DW_AT_TI_call
    2162              
    2163 00000021 7640!         LCR       #||__c28xabi_cmpull|| ; [CPU_ALU] |436| 
         00000022 0000 
    2164                      ; call occurs [#||__c28xabi_cmpull||] ; [] |436| 
    2165 00000023 5200          CMPB      AL,#0                 ; [CPU_ALU] |436| 
    2166 00000024 6103          B         ||$C$L10||,EQ         ; [CPU_ALU] |436| 
    2167                      ; branchcc occurs ; [] |436| 
    2168 00000025 9A02          MOVB      AL,#2                 ; [CPU_ALU] |436| 
    2169 00000026 6F2D          B         ||$C$L14||,UNC        ; [CPU_ALU] |436| 
    2170                      ; branch occurs ; [] |436| 
    2171 00000027       ||$C$L10||:    
    2172 00000027 9A01          MOVB      AL,#1                 ; [CPU_ALU] |436| 
    2173 00000028 6F2B          B         ||$C$L14||,UNC        ; [CPU_ALU] |436| 
    2174                      ; branch occurs ; [] |436| 
    2175 00000029       ||$C$L11||:    
    2176 00000029 BE00          MOVB      XAR6,#0               ; [CPU_ALU] |436| 
    2177 0000002a A0AB          MOVL      P,XAR5                ; [CPU_ALU] |436| 
    2178 0000002b A8A9          MOVL      ACC,XAR4              ; [CPU_ALU] |436| 
    2179 0000002c 28AC          MOV       T,#52                 ; [CPU_ALU] |436| 
         0000002d 0034 
    2180 0000002e C244          MOVL      *-SP[4],XAR6          ; [CPU_ALU] |436| 
    2181 0000002f 2B42          MOV       *-SP[2],#0            ; [CPU_ALU] |436| 
    2182 00000030 565B          LSR64     ACC:P,T               ; [CPU_ALU] |436| 
    2183 00000031 2B41          MOV       *-SP[1],#0            ; [CPU_FPU] |436| 
    2184 00000032 9000          ANDB      AL,#0                 ; [CPU_ALU] |436| 
    2185 00000033 9100          ANDB      AH,#0                 ; [CPU_ALU] |436| 
    2186 00000034 18AB          AND       PL,#2047              ; [CPU_ALU] |436| 
         00000035 07FF 
    2187 00000036 18AA          AND       PH,#0                 ; [CPU_ALU] |436| 
         00000037 0000 
    2188              $C$DW$124       .dwtag  DW_TAG_TI_branch
    2189                      .dwattr $C$DW$124, DW_AT_low_pc(0x00)
    2190                      .dwattr $C$DW$124, DW_AT_name("__c28xabi_cmpull")
    2191                      .dwattr $C$DW$124, DW_AT_TI_call
    2192              
    2193 00000038 7640!         LCR       #||__c28xabi_cmpull|| ; [CPU_ALU] |436| 
         00000039 0000 
    2194                      ; call occurs [#||__c28xabi_cmpull||] ; [] |436| 
    2195 0000003a 5200          CMPB      AL,#0                 ; [CPU_ALU] |436| 
    2196 0000003b 6104          B         ||$C$L12||,EQ         ; [CPU_ALU] |436| 
    2197                      ; branchcc occurs ; [] |436| 
    2198 0000003c 28A9          MOV       AL,#-1                ; [CPU_ALU] |436| 
         0000003d FFFF 
    2199 0000003e 6F15          B         ||$C$L14||,UNC        ; [CPU_ALU] |436| 
    2200                      ; branch occurs ; [] |436| 
TMS320C2000 Assembler PC v20.2.4 Mon Jan 11 05:48:47 2021

Copyright (c) 1996-2018 Texas Instruments Incorporated
bts.asm                                                              PAGE   45

    2201 0000003f       ||$C$L12||:    
    2202 0000003f C244          MOVL      *-SP[4],XAR6          ; [CPU_ALU] |436| 
    2203 00000040 A8A9          MOVL      ACC,XAR4              ; [CPU_ALU] |436| 
    2204 00000041 A0AB          MOVL      P,XAR5                ; [CPU_ALU] |436| 
    2205 00000042 2B42          MOV       *-SP[2],#0            ; [CPU_ALU] |436| 
    2206 00000043 18A9          AND       AL,#65535             ; [CPU_ALU] |436| 
         00000044 FFFF 
    2207 00000045 910F          ANDB      AH,#15                ; [CPU_ALU] |436| 
    2208 00000046 18AB          AND       PL,#65535             ; [CPU_ALU] |436| 
         00000047 FFFF 
    2209 00000048 18AA          AND       PH,#65535             ; [CPU_ALU] |436| 
         00000049 FFFF 
    2210 0000004a 2B41          MOV       *-SP[1],#0            ; [CPU_FPU] |436| 
    2211              $C$DW$125       .dwtag  DW_TAG_TI_branch
    2212                      .dwattr $C$DW$125, DW_AT_low_pc(0x00)
    2213                      .dwattr $C$DW$125, DW_AT_name("__c28xabi_cmpull")
    2214                      .dwattr $C$DW$125, DW_AT_TI_call
    2215              
    2216 0000004b 7640!         LCR       #||__c28xabi_cmpull|| ; [CPU_ALU] |436| 
         0000004c 0000 
    2217                      ; call occurs [#||__c28xabi_cmpull||] ; [] |436| 
    2218 0000004d 5200          CMPB      AL,#0                 ; [CPU_ALU] |436| 
    2219 0000004e 6104          B         ||$C$L13||,EQ         ; [CPU_ALU] |436| 
    2220                      ; branchcc occurs ; [] |436| 
    2221 0000004f 28A9          MOV       AL,#-2                ; [CPU_ALU] |436| 
         00000050 FFFE 
    2222 00000051 6F02          B         ||$C$L14||,UNC        ; [CPU_ALU] |436| 
    2223                      ; branch occurs ; [] |436| 
    2224 00000052       ||$C$L13||:    
    2225 00000052 9A00          MOVB      AL,#0                 ; [CPU_ALU] |436| 
    2226 00000053       ||$C$L14||:    
    2227 00000053 FE88          SUBB      SP,#8                 ; [CPU_ARAU] 
    2228                      .dwcfi  cfa_offset, -2
    2229              $C$DW$126       .dwtag  DW_TAG_TI_branch
    2230                      .dwattr $C$DW$126, DW_AT_low_pc(0x00)
    2231                      .dwattr $C$DW$126, DW_AT_TI_return
    2232              
    2233 00000054 0006          LRETR     ; [CPU_ALU] 
    2234                      ; return occurs ; [] 
    2235                      .dwattr $C$DW$119, DW_AT_TI_end_file("C:/ti/ccs1011/ccs/tools/compiler/ti-cgt-c2000_20.2.4.LTS/includ
    2236                      .dwattr $C$DW$119, DW_AT_TI_end_line(0x1bd)
    2237                      .dwattr $C$DW$119, DW_AT_TI_end_column(0x01)
    2238                      .dwendentry
    2239                      .dwendtag $C$DW$119
    2240              
    2241 00000000               .sect   ".text:__fpclassifyf"
    2242                      .clink
    2243                      .global ||__fpclassifyf||
    2244              
    2245              $C$DW$127       .dwtag  DW_TAG_subprogram
    2246                      .dwattr $C$DW$127, DW_AT_name("__fpclassifyf")
    2247                      .dwattr $C$DW$127, DW_AT_low_pc(||__fpclassifyf||)
    2248                      .dwattr $C$DW$127, DW_AT_high_pc(0x00)
    2249                      .dwattr $C$DW$127, DW_AT_linkage_name("__fpclassifyf")
    2250                      .dwattr $C$DW$127, DW_AT_external
TMS320C2000 Assembler PC v20.2.4 Mon Jan 11 05:48:47 2021

Copyright (c) 1996-2018 Texas Instruments Incorporated
bts.asm                                                              PAGE   46

    2251                      .dwattr $C$DW$127, DW_AT_type(*$C$DW$T$10)
    2252                      .dwattr $C$DW$127, DW_AT_decl_file("C:/ti/ccs1011/ccs/tools/compiler/ti-cgt-c2000_20.2.4.LTS/include/
    2253                      .dwattr $C$DW$127, DW_AT_decl_line(0x18c)
    2254                      .dwattr $C$DW$127, DW_AT_decl_column(0x25)
    2255                      .dwattr $C$DW$127, DW_AT_TI_max_frame_size(-2)
    2256                      .dwpsn  file "C:/ti/ccs1011/ccs/tools/compiler/ti-cgt-c2000_20.2.4.LTS/include/_defs.h",line 397,colu
    2257              
    2258                      .dwfde $C$DW$CIE, ||__fpclassifyf||
    2259              $C$DW$128       .dwtag  DW_TAG_formal_parameter
    2260                      .dwattr $C$DW$128, DW_AT_name("f")
    2261                      .dwattr $C$DW$128, DW_AT_type(*$C$DW$T$16)
    2262                      .dwattr $C$DW$128, DW_AT_location[DW_OP_regx 0x2b]
    2263              
    2264              
    2265              ;***************************************************************
    2266              ;* FNAME: __fpclassifyf                 FR SIZE:   0           *
    2267              ;*                                                             *
    2268              ;* FUNCTION ENVIRONMENT                                        *
    2269              ;*                                                             *
    2270              ;* FUNCTION PROPERTIES                                         *
    2271              ;*                            0 Parameter,  0 Auto,  0 SOE     *
    2272              ;***************************************************************
    2273              
    2274              ||__fpclassifyf||:
    2275              ;* PL    assigned to $O$K1
    2276              ;* R0    assigned to f
    2277              $C$DW$129       .dwtag  DW_TAG_variable
    2278                      .dwattr $C$DW$129, DW_AT_name("f")
    2279                      .dwattr $C$DW$129, DW_AT_type(*$C$DW$T$82)
    2280                      .dwattr $C$DW$129, DW_AT_location[DW_OP_regx 0x2b]
    2281              
    2282                      .dwcfi  cfa_offset, -2
    2283                      .dwcfi  save_reg_to_mem, 26, 0
    2284                      .dwpsn  file "C:/ti/ccs1011/ccs/tools/compiler/ti-cgt-c2000_20.2.4.LTS/include/_defs.h",line 398,colu
    2285 00000000 BFAB          MOV32     P,R0H                 ; [CPU_FPU] |398| 
         00000001 0F12 
    2286                      .dwpsn  file "C:/ti/ccs1011/ccs/tools/compiler/ti-cgt-c2000_20.2.4.LTS/include/_defs.h",line 402,colu
    2287 00000002 CCAA          AND       AL,PH,#0x7f80         ; [CPU_ALU] |402| 
         00000003 7F80 
    2288 00000004 88A9          MOVZ      AR6,AL                ; [CPU_ALU] |402| 
    2289 00000005 8F00          MOVL      XAR4,#32640           ; [CPU_ARAU] |402| 
         00000006 7F80 
    2290 00000007 A8A9          MOVL      ACC,XAR4              ; [CPU_ALU] |402| 
    2291 00000008 0FA6          CMPL      ACC,XAR6              ; [CPU_ALU] |402| 
    2292 00000009 6009          B         ||$C$L16||,NEQ        ; [CPU_ALU] |402| 
    2293                      ; branchcc occurs ; [] |402| 
    2294 0000000a A9A9          MOVL      ACC,P                 ; [CPU_ALU] |402| 
    2295 0000000b 917F          ANDB      AH,#127               ; [CPU_ALU] |402| 
    2296 0000000c FF58          TEST      ACC                   ; [CPU_ALU] |402| 
    2297 0000000d 6103          B         ||$C$L15||,EQ         ; [CPU_ALU] |402| 
    2298                      ; branchcc occurs ; [] |402| 
    2299                      .dwcfi  remember_state
    2300 0000000e 9A02          MOVB      AL,#2                 ; [CPU_ALU] |402| 
    2301              $C$DW$130       .dwtag  DW_TAG_TI_branch
    2302                      .dwattr $C$DW$130, DW_AT_low_pc(0x00)
TMS320C2000 Assembler PC v20.2.4 Mon Jan 11 05:48:47 2021

Copyright (c) 1996-2018 Texas Instruments Incorporated
bts.asm                                                              PAGE   47

    2303                      .dwattr $C$DW$130, DW_AT_TI_return
    2304              
    2305 0000000f 0006          LRETR     ; [CPU_ALU] 
    2306                      ; return occurs ; [] 
    2307                      .dwcfi  restore_state
    2308 00000010       ||$C$L15||:    
    2309                      .dwcfi  remember_state
    2310 00000010 9A01          MOVB      AL,#1                 ; [CPU_ALU] |402| 
    2311              $C$DW$131       .dwtag  DW_TAG_TI_branch
    2312                      .dwattr $C$DW$131, DW_AT_low_pc(0x00)
    2313                      .dwattr $C$DW$131, DW_AT_TI_return
    2314              
    2315 00000011 0006          LRETR     ; [CPU_ALU] 
    2316                      ; return occurs ; [] 
    2317                      .dwcfi  restore_state
    2318 00000012       ||$C$L16||:    
    2319 00000012 A9A9          MOVL      ACC,P                 ; [CPU_ALU] |402| 
    2320 00000013 28AC          MOV       T,#23                 ; [CPU_ALU] |402| 
         00000014 0017 
    2321 00000015 5622          LSRL      ACC,T                 ; [CPU_ALU] |402| 
    2322 00000016 90FF          ANDB      AL,#0xff              ; [CPU_ALU] |402| 
    2323 00000017 6104          B         ||$C$L17||,EQ         ; [CPU_ALU] |402| 
    2324                      ; branchcc occurs ; [] |402| 
    2325                      .dwcfi  remember_state
    2326 00000018 28A9          MOV       AL,#-1                ; [CPU_ALU] |402| 
         00000019 FFFF 
    2327              $C$DW$132       .dwtag  DW_TAG_TI_branch
    2328                      .dwattr $C$DW$132, DW_AT_low_pc(0x00)
    2329                      .dwattr $C$DW$132, DW_AT_TI_return
    2330              
    2331 0000001a 0006          LRETR     ; [CPU_ALU] 
    2332                      ; return occurs ; [] 
    2333                      .dwcfi  restore_state
    2334 0000001b       ||$C$L17||:    
    2335 0000001b A9A9          MOVL      ACC,P                 ; [CPU_ALU] |402| 
    2336 0000001c 917F          ANDB      AH,#127               ; [CPU_ALU] |402| 
    2337 0000001d FF58          TEST      ACC                   ; [CPU_ALU] |402| 
    2338 0000001e 6104          B         ||$C$L18||,EQ         ; [CPU_ALU] |402| 
    2339                      ; branchcc occurs ; [] |402| 
    2340                      .dwcfi  remember_state
    2341 0000001f 28A9          MOV       AL,#-2                ; [CPU_ALU] |402| 
         00000020 FFFE 
    2342              $C$DW$133       .dwtag  DW_TAG_TI_branch
    2343                      .dwattr $C$DW$133, DW_AT_low_pc(0x00)
    2344                      .dwattr $C$DW$133, DW_AT_TI_return
    2345              
    2346 00000021 0006          LRETR     ; [CPU_ALU] 
    2347                      ; return occurs ; [] 
    2348                      .dwcfi  restore_state
    2349 00000022       ||$C$L18||:    
    2350 00000022 9A00          MOVB      AL,#0                 ; [CPU_ALU] |402| 
    2351              $C$DW$134       .dwtag  DW_TAG_TI_branch
    2352                      .dwattr $C$DW$134, DW_AT_low_pc(0x00)
    2353                      .dwattr $C$DW$134, DW_AT_TI_return
    2354              
TMS320C2000 Assembler PC v20.2.4 Mon Jan 11 05:48:47 2021

Copyright (c) 1996-2018 Texas Instruments Incorporated
bts.asm                                                              PAGE   48

    2355 00000023 0006          LRETR     ; [CPU_ALU] 
    2356                      ; return occurs ; [] 
    2357                      .dwattr $C$DW$127, DW_AT_TI_end_file("C:/ti/ccs1011/ccs/tools/compiler/ti-cgt-c2000_20.2.4.LTS/includ
    2358                      .dwattr $C$DW$127, DW_AT_TI_end_line(0x19b)
    2359                      .dwattr $C$DW$127, DW_AT_TI_end_column(0x01)
    2360                      .dwendentry
    2361                      .dwendtag $C$DW$127
    2362              
    2363 00000000               .sect   ".text:__fpclassify"
    2364                      .clink
    2365                      .global ||__fpclassify||
    2366              
    2367              $C$DW$135       .dwtag  DW_TAG_subprogram
    2368                      .dwattr $C$DW$135, DW_AT_name("__fpclassify")
    2369                      .dwattr $C$DW$135, DW_AT_low_pc(||__fpclassify||)
    2370                      .dwattr $C$DW$135, DW_AT_high_pc(0x00)
    2371                      .dwattr $C$DW$135, DW_AT_linkage_name("__fpclassify")
    2372                      .dwattr $C$DW$135, DW_AT_external
    2373                      .dwattr $C$DW$135, DW_AT_type(*$C$DW$T$10)
    2374                      .dwattr $C$DW$135, DW_AT_decl_file("C:/ti/ccs1011/ccs/tools/compiler/ti-cgt-c2000_20.2.4.LTS/include/
    2375                      .dwattr $C$DW$135, DW_AT_decl_line(0x19d)
    2376                      .dwattr $C$DW$135, DW_AT_decl_column(0x25)
    2377                      .dwattr $C$DW$135, DW_AT_TI_max_frame_size(-10)
    2378                      .dwpsn  file "C:/ti/ccs1011/ccs/tools/compiler/ti-cgt-c2000_20.2.4.LTS/include/_defs.h",line 414,colu
    2379              
    2380                      .dwfde $C$DW$CIE, ||__fpclassify||
    2381              $C$DW$136       .dwtag  DW_TAG_formal_parameter
    2382                      .dwattr $C$DW$136, DW_AT_name("d")
    2383                      .dwattr $C$DW$136, DW_AT_type(*$C$DW$T$84)
    2384                      .dwattr $C$DW$136, DW_AT_location[DW_OP_reg12]
    2385              
    2386              
    2387              ;***************************************************************
    2388              ;* FNAME: __fpclassify                  FR SIZE:   8           *
    2389              ;*                                                             *
    2390              ;* FUNCTION ENVIRONMENT                                        *
    2391              ;*                                                             *
    2392              ;* FUNCTION PROPERTIES                                         *
    2393              ;*                            4 Parameter,  4 Auto,  0 SOE     *
    2394              ;***************************************************************
    2395              
    2396              ||__fpclassify||:
    2397              $C$DW$137       .dwtag  DW_TAG_variable
    2398                      .dwattr $C$DW$137, DW_AT_name("d")
    2399                      .dwattr $C$DW$137, DW_AT_type(*$C$DW$T$17)
    2400                      .dwattr $C$DW$137, DW_AT_location[DW_OP_breg20 -8]
    2401              
    2402              ;* AR5   assigned to $O$C1
    2403              ;* AR4   assigned to d
    2404              $C$DW$138       .dwtag  DW_TAG_variable
    2405                      .dwattr $C$DW$138, DW_AT_name("d")
    2406                      .dwattr $C$DW$138, DW_AT_type(*$C$DW$T$85)
    2407                      .dwattr $C$DW$138, DW_AT_location[DW_OP_reg12]
    2408              
    2409                      .dwcfi  cfa_offset, -2
TMS320C2000 Assembler PC v20.2.4 Mon Jan 11 05:48:47 2021

Copyright (c) 1996-2018 Texas Instruments Incorporated
bts.asm                                                              PAGE   49

    2410                      .dwcfi  save_reg_to_mem, 26, 0
    2411 00000000 FE08          ADDB      SP,#8                 ; [CPU_ARAU] 
    2412                      .dwcfi  cfa_offset, -10
    2413 00000001 C4D4          MOVL      XAR6,*+XAR4[2]        ; [CPU_ALU] |414| 
    2414 00000002 06C4          MOVL      ACC,*+XAR4[0]         ; [CPU_ALU] |414| 
    2415 00000003 1E48          MOVL      *-SP[8],ACC           ; [CPU_ALU] |414| 
    2416 00000004 C246          MOVL      *-SP[6],XAR6          ; [CPU_ALU] |414| 
    2417                      .dwpsn  file "C:/ti/ccs1011/ccs/tools/compiler/ti-cgt-c2000_20.2.4.LTS/include/_defs.h",line 415,colu
    2418 00000005 8348          MOVL      XAR5,*-SP[8]          ; [CPU_ALU] |415| 
    2419 00000006 8A46          MOVL      XAR4,*-SP[6]          ; [CPU_ALU] |415| 
    2420                      .dwpsn  file "C:/ti/ccs1011/ccs/tools/compiler/ti-cgt-c2000_20.2.4.LTS/include/_defs.h",line 419,colu
    2421 00000007 28AC          MOV       T,#48                 ; [CPU_ALU] |419| 
         00000008 0030 
    2422 00000009 A0AB          MOVL      P,XAR5                ; [CPU_ALU] |419| 
    2423 0000000a A8A9          MOVL      ACC,XAR4              ; [CPU_ALU] |419| 
    2424 0000000b 565B          LSR64     ACC:P,T               ; [CPU_ALU] |419| 
    2425 0000000c 18AB          AND       PL,#0x7ff0            ; [CPU_ALU] |419| 
         0000000d 7FF0 
    2426 0000000e 80AB          MOVZ      AR7,PL                ; [CPU_ALU] |419| 
    2427 0000000f 7680          MOVL      XAR6,#32752           ; [CPU_ARAU] |419| 
         00000010 7FF0 
    2428 00000011 06A6          MOVL      ACC,XAR6              ; [CPU_ALU] |419| 
    2429 00000012 0FA7          CMPL      ACC,XAR7              ; [CPU_ALU] |419| 
    2430 00000013 6016          B         ||$C$L20||,NEQ        ; [CPU_ALU] |419| 
    2431                      ; branchcc occurs ; [] |419| 
    2432 00000014 0200          MOVB      ACC,#0                ; [CPU_ALU] |419| 
    2433 00000015 1E44          MOVL      *-SP[4],ACC           ; [CPU_ALU] |419| 
    2434 00000016 2B42          MOV       *-SP[2],#0            ; [CPU_ALU] |419| 
    2435 00000017 2B41          MOV       *-SP[1],#0            ; [CPU_ALU] |419| 
    2436 00000018 A348          MOVL      P,*-SP[8]             ; [CPU_ALU] |419| 
    2437 00000019 0646          MOVL      ACC,*-SP[6]           ; [CPU_ALU] |419| 
    2438 0000001a 18AB          AND       PL,#65535             ; [CPU_ALU] |419| 
         0000001b FFFF 
    2439 0000001c 18AA          AND       PH,#65535             ; [CPU_ALU] |419| 
         0000001d FFFF 
    2440 0000001e 18A9          AND       AL,#65535             ; [CPU_ALU] |419| 
         0000001f FFFF 
    2441 00000020 910F          ANDB      AH,#15                ; [CPU_ALU] |419| 
    2442              $C$DW$139       .dwtag  DW_TAG_TI_branch
    2443                      .dwattr $C$DW$139, DW_AT_low_pc(0x00)
    2444                      .dwattr $C$DW$139, DW_AT_name("__c28xabi_cmpull")
    2445                      .dwattr $C$DW$139, DW_AT_TI_call
    2446              
    2447 00000021 7640!         LCR       #||__c28xabi_cmpull|| ; [CPU_ALU] |419| 
         00000022 0000 
    2448                      ; call occurs [#||__c28xabi_cmpull||] ; [] |419| 
    2449 00000023 5200          CMPB      AL,#0                 ; [CPU_ALU] |419| 
    2450 00000024 6103          B         ||$C$L19||,EQ         ; [CPU_ALU] |419| 
    2451                      ; branchcc occurs ; [] |419| 
    2452 00000025 9A02          MOVB      AL,#2                 ; [CPU_ALU] |419| 
    2453 00000026 6F2D          B         ||$C$L23||,UNC        ; [CPU_ALU] |419| 
    2454                      ; branch occurs ; [] |419| 
    2455 00000027       ||$C$L19||:    
    2456 00000027 9A01          MOVB      AL,#1                 ; [CPU_ALU] |419| 
    2457 00000028 6F2B          B         ||$C$L23||,UNC        ; [CPU_ALU] |419| 
TMS320C2000 Assembler PC v20.2.4 Mon Jan 11 05:48:47 2021

Copyright (c) 1996-2018 Texas Instruments Incorporated
bts.asm                                                              PAGE   50

    2458                      ; branch occurs ; [] |419| 
    2459 00000029       ||$C$L20||:    
    2460 00000029 BE00          MOVB      XAR6,#0               ; [CPU_ALU] |419| 
    2461 0000002a A0AB          MOVL      P,XAR5                ; [CPU_ALU] |419| 
    2462 0000002b A8A9          MOVL      ACC,XAR4              ; [CPU_ALU] |419| 
    2463 0000002c 28AC          MOV       T,#52                 ; [CPU_ALU] |419| 
         0000002d 0034 
    2464 0000002e C244          MOVL      *-SP[4],XAR6          ; [CPU_ALU] |419| 
    2465 0000002f 2B42          MOV       *-SP[2],#0            ; [CPU_ALU] |419| 
    2466 00000030 565B          LSR64     ACC:P,T               ; [CPU_ALU] |419| 
    2467 00000031 2B41          MOV       *-SP[1],#0            ; [CPU_FPU] |419| 
    2468 00000032 9000          ANDB      AL,#0                 ; [CPU_ALU] |419| 
    2469 00000033 9100          ANDB      AH,#0                 ; [CPU_ALU] |419| 
    2470 00000034 18AB          AND       PL,#2047              ; [CPU_ALU] |419| 
         00000035 07FF 
    2471 00000036 18AA          AND       PH,#0                 ; [CPU_ALU] |419| 
         00000037 0000 
    2472              $C$DW$140       .dwtag  DW_TAG_TI_branch
    2473                      .dwattr $C$DW$140, DW_AT_low_pc(0x00)
    2474                      .dwattr $C$DW$140, DW_AT_name("__c28xabi_cmpull")
    2475                      .dwattr $C$DW$140, DW_AT_TI_call
    2476              
    2477 00000038 7640!         LCR       #||__c28xabi_cmpull|| ; [CPU_ALU] |419| 
         00000039 0000 
    2478                      ; call occurs [#||__c28xabi_cmpull||] ; [] |419| 
    2479 0000003a 5200          CMPB      AL,#0                 ; [CPU_ALU] |419| 
    2480 0000003b 6104          B         ||$C$L21||,EQ         ; [CPU_ALU] |419| 
    2481                      ; branchcc occurs ; [] |419| 
    2482 0000003c 28A9          MOV       AL,#-1                ; [CPU_ALU] |419| 
         0000003d FFFF 
    2483 0000003e 6F15          B         ||$C$L23||,UNC        ; [CPU_ALU] |419| 
    2484                      ; branch occurs ; [] |419| 
    2485 0000003f       ||$C$L21||:    
    2486 0000003f C244          MOVL      *-SP[4],XAR6          ; [CPU_ALU] |419| 
    2487 00000040 A8A9          MOVL      ACC,XAR4              ; [CPU_ALU] |419| 
    2488 00000041 A0AB          MOVL      P,XAR5                ; [CPU_ALU] |419| 
    2489 00000042 2B42          MOV       *-SP[2],#0            ; [CPU_ALU] |419| 
    2490 00000043 18A9          AND       AL,#65535             ; [CPU_ALU] |419| 
         00000044 FFFF 
    2491 00000045 910F          ANDB      AH,#15                ; [CPU_ALU] |419| 
    2492 00000046 18AB          AND       PL,#65535             ; [CPU_ALU] |419| 
         00000047 FFFF 
    2493 00000048 18AA          AND       PH,#65535             ; [CPU_ALU] |419| 
         00000049 FFFF 
    2494 0000004a 2B41          MOV       *-SP[1],#0            ; [CPU_FPU] |419| 
    2495              $C$DW$141       .dwtag  DW_TAG_TI_branch
    2496                      .dwattr $C$DW$141, DW_AT_low_pc(0x00)
    2497                      .dwattr $C$DW$141, DW_AT_name("__c28xabi_cmpull")
    2498                      .dwattr $C$DW$141, DW_AT_TI_call
    2499              
    2500 0000004b 7640!         LCR       #||__c28xabi_cmpull|| ; [CPU_ALU] |419| 
         0000004c 0000 
    2501                      ; call occurs [#||__c28xabi_cmpull||] ; [] |419| 
    2502 0000004d 5200          CMPB      AL,#0                 ; [CPU_ALU] |419| 
    2503 0000004e 6104          B         ||$C$L22||,EQ         ; [CPU_ALU] |419| 
TMS320C2000 Assembler PC v20.2.4 Mon Jan 11 05:48:47 2021

Copyright (c) 1996-2018 Texas Instruments Incorporated
bts.asm                                                              PAGE   51

    2504                      ; branchcc occurs ; [] |419| 
    2505 0000004f 28A9          MOV       AL,#-2                ; [CPU_ALU] |419| 
         00000050 FFFE 
    2506 00000051 6F02          B         ||$C$L23||,UNC        ; [CPU_ALU] |419| 
    2507                      ; branch occurs ; [] |419| 
    2508 00000052       ||$C$L22||:    
    2509 00000052 9A00          MOVB      AL,#0                 ; [CPU_ALU] |419| 
    2510 00000053       ||$C$L23||:    
    2511 00000053 FE88          SUBB      SP,#8                 ; [CPU_ARAU] 
    2512                      .dwcfi  cfa_offset, -2
    2513              $C$DW$142       .dwtag  DW_TAG_TI_branch
    2514                      .dwattr $C$DW$142, DW_AT_low_pc(0x00)
    2515                      .dwattr $C$DW$142, DW_AT_TI_return
    2516              
    2517 00000054 0006          LRETR     ; [CPU_ALU] 
    2518                      ; return occurs ; [] 
    2519                      .dwattr $C$DW$135, DW_AT_TI_end_file("C:/ti/ccs1011/ccs/tools/compiler/ti-cgt-c2000_20.2.4.LTS/includ
    2520                      .dwattr $C$DW$135, DW_AT_TI_end_line(0x1ac)
    2521                      .dwattr $C$DW$135, DW_AT_TI_end_column(0x01)
    2522                      .dwendentry
    2523                      .dwendtag $C$DW$135
    2524              
    2525 00000000               .sect   "ramfuncs"
    2526                      .clink
    2527                      .global ||BTS_updateReference||
    2528              
    2529              $C$DW$143       .dwtag  DW_TAG_subprogram
    2530                      .dwattr $C$DW$143, DW_AT_name("BTS_updateReference")
    2531                      .dwattr $C$DW$143, DW_AT_low_pc(||BTS_updateReference||)
    2532                      .dwattr $C$DW$143, DW_AT_high_pc(0x00)
    2533                      .dwattr $C$DW$143, DW_AT_linkage_name("BTS_updateReference")
    2534                      .dwattr $C$DW$143, DW_AT_external
    2535                      .dwattr $C$DW$143, DW_AT_decl_file("../bts.c")
    2536                      .dwattr $C$DW$143, DW_AT_decl_line(0x178)
    2537                      .dwattr $C$DW$143, DW_AT_decl_column(0x06)
    2538                      .dwattr $C$DW$143, DW_AT_TI_max_frame_size(-4)
    2539                      .dwpsn  file "../bts.c",line 377,column 1,is_stmt,address ||BTS_updateReference||,isa 0
    2540              
    2541                      .dwfde $C$DW$CIE, ||BTS_updateReference||
    2542              $C$DW$144       .dwtag  DW_TAG_formal_parameter
    2543                      .dwattr $C$DW$144, DW_AT_name("userInput")
    2544                      .dwattr $C$DW$144, DW_AT_type(*$C$DW$T$50)
    2545                      .dwattr $C$DW$144, DW_AT_location[DW_OP_reg12]
    2546              
    2547              $C$DW$145       .dwtag  DW_TAG_formal_parameter
    2548                      .dwattr $C$DW$145, DW_AT_name("ctrlLoopVariable")
    2549                      .dwattr $C$DW$145, DW_AT_type(*$C$DW$T$55)
    2550                      .dwattr $C$DW$145, DW_AT_location[DW_OP_reg14]
    2551              
    2552              
    2553              ;***************************************************************
    2554              ;* FNAME: BTS_updateReference           FR SIZE:   2           *
    2555              ;*                                                             *
    2556              ;* FUNCTION ENVIRONMENT                                        *
    2557              ;*                                                             *
TMS320C2000 Assembler PC v20.2.4 Mon Jan 11 05:48:47 2021

Copyright (c) 1996-2018 Texas Instruments Incorporated
bts.asm                                                              PAGE   52

    2558              ;* FUNCTION PROPERTIES                                         *
    2559              ;*                            0 Parameter,  0 Auto,  2 SOE     *
    2560              ;***************************************************************
    2561              
    2562              ||BTS_updateReference||:
    2563              ;* AR4   assigned to userInput
    2564              $C$DW$146       .dwtag  DW_TAG_variable
    2565                      .dwattr $C$DW$146, DW_AT_name("userInput")
    2566                      .dwattr $C$DW$146, DW_AT_type(*$C$DW$T$51)
    2567                      .dwattr $C$DW$146, DW_AT_location[DW_OP_reg12]
    2568              
    2569              ;* AR5   assigned to ctrlLoopVariable
    2570              $C$DW$147       .dwtag  DW_TAG_variable
    2571                      .dwattr $C$DW$147, DW_AT_name("ctrlLoopVariable")
    2572                      .dwattr $C$DW$147, DW_AT_type(*$C$DW$T$56)
    2573                      .dwattr $C$DW$147, DW_AT_location[DW_OP_reg14]
    2574              
    2575                      .dwcfi  cfa_offset, -2
    2576                      .dwcfi  save_reg_to_mem, 26, 0
    2577 00000000 B2BD          MOVL      *SP++,XAR1            ; [CPU_ALU] 
    2578                      .dwcfi  save_reg_to_mem, 7, 2
    2579                      .dwcfi  cfa_offset, -4
    2580                      .dwpsn  file "../bts.c",line 379,column 5,is_stmt,isa 0
    2581 00000001 92FC          MOV       AL,*+XAR4[7]          ; [CPU_ALU] |379| 
    2582                      .dwpsn  file "../bts.c",line 383,column 9,is_stmt,isa 0
    2583 00000002 56B1          MOVB      XAR0,#34,EQ           ; [CPU_ALU] |383| 
         00000003 22A0 
    2584 00000004 56B1          MOVB      *+XAR5[AR0],#1,EQ     ; [CPU_ALU] |383| 
         00000005 0195 
    2585 00000006 6103          B         ||$C$L24||,EQ         ; [CPU_ALU] |383| 
    2586                      ; branchcc occurs ; [] |383| 
    2587                      .dwpsn  file "../bts.c",line 380,column 9,is_stmt,isa 0
    2588 00000007 D022          MOVB      XAR0,#34              ; [CPU_ALU] |380| 
    2589 00000008 2B95          MOV       *+XAR5[AR0],#0        ; [CPU_ALU] |380| 
    2590 00000009       ||$C$L24||:    
    2591                      .dwpsn  file "../bts.c",line 388,column 5,is_stmt,isa 0
    2592 00000009 D00E          MOVB      XAR0,#14              ; [CPU_ALU] |388| 
    2593 0000000a E2AF          MOV32     R0H,*+XAR4[0]         ; [CPU_FPU] |388| 
         0000000b 00C4 
    2594 0000000c D110          MOVB      XAR1,#16              ; [CPU_ALU] |388| 
    2595 0000000d E2AF          MOV32     R1H,*+XAR4[AR0]       ; [CPU_FPU] |388| 
         0000000e 0194 
    2596 0000000f E700          MPYF32    R0H,R1H,R0H           ; [CPU_FPU] |388| 
         00000010 0008 
    2597 00000011 E2AF          MOV32     R3H,*+XAR4[AR1]       ; [CPU_FPU] |388| 
         00000012 039C 
    2598 00000013 E710          ADDF32    R0H,R0H,R3H           ; [CPU_FPU] |388| 
         00000014 00C0 
    2599                      .dwpsn  file "../bts.c",line 390,column 5,is_stmt,isa 0
    2600 00000015 D008          MOVB      XAR0,#8               ; [CPU_ALU] |390| 
    2601                      .dwpsn  file "../bts.c",line 388,column 5,is_stmt,isa 0
    2602 00000016 E203          MOV32     *+XAR5[4],R0H         ; [CPU_FPU] |388| 
         00000017 00E5 
    2603                      .dwpsn  file "../bts.c",line 390,column 5,is_stmt,isa 0
    2604 00000018 0694          MOVL      ACC,*+XAR4[AR0]       ; [CPU_ALU] |390| 
TMS320C2000 Assembler PC v20.2.4 Mon Jan 11 05:48:47 2021

Copyright (c) 1996-2018 Texas Instruments Incorporated
bts.asm                                                              PAGE   53

    2605 00000019 1ED5          MOVL      *+XAR5[2],ACC         ; [CPU_ALU] |390| 
    2606                      .dwpsn  file "../bts.c",line 392,column 5,is_stmt,isa 0
    2607 0000001a 92F4          MOV       AL,*+XAR4[6]          ; [CPU_ALU] |392| 
    2608 0000001b 5201          CMPB      AL,#1                 ; [CPU_ALU] |392| 
    2609 0000001c 610B          B         ||$C$L25||,EQ         ; [CPU_ALU] |392| 
    2610                      ; branchcc occurs ; [] |392| 
    2611                      .dwpsn  file "../bts.c",line 399,column 9,is_stmt,isa 0
    2612 0000001d D01F          MOVB      XAR0,#31              ; [CPU_ALU] |399| 
    2613                      .dwpsn  file "../bts.c",line 398,column 9,is_stmt,isa 0
    2614 0000001e E805          MOVIZ     R0H,#49024            ; [CPU_FPU] |398| 
         0000001f FC00 
    2615                      .dwpsn  file "../bts.c",line 399,column 9,is_stmt,isa 0
    2616 00000020 2B95          MOV       *+XAR5[AR0],#0        ; [CPU_ALU] |399| 
    2617                      .dwpsn  file "../bts.c",line 398,column 9,is_stmt,isa 0
    2618 00000021 D018          MOVB      XAR0,#24              ; [CPU_ALU] |398| 
    2619 00000022 E203          MOV32     *+XAR5[AR0],R0H       ; [CPU_FPU] |398| 
         00000023 0095 
    2620                      .dwpsn  file "../bts.c",line 400,column 9,is_stmt,isa 0
    2621 00000024 E2AF          MOV32     R0H,*+XAR4[4]         ; [CPU_FPU] |400| 
         00000025 00E4 
    2622 00000026 6F0B          B         ||$C$L26||,UNC        ; [CPU_ALU] |400| 
    2623                      ; branch occurs ; [] |400| 
    2624 00000027       ||$C$L25||:    
    2625                      .dwpsn  file "../bts.c",line 394,column 9,is_stmt,isa 0
    2626 00000027 D01F          MOVB      XAR0,#31              ; [CPU_ALU] |394| 
    2627                      .dwpsn  file "../bts.c",line 393,column 9,is_stmt,isa 0
    2628 00000028 E801          MOVIZ     R0H,#16256            ; [CPU_FPU] |393| 
         00000029 FC00 
    2629                      .dwpsn  file "../bts.c",line 394,column 9,is_stmt,isa 0
    2630 0000002a 56BF          MOVB      *+XAR5[AR0],#1,UNC    ; [CPU_ALU] |394| 
         0000002b 0195 
    2631                      .dwpsn  file "../bts.c",line 393,column 9,is_stmt,isa 0
    2632 0000002c D018          MOVB      XAR0,#24              ; [CPU_ALU] |393| 
    2633 0000002d E203          MOV32     *+XAR5[AR0],R0H       ; [CPU_FPU] |393| 
         0000002e 0095 
    2634                      .dwpsn  file "../bts.c",line 395,column 9,is_stmt,isa 0
    2635 0000002f E2AF          MOV32     R0H,*+XAR4[2]         ; [CPU_FPU] |395| 
         00000030 00D4 
    2636 00000031       ||$C$L26||:    
    2637 00000031 D116          MOVB      XAR1,#22              ; [CPU_ALU] |395| 
    2638 00000032 D018          MOVB      XAR0,#24              ; [CPU_ALU] |395| 
    2639 00000033 E2AF          MOV32     R1H,*+XAR4[AR1]       ; [CPU_FPU] |395| 
         00000034 019C 
    2640 00000035 E700          MPYF32    R0H,R1H,R0H           ; [CPU_FPU] |395| 
         00000036 0008 
    2641 00000037 E2AF          MOV32     R3H,*+XAR4[AR0]       ; [CPU_FPU] |395| 
         00000038 0394 
    2642 00000039 E710          ADDF32    R0H,R0H,R3H           ; [CPU_FPU] |395| 
         0000003a 00C0 
    2643 0000003b D00A          MOVB      XAR0,#10              ; [CPU_ALU] |395| 
    2644 0000003c E203          MOV32     *+XAR5[AR0],R0H       ; [CPU_FPU] |395| 
         0000003d 0095 
    2645 0000003e 8BBE          MOVL      XAR1,*--SP            ; [CPU_ALU] 
    2646                      .dwcfi  cfa_offset, -2
    2647                      .dwcfi  restore_reg, 7
TMS320C2000 Assembler PC v20.2.4 Mon Jan 11 05:48:47 2021

Copyright (c) 1996-2018 Texas Instruments Incorporated
bts.asm                                                              PAGE   54

    2648              $C$DW$148       .dwtag  DW_TAG_TI_branch
    2649                      .dwattr $C$DW$148, DW_AT_low_pc(0x00)
    2650                      .dwattr $C$DW$148, DW_AT_TI_return
    2651              
    2652 0000003f 0006          LRETR     ; [CPU_ALU] 
    2653                      ; return occurs ; [] 
    2654                      .dwattr $C$DW$143, DW_AT_TI_end_file("../bts.c")
    2655                      .dwattr $C$DW$143, DW_AT_TI_end_line(0x1a7)
    2656                      .dwattr $C$DW$143, DW_AT_TI_end_column(0x01)
    2657                      .dwendentry
    2658                      .dwendtag $C$DW$143
    2659              
    2660 00000000               .sect   ".text"
    2661                      .clink
    2662                      .global ||BTS_setupSfraGui||
    2663              
    2664              $C$DW$149       .dwtag  DW_TAG_subprogram
    2665                      .dwattr $C$DW$149, DW_AT_name("BTS_setupSfraGui")
    2666                      .dwattr $C$DW$149, DW_AT_low_pc(||BTS_setupSfraGui||)
    2667                      .dwattr $C$DW$149, DW_AT_high_pc(0x00)
    2668                      .dwattr $C$DW$149, DW_AT_linkage_name("BTS_setupSfraGui")
    2669                      .dwattr $C$DW$149, DW_AT_external
    2670                      .dwattr $C$DW$149, DW_AT_decl_file("../bts.c")
    2671                      .dwattr $C$DW$149, DW_AT_decl_line(0x161)
    2672                      .dwattr $C$DW$149, DW_AT_decl_column(0x06)
    2673                      .dwattr $C$DW$149, DW_AT_TI_max_frame_size(-2)
    2674                      .dwpsn  file "../bts.c",line 354,column 1,is_stmt,address ||BTS_setupSfraGui||,isa 0
    2675              
    2676                      .dwfde $C$DW$CIE, ||BTS_setupSfraGui||
    2677              
    2678              ;***************************************************************
    2679              ;* FNAME: BTS_setupSfraGui              FR SIZE:   0           *
    2680              ;*                                                             *
    2681              ;* FUNCTION ENVIRONMENT                                        *
    2682              ;*                                                             *
    2683              ;* FUNCTION PROPERTIES                                         *
    2684              ;*                            0 Parameter,  0 Auto,  0 SOE     *
    2685              ;***************************************************************
    2686              
    2687 00000000       ||BTS_setupSfraGui||:
    2688                      .dwcfi  cfa_offset, -2
    2689                      .dwcfi  save_reg_to_mem, 26, 0
    2690              $C$DW$150       .dwtag  DW_TAG_TI_branch
    2691                      .dwattr $C$DW$150, DW_AT_low_pc(0x00)
    2692                      .dwattr $C$DW$150, DW_AT_TI_return
    2693              
    2694 00000000 0006          LRETR     ; [CPU_ALU] 
    2695                      ; return occurs ; [] 
    2696                      .dwattr $C$DW$149, DW_AT_TI_end_file("../bts.c")
    2697                      .dwattr $C$DW$149, DW_AT_TI_end_line(0x171)
    2698                      .dwattr $C$DW$149, DW_AT_TI_end_column(0x01)
    2699                      .dwendentry
    2700                      .dwendtag $C$DW$149
    2701              
    2702 00000001               .sect   ".text"
TMS320C2000 Assembler PC v20.2.4 Mon Jan 11 05:48:47 2021

Copyright (c) 1996-2018 Texas Instruments Incorporated
bts.asm                                                              PAGE   55

    2703                      .clink
    2704                      .global ||BTS_setupSfra||
    2705              
    2706              $C$DW$151       .dwtag  DW_TAG_subprogram
    2707                      .dwattr $C$DW$151, DW_AT_name("BTS_setupSfra")
    2708                      .dwattr $C$DW$151, DW_AT_low_pc(||BTS_setupSfra||)
    2709                      .dwattr $C$DW$151, DW_AT_high_pc(0x00)
    2710                      .dwattr $C$DW$151, DW_AT_linkage_name("BTS_setupSfra")
    2711                      .dwattr $C$DW$151, DW_AT_external
    2712                      .dwattr $C$DW$151, DW_AT_decl_file("../bts.c")
    2713                      .dwattr $C$DW$151, DW_AT_decl_line(0x148)
    2714                      .dwattr $C$DW$151, DW_AT_decl_column(0x06)
    2715                      .dwattr $C$DW$151, DW_AT_TI_max_frame_size(-2)
    2716                      .dwpsn  file "../bts.c",line 329,column 1,is_stmt,address ||BTS_setupSfra||,isa 0
    2717              
    2718                      .dwfde $C$DW$CIE, ||BTS_setupSfra||
    2719              
    2720              ;***************************************************************
    2721              ;* FNAME: BTS_setupSfra                 FR SIZE:   0           *
    2722              ;*                                                             *
    2723              ;* FUNCTION ENVIRONMENT                                        *
    2724              ;*                                                             *
    2725              ;* FUNCTION PROPERTIES                                         *
    2726              ;*                            0 Parameter,  0 Auto,  0 SOE     *
    2727              ;***************************************************************
    2728              
    2729 00000001       ||BTS_setupSfra||:
    2730                      .dwcfi  cfa_offset, -2
    2731                      .dwcfi  save_reg_to_mem, 26, 0
    2732              $C$DW$152       .dwtag  DW_TAG_TI_branch
    2733                      .dwattr $C$DW$152, DW_AT_low_pc(0x00)
    2734                      .dwattr $C$DW$152, DW_AT_TI_return
    2735              
    2736 00000001 0006          LRETR     ; [CPU_ALU] 
    2737                      ; return occurs ; [] 
    2738                      .dwattr $C$DW$151, DW_AT_TI_end_file("../bts.c")
    2739                      .dwattr $C$DW$151, DW_AT_TI_end_line(0x15f)
    2740                      .dwattr $C$DW$151, DW_AT_TI_end_column(0x01)
    2741                      .dwendentry
    2742                      .dwendtag $C$DW$151
    2743              
    2744 00000002               .sect   ".text"
    2745                      .clink
    2746                      .global ||BTS_setupHrpwmMepScaleFactor||
    2747              
    2748              $C$DW$153       .dwtag  DW_TAG_subprogram
    2749                      .dwattr $C$DW$153, DW_AT_name("BTS_setupHrpwmMepScaleFactor")
    2750                      .dwattr $C$DW$153, DW_AT_low_pc(||BTS_setupHrpwmMepScaleFactor||)
    2751                      .dwattr $C$DW$153, DW_AT_high_pc(0x00)
    2752                      .dwattr $C$DW$153, DW_AT_linkage_name("BTS_setupHrpwmMepScaleFactor")
    2753                      .dwattr $C$DW$153, DW_AT_external
    2754                      .dwattr $C$DW$153, DW_AT_decl_file("../bts.c")
    2755                      .dwattr $C$DW$153, DW_AT_decl_line(0x13a)
    2756                      .dwattr $C$DW$153, DW_AT_decl_column(0x06)
    2757                      .dwattr $C$DW$153, DW_AT_TI_max_frame_size(-2)
TMS320C2000 Assembler PC v20.2.4 Mon Jan 11 05:48:47 2021

Copyright (c) 1996-2018 Texas Instruments Incorporated
bts.asm                                                              PAGE   56

    2758                      .dwpsn  file "../bts.c",line 315,column 1,is_stmt,address ||BTS_setupHrpwmMepScaleFactor||,isa 0
    2759              
    2760                      .dwfde $C$DW$CIE, ||BTS_setupHrpwmMepScaleFactor||
    2761              
    2762              ;***************************************************************
    2763              ;* FNAME: BTS_setupHrpwmMepScaleFactor  FR SIZE:   0           *
    2764              ;*                                                             *
    2765              ;* FUNCTION ENVIRONMENT                                        *
    2766              ;*                                                             *
    2767              ;* FUNCTION PROPERTIES                                         *
    2768              ;*                            0 Parameter,  0 Auto,  0 SOE     *
    2769              ;***************************************************************
    2770              
    2771 00000002       ||BTS_setupHrpwmMepScaleFactor||:
    2772                      .dwcfi  cfa_offset, -2
    2773                      .dwcfi  save_reg_to_mem, 26, 0
    2774 00000002       ||$C$L27||:    
    2775                      .dwpsn  file "../bts.c",line 321,column 13,is_stmt,isa 0
    2776              $C$DW$154       .dwtag  DW_TAG_TI_branch
    2777                      .dwattr $C$DW$154, DW_AT_low_pc(0x00)
    2778                      .dwattr $C$DW$154, DW_AT_name("SFO")
    2779                      .dwattr $C$DW$154, DW_AT_TI_call
    2780              
    2781 00000002 7640!         LCR       #||SFO||              ; [CPU_ALU] |321| 
         00000003 0000 
    2782                      ; call occurs [#||SFO||] ; [] |321| 
    2783 00000004 761F!         MOVW      DP,#||BTS_sfoStatus|| ; [CPU_ARAU] 
         00000005 0000 
    2784 00000006 5200          CMPB      AL,#0                 ; [CPU_ALU] |321| 
    2785 00000007 9600!         MOV       @||BTS_sfoStatus||,AL ; [CPU_FPU] |321| 
    2786 00000008 61FA          B         ||$C$L27||,EQ         ; [CPU_ALU] |321| 
    2787                      ; branchcc occurs ; [] |321| 
    2788              $C$DW$155       .dwtag  DW_TAG_TI_branch
    2789                      .dwattr $C$DW$155, DW_AT_low_pc(0x00)
    2790                      .dwattr $C$DW$155, DW_AT_TI_return
    2791              
    2792 00000009 0006          LRETR     ; [CPU_ALU] 
    2793                      ; return occurs ; [] 
    2794                      .dwattr $C$DW$153, DW_AT_TI_end_file("../bts.c")
    2795                      .dwattr $C$DW$153, DW_AT_TI_end_line(0x144)
    2796                      .dwattr $C$DW$153, DW_AT_TI_end_column(0x01)
    2797                      .dwendentry
    2798                      .dwendtag $C$DW$153
    2799              
    2800 00000040               .sect   "ramfuncs"
    2801                      .clink
    2802                      .global ||BTS_monitor_Iout_Vout||
    2803              
    2804              $C$DW$156       .dwtag  DW_TAG_subprogram
    2805                      .dwattr $C$DW$156, DW_AT_name("BTS_monitor_Iout_Vout")
    2806                      .dwattr $C$DW$156, DW_AT_low_pc(||BTS_monitor_Iout_Vout||)
    2807                      .dwattr $C$DW$156, DW_AT_high_pc(0x00)
    2808                      .dwattr $C$DW$156, DW_AT_linkage_name("BTS_monitor_Iout_Vout")
    2809                      .dwattr $C$DW$156, DW_AT_external
    2810                      .dwattr $C$DW$156, DW_AT_decl_file("../bts.c")
TMS320C2000 Assembler PC v20.2.4 Mon Jan 11 05:48:47 2021

Copyright (c) 1996-2018 Texas Instruments Incorporated
bts.asm                                                              PAGE   57

    2811                      .dwattr $C$DW$156, DW_AT_decl_line(0x1ab)
    2812                      .dwattr $C$DW$156, DW_AT_decl_column(0x06)
    2813                      .dwattr $C$DW$156, DW_AT_TI_max_frame_size(-8)
    2814                      .dwpsn  file "../bts.c",line 428,column 1,is_stmt,address ||BTS_monitor_Iout_Vout||,isa 0
    2815              
    2816                      .dwfde $C$DW$CIE, ||BTS_monitor_Iout_Vout||
    2817              $C$DW$157       .dwtag  DW_TAG_formal_parameter
    2818                      .dwattr $C$DW$157, DW_AT_name("measValues")
    2819                      .dwattr $C$DW$157, DW_AT_type(*$C$DW$T$60)
    2820                      .dwattr $C$DW$157, DW_AT_location[DW_OP_reg12]
    2821              
    2822              
    2823              ;***************************************************************
    2824              ;* FNAME: BTS_monitor_Iout_Vout         FR SIZE:   6           *
    2825              ;*                                                             *
    2826              ;* FUNCTION ENVIRONMENT                                        *
    2827              ;*                                                             *
    2828              ;* FUNCTION PROPERTIES                                         *
    2829              ;*                            0 Parameter,  0 Auto,  6 SOE     *
    2830              ;***************************************************************
    2831              
    2832              ||BTS_monitor_Iout_Vout||:
    2833              ;* AR5   assigned to $O$U9
    2834              ;* PL    assigned to $O$V0
    2835              ;* AR7   assigned to $O$V1
    2836              ;* AR4   assigned to measValues
    2837              $C$DW$158       .dwtag  DW_TAG_variable
    2838                      .dwattr $C$DW$158, DW_AT_name("measValues")
    2839                      .dwattr $C$DW$158, DW_AT_type(*$C$DW$T$61)
    2840                      .dwattr $C$DW$158, DW_AT_location[DW_OP_reg12]
    2841              
    2842                      .dwcfi  cfa_offset, -2
    2843                      .dwcfi  save_reg_to_mem, 26, 0
    2844 00000040 B2BD          MOVL      *SP++,XAR1            ; [CPU_ALU] 
    2845                      .dwcfi  save_reg_to_mem, 7, 2
    2846                      .dwcfi  cfa_offset, -4
    2847                      .dwpsn  file "../bts.c",line 429,column 5,is_stmt,isa 0
    2848 00000041 D044          MOVB      XAR0,#68              ; [CPU_ALU] |429| 
    2849 00000042 83A4          MOVL      XAR5,XAR4             ; [CPU_ALU] 
    2850 00000043 D144          MOVB      XAR1,#68              ; [CPU_ALU] 
    2851 00000044 BE00          MOVB      XAR6,#0               ; [CPU_ALU] |429| 
    2852                      .dwpsn  file "../bts.c",line 430,column 5,is_stmt,isa 0
    2853 00000045 0200          MOVB      ACC,#0                ; [CPU_ALU] |430| 
    2854 00000046 E203          MOV32     *SP++,R4H             ; [CPU_FPU] 
         00000047 04BD 
    2855                      .dwcfi  save_reg_to_mem, 59, 4
    2856                      .dwcfi  cfa_offset, -6
    2857 00000048 3B01          SETC      SXM                   ; [CPU_ALU] 
    2858 00000049 3100          MOV       P,#0                  ; [CPU_ALU] 
    2859 0000004a E203          MOV32     *SP++,R5H             ; [CPU_FPU] 
         0000004b 05BD 
    2860                      .dwcfi  save_reg_to_mem, 63, 6
    2861                      .dwcfi  cfa_offset, -8
    2862 0000004c DD04          ADDB      XAR5,#4               ; [CPU_ALU] 
    2863                      .dwpsn  file "../bts.c",line 429,column 5,is_stmt,isa 0
TMS320C2000 Assembler PC v20.2.4 Mon Jan 11 05:48:47 2021

Copyright (c) 1996-2018 Texas Instruments Incorporated
bts.asm                                                              PAGE   58

    2864 0000004d C294          MOVL      *+XAR4[AR0],XAR6      ; [CPU_ALU] |429| 
    2865                      .dwpsn  file "../bts.c",line 430,column 5,is_stmt,isa 0
    2866 0000004e D046          MOVB      XAR0,#70              ; [CPU_ALU] |430| 
    2867 0000004f BE03          MOVB      XAR6,#3               ; [CPU_ALU] 
    2868 00000050 C59C          MOVL      XAR7,*+XAR4[AR1]      ; [CPU_ALU] 
    2869 00000051 1E94          MOVL      *+XAR4[AR0],ACC       ; [CPU_ALU] |430| 
    2870                      .dwpsn  file "../bts.c",line 433,column 19,is_stmt,isa 0
    2871 00000052 B560          RPTB      ||$C$L29||,AR6        ; [CPU_ALU] |433| 
         00000053 00A6 
    2872                      ; repeat block starts ; [] 
    2873 00000054       ||$C$L28||:    
    2874 00000054 06A7          MOVL      ACC,XAR7              ; [CPU_ALU] 
    2875                      .dwpsn  file "../bts.c",line 434,column 9,is_stmt,isa 0
    2876 00000055 D144          MOVB      XAR1,#68              ; [CPU_ALU] |434| 
    2877                      .dwpsn  file "../bts.c",line 435,column 9,is_stmt,isa 0
    2878 00000056 D020          MOVB      XAR0,#32              ; [CPU_ALU] |435| 
    2879                      .dwpsn  file "../bts.c",line 434,column 9,is_stmt,isa 0
    2880 00000057 81C5          ADD       ACC,*+XAR5[0]         ; [CPU_ALU] |434| 
    2881 00000058 1EA7          MOVL      XAR7,ACC              ; [CPU_ALU] |434| 
    2882 00000059 1E9C          MOVL      *+XAR4[AR1],ACC       ; [CPU_ALU] |434| 
    2883 0000005a A9A9          MOVL      ACC,P                 ; [CPU_ALU] |434| 
    2884 0000005b D144          MOVB      XAR1,#68              ; [CPU_ALU] |434| 
    2885                      .dwpsn  file "../bts.c",line 435,column 9,is_stmt,isa 0
    2886 0000005c 8195          ADD       ACC,*+XAR5[AR0]       ; [CPU_ALU] |435| 
    2887 0000005d D046          MOVB      XAR0,#70              ; [CPU_ALU] |435| 
    2888                      .dwpsn  file "../bts.c",line 434,column 9,is_stmt,isa 0
    2889 0000005e DD01          ADDB      XAR5,#1               ; [CPU_ALU] |434| 
    2890                      .dwpsn  file "../bts.c",line 435,column 9,is_stmt,isa 0
    2891 0000005f FF5A          MOVL      P,ACC                 ; [CPU_ALU] |435| 
    2892 00000060 1E94          MOVL      *+XAR4[AR0],ACC       ; [CPU_ALU] |435| 
    2893 00000061 D020          MOVB      XAR0,#32              ; [CPU_ALU] |435| 
    2894 00000062 06A7          MOVL      ACC,XAR7              ; [CPU_ALU] |435| 
    2895                      .dwpsn  file "../bts.c",line 434,column 9,is_stmt,isa 0
    2896 00000063 81C5          ADD       ACC,*+XAR5[0]         ; [CPU_ALU] |434| 
    2897 00000064 1EA7          MOVL      XAR7,ACC              ; [CPU_ALU] |434| 
    2898 00000065 1E9C          MOVL      *+XAR4[AR1],ACC       ; [CPU_ALU] |434| 
    2899 00000066 A9A9          MOVL      ACC,P                 ; [CPU_ALU] |434| 
    2900 00000067 D144          MOVB      XAR1,#68              ; [CPU_ALU] |434| 
    2901                      .dwpsn  file "../bts.c",line 435,column 9,is_stmt,isa 0
    2902 00000068 8195          ADD       ACC,*+XAR5[AR0]       ; [CPU_ALU] |435| 
    2903 00000069 D046          MOVB      XAR0,#70              ; [CPU_ALU] |435| 
    2904 0000006a FF5A          MOVL      P,ACC                 ; [CPU_ALU] |435| 
    2905                      .dwpsn  file "../bts.c",line 434,column 9,is_stmt,isa 0
    2906 0000006b DD01          ADDB      XAR5,#1               ; [CPU_ALU] |434| 
    2907                      .dwpsn  file "../bts.c",line 435,column 9,is_stmt,isa 0
    2908 0000006c 1E94          MOVL      *+XAR4[AR0],ACC       ; [CPU_ALU] |435| 
    2909 0000006d D020          MOVB      XAR0,#32              ; [CPU_ALU] |435| 
    2910 0000006e 06A7          MOVL      ACC,XAR7              ; [CPU_ALU] |435| 
    2911                      .dwpsn  file "../bts.c",line 434,column 9,is_stmt,isa 0
    2912 0000006f 81C5          ADD       ACC,*+XAR5[0]         ; [CPU_ALU] |434| 
    2913 00000070 1EA7          MOVL      XAR7,ACC              ; [CPU_ALU] |434| 
    2914 00000071 1E9C          MOVL      *+XAR4[AR1],ACC       ; [CPU_ALU] |434| 
    2915 00000072 A9A9          MOVL      ACC,P                 ; [CPU_ALU] |434| 
    2916 00000073 D144          MOVB      XAR1,#68              ; [CPU_ALU] |434| 
    2917                      .dwpsn  file "../bts.c",line 435,column 9,is_stmt,isa 0
TMS320C2000 Assembler PC v20.2.4 Mon Jan 11 05:48:47 2021

Copyright (c) 1996-2018 Texas Instruments Incorporated
bts.asm                                                              PAGE   59

    2918 00000074 8195          ADD       ACC,*+XAR5[AR0]       ; [CPU_ALU] |435| 
    2919 00000075 D046          MOVB      XAR0,#70              ; [CPU_ALU] |435| 
    2920 00000076 FF5A          MOVL      P,ACC                 ; [CPU_ALU] |435| 
    2921                      .dwpsn  file "../bts.c",line 434,column 9,is_stmt,isa 0
    2922 00000077 DD01          ADDB      XAR5,#1               ; [CPU_ALU] |434| 
    2923                      .dwpsn  file "../bts.c",line 435,column 9,is_stmt,isa 0
    2924 00000078 1E94          MOVL      *+XAR4[AR0],ACC       ; [CPU_ALU] |435| 
    2925 00000079 D020          MOVB      XAR0,#32              ; [CPU_ALU] |435| 
    2926 0000007a 06A7          MOVL      ACC,XAR7              ; [CPU_ALU] |435| 
    2927                      .dwpsn  file "../bts.c",line 434,column 9,is_stmt,isa 0
    2928 0000007b 81C5          ADD       ACC,*+XAR5[0]         ; [CPU_ALU] |434| 
    2929 0000007c 1EA7          MOVL      XAR7,ACC              ; [CPU_ALU] |434| 
    2930 0000007d 1E9C          MOVL      *+XAR4[AR1],ACC       ; [CPU_ALU] |434| 
    2931 0000007e A9A9          MOVL      ACC,P                 ; [CPU_ALU] |434| 
    2932 0000007f D144          MOVB      XAR1,#68              ; [CPU_ALU] |434| 
    2933                      .dwpsn  file "../bts.c",line 435,column 9,is_stmt,isa 0
    2934 00000080 8195          ADD       ACC,*+XAR5[AR0]       ; [CPU_ALU] |435| 
    2935 00000081 D046          MOVB      XAR0,#70              ; [CPU_ALU] |435| 
    2936 00000082 FF5A          MOVL      P,ACC                 ; [CPU_ALU] |435| 
    2937                      .dwpsn  file "../bts.c",line 434,column 9,is_stmt,isa 0
    2938 00000083 DD01          ADDB      XAR5,#1               ; [CPU_ALU] |434| 
    2939                      .dwpsn  file "../bts.c",line 435,column 9,is_stmt,isa 0
    2940 00000084 1E94          MOVL      *+XAR4[AR0],ACC       ; [CPU_ALU] |435| 
    2941 00000085 D020          MOVB      XAR0,#32              ; [CPU_ALU] |435| 
    2942 00000086 06A7          MOVL      ACC,XAR7              ; [CPU_ALU] |435| 
    2943                      .dwpsn  file "../bts.c",line 434,column 9,is_stmt,isa 0
    2944 00000087 81C5          ADD       ACC,*+XAR5[0]         ; [CPU_ALU] |434| 
    2945 00000088 1EA7          MOVL      XAR7,ACC              ; [CPU_ALU] |434| 
    2946 00000089 1E9C          MOVL      *+XAR4[AR1],ACC       ; [CPU_ALU] |434| 
    2947 0000008a A9A9          MOVL      ACC,P                 ; [CPU_ALU] |434| 
    2948 0000008b D144          MOVB      XAR1,#68              ; [CPU_ALU] |434| 
    2949                      .dwpsn  file "../bts.c",line 435,column 9,is_stmt,isa 0
    2950 0000008c 8195          ADD       ACC,*+XAR5[AR0]       ; [CPU_ALU] |435| 
    2951 0000008d D046          MOVB      XAR0,#70              ; [CPU_ALU] |435| 
    2952 0000008e FF5A          MOVL      P,ACC                 ; [CPU_ALU] |435| 
    2953                      .dwpsn  file "../bts.c",line 434,column 9,is_stmt,isa 0
    2954 0000008f DD01          ADDB      XAR5,#1               ; [CPU_ALU] |434| 
    2955                      .dwpsn  file "../bts.c",line 435,column 9,is_stmt,isa 0
    2956 00000090 1E94          MOVL      *+XAR4[AR0],ACC       ; [CPU_ALU] |435| 
    2957 00000091 D020          MOVB      XAR0,#32              ; [CPU_ALU] |435| 
    2958 00000092 06A7          MOVL      ACC,XAR7              ; [CPU_ALU] |435| 
    2959                      .dwpsn  file "../bts.c",line 434,column 9,is_stmt,isa 0
    2960 00000093 81C5          ADD       ACC,*+XAR5[0]         ; [CPU_ALU] |434| 
    2961 00000094 1EA7          MOVL      XAR7,ACC              ; [CPU_ALU] |434| 
    2962 00000095 1E9C          MOVL      *+XAR4[AR1],ACC       ; [CPU_ALU] |434| 
    2963 00000096 A9A9          MOVL      ACC,P                 ; [CPU_ALU] |434| 
    2964 00000097 D144          MOVB      XAR1,#68              ; [CPU_ALU] |434| 
    2965                      .dwpsn  file "../bts.c",line 435,column 9,is_stmt,isa 0
    2966 00000098 8195          ADD       ACC,*+XAR5[AR0]       ; [CPU_ALU] |435| 
    2967 00000099 D046          MOVB      XAR0,#70              ; [CPU_ALU] |435| 
    2968 0000009a FF5A          MOVL      P,ACC                 ; [CPU_ALU] |435| 
    2969                      .dwpsn  file "../bts.c",line 434,column 9,is_stmt,isa 0
    2970 0000009b DD01          ADDB      XAR5,#1               ; [CPU_ALU] |434| 
    2971                      .dwpsn  file "../bts.c",line 435,column 9,is_stmt,isa 0
    2972 0000009c 1E94          MOVL      *+XAR4[AR0],ACC       ; [CPU_ALU] |435| 
TMS320C2000 Assembler PC v20.2.4 Mon Jan 11 05:48:47 2021

Copyright (c) 1996-2018 Texas Instruments Incorporated
bts.asm                                                              PAGE   60

    2973 0000009d D020          MOVB      XAR0,#32              ; [CPU_ALU] |435| 
    2974 0000009e 06A7          MOVL      ACC,XAR7              ; [CPU_ALU] |435| 
    2975                      .dwpsn  file "../bts.c",line 434,column 9,is_stmt,isa 0
    2976 0000009f 81C5          ADD       ACC,*+XAR5[0]         ; [CPU_ALU] |434| 
    2977 000000a0 1EA7          MOVL      XAR7,ACC              ; [CPU_ALU] |434| 
    2978 000000a1 1E9C          MOVL      *+XAR4[AR1],ACC       ; [CPU_ALU] |434| 
    2979 000000a2 A9A9          MOVL      ACC,P                 ; [CPU_ALU] |434| 
    2980                      .dwpsn  file "../bts.c",line 435,column 9,is_stmt,isa 0
    2981 000000a3 D146          MOVB      XAR1,#70              ; [CPU_ALU] |435| 
    2982 000000a4 8195          ADD       ACC,*+XAR5[AR0]       ; [CPU_ALU] |435| 
    2983 000000a5 D046          MOVB      XAR0,#70              ; [CPU_ALU] |435| 
    2984 000000a6 FF5A          MOVL      P,ACC                 ; [CPU_ALU] |435| 
    2985                      .dwpsn  file "../bts.c",line 434,column 9,is_stmt,isa 0
    2986 000000a7 DD01          ADDB      XAR5,#1               ; [CPU_ALU] |434| 
    2987                      .dwpsn  file "../bts.c",line 435,column 9,is_stmt,isa 0
    2988 000000a8 1E94          MOVL      *+XAR4[AR0],ACC       ; [CPU_ALU] |435| 
    2989                      .dwpsn  file "../bts.c",line 434,column 9,is_stmt,isa 0
    2990 000000a9 D044          MOVB      XAR0,#68              ; [CPU_ALU] |434| 
    2991                      .dwpsn  file "../bts.c",line 435,column 9,is_stmt,isa 0
    2992 000000aa 06A7          MOVL      ACC,XAR7              ; [CPU_ALU] |435| 
    2993                      .dwpsn  file "../bts.c",line 434,column 9,is_stmt,isa 0
    2994 000000ab 81C5          ADD       ACC,*+XAR5[0]         ; [CPU_ALU] |434| 
    2995 000000ac 1EA7          MOVL      XAR7,ACC              ; [CPU_ALU] |434| 
    2996 000000ad 1E94          MOVL      *+XAR4[AR0],ACC       ; [CPU_ALU] |434| 
    2997                      .dwpsn  file "../bts.c",line 435,column 9,is_stmt,isa 0
    2998 000000ae D020          MOVB      XAR0,#32              ; [CPU_ALU] |435| 
    2999                      .dwpsn  file "../bts.c",line 434,column 9,is_stmt,isa 0
    3000 000000af A9A9          MOVL      ACC,P                 ; [CPU_ALU] |434| 
    3001                      .dwpsn  file "../bts.c",line 435,column 9,is_stmt,isa 0
    3002 000000b0 8195          ADD       ACC,*+XAR5[AR0]       ; [CPU_ALU] |435| 
    3003 000000b1 FF5A          MOVL      P,ACC                 ; [CPU_ALU] |435| 
    3004                      .dwpsn  file "../bts.c",line 433,column 19,is_stmt,isa 0
    3005 000000b2 DD01          ADDB      XAR5,#1               ; [CPU_ALU] |433| 
    3006                      .dwpsn  file "../bts.c",line 435,column 9,is_stmt,isa 0
    3007 000000b3 1E9C          MOVL      *+XAR4[AR1],ACC       ; [CPU_ALU] |435| 
    3008                      ; repeat block ends ; [] 
    3009 000000b4       ||$C$L29||:    
    3010                      .dwpsn  file "../bts.c",line 438,column 5,is_stmt,isa 0
    3011 000000b4 D044          MOVB      XAR0,#68              ; [CPU_ALU] |438| 
    3012 000000b5 E288          I32TOF32  R1H,*+XAR4[AR0]       ; [CPU_FPU] |438| 
         000000b6 0194 
    3013                      .dwpsn  file "../bts.c",line 440,column 5,is_stmt,isa 0
    3014 000000b7 D046          MOVB      XAR0,#70              ; [CPU_ALU] |440| 
    3015 000000b8 D14E          MOVB      XAR1,#78              ; [CPU_ALU] |440| 
    3016 000000b9 E288          I32TOF32  R0H,*+XAR4[AR0]       ; [CPU_FPU] |440| 
         000000ba 0094 
    3017                      .dwpsn  file "../bts.c",line 438,column 5,is_stmt,isa 0
    3018 000000bb D04A          MOVB      XAR0,#74              ; [CPU_ALU] |438| 
    3019 000000bc E84D          MPYF32    R4H,R1H,#13696        ; [CPU_FPU] |438| 
         000000bd 600C 
    3020 000000be E2AF          MOV32     R3H,*+XAR4[AR0]       ; [CPU_FPU] |438| 
         000000bf 0394 
    3021 000000c0 D04C          MOVB      XAR0,#76              ; [CPU_ALU] |438| 
    3022 000000c1 E2AF          MOV32     R5H,*+XAR4[AR0]       ; [CPU_FPU] |438| 
         000000c2 0594 
TMS320C2000 Assembler PC v20.2.4 Mon Jan 11 05:48:47 2021

Copyright (c) 1996-2018 Texas Instruments Incorporated
bts.asm                                                              PAGE   61

    3023                      .dwpsn  file "../bts.c",line 440,column 5,is_stmt,isa 0
    3024 000000c3 E84D          MPYF32    R1H,R0H,#13696        ; [CPU_FPU] |440| 
         000000c4 6001 
    3025 000000c5 D050          MOVB      XAR0,#80              ; [CPU_ALU] |440| 
    3026                      .dwpsn  file "../bts.c",line 438,column 5,is_stmt,isa 0
    3027              
    3028 000000c6 E307          MPYF32    R3H,R4H,R3H           ; [CPU_FPU] |438| 
         000000c7 1A9C 
    3029              ||      MOV32     R2H,*+XAR4[AR1]       ; [CPU_FPU] |440| 
    3030              
    3031                      .dwpsn  file "../bts.c",line 440,column 5,is_stmt,isa 0
    3032 000000c8 E700          MPYF32    R0H,R1H,R2H           ; [CPU_FPU] |440| 
         000000c9 0088 
    3033                      .dwpsn  file "../bts.c",line 438,column 5,is_stmt,isa 0
    3034              
    3035 000000ca E317          ADDF32    R1H,R5H,R3H           ; [CPU_FPU] |438| 
         000000cb 4A94 
    3036              ||      MOV32     R2H,*+XAR4[AR0]       ; [CPU_FPU] |440| 
    3037              
    3038                      .dwpsn  file "../bts.c",line 440,column 5,is_stmt,isa 0
    3039 000000cc E710          ADDF32    R0H,R0H,R2H           ; [CPU_FPU] |440| 
         000000cd 0080 
    3040                      .dwpsn  file "../bts.c",line 438,column 5,is_stmt,isa 0
    3041 000000ce E203          MOV32     *+XAR4[0],R1H         ; [CPU_FPU] |438| 
         000000cf 01C4 
    3042                      .dwpsn  file "../bts.c",line 440,column 5,is_stmt,isa 0
    3043 000000d0 E203          MOV32     *+XAR4[2],R0H         ; [CPU_FPU] |440| 
         000000d1 00D4 
    3044 000000d2 E2AF          MOV32     R5H,*--SP             ; [CPU_FPU] 
         000000d3 05BE 
    3045                      .dwcfi  cfa_offset, -6
    3046                      .dwcfi  restore_reg, 63
    3047 000000d4 E2AF          MOV32     R4H,*--SP             ; [CPU_FPU] 
         000000d5 04BE 
    3048                      .dwcfi  cfa_offset, -4
    3049                      .dwcfi  restore_reg, 59
    3050 000000d6 8BBE          MOVL      XAR1,*--SP            ; [CPU_ALU] 
    3051                      .dwcfi  cfa_offset, -2
    3052                      .dwcfi  restore_reg, 7
    3053              $C$DW$159       .dwtag  DW_TAG_TI_branch
    3054                      .dwattr $C$DW$159, DW_AT_low_pc(0x00)
    3055                      .dwattr $C$DW$159, DW_AT_TI_return
    3056              
    3057 000000d7 0006          LRETR     ; [CPU_ALU] 
    3058                      ; return occurs ; [] 
    3059                      .dwattr $C$DW$156, DW_AT_TI_end_file("../bts.c")
    3060                      .dwattr $C$DW$156, DW_AT_TI_end_line(0x1ba)
    3061                      .dwattr $C$DW$156, DW_AT_TI_end_column(0x01)
    3062                      .dwendentry
    3063                      .dwendtag $C$DW$156
    3064              
    3065 0000000a               .sect   ".text"
    3066                      .clink
    3067                      .global ||BTS_initUserVariables||
    3068              
TMS320C2000 Assembler PC v20.2.4 Mon Jan 11 05:48:47 2021

Copyright (c) 1996-2018 Texas Instruments Incorporated
bts.asm                                                              PAGE   62

    3069              $C$DW$160       .dwtag  DW_TAG_subprogram
    3070                      .dwattr $C$DW$160, DW_AT_name("BTS_initUserVariables")
    3071                      .dwattr $C$DW$160, DW_AT_low_pc(||BTS_initUserVariables||)
    3072                      .dwattr $C$DW$160, DW_AT_high_pc(0x00)
    3073                      .dwattr $C$DW$160, DW_AT_linkage_name("BTS_initUserVariables")
    3074                      .dwattr $C$DW$160, DW_AT_external
    3075                      .dwattr $C$DW$160, DW_AT_decl_file("../bts.c")
    3076                      .dwattr $C$DW$160, DW_AT_decl_line(0x89)
    3077                      .dwattr $C$DW$160, DW_AT_decl_column(0x06)
    3078                      .dwattr $C$DW$160, DW_AT_TI_max_frame_size(-64)
    3079                      .dwpsn  file "../bts.c",line 138,column 1,is_stmt,address ||BTS_initUserVariables||,isa 0
    3080              
    3081                      .dwfde $C$DW$CIE, ||BTS_initUserVariables||
    3082              
    3083              ;***************************************************************
    3084              ;* FNAME: BTS_initUserVariables         FR SIZE:  62           *
    3085              ;*                                                             *
    3086              ;* FUNCTION ENVIRONMENT                                        *
    3087              ;*                                                             *
    3088              ;* FUNCTION PROPERTIES                                         *
    3089              ;*                            0 Parameter, 54 Auto,  8 SOE     *
    3090              ;***************************************************************
    3091              
    3092 0000000a       ||BTS_initUserVariables||:
    3093                      .dwcfi  cfa_offset, -2
    3094                      .dwcfi  save_reg_to_mem, 26, 0
    3095 0000000a E203          MOV32     *SP++,R4H             ; [CPU_FPU] 
         0000000b 04BD 
    3096                      .dwcfi  save_reg_to_mem, 59, 2
    3097                      .dwcfi  cfa_offset, -4
    3098 0000000c E203          MOV32     *SP++,R5H             ; [CPU_FPU] 
         0000000d 05BD 
    3099                      .dwcfi  save_reg_to_mem, 63, 4
    3100                      .dwcfi  cfa_offset, -6
    3101 0000000e E203          MOV32     *SP++,R6H             ; [CPU_FPU] 
         0000000f 06BD 
    3102                      .dwcfi  save_reg_to_mem, 67, 6
    3103                      .dwcfi  cfa_offset, -8
    3104 00000010 E203          MOV32     *SP++,R7H             ; [CPU_FPU] 
         00000011 07BD 
    3105                      .dwcfi  save_reg_to_mem, 71, 8
    3106                      .dwcfi  cfa_offset, -10
    3107 00000012 FE36          ADDB      SP,#54                ; [CPU_ARAU] 
    3108                      .dwcfi  cfa_offset, -64
    3109 00000013 761F!         MOVW      DP,#||BTS_userInput_ch1||+6 ; [CPU_ARAU] 
         00000014 0000 
    3110                      .dwpsn  file "../bts.c",line 143,column 5,is_stmt,isa 0
    3111 00000015 E802          MOVIZ     R0H,#16492            ; [CPU_FPU] |143| 
         00000016 0360 
    3112                      .dwpsn  file "../bts.c",line 139,column 5,is_stmt,isa 0
    3113 00000017 56BF!         MOVB      @$BLOCKED(||BTS_userInput_ch1||)+6,#1,UNC ; [CPU_ALU] |139| 
         00000018 0106 
    3114                      .dwpsn  file "../bts.c",line 141,column 5,is_stmt,isa 0
    3115 00000019 E593          ZERO      R3H                   ; [CPU_FPU] |141| 
    3116                      .dwpsn  file "../bts.c",line 142,column 5,is_stmt,isa 0
TMS320C2000 Assembler PC v20.2.4 Mon Jan 11 05:48:47 2021

Copyright (c) 1996-2018 Texas Instruments Incorporated
bts.asm                                                              PAGE   63

    3117 0000001a E801          MOVIZ     R2H,#16256            ; [CPU_FPU] |142| 
         0000001b FC02 
    3118                      .dwpsn  file "../bts.c",line 144,column 5,is_stmt,isa 0
    3119 0000001c E801          MOVIZ     R1H,#16128            ; [CPU_FPU] |144| 
         0000001d F801 
    3120                      .dwpsn  file "../bts.c",line 140,column 5,is_stmt,isa 0
    3121 0000001e 2B07!         MOV       @$BLOCKED(||BTS_userInput_ch1||)+7,#0 ; [CPU_ALU] |140| 
    3122                      .dwpsn  file "../bts.c",line 143,column 5,is_stmt,isa 0
    3123 0000001f E80E          MOVXI     R0H,#52429            ; [CPU_FPU] |143| 
         00000020 6668 
    3124                      .dwpsn  file "../bts.c",line 201,column 5,is_stmt,isa 0
    3125 00000021 E801          MOVIZ     R7H,#14600            ; [CPU_FPU] |201| 
         00000022 C847 
    3126                      .dwpsn  file "../bts.c",line 202,column 5,is_stmt,isa 0
    3127 00000023 E801          MOVIZ     R6H,#15766            ; [CPU_FPU] |202| 
         00000024 ECB6 
    3128                      .dwpsn  file "../bts.c",line 203,column 5,is_stmt,isa 0
    3129 00000025 E801          MOVIZ     R5H,#14600            ; [CPU_FPU] |203| 
         00000026 C845 
    3130                      .dwpsn  file "../bts.c",line 205,column 5,is_stmt,isa 0
    3131 00000027 E801          MOVIZ     R4H,#15947            ; [CPU_FPU] |205| 
         00000028 F25C 
    3132                      .dwpsn  file "../bts.c",line 141,column 5,is_stmt,isa 0
    3133 00000029 E203!         MOV32     @$BLOCKED(||BTS_userInput_ch1||)+8,R3H ; [CPU_FPU] |141| 
         0000002a 0308 
    3134                      .dwpsn  file "../bts.c",line 142,column 5,is_stmt,isa 0
    3135 0000002b E203!         MOV32     @$BLOCKED(||BTS_userInput_ch1||),R2H ; [CPU_FPU] |142| 
         0000002c 0200 
    3136                      .dwpsn  file "../bts.c",line 161,column 5,is_stmt,isa 0
    3137 0000002d E801          MOVIZ     R2H,#16256            ; [CPU_FPU] |161| 
         0000002e FC02 
    3138                      .dwpsn  file "../bts.c",line 143,column 5,is_stmt,isa 0
    3139 0000002f E203!         MOV32     @$BLOCKED(||BTS_userInput_ch1||)+2,R0H ; [CPU_FPU] |143| 
         00000030 0002 
    3140                      .dwpsn  file "../bts.c",line 162,column 5,is_stmt,isa 0
    3141 00000031 E802          MOVIZ     R0H,#16492            ; [CPU_FPU] |162| 
         00000032 0360 
    3142                      .dwpsn  file "../bts.c",line 144,column 5,is_stmt,isa 0
    3143 00000033 E203!         MOV32     @$BLOCKED(||BTS_userInput_ch1||)+4,R1H ; [CPU_FPU] |144| 
         00000034 0104 
    3144                      .dwpsn  file "../bts.c",line 162,column 5,is_stmt,isa 0
    3145 00000035 E80E          MOVXI     R0H,#52429            ; [CPU_FPU] |162| 
         00000036 6668 
    3146                      .dwpsn  file "../bts.c",line 158,column 5,is_stmt,isa 0
    3147 00000037 56BF!         MOVB      @$BLOCKED(||BTS_userInput_ch2||)+6,#1,UNC ; [CPU_ALU] |158| 
         00000038 0106 
    3148                      .dwpsn  file "../bts.c",line 163,column 5,is_stmt,isa 0
    3149 00000039 E801          MOVIZ     R1H,#16128            ; [CPU_FPU] |163| 
         0000003a F801 
    3150                      .dwpsn  file "../bts.c",line 159,column 5,is_stmt,isa 0
    3151 0000003b 2B07!         MOV       @$BLOCKED(||BTS_userInput_ch2||)+7,#0 ; [CPU_ALU] |159| 
    3152                      .dwpsn  file "../bts.c",line 160,column 5,is_stmt,isa 0
    3153 0000003c E203!         MOV32     @$BLOCKED(||BTS_userInput_ch2||)+8,R3H ; [CPU_FPU] |160| 
         0000003d 0308 
    3154                      .dwpsn  file "../bts.c",line 161,column 5,is_stmt,isa 0
TMS320C2000 Assembler PC v20.2.4 Mon Jan 11 05:48:47 2021

Copyright (c) 1996-2018 Texas Instruments Incorporated
bts.asm                                                              PAGE   64

    3155 0000003e E203!         MOV32     @$BLOCKED(||BTS_userInput_ch2||),R2H ; [CPU_FPU] |161| 
         0000003f 0200 
    3156                      .dwpsn  file "../bts.c",line 178,column 5,is_stmt,isa 0
    3157 00000040 E801          MOVIZ     R2H,#16256            ; [CPU_FPU] |178| 
         00000041 FC02 
    3158                      .dwpsn  file "../bts.c",line 162,column 5,is_stmt,isa 0
    3159 00000042 E203!         MOV32     @$BLOCKED(||BTS_userInput_ch2||)+2,R0H ; [CPU_FPU] |162| 
         00000043 0002 
    3160                      .dwpsn  file "../bts.c",line 179,column 5,is_stmt,isa 0
    3161 00000044 E802          MOVIZ     R0H,#16492            ; [CPU_FPU] |179| 
         00000045 0360 
    3162                      .dwpsn  file "../bts.c",line 201,column 5,is_stmt,isa 0
    3163 00000046 E80D          MOVXI     R7H,#46848            ; [CPU_FPU] |201| 
         00000047 B807 
    3164                      .dwpsn  file "../bts.c",line 202,column 5,is_stmt,isa 0
    3165 00000048 E809          MOVXI     R6H,#12816            ; [CPU_FPU] |202| 
         00000049 9086 
    3166                      .dwpsn  file "../bts.c",line 203,column 5,is_stmt,isa 0
    3167 0000004a E80D          MOVXI     R5H,#46848            ; [CPU_FPU] |203| 
         0000004b B805 
    3168                      .dwpsn  file "../bts.c",line 205,column 5,is_stmt,isa 0
    3169 0000004c E808          MOVXI     R4H,#6469             ; [CPU_FPU] |205| 
         0000004d CA2C 
    3170                      .dwpsn  file "../bts.c",line 179,column 5,is_stmt,isa 0
    3171 0000004e E80E          MOVXI     R0H,#52429            ; [CPU_FPU] |179| 
         0000004f 6668 
    3172                      .dwpsn  file "../bts.c",line 163,column 5,is_stmt,isa 0
    3173 00000050 E203!         MOV32     @$BLOCKED(||BTS_userInput_ch2||)+4,R1H ; [CPU_FPU] |163| 
         00000051 0104 
    3174 00000052 761F!         MOVW      DP,#||BTS_userInput_ch3||+6 ; [CPU_ARAU] 
         00000053 0000 
    3175                      .dwpsn  file "../bts.c",line 180,column 5,is_stmt,isa 0
    3176 00000054 E801          MOVIZ     R1H,#16128            ; [CPU_FPU] |180| 
         00000055 F801 
    3177                      .dwpsn  file "../bts.c",line 175,column 5,is_stmt,isa 0
    3178 00000056 56BF!         MOVB      @$BLOCKED(||BTS_userInput_ch3||)+6,#1,UNC ; [CPU_ALU] |175| 
         00000057 0106 
    3179                      .dwpsn  file "../bts.c",line 176,column 5,is_stmt,isa 0
    3180 00000058 2B07!         MOV       @$BLOCKED(||BTS_userInput_ch3||)+7,#0 ; [CPU_ALU] |176| 
    3181                      .dwpsn  file "../bts.c",line 177,column 5,is_stmt,isa 0
    3182 00000059 E203!         MOV32     @$BLOCKED(||BTS_userInput_ch3||)+8,R3H ; [CPU_FPU] |177| 
         0000005a 0308 
    3183                      .dwpsn  file "../bts.c",line 206,column 5,is_stmt,isa 0
    3184 0000005b E805          MOVIZ     R3H,#47525            ; [CPU_FPU] |206| 
         0000005c CD2B 
    3185                      .dwpsn  file "../bts.c",line 178,column 5,is_stmt,isa 0
    3186 0000005d E203!         MOV32     @$BLOCKED(||BTS_userInput_ch3||),R2H ; [CPU_FPU] |178| 
         0000005e 0200 
    3187                      .dwpsn  file "../bts.c",line 207,column 5,is_stmt,isa 0
    3188 0000005f E802          MOVIZ     R2H,#16545            ; [CPU_FPU] |207| 
         00000060 050A 
    3189                      .dwpsn  file "../bts.c",line 179,column 5,is_stmt,isa 0
    3190 00000061 E203!         MOV32     @$BLOCKED(||BTS_userInput_ch3||)+2,R0H ; [CPU_FPU] |179| 
         00000062 0002 
    3191                      .dwpsn  file "../bts.c",line 146,column 5,is_stmt,isa 0
TMS320C2000 Assembler PC v20.2.4 Mon Jan 11 05:48:47 2021

Copyright (c) 1996-2018 Texas Instruments Incorporated
bts.asm                                                              PAGE   65

    3192 00000063 E801          MOVIZ     R0H,#15766            ; [CPU_FPU] |146| 
         00000064 ECB0 
    3193 00000065 E203          MOV32     *-SP[2],R0H           ; [CPU_FPU] |146| 
         00000066 0042 
    3194                      .dwpsn  file "../bts.c",line 147,column 5,is_stmt,isa 0
    3195 00000067 E801          MOVIZ     R0H,#14600            ; [CPU_FPU] |147| 
         00000068 C840 
    3196                      .dwpsn  file "../bts.c",line 180,column 5,is_stmt,isa 0
    3197 00000069 E203!         MOV32     @$BLOCKED(||BTS_userInput_ch3||)+4,R1H ; [CPU_FPU] |180| 
         0000006a 0104 
    3198                      .dwpsn  file "../bts.c",line 147,column 5,is_stmt,isa 0
    3199 0000006b E203          MOV32     *-SP[4],R0H           ; [CPU_FPU] |147| 
         0000006c 0044 
    3200                      .dwpsn  file "../bts.c",line 148,column 5,is_stmt,isa 0
    3201 0000006d E801          MOVIZ     R1H,#15766            ; [CPU_FPU] |148| 
         0000006e ECB1 
    3202                      .dwpsn  file "../bts.c",line 197,column 5,is_stmt,isa 0
    3203 0000006f E802          MOVIZ     R0H,#16492            ; [CPU_FPU] |197| 
         00000070 0360 
    3204                      .dwpsn  file "../bts.c",line 148,column 5,is_stmt,isa 0
    3205 00000071 E203          MOV32     *-SP[6],R1H           ; [CPU_FPU] |148| 
         00000072 0146 
    3206                      .dwpsn  file "../bts.c",line 197,column 5,is_stmt,isa 0
    3207 00000073 E203          MOV32     *-SP[52],R0H          ; [CPU_FPU] |197| 
         00000074 0074 
    3208                      .dwpsn  file "../bts.c",line 149,column 5,is_stmt,isa 0
    3209 00000075 E801          MOVIZ     R1H,#14600            ; [CPU_FPU] |149| 
         00000076 C841 
    3210                      .dwpsn  file "../bts.c",line 196,column 5,is_stmt,isa 0
    3211 00000077 E801          MOVIZ     R0H,#16256            ; [CPU_FPU] |196| 
         00000078 FC00 
    3212                      .dwpsn  file "../bts.c",line 193,column 5,is_stmt,isa 0
    3213 00000079 56BF!         MOVB      @$BLOCKED(||BTS_userInput_ch4||)+6,#1,UNC ; [CPU_ALU] |193| 
         0000007a 0106 
    3214                      .dwpsn  file "../bts.c",line 149,column 5,is_stmt,isa 0
    3215 0000007b E203          MOV32     *-SP[8],R1H           ; [CPU_FPU] |149| 
         0000007c 0148 
    3216                      .dwpsn  file "../bts.c",line 196,column 5,is_stmt,isa 0
    3217 0000007d E203          MOV32     *-SP[50],R0H          ; [CPU_FPU] |196| 
         0000007e 0072 
    3218                      .dwpsn  file "../bts.c",line 151,column 5,is_stmt,isa 0
    3219 0000007f E801          MOVIZ     R1H,#15947            ; [CPU_FPU] |151| 
         00000080 F259 
    3220                      .dwpsn  file "../bts.c",line 195,column 5,is_stmt,isa 0
    3221 00000081 E590          ZERO      R0H                   ; [CPU_FPU] |195| 
    3222                      .dwpsn  file "../bts.c",line 151,column 5,is_stmt,isa 0
    3223 00000082 E203          MOV32     *-SP[10],R1H          ; [CPU_FPU] |151| 
         00000083 014A 
    3224                      .dwpsn  file "../bts.c",line 206,column 5,is_stmt,isa 0
    3225 00000084 E80D          MOVXI     R3H,#44544            ; [CPU_FPU] |206| 
         00000085 7003 
    3226                      .dwpsn  file "../bts.c",line 152,column 5,is_stmt,isa 0
    3227 00000086 E805          MOVIZ     R1H,#47525            ; [CPU_FPU] |152| 
         00000087 CD29 
    3228                      .dwpsn  file "../bts.c",line 194,column 5,is_stmt,isa 0
TMS320C2000 Assembler PC v20.2.4 Mon Jan 11 05:48:47 2021

Copyright (c) 1996-2018 Texas Instruments Incorporated
bts.asm                                                              PAGE   66

    3229 00000088 2B07!         MOV       @$BLOCKED(||BTS_userInput_ch4||)+7,#0 ; [CPU_ALU] |194| 
    3230                      .dwpsn  file "../bts.c",line 152,column 5,is_stmt,isa 0
    3231 00000089 E203          MOV32     *-SP[12],R1H          ; [CPU_FPU] |152| 
         0000008a 014C 
    3232                      .dwpsn  file "../bts.c",line 153,column 5,is_stmt,isa 0
    3233 0000008b E802          MOVIZ     R1H,#16545            ; [CPU_FPU] |153| 
         0000008c 0509 
    3234 0000008d E203          MOV32     *-SP[14],R1H          ; [CPU_FPU] |153| 
         0000008e 014E 
    3235                      .dwpsn  file "../bts.c",line 207,column 5,is_stmt,isa 0
    3236 0000008f E80A          MOVXI     R2H,#22300            ; [CPU_FPU] |207| 
         00000090 B8E2 
    3237                      .dwpsn  file "../bts.c",line 154,column 5,is_stmt,isa 0
    3238 00000091 E801          MOVIZ     R1H,#15056            ; [CPU_FPU] |154| 
         00000092 D681 
    3239                      .dwpsn  file "../bts.c",line 195,column 5,is_stmt,isa 0
    3240 00000093 E203!         MOV32     @$BLOCKED(||BTS_userInput_ch4||)+8,R0H ; [CPU_FPU] |195| 
         00000094 0008 
    3241                      .dwpsn  file "../bts.c",line 154,column 5,is_stmt,isa 0
    3242 00000095 E203          MOV32     *-SP[16],R1H          ; [CPU_FPU] |154| 
         00000096 0150 
    3243                      .dwpsn  file "../bts.c",line 165,column 5,is_stmt,isa 0
    3244 00000097 E801          MOVIZ     R1H,#15766            ; [CPU_FPU] |165| 
         00000098 ECB1 
    3245                      .dwpsn  file "../bts.c",line 195,column 5,is_stmt,isa 0
    3246 00000099 E2AF          MOV32     R0H,*-SP[2]           ; [CPU_FPU] |195| 
         0000009a 0042 
    3247                      .dwpsn  file "../bts.c",line 146,column 5,is_stmt,isa 0
    3248 0000009b E809          MOVXI     R0H,#12816            ; [CPU_FPU] |146| 
         0000009c 9080 
    3249                      .dwpsn  file "../bts.c",line 165,column 5,is_stmt,isa 0
    3250 0000009d E203          MOV32     *-SP[18],R1H          ; [CPU_FPU] |165| 
         0000009e 0152 
    3251                      .dwpsn  file "../bts.c",line 166,column 5,is_stmt,isa 0
    3252 0000009f E801          MOVIZ     R1H,#14600            ; [CPU_FPU] |166| 
         000000a0 C841 
    3253                      .dwpsn  file "../bts.c",line 146,column 5,is_stmt,isa 0
    3254 000000a1 E203          MOV32     *-SP[2],R0H           ; [CPU_FPU] |146| 
         000000a2 0042 
    3255                      .dwpsn  file "../bts.c",line 166,column 5,is_stmt,isa 0
    3256 000000a3 E203          MOV32     *-SP[20],R1H          ; [CPU_FPU] |166| 
         000000a4 0154 
    3257                      .dwpsn  file "../bts.c",line 167,column 5,is_stmt,isa 0
    3258 000000a5 E801          MOVIZ     R1H,#15766            ; [CPU_FPU] |167| 
         000000a6 ECB1 
    3259                      .dwpsn  file "../bts.c",line 146,column 5,is_stmt,isa 0
    3260 000000a7 E2AF          MOV32     R0H,*-SP[4]           ; [CPU_FPU] |146| 
         000000a8 0044 
    3261                      .dwpsn  file "../bts.c",line 147,column 5,is_stmt,isa 0
    3262 000000a9 E80D          MOVXI     R0H,#46848            ; [CPU_FPU] |147| 
         000000aa B800 
    3263                      .dwpsn  file "../bts.c",line 167,column 5,is_stmt,isa 0
    3264 000000ab E203          MOV32     *-SP[22],R1H          ; [CPU_FPU] |167| 
         000000ac 0156 
    3265                      .dwpsn  file "../bts.c",line 168,column 5,is_stmt,isa 0
TMS320C2000 Assembler PC v20.2.4 Mon Jan 11 05:48:47 2021

Copyright (c) 1996-2018 Texas Instruments Incorporated
bts.asm                                                              PAGE   67

    3266 000000ad E801          MOVIZ     R1H,#14600            ; [CPU_FPU] |168| 
         000000ae C841 
    3267                      .dwpsn  file "../bts.c",line 147,column 5,is_stmt,isa 0
    3268 000000af E203          MOV32     *-SP[4],R0H           ; [CPU_FPU] |147| 
         000000b0 0044 
    3269                      .dwpsn  file "../bts.c",line 168,column 5,is_stmt,isa 0
    3270 000000b1 E203          MOV32     *-SP[24],R1H          ; [CPU_FPU] |168| 
         000000b2 0158 
    3271                      .dwpsn  file "../bts.c",line 170,column 5,is_stmt,isa 0
    3272 000000b3 E801          MOVIZ     R1H,#15947            ; [CPU_FPU] |170| 
         000000b4 F259 
    3273                      .dwpsn  file "../bts.c",line 147,column 5,is_stmt,isa 0
    3274 000000b5 E2AF          MOV32     R0H,*-SP[6]           ; [CPU_FPU] |147| 
         000000b6 0046 
    3275                      .dwpsn  file "../bts.c",line 170,column 5,is_stmt,isa 0
    3276 000000b7 E203          MOV32     *-SP[26],R1H          ; [CPU_FPU] |170| 
         000000b8 015A 
    3277                      .dwpsn  file "../bts.c",line 148,column 5,is_stmt,isa 0
    3278 000000b9 E809          MOVXI     R0H,#12816            ; [CPU_FPU] |148| 
         000000ba 9080 
    3279                      .dwpsn  file "../bts.c",line 171,column 5,is_stmt,isa 0
    3280 000000bb E805          MOVIZ     R1H,#47525            ; [CPU_FPU] |171| 
         000000bc CD29 
    3281                      .dwpsn  file "../bts.c",line 148,column 5,is_stmt,isa 0
    3282 000000bd E203          MOV32     *-SP[6],R0H           ; [CPU_FPU] |148| 
         000000be 0046 
    3283                      .dwpsn  file "../bts.c",line 171,column 5,is_stmt,isa 0
    3284 000000bf E203          MOV32     *-SP[28],R1H          ; [CPU_FPU] |171| 
         000000c0 015C 
    3285                      .dwpsn  file "../bts.c",line 172,column 5,is_stmt,isa 0
    3286 000000c1 E802          MOVIZ     R1H,#16545            ; [CPU_FPU] |172| 
         000000c2 0509 
    3287                      .dwpsn  file "../bts.c",line 148,column 5,is_stmt,isa 0
    3288 000000c3 E2AF          MOV32     R0H,*-SP[8]           ; [CPU_FPU] |148| 
         000000c4 0048 
    3289                      .dwpsn  file "../bts.c",line 172,column 5,is_stmt,isa 0
    3290 000000c5 E203          MOV32     *-SP[30],R1H          ; [CPU_FPU] |172| 
         000000c6 015E 
    3291                      .dwpsn  file "../bts.c",line 149,column 5,is_stmt,isa 0
    3292 000000c7 E80D          MOVXI     R0H,#46848            ; [CPU_FPU] |149| 
         000000c8 B800 
    3293                      .dwpsn  file "../bts.c",line 173,column 5,is_stmt,isa 0
    3294 000000c9 E801          MOVIZ     R1H,#15056            ; [CPU_FPU] |173| 
         000000ca D681 
    3295                      .dwpsn  file "../bts.c",line 149,column 5,is_stmt,isa 0
    3296 000000cb E203          MOV32     *-SP[8],R0H           ; [CPU_FPU] |149| 
         000000cc 0048 
    3297                      .dwpsn  file "../bts.c",line 173,column 5,is_stmt,isa 0
    3298 000000cd E203          MOV32     *-SP[32],R1H          ; [CPU_FPU] |173| 
         000000ce 0160 
    3299                      .dwpsn  file "../bts.c",line 182,column 5,is_stmt,isa 0
    3300 000000cf E801          MOVIZ     R1H,#15766            ; [CPU_FPU] |182| 
         000000d0 ECB1 
    3301                      .dwpsn  file "../bts.c",line 149,column 5,is_stmt,isa 0
    3302 000000d1 E2AF          MOV32     R0H,*-SP[10]          ; [CPU_FPU] |149| 
TMS320C2000 Assembler PC v20.2.4 Mon Jan 11 05:48:47 2021

Copyright (c) 1996-2018 Texas Instruments Incorporated
bts.asm                                                              PAGE   68

         000000d2 004A 
    3303                      .dwpsn  file "../bts.c",line 182,column 5,is_stmt,isa 0
    3304 000000d3 E203          MOV32     *-SP[34],R1H          ; [CPU_FPU] |182| 
         000000d4 0162 
    3305                      .dwpsn  file "../bts.c",line 151,column 5,is_stmt,isa 0
    3306 000000d5 E808          MOVXI     R0H,#6469             ; [CPU_FPU] |151| 
         000000d6 CA28 
    3307                      .dwpsn  file "../bts.c",line 183,column 5,is_stmt,isa 0
    3308 000000d7 E801          MOVIZ     R1H,#14600            ; [CPU_FPU] |183| 
         000000d8 C841 
    3309                      .dwpsn  file "../bts.c",line 151,column 5,is_stmt,isa 0
    3310 000000d9 E203          MOV32     *-SP[10],R0H          ; [CPU_FPU] |151| 
         000000da 004A 
    3311                      .dwpsn  file "../bts.c",line 183,column 5,is_stmt,isa 0
    3312 000000db E203          MOV32     *-SP[36],R1H          ; [CPU_FPU] |183| 
         000000dc 0164 
    3313                      .dwpsn  file "../bts.c",line 184,column 5,is_stmt,isa 0
    3314 000000dd E801          MOVIZ     R1H,#15766            ; [CPU_FPU] |184| 
         000000de ECB1 
    3315                      .dwpsn  file "../bts.c",line 151,column 5,is_stmt,isa 0
    3316 000000df E2AF          MOV32     R0H,*-SP[12]          ; [CPU_FPU] |151| 
         000000e0 004C 
    3317                      .dwpsn  file "../bts.c",line 184,column 5,is_stmt,isa 0
    3318 000000e1 E203          MOV32     *-SP[38],R1H          ; [CPU_FPU] |184| 
         000000e2 0166 
    3319                      .dwpsn  file "../bts.c",line 152,column 5,is_stmt,isa 0
    3320 000000e3 E80D          MOVXI     R0H,#44544            ; [CPU_FPU] |152| 
         000000e4 7000 
    3321                      .dwpsn  file "../bts.c",line 185,column 5,is_stmt,isa 0
    3322 000000e5 E801          MOVIZ     R1H,#14600            ; [CPU_FPU] |185| 
         000000e6 C841 
    3323                      .dwpsn  file "../bts.c",line 152,column 5,is_stmt,isa 0
    3324 000000e7 E203          MOV32     *-SP[12],R0H          ; [CPU_FPU] |152| 
         000000e8 004C 
    3325                      .dwpsn  file "../bts.c",line 185,column 5,is_stmt,isa 0
    3326 000000e9 E203          MOV32     *-SP[40],R1H          ; [CPU_FPU] |185| 
         000000ea 0168 
    3327                      .dwpsn  file "../bts.c",line 187,column 5,is_stmt,isa 0
    3328 000000eb E801          MOVIZ     R1H,#15947            ; [CPU_FPU] |187| 
         000000ec F259 
    3329                      .dwpsn  file "../bts.c",line 152,column 5,is_stmt,isa 0
    3330 000000ed E2AF          MOV32     R0H,*-SP[14]          ; [CPU_FPU] |152| 
         000000ee 004E 
    3331                      .dwpsn  file "../bts.c",line 187,column 5,is_stmt,isa 0
    3332 000000ef E203          MOV32     *-SP[42],R1H          ; [CPU_FPU] |187| 
         000000f0 016A 
    3333                      .dwpsn  file "../bts.c",line 153,column 5,is_stmt,isa 0
    3334 000000f1 E80A          MOVXI     R0H,#22300            ; [CPU_FPU] |153| 
         000000f2 B8E0 
    3335                      .dwpsn  file "../bts.c",line 188,column 5,is_stmt,isa 0
    3336 000000f3 E805          MOVIZ     R1H,#47525            ; [CPU_FPU] |188| 
         000000f4 CD29 
    3337 000000f5 E203          MOV32     *-SP[44],R1H          ; [CPU_FPU] |188| 
         000000f6 016C 
    3338                      .dwpsn  file "../bts.c",line 153,column 5,is_stmt,isa 0
TMS320C2000 Assembler PC v20.2.4 Mon Jan 11 05:48:47 2021

Copyright (c) 1996-2018 Texas Instruments Incorporated
bts.asm                                                              PAGE   69

    3339 000000f7 E203          MOV32     *-SP[14],R0H          ; [CPU_FPU] |153| 
         000000f8 004E 
    3340                      .dwpsn  file "../bts.c",line 189,column 5,is_stmt,isa 0
    3341 000000f9 E802          MOVIZ     R1H,#16545            ; [CPU_FPU] |189| 
         000000fa 0509 
    3342                      .dwpsn  file "../bts.c",line 153,column 5,is_stmt,isa 0
    3343 000000fb E2AF          MOV32     R0H,*-SP[16]          ; [CPU_FPU] |153| 
         000000fc 0050 
    3344                      .dwpsn  file "../bts.c",line 189,column 5,is_stmt,isa 0
    3345 000000fd E203          MOV32     *-SP[46],R1H          ; [CPU_FPU] |189| 
         000000fe 016E 
    3346                      .dwpsn  file "../bts.c",line 154,column 5,is_stmt,isa 0
    3347 000000ff E80E          MOVXI     R0H,#54684            ; [CPU_FPU] |154| 
         00000100 ACE0 
    3348                      .dwpsn  file "../bts.c",line 190,column 5,is_stmt,isa 0
    3349 00000101 E801          MOVIZ     R1H,#15056            ; [CPU_FPU] |190| 
         00000102 D681 
    3350 00000103 E203          MOV32     *-SP[48],R1H          ; [CPU_FPU] |190| 
         00000104 0170 
    3351                      .dwpsn  file "../bts.c",line 154,column 5,is_stmt,isa 0
    3352 00000105 E203          MOV32     *-SP[16],R0H          ; [CPU_FPU] |154| 
         00000106 0050 
    3353                      .dwpsn  file "../bts.c",line 200,column 5,is_stmt,isa 0
    3354 00000107 E801          MOVIZ     R1H,#15766            ; [CPU_FPU] |200| 
         00000108 ECB1 
    3355                      .dwpsn  file "../bts.c",line 154,column 5,is_stmt,isa 0
    3356 00000109 E2AF          MOV32     R0H,*-SP[18]          ; [CPU_FPU] |154| 
         0000010a 0052 
    3357                      .dwpsn  file "../bts.c",line 200,column 5,is_stmt,isa 0
    3358 0000010b E203          MOV32     *-SP[54],R1H          ; [CPU_FPU] |200| 
         0000010c 0176 
    3359                      .dwpsn  file "../bts.c",line 165,column 5,is_stmt,isa 0
    3360 0000010d E809          MOVXI     R0H,#12816            ; [CPU_FPU] |165| 
         0000010e 9080 
    3361                      .dwpsn  file "../bts.c",line 208,column 5,is_stmt,isa 0
    3362 0000010f E801          MOVIZ     R1H,#15056            ; [CPU_FPU] |208| 
         00000110 D681 
    3363                      .dwpsn  file "../bts.c",line 165,column 5,is_stmt,isa 0
    3364 00000111 E203          MOV32     *-SP[18],R0H          ; [CPU_FPU] |165| 
         00000112 0052 
    3365 00000113 E2AF          MOV32     R0H,*-SP[20]          ; [CPU_FPU] |165| 
         00000114 0054 
    3366                      .dwpsn  file "../bts.c",line 166,column 5,is_stmt,isa 0
    3367 00000115 E80D          MOVXI     R0H,#46848            ; [CPU_FPU] |166| 
         00000116 B800 
    3368 00000117 E203          MOV32     *-SP[20],R0H          ; [CPU_FPU] |166| 
         00000118 0054 
    3369 00000119 E2AF          MOV32     R0H,*-SP[22]          ; [CPU_FPU] |166| 
         0000011a 0056 
    3370                      .dwpsn  file "../bts.c",line 167,column 5,is_stmt,isa 0
    3371 0000011b E809          MOVXI     R0H,#12816            ; [CPU_FPU] |167| 
         0000011c 9080 
    3372                      .dwpsn  file "../bts.c",line 208,column 5,is_stmt,isa 0
    3373 0000011d E80E          MOVXI     R1H,#54684            ; [CPU_FPU] |208| 
         0000011e ACE1 
TMS320C2000 Assembler PC v20.2.4 Mon Jan 11 05:48:47 2021

Copyright (c) 1996-2018 Texas Instruments Incorporated
bts.asm                                                              PAGE   70

    3374                      .dwpsn  file "../bts.c",line 167,column 5,is_stmt,isa 0
    3375 0000011f E203          MOV32     *-SP[22],R0H          ; [CPU_FPU] |167| 
         00000120 0056 
    3376 00000121 E2AF          MOV32     R0H,*-SP[24]          ; [CPU_FPU] |167| 
         00000122 0058 
    3377                      .dwpsn  file "../bts.c",line 168,column 5,is_stmt,isa 0
    3378 00000123 E80D          MOVXI     R0H,#46848            ; [CPU_FPU] |168| 
         00000124 B800 
    3379 00000125 E203          MOV32     *-SP[24],R0H          ; [CPU_FPU] |168| 
         00000126 0058 
    3380 00000127 E2AF          MOV32     R0H,*-SP[26]          ; [CPU_FPU] |168| 
         00000128 005A 
    3381                      .dwpsn  file "../bts.c",line 170,column 5,is_stmt,isa 0
    3382 00000129 E808          MOVXI     R0H,#6469             ; [CPU_FPU] |170| 
         0000012a CA28 
    3383 0000012b E203          MOV32     *-SP[26],R0H          ; [CPU_FPU] |170| 
         0000012c 005A 
    3384 0000012d E2AF          MOV32     R0H,*-SP[28]          ; [CPU_FPU] |170| 
         0000012e 005C 
    3385                      .dwpsn  file "../bts.c",line 171,column 5,is_stmt,isa 0
    3386 0000012f E80D          MOVXI     R0H,#44544            ; [CPU_FPU] |171| 
         00000130 7000 
    3387 00000131 E203          MOV32     *-SP[28],R0H          ; [CPU_FPU] |171| 
         00000132 005C 
    3388 00000133 E2AF          MOV32     R0H,*-SP[30]          ; [CPU_FPU] |171| 
         00000134 005E 
    3389                      .dwpsn  file "../bts.c",line 172,column 5,is_stmt,isa 0
    3390 00000135 E80A          MOVXI     R0H,#22300            ; [CPU_FPU] |172| 
         00000136 B8E0 
    3391 00000137 E203          MOV32     *-SP[30],R0H          ; [CPU_FPU] |172| 
         00000138 005E 
    3392 00000139 E2AF          MOV32     R0H,*-SP[32]          ; [CPU_FPU] |172| 
         0000013a 0060 
    3393                      .dwpsn  file "../bts.c",line 173,column 5,is_stmt,isa 0
    3394 0000013b E80E          MOVXI     R0H,#54684            ; [CPU_FPU] |173| 
         0000013c ACE0 
    3395 0000013d E203          MOV32     *-SP[32],R0H          ; [CPU_FPU] |173| 
         0000013e 0060 
    3396 0000013f E2AF          MOV32     R0H,*-SP[34]          ; [CPU_FPU] |173| 
         00000140 0062 
    3397                      .dwpsn  file "../bts.c",line 182,column 5,is_stmt,isa 0
    3398 00000141 E809          MOVXI     R0H,#12816            ; [CPU_FPU] |182| 
         00000142 9080 
    3399 00000143 E203          MOV32     *-SP[34],R0H          ; [CPU_FPU] |182| 
         00000144 0062 
    3400 00000145 E2AF          MOV32     R0H,*-SP[36]          ; [CPU_FPU] |182| 
         00000146 0064 
    3401                      .dwpsn  file "../bts.c",line 183,column 5,is_stmt,isa 0
    3402 00000147 E80D          MOVXI     R0H,#46848            ; [CPU_FPU] |183| 
         00000148 B800 
    3403 00000149 E203          MOV32     *-SP[36],R0H          ; [CPU_FPU] |183| 
         0000014a 0064 
    3404 0000014b E2AF          MOV32     R0H,*-SP[38]          ; [CPU_FPU] |183| 
         0000014c 0066 
    3405                      .dwpsn  file "../bts.c",line 184,column 5,is_stmt,isa 0
TMS320C2000 Assembler PC v20.2.4 Mon Jan 11 05:48:47 2021

Copyright (c) 1996-2018 Texas Instruments Incorporated
bts.asm                                                              PAGE   71

    3406 0000014d E809          MOVXI     R0H,#12816            ; [CPU_FPU] |184| 
         0000014e 9080 
    3407 0000014f E203          MOV32     *-SP[38],R0H          ; [CPU_FPU] |184| 
         00000150 0066 
    3408 00000151 E2AF          MOV32     R0H,*-SP[40]          ; [CPU_FPU] |184| 
         00000152 0068 
    3409                      .dwpsn  file "../bts.c",line 185,column 5,is_stmt,isa 0
    3410 00000153 E80D          MOVXI     R0H,#46848            ; [CPU_FPU] |185| 
         00000154 B800 
    3411 00000155 E203          MOV32     *-SP[40],R0H          ; [CPU_FPU] |185| 
         00000156 0068 
    3412 00000157 E2AF          MOV32     R0H,*-SP[42]          ; [CPU_FPU] |185| 
         00000158 006A 
    3413                      .dwpsn  file "../bts.c",line 187,column 5,is_stmt,isa 0
    3414 00000159 E808          MOVXI     R0H,#6469             ; [CPU_FPU] |187| 
         0000015a CA28 
    3415 0000015b E203          MOV32     *-SP[42],R0H          ; [CPU_FPU] |187| 
         0000015c 006A 
    3416 0000015d E2AF          MOV32     R0H,*-SP[44]          ; [CPU_FPU] |187| 
         0000015e 006C 
    3417                      .dwpsn  file "../bts.c",line 188,column 5,is_stmt,isa 0
    3418 0000015f E80D          MOVXI     R0H,#44544            ; [CPU_FPU] |188| 
         00000160 7000 
    3419 00000161 E203          MOV32     *-SP[44],R0H          ; [CPU_FPU] |188| 
         00000162 006C 
    3420 00000163 E2AF          MOV32     R0H,*-SP[46]          ; [CPU_FPU] |188| 
         00000164 006E 
    3421                      .dwpsn  file "../bts.c",line 189,column 5,is_stmt,isa 0
    3422 00000165 E80A          MOVXI     R0H,#22300            ; [CPU_FPU] |189| 
         00000166 B8E0 
    3423 00000167 E203          MOV32     *-SP[46],R0H          ; [CPU_FPU] |189| 
         00000168 006E 
    3424 00000169 E2AF          MOV32     R0H,*-SP[48]          ; [CPU_FPU] |189| 
         0000016a 0070 
    3425                      .dwpsn  file "../bts.c",line 190,column 5,is_stmt,isa 0
    3426 0000016b E80E          MOVXI     R0H,#54684            ; [CPU_FPU] |190| 
         0000016c ACE0 
    3427 0000016d E203          MOV32     *-SP[48],R0H          ; [CPU_FPU] |190| 
         0000016e 0070 
    3428 0000016f E2AF          MOV32     R0H,*-SP[54]          ; [CPU_FPU] |190| 
         00000170 0076 
    3429                      .dwpsn  file "../bts.c",line 200,column 5,is_stmt,isa 0
    3430 00000171 E809          MOVXI     R0H,#12816            ; [CPU_FPU] |200| 
         00000172 9080 
    3431 00000173 E203          MOV32     *-SP[54],R0H          ; [CPU_FPU] |200| 
         00000174 0076 
    3432                      .dwpsn  file "../bts.c",line 208,column 5,is_stmt,isa 0
    3433 00000175 E2AF          MOV32     R0H,*-SP[52]          ; [CPU_FPU] |208| 
         00000176 0074 
    3434                      .dwpsn  file "../bts.c",line 197,column 5,is_stmt,isa 0
    3435 00000177 E80E          MOVXI     R0H,#52429            ; [CPU_FPU] |197| 
         00000178 6668 
    3436 00000179 E203          MOV32     *-SP[52],R0H          ; [CPU_FPU] |197| 
         0000017a 0074 
    3437 0000017b E2AF          MOV32     R0H,*-SP[50]          ; [CPU_FPU] |197| 
TMS320C2000 Assembler PC v20.2.4 Mon Jan 11 05:48:47 2021

Copyright (c) 1996-2018 Texas Instruments Incorporated
bts.asm                                                              PAGE   72

         0000017c 0072 
    3438                      .dwpsn  file "../bts.c",line 196,column 5,is_stmt,isa 0
    3439 0000017d E203!         MOV32     @$BLOCKED(||BTS_userInput_ch4||),R0H ; [CPU_FPU] |196| 
         0000017e 0000 
    3440                      .dwpsn  file "../bts.c",line 198,column 5,is_stmt,isa 0
    3441 0000017f E801          MOVIZ     R0H,#16128            ; [CPU_FPU] |198| 
         00000180 F800 
    3442 00000181 761F!         MOVW      DP,#||BTS_userInput_ch1||+14 ; [CPU_ARAU] 
         00000182 0000 
    3443 00000183 E203          MOV32     *-SP[50],R0H          ; [CPU_FPU] |198| 
         00000184 0072 
    3444 00000185 E2AF          MOV32     R0H,*-SP[2]           ; [CPU_FPU] |198| 
         00000186 0042 
    3445                      .dwpsn  file "../bts.c",line 146,column 5,is_stmt,isa 0
    3446 00000187 E203!         MOV32     @$BLOCKED(||BTS_userInput_ch1||)+14,R0H ; [CPU_FPU] |146| 
         00000188 000E 
    3447 00000189 E2AF          MOV32     R0H,*-SP[4]           ; [CPU_FPU] |146| 
         0000018a 0044 
    3448                      .dwpsn  file "../bts.c",line 147,column 5,is_stmt,isa 0
    3449 0000018b E203!         MOV32     @$BLOCKED(||BTS_userInput_ch1||)+16,R0H ; [CPU_FPU] |147| 
         0000018c 0010 
    3450 0000018d E2AF          MOV32     R0H,*-SP[6]           ; [CPU_FPU] |147| 
         0000018e 0046 
    3451                      .dwpsn  file "../bts.c",line 148,column 5,is_stmt,isa 0
    3452 0000018f E203!         MOV32     @$BLOCKED(||BTS_userInput_ch1||)+18,R0H ; [CPU_FPU] |148| 
         00000190 0012 
    3453 00000191 E2AF          MOV32     R0H,*-SP[8]           ; [CPU_FPU] |148| 
         00000192 0048 
    3454                      .dwpsn  file "../bts.c",line 149,column 5,is_stmt,isa 0
    3455 00000193 E203!         MOV32     @$BLOCKED(||BTS_userInput_ch1||)+20,R0H ; [CPU_FPU] |149| 
         00000194 0014 
    3456 00000195 E2AF          MOV32     R0H,*-SP[10]          ; [CPU_FPU] |149| 
         00000196 004A 
    3457                      .dwpsn  file "../bts.c",line 151,column 5,is_stmt,isa 0
    3458 00000197 E203!         MOV32     @$BLOCKED(||BTS_userInput_ch1||)+22,R0H ; [CPU_FPU] |151| 
         00000198 0016 
    3459 00000199 E2AF          MOV32     R0H,*-SP[12]          ; [CPU_FPU] |151| 
         0000019a 004C 
    3460                      .dwpsn  file "../bts.c",line 152,column 5,is_stmt,isa 0
    3461 0000019b E203!         MOV32     @$BLOCKED(||BTS_userInput_ch1||)+24,R0H ; [CPU_FPU] |152| 
         0000019c 0018 
    3462 0000019d E2AF          MOV32     R0H,*-SP[14]          ; [CPU_FPU] |152| 
         0000019e 004E 
    3463                      .dwpsn  file "../bts.c",line 153,column 5,is_stmt,isa 0
    3464 0000019f E203!         MOV32     @$BLOCKED(||BTS_userInput_ch1||)+26,R0H ; [CPU_FPU] |153| 
         000001a0 001A 
    3465 000001a1 E2AF          MOV32     R0H,*-SP[16]          ; [CPU_FPU] |153| 
         000001a2 0050 
    3466                      .dwpsn  file "../bts.c",line 154,column 5,is_stmt,isa 0
    3467 000001a3 E203!         MOV32     @$BLOCKED(||BTS_userInput_ch1||)+28,R0H ; [CPU_FPU] |154| 
         000001a4 001C 
    3468 000001a5 E2AF          MOV32     R0H,*-SP[18]          ; [CPU_FPU] |154| 
         000001a6 0052 
    3469                      .dwpsn  file "../bts.c",line 165,column 5,is_stmt,isa 0
    3470 000001a7 E203!         MOV32     @$BLOCKED(||BTS_userInput_ch2||)+14,R0H ; [CPU_FPU] |165| 
TMS320C2000 Assembler PC v20.2.4 Mon Jan 11 05:48:47 2021

Copyright (c) 1996-2018 Texas Instruments Incorporated
bts.asm                                                              PAGE   73

         000001a8 000E 
    3471 000001a9 E2AF          MOV32     R0H,*-SP[20]          ; [CPU_FPU] |165| 
         000001aa 0054 
    3472                      .dwpsn  file "../bts.c",line 166,column 5,is_stmt,isa 0
    3473 000001ab E203!         MOV32     @$BLOCKED(||BTS_userInput_ch2||)+16,R0H ; [CPU_FPU] |166| 
         000001ac 0010 
    3474 000001ad E2AF          MOV32     R0H,*-SP[22]          ; [CPU_FPU] |166| 
         000001ae 0056 
    3475                      .dwpsn  file "../bts.c",line 167,column 5,is_stmt,isa 0
    3476 000001af E203!         MOV32     @$BLOCKED(||BTS_userInput_ch2||)+18,R0H ; [CPU_FPU] |167| 
         000001b0 0012 
    3477 000001b1 E2AF          MOV32     R0H,*-SP[24]          ; [CPU_FPU] |167| 
         000001b2 0058 
    3478                      .dwpsn  file "../bts.c",line 168,column 5,is_stmt,isa 0
    3479 000001b3 E203!         MOV32     @$BLOCKED(||BTS_userInput_ch2||)+20,R0H ; [CPU_FPU] |168| 
         000001b4 0014 
    3480 000001b5 E2AF          MOV32     R0H,*-SP[26]          ; [CPU_FPU] |168| 
         000001b6 005A 
    3481                      .dwpsn  file "../bts.c",line 170,column 5,is_stmt,isa 0
    3482 000001b7 E203!         MOV32     @$BLOCKED(||BTS_userInput_ch2||)+22,R0H ; [CPU_FPU] |170| 
         000001b8 0016 
    3483 000001b9 E2AF          MOV32     R0H,*-SP[28]          ; [CPU_FPU] |170| 
         000001ba 005C 
    3484                      .dwpsn  file "../bts.c",line 171,column 5,is_stmt,isa 0
    3485 000001bb E203!         MOV32     @$BLOCKED(||BTS_userInput_ch2||)+24,R0H ; [CPU_FPU] |171| 
         000001bc 0018 
    3486 000001bd E2AF          MOV32     R0H,*-SP[30]          ; [CPU_FPU] |171| 
         000001be 005E 
    3487                      .dwpsn  file "../bts.c",line 172,column 5,is_stmt,isa 0
    3488 000001bf E203!         MOV32     @$BLOCKED(||BTS_userInput_ch2||)+26,R0H ; [CPU_FPU] |172| 
         000001c0 001A 
    3489 000001c1 E2AF          MOV32     R0H,*-SP[32]          ; [CPU_FPU] |172| 
         000001c2 0060 
    3490                      .dwpsn  file "../bts.c",line 173,column 5,is_stmt,isa 0
    3491 000001c3 E203!         MOV32     @$BLOCKED(||BTS_userInput_ch2||)+28,R0H ; [CPU_FPU] |173| 
         000001c4 001C 
    3492 000001c5 E2AF          MOV32     R0H,*-SP[34]          ; [CPU_FPU] |173| 
         000001c6 0062 
    3493 000001c7 761F!         MOVW      DP,#||BTS_userInput_ch3||+14 ; [CPU_ARAU] 
         000001c8 0000 
    3494                      .dwpsn  file "../bts.c",line 182,column 5,is_stmt,isa 0
    3495 000001c9 E203!         MOV32     @$BLOCKED(||BTS_userInput_ch3||)+14,R0H ; [CPU_FPU] |182| 
         000001ca 000E 
    3496                      .dwpsn  file "../bts.c",line 208,column 5,is_stmt,isa 0
    3497 000001cb E203!         MOV32     @$BLOCKED(||BTS_userInput_ch4||)+28,R1H ; [CPU_FPU] |208| 
         000001cc 011C 
    3498                      .dwpsn  file "../bts.c",line 182,column 5,is_stmt,isa 0
    3499 000001cd E2AF          MOV32     R0H,*-SP[36]          ; [CPU_FPU] |182| 
         000001ce 0064 
    3500                      .dwpsn  file "../bts.c",line 201,column 5,is_stmt,isa 0
    3501 000001cf E203!         MOV32     @$BLOCKED(||BTS_userInput_ch4||)+16,R7H ; [CPU_FPU] |201| 
         000001d0 0710 
    3502                      .dwpsn  file "../bts.c",line 202,column 5,is_stmt,isa 0
    3503 000001d1 E203!         MOV32     @$BLOCKED(||BTS_userInput_ch4||)+18,R6H ; [CPU_FPU] |202| 
         000001d2 0612 
TMS320C2000 Assembler PC v20.2.4 Mon Jan 11 05:48:47 2021

Copyright (c) 1996-2018 Texas Instruments Incorporated
bts.asm                                                              PAGE   74

    3504                      .dwpsn  file "../bts.c",line 203,column 5,is_stmt,isa 0
    3505 000001d3 E203!         MOV32     @$BLOCKED(||BTS_userInput_ch4||)+20,R5H ; [CPU_FPU] |203| 
         000001d4 0514 
    3506                      .dwpsn  file "../bts.c",line 205,column 5,is_stmt,isa 0
    3507 000001d5 E203!         MOV32     @$BLOCKED(||BTS_userInput_ch4||)+22,R4H ; [CPU_FPU] |205| 
         000001d6 0416 
    3508                      .dwpsn  file "../bts.c",line 208,column 5,is_stmt,isa 0
    3509 000001d7 E2AF          MOV32     R1H,*-SP[52]          ; [CPU_FPU] |208| 
         000001d8 0174 
    3510                      .dwpsn  file "../bts.c",line 206,column 5,is_stmt,isa 0
    3511 000001d9 E203!         MOV32     @$BLOCKED(||BTS_userInput_ch4||)+24,R3H ; [CPU_FPU] |206| 
         000001da 0318 
    3512                      .dwpsn  file "../bts.c",line 183,column 5,is_stmt,isa 0
    3513 000001db E203!         MOV32     @$BLOCKED(||BTS_userInput_ch3||)+16,R0H ; [CPU_FPU] |183| 
         000001dc 0010 
    3514 000001dd E2AF          MOV32     R0H,*-SP[38]          ; [CPU_FPU] |183| 
         000001de 0066 
    3515                      .dwpsn  file "../bts.c",line 184,column 5,is_stmt,isa 0
    3516 000001df E203!         MOV32     @$BLOCKED(||BTS_userInput_ch3||)+18,R0H ; [CPU_FPU] |184| 
         000001e0 0012 
    3517 000001e1 E2AF          MOV32     R0H,*-SP[40]          ; [CPU_FPU] |184| 
         000001e2 0068 
    3518                      .dwpsn  file "../bts.c",line 185,column 5,is_stmt,isa 0
    3519 000001e3 E203!         MOV32     @$BLOCKED(||BTS_userInput_ch3||)+20,R0H ; [CPU_FPU] |185| 
         000001e4 0014 
    3520                      .dwpsn  file "../bts.c",line 197,column 5,is_stmt,isa 0
    3521 000001e5 E203!         MOV32     @$BLOCKED(||BTS_userInput_ch4||)+2,R1H ; [CPU_FPU] |197| 
         000001e6 0102 
    3522                      .dwpsn  file "../bts.c",line 185,column 5,is_stmt,isa 0
    3523 000001e7 E2AF          MOV32     R0H,*-SP[42]          ; [CPU_FPU] |185| 
         000001e8 006A 
    3524                      .dwpsn  file "../bts.c",line 187,column 5,is_stmt,isa 0
    3525 000001e9 E203!         MOV32     @$BLOCKED(||BTS_userInput_ch3||)+22,R0H ; [CPU_FPU] |187| 
         000001ea 0016 
    3526 000001eb E2AF          MOV32     R0H,*-SP[44]          ; [CPU_FPU] |187| 
         000001ec 006C 
    3527                      .dwpsn  file "../bts.c",line 188,column 5,is_stmt,isa 0
    3528 000001ed E203!         MOV32     @$BLOCKED(||BTS_userInput_ch3||)+24,R0H ; [CPU_FPU] |188| 
         000001ee 0018 
    3529 000001ef E2AF          MOV32     R0H,*-SP[46]          ; [CPU_FPU] |188| 
         000001f0 006E 
    3530                      .dwpsn  file "../bts.c",line 189,column 5,is_stmt,isa 0
    3531 000001f1 E203!         MOV32     @$BLOCKED(||BTS_userInput_ch3||)+26,R0H ; [CPU_FPU] |189| 
         000001f2 001A 
    3532 000001f3 E2AF          MOV32     R0H,*-SP[48]          ; [CPU_FPU] |189| 
         000001f4 0070 
    3533                      .dwpsn  file "../bts.c",line 190,column 5,is_stmt,isa 0
    3534 000001f5 E203!         MOV32     @$BLOCKED(||BTS_userInput_ch3||)+28,R0H ; [CPU_FPU] |190| 
         000001f6 001C 
    3535 000001f7 E2AF          MOV32     R0H,*-SP[54]          ; [CPU_FPU] |190| 
         000001f8 0076 
    3536                      .dwpsn  file "../bts.c",line 200,column 5,is_stmt,isa 0
    3537 000001f9 E203!         MOV32     @$BLOCKED(||BTS_userInput_ch4||)+14,R0H ; [CPU_FPU] |200| 
         000001fa 000E 
    3538                      .dwpsn  file "../bts.c",line 197,column 5,is_stmt,isa 0
TMS320C2000 Assembler PC v20.2.4 Mon Jan 11 05:48:47 2021

Copyright (c) 1996-2018 Texas Instruments Incorporated
bts.asm                                                              PAGE   75

    3539 000001fb E2AF          MOV32     R0H,*-SP[50]          ; [CPU_FPU] |197| 
         000001fc 0072 
    3540                      .dwpsn  file "../bts.c",line 207,column 5,is_stmt,isa 0
    3541 000001fd E203!         MOV32     @$BLOCKED(||BTS_userInput_ch4||)+26,R2H ; [CPU_FPU] |207| 
         000001fe 021A 
    3542                      .dwpsn  file "../bts.c",line 198,column 5,is_stmt,isa 0
    3543 000001ff E203!         MOV32     @$BLOCKED(||BTS_userInput_ch4||)+4,R0H ; [CPU_FPU] |198| 
         00000200 0004 
    3544 00000201 FEB6          SUBB      SP,#54                ; [CPU_ARAU] 
    3545                      .dwcfi  cfa_offset, -10
    3546 00000202 E2AF          MOV32     R7H,*--SP             ; [CPU_FPU] 
         00000203 07BE 
    3547                      .dwcfi  cfa_offset, -8
    3548                      .dwcfi  restore_reg, 71
    3549 00000204 E2AF          MOV32     R6H,*--SP             ; [CPU_FPU] 
         00000205 06BE 
    3550                      .dwcfi  cfa_offset, -6
    3551                      .dwcfi  restore_reg, 67
    3552 00000206 E2AF          MOV32     R5H,*--SP             ; [CPU_FPU] 
         00000207 05BE 
    3553                      .dwcfi  cfa_offset, -4
    3554                      .dwcfi  restore_reg, 63
    3555 00000208 E2AF          MOV32     R4H,*--SP             ; [CPU_FPU] 
         00000209 04BE 
    3556                      .dwcfi  cfa_offset, -2
    3557                      .dwcfi  restore_reg, 59
    3558              $C$DW$161       .dwtag  DW_TAG_TI_branch
    3559                      .dwattr $C$DW$161, DW_AT_low_pc(0x00)
    3560                      .dwattr $C$DW$161, DW_AT_TI_return
    3561              
    3562 0000020a 0006          LRETR     ; [CPU_ALU] 
    3563                      ; return occurs ; [] 
    3564                      .dwattr $C$DW$160, DW_AT_TI_end_file("../bts.c")
    3565                      .dwattr $C$DW$160, DW_AT_TI_end_line(0xd2)
    3566                      .dwattr $C$DW$160, DW_AT_TI_end_column(0x01)
    3567                      .dwendentry
    3568                      .dwendtag $C$DW$160
    3569              
    3570 0000020b               .sect   ".text"
    3571                      .clink
    3572                      .global ||BTS_initProgramVariables||
    3573              
    3574              $C$DW$162       .dwtag  DW_TAG_subprogram
    3575                      .dwattr $C$DW$162, DW_AT_name("BTS_initProgramVariables")
    3576                      .dwattr $C$DW$162, DW_AT_low_pc(||BTS_initProgramVariables||)
    3577                      .dwattr $C$DW$162, DW_AT_high_pc(0x00)
    3578                      .dwattr $C$DW$162, DW_AT_linkage_name("BTS_initProgramVariables")
    3579                      .dwattr $C$DW$162, DW_AT_external
    3580                      .dwattr $C$DW$162, DW_AT_decl_file("../bts.c")
    3581                      .dwattr $C$DW$162, DW_AT_decl_line(0xd4)
    3582                      .dwattr $C$DW$162, DW_AT_decl_column(0x06)
    3583                      .dwattr $C$DW$162, DW_AT_TI_max_frame_size(-28)
    3584                      .dwpsn  file "../bts.c",line 212,column 36,is_stmt,address ||BTS_initProgramVariables||,isa 0
    3585              
    3586                      .dwfde $C$DW$CIE, ||BTS_initProgramVariables||
TMS320C2000 Assembler PC v20.2.4 Mon Jan 11 05:48:47 2021

Copyright (c) 1996-2018 Texas Instruments Incorporated
bts.asm                                                              PAGE   76

    3587              
    3588              ;***************************************************************
    3589              ;* FNAME: BTS_initProgramVariables      FR SIZE:  26           *
    3590              ;*                                                             *
    3591              ;* FUNCTION ENVIRONMENT                                        *
    3592              ;*                                                             *
    3593              ;* FUNCTION PROPERTIES                                         *
    3594              ;*                            0 Parameter, 18 Auto,  8 SOE     *
    3595              ;***************************************************************
    3596              
    3597 0000020b       ||BTS_initProgramVariables||:
    3598                      .dwcfi  cfa_offset, -2
    3599                      .dwcfi  save_reg_to_mem, 26, 0
    3600 0000020b E203          MOV32     *SP++,R4H             ; [CPU_FPU] 
         0000020c 04BD 
    3601                      .dwcfi  save_reg_to_mem, 59, 2
    3602                      .dwcfi  cfa_offset, -4
    3603 0000020d E203          MOV32     *SP++,R5H             ; [CPU_FPU] 
         0000020e 05BD 
    3604                      .dwcfi  save_reg_to_mem, 63, 4
    3605                      .dwcfi  cfa_offset, -6
    3606 0000020f E203          MOV32     *SP++,R6H             ; [CPU_FPU] 
         00000210 06BD 
    3607                      .dwcfi  save_reg_to_mem, 67, 6
    3608                      .dwcfi  cfa_offset, -8
    3609 00000211 E203          MOV32     *SP++,R7H             ; [CPU_FPU] 
         00000212 07BD 
    3610                      .dwcfi  save_reg_to_mem, 71, 8
    3611                      .dwcfi  cfa_offset, -10
    3612 00000213 FE12          ADDB      SP,#18                ; [CPU_ARAU] 
    3613                      .dwcfi  cfa_offset, -28
    3614 00000214 761F!         MOVW      DP,#||BTS_ctrlLoopVariable_ch1||+32 ; [CPU_ARAU] 
         00000215 0000 
    3615                      .dwpsn  file "../bts.c",line 214,column 5,is_stmt,isa 0
    3616 00000216 2820!         MOV       @$BLOCKED(||BTS_ctrlLoopVariable_ch1||)+32,#28841 ; [CPU_ALU] |214| 
         00000217 70A9 
    3617                      .dwpsn  file "../bts.c",line 215,column 5,is_stmt,isa 0
    3618 00000218 2821!         MOV       @$BLOCKED(||BTS_ctrlLoopVariable_ch1||)+33,#-28841 ; [CPU_ALU] |215| 
         00000219 8F57 
    3619                      .dwpsn  file "../bts.c",line 226,column 5,is_stmt,isa 0
    3620 0000021a E802          MOVIZ     R0H,#16730            ; [CPU_FPU] |226| 
         0000021b 0AD0 
    3621 0000021c 761F!         MOVW      DP,#||BTS_ctrlLoopVariable_ch2||+32 ; [CPU_ARAU] 
         0000021d 0000 
    3622                      .dwpsn  file "../bts.c",line 237,column 5,is_stmt,isa 0
    3623 0000021e E805          MOVIZ     R7H,#47849            ; [CPU_FPU] |237| 
         0000021f D74F 
    3624                      .dwpsn  file "../bts.c",line 238,column 5,is_stmt,isa 0
    3625 00000220 E802          MOVIZ     R6H,#16545            ; [CPU_FPU] |238| 
         00000221 050E 
    3626                      .dwpsn  file "../bts.c",line 239,column 5,is_stmt,isa 0
    3627 00000222 E801          MOVIZ     R5H,#15056            ; [CPU_FPU] |239| 
         00000223 D685 
    3628                      .dwpsn  file "../bts.c",line 217,column 5,is_stmt,isa 0
    3629 00000224 2820!         MOV       @$BLOCKED(||BTS_ctrlLoopVariable_ch2||)+32,#28841 ; [CPU_ALU] |217| 
TMS320C2000 Assembler PC v20.2.4 Mon Jan 11 05:48:47 2021

Copyright (c) 1996-2018 Texas Instruments Incorporated
bts.asm                                                              PAGE   77

         00000225 70A9 
    3630                      .dwpsn  file "../bts.c",line 218,column 5,is_stmt,isa 0
    3631 00000226 2821!         MOV       @$BLOCKED(||BTS_ctrlLoopVariable_ch2||)+33,#-28841 ; [CPU_ALU] |218| 
         00000227 8F57 
    3632                      .dwpsn  file "../bts.c",line 241,column 5,is_stmt,isa 0
    3633 00000228 E802          MOVIZ     R4H,#16730            ; [CPU_FPU] |241| 
         00000229 0AD4 
    3634                      .dwpsn  file "../bts.c",line 242,column 5,is_stmt,isa 0
    3635 0000022a E805          MOVIZ     R3H,#47849            ; [CPU_FPU] |242| 
         0000022b D74B 
    3636                      .dwpsn  file "../bts.c",line 243,column 5,is_stmt,isa 0
    3637 0000022c E802          MOVIZ     R2H,#16545            ; [CPU_FPU] |243| 
         0000022d 050A 
    3638                      .dwpsn  file "../bts.c",line 226,column 5,is_stmt,isa 0
    3639 0000022e E203          MOV32     *-SP[2],R0H           ; [CPU_FPU] |226| 
         0000022f 0042 
    3640                      .dwpsn  file "../bts.c",line 244,column 5,is_stmt,isa 0
    3641 00000230 E801          MOVIZ     R1H,#15056            ; [CPU_FPU] |244| 
         00000231 D681 
    3642 00000232 761F!         MOVW      DP,#||BTS_ctrlLoopVariable_ch3||+32 ; [CPU_ARAU] 
         00000233 0000 
    3643                      .dwpsn  file "../bts.c",line 227,column 5,is_stmt,isa 0
    3644 00000234 E805          MOVIZ     R0H,#47849            ; [CPU_FPU] |227| 
         00000235 D748 
    3645                      .dwpsn  file "../bts.c",line 220,column 5,is_stmt,isa 0
    3646 00000236 2820!         MOV       @$BLOCKED(||BTS_ctrlLoopVariable_ch3||)+32,#28841 ; [CPU_ALU] |220| 
         00000237 70A9 
    3647                      .dwpsn  file "../bts.c",line 221,column 5,is_stmt,isa 0
    3648 00000238 2821!         MOV       @$BLOCKED(||BTS_ctrlLoopVariable_ch3||)+33,#-28841 ; [CPU_ALU] |221| 
         00000239 8F57 
    3649 0000023a 761F!         MOVW      DP,#||BTS_ctrlLoopVariable_ch4||+32 ; [CPU_ARAU] 
         0000023b 0000 
    3650                      .dwpsn  file "../bts.c",line 227,column 5,is_stmt,isa 0
    3651 0000023c E203          MOV32     *-SP[4],R0H           ; [CPU_FPU] |227| 
         0000023d 0044 
    3652                      .dwpsn  file "../bts.c",line 223,column 5,is_stmt,isa 0
    3653 0000023e 2820!         MOV       @$BLOCKED(||BTS_ctrlLoopVariable_ch4||)+32,#28841 ; [CPU_ALU] |223| 
         0000023f 70A9 
    3654                      .dwpsn  file "../bts.c",line 224,column 5,is_stmt,isa 0
    3655 00000240 2821!         MOV       @$BLOCKED(||BTS_ctrlLoopVariable_ch4||)+33,#-28841 ; [CPU_ALU] |224| 
         00000241 8F57 
    3656                      .dwpsn  file "../bts.c",line 228,column 5,is_stmt,isa 0
    3657 00000242 E802          MOVIZ     R0H,#16545            ; [CPU_FPU] |228| 
         00000243 0508 
    3658 00000244 E203          MOV32     *-SP[6],R0H           ; [CPU_FPU] |228| 
         00000245 0046 
    3659                      .dwpsn  file "../bts.c",line 237,column 5,is_stmt,isa 0
    3660 00000246 E808          MOVXI     R7H,#1499             ; [CPU_FPU] |237| 
         00000247 2EDF 
    3661                      .dwpsn  file "../bts.c",line 238,column 5,is_stmt,isa 0
    3662 00000248 E80A          MOVXI     R6H,#22300            ; [CPU_FPU] |238| 
         00000249 B8E6 
    3663                      .dwpsn  file "../bts.c",line 229,column 5,is_stmt,isa 0
    3664 0000024a E801          MOVIZ     R0H,#15056            ; [CPU_FPU] |229| 
         0000024b D680 
TMS320C2000 Assembler PC v20.2.4 Mon Jan 11 05:48:47 2021

Copyright (c) 1996-2018 Texas Instruments Incorporated
bts.asm                                                              PAGE   78

    3665                      .dwpsn  file "../bts.c",line 239,column 5,is_stmt,isa 0
    3666 0000024c E80E          MOVXI     R5H,#54684            ; [CPU_FPU] |239| 
         0000024d ACE5 
    3667                      .dwpsn  file "../bts.c",line 241,column 5,is_stmt,isa 0
    3668 0000024e E809          MOVXI     R4H,#11069            ; [CPU_FPU] |241| 
         0000024f 59EC 
    3669                      .dwpsn  file "../bts.c",line 242,column 5,is_stmt,isa 0
    3670 00000250 E808          MOVXI     R3H,#1499             ; [CPU_FPU] |242| 
         00000251 2EDB 
    3671                      .dwpsn  file "../bts.c",line 243,column 5,is_stmt,isa 0
    3672 00000252 E80A          MOVXI     R2H,#22300            ; [CPU_FPU] |243| 
         00000253 B8E2 
    3673                      .dwpsn  file "../bts.c",line 244,column 5,is_stmt,isa 0
    3674 00000254 E80E          MOVXI     R1H,#54684            ; [CPU_FPU] |244| 
         00000255 ACE1 
    3675 00000256 761F!         MOVW      DP,#||BTS_measValues_ch1||+74 ; [CPU_ARAU] 
         00000257 0001 
    3676                      .dwpsn  file "../bts.c",line 229,column 5,is_stmt,isa 0
    3677 00000258 E203          MOV32     *-SP[8],R0H           ; [CPU_FPU] |229| 
         00000259 0048 
    3678                      .dwpsn  file "../bts.c",line 231,column 5,is_stmt,isa 0
    3679 0000025a E802          MOVIZ     R0H,#16730            ; [CPU_FPU] |231| 
         0000025b 0AD0 
    3680 0000025c E203          MOV32     *-SP[10],R0H          ; [CPU_FPU] |231| 
         0000025d 004A 
    3681                      .dwpsn  file "../bts.c",line 232,column 5,is_stmt,isa 0
    3682 0000025e E805          MOVIZ     R0H,#47849            ; [CPU_FPU] |232| 
         0000025f D748 
    3683 00000260 E203          MOV32     *-SP[12],R0H          ; [CPU_FPU] |232| 
         00000261 004C 
    3684                      .dwpsn  file "../bts.c",line 233,column 5,is_stmt,isa 0
    3685 00000262 E802          MOVIZ     R0H,#16545            ; [CPU_FPU] |233| 
         00000263 0508 
    3686 00000264 E203          MOV32     *-SP[14],R0H          ; [CPU_FPU] |233| 
         00000265 004E 
    3687                      .dwpsn  file "../bts.c",line 234,column 5,is_stmt,isa 0
    3688 00000266 E801          MOVIZ     R0H,#15056            ; [CPU_FPU] |234| 
         00000267 D680 
    3689 00000268 E203          MOV32     *-SP[16],R0H          ; [CPU_FPU] |234| 
         00000269 0050 
    3690                      .dwpsn  file "../bts.c",line 236,column 5,is_stmt,isa 0
    3691 0000026a E802          MOVIZ     R0H,#16730            ; [CPU_FPU] |236| 
         0000026b 0AD0 
    3692 0000026c E203          MOV32     *-SP[18],R0H          ; [CPU_FPU] |236| 
         0000026d 0052 
    3693                      .dwpsn  file "../bts.c",line 244,column 5,is_stmt,isa 0
    3694 0000026e E2AF          MOV32     R0H,*-SP[2]           ; [CPU_FPU] |244| 
         0000026f 0042 
    3695                      .dwpsn  file "../bts.c",line 226,column 5,is_stmt,isa 0
    3696 00000270 E809          MOVXI     R0H,#11069            ; [CPU_FPU] |226| 
         00000271 59E8 
    3697 00000272 E203          MOV32     *-SP[2],R0H           ; [CPU_FPU] |226| 
         00000273 0042 
    3698 00000274 E2AF          MOV32     R0H,*-SP[4]           ; [CPU_FPU] |226| 
         00000275 0044 
TMS320C2000 Assembler PC v20.2.4 Mon Jan 11 05:48:47 2021

Copyright (c) 1996-2018 Texas Instruments Incorporated
bts.asm                                                              PAGE   79

    3699                      .dwpsn  file "../bts.c",line 227,column 5,is_stmt,isa 0
    3700 00000276 E808          MOVXI     R0H,#1499             ; [CPU_FPU] |227| 
         00000277 2ED8 
    3701 00000278 E203          MOV32     *-SP[4],R0H           ; [CPU_FPU] |227| 
         00000279 0044 
    3702 0000027a E2AF          MOV32     R0H,*-SP[6]           ; [CPU_FPU] |227| 
         0000027b 0046 
    3703                      .dwpsn  file "../bts.c",line 228,column 5,is_stmt,isa 0
    3704 0000027c E80A          MOVXI     R0H,#22300            ; [CPU_FPU] |228| 
         0000027d B8E0 
    3705 0000027e E203          MOV32     *-SP[6],R0H           ; [CPU_FPU] |228| 
         0000027f 0046 
    3706 00000280 E2AF          MOV32     R0H,*-SP[8]           ; [CPU_FPU] |228| 
         00000281 0048 
    3707                      .dwpsn  file "../bts.c",line 229,column 5,is_stmt,isa 0
    3708 00000282 E80E          MOVXI     R0H,#54684            ; [CPU_FPU] |229| 
         00000283 ACE0 
    3709 00000284 E203          MOV32     *-SP[8],R0H           ; [CPU_FPU] |229| 
         00000285 0048 
    3710 00000286 E2AF          MOV32     R0H,*-SP[10]          ; [CPU_FPU] |229| 
         00000287 004A 
    3711                      .dwpsn  file "../bts.c",line 231,column 5,is_stmt,isa 0
    3712 00000288 E809          MOVXI     R0H,#11069            ; [CPU_FPU] |231| 
         00000289 59E8 
    3713 0000028a E203          MOV32     *-SP[10],R0H          ; [CPU_FPU] |231| 
         0000028b 004A 
    3714 0000028c E2AF          MOV32     R0H,*-SP[12]          ; [CPU_FPU] |231| 
         0000028d 004C 
    3715                      .dwpsn  file "../bts.c",line 232,column 5,is_stmt,isa 0
    3716 0000028e E808          MOVXI     R0H,#1499             ; [CPU_FPU] |232| 
         0000028f 2ED8 
    3717 00000290 E203          MOV32     *-SP[12],R0H          ; [CPU_FPU] |232| 
         00000291 004C 
    3718 00000292 E2AF          MOV32     R0H,*-SP[14]          ; [CPU_FPU] |232| 
         00000293 004E 
    3719                      .dwpsn  file "../bts.c",line 233,column 5,is_stmt,isa 0
    3720 00000294 E80A          MOVXI     R0H,#22300            ; [CPU_FPU] |233| 
         00000295 B8E0 
    3721 00000296 E203          MOV32     *-SP[14],R0H          ; [CPU_FPU] |233| 
         00000297 004E 
    3722 00000298 E2AF          MOV32     R0H,*-SP[16]          ; [CPU_FPU] |233| 
         00000299 0050 
    3723                      .dwpsn  file "../bts.c",line 234,column 5,is_stmt,isa 0
    3724 0000029a E80E          MOVXI     R0H,#54684            ; [CPU_FPU] |234| 
         0000029b ACE0 
    3725 0000029c E203          MOV32     *-SP[16],R0H          ; [CPU_FPU] |234| 
         0000029d 0050 
    3726 0000029e E2AF          MOV32     R0H,*-SP[18]          ; [CPU_FPU] |234| 
         0000029f 0052 
    3727                      .dwpsn  file "../bts.c",line 236,column 5,is_stmt,isa 0
    3728 000002a0 E809          MOVXI     R0H,#11069            ; [CPU_FPU] |236| 
         000002a1 59E8 
    3729 000002a2 E203          MOV32     *-SP[18],R0H          ; [CPU_FPU] |236| 
         000002a3 0052 
    3730                      .dwpsn  file "../bts.c",line 224,column 5,is_stmt,isa 0
TMS320C2000 Assembler PC v20.2.4 Mon Jan 11 05:48:47 2021

Copyright (c) 1996-2018 Texas Instruments Incorporated
bts.asm                                                              PAGE   80

    3731 000002a4 E2AF          MOV32     R0H,*-SP[2]           ; [CPU_FPU] |224| 
         000002a5 0042 
    3732                      .dwpsn  file "../bts.c",line 226,column 5,is_stmt,isa 0
    3733 000002a6 E203!         MOV32     @$BLOCKED(||BTS_measValues_ch1||)+74,R0H ; [CPU_FPU] |226| 
         000002a7 000A 
    3734 000002a8 E2AF          MOV32     R0H,*-SP[4]           ; [CPU_FPU] |226| 
         000002a9 0044 
    3735                      .dwpsn  file "../bts.c",line 227,column 5,is_stmt,isa 0
    3736 000002aa E203!         MOV32     @$BLOCKED(||BTS_measValues_ch1||)+76,R0H ; [CPU_FPU] |227| 
         000002ab 000C 
    3737 000002ac E2AF          MOV32     R0H,*-SP[6]           ; [CPU_FPU] |227| 
         000002ad 0046 
    3738                      .dwpsn  file "../bts.c",line 228,column 5,is_stmt,isa 0
    3739 000002ae E203!         MOV32     @$BLOCKED(||BTS_measValues_ch1||)+78,R0H ; [CPU_FPU] |228| 
         000002af 000E 
    3740 000002b0 E2AF          MOV32     R0H,*-SP[8]           ; [CPU_FPU] |228| 
         000002b1 0048 
    3741                      .dwpsn  file "../bts.c",line 229,column 5,is_stmt,isa 0
    3742 000002b2 E203!         MOV32     @$BLOCKED(||BTS_measValues_ch1||)+80,R0H ; [CPU_FPU] |229| 
         000002b3 0010 
    3743 000002b4 761F!         MOVW      DP,#||BTS_measValues_ch2||+74 ; [CPU_ARAU] 
         000002b5 0001 
    3744 000002b6 E2AF          MOV32     R0H,*-SP[10]          ; [CPU_FPU] |229| 
         000002b7 004A 
    3745                      .dwpsn  file "../bts.c",line 231,column 5,is_stmt,isa 0
    3746 000002b8 E203!         MOV32     @$BLOCKED(||BTS_measValues_ch2||)+74,R0H ; [CPU_FPU] |231| 
         000002b9 000A 
    3747 000002ba E2AF          MOV32     R0H,*-SP[12]          ; [CPU_FPU] |231| 
         000002bb 004C 
    3748                      .dwpsn  file "../bts.c",line 232,column 5,is_stmt,isa 0
    3749 000002bc E203!         MOV32     @$BLOCKED(||BTS_measValues_ch2||)+76,R0H ; [CPU_FPU] |232| 
         000002bd 000C 
    3750 000002be E2AF          MOV32     R0H,*-SP[14]          ; [CPU_FPU] |232| 
         000002bf 004E 
    3751                      .dwpsn  file "../bts.c",line 233,column 5,is_stmt,isa 0
    3752 000002c0 E203!         MOV32     @$BLOCKED(||BTS_measValues_ch2||)+78,R0H ; [CPU_FPU] |233| 
         000002c1 000E 
    3753 000002c2 E2AF          MOV32     R0H,*-SP[16]          ; [CPU_FPU] |233| 
         000002c3 0050 
    3754                      .dwpsn  file "../bts.c",line 234,column 5,is_stmt,isa 0
    3755 000002c4 E203!         MOV32     @$BLOCKED(||BTS_measValues_ch2||)+80,R0H ; [CPU_FPU] |234| 
         000002c5 0010 
    3756 000002c6 761F!         MOVW      DP,#||BTS_measValues_ch3||+74 ; [CPU_ARAU] 
         000002c7 0001 
    3757                      .dwpsn  file "../bts.c",line 237,column 5,is_stmt,isa 0
    3758 000002c8 E203!         MOV32     @$BLOCKED(||BTS_measValues_ch3||)+76,R7H ; [CPU_FPU] |237| 
         000002c9 070C 
    3759                      .dwpsn  file "../bts.c",line 238,column 5,is_stmt,isa 0
    3760 000002ca E203!         MOV32     @$BLOCKED(||BTS_measValues_ch3||)+78,R6H ; [CPU_FPU] |238| 
         000002cb 060E 
    3761                      .dwpsn  file "../bts.c",line 239,column 5,is_stmt,isa 0
    3762 000002cc E203!         MOV32     @$BLOCKED(||BTS_measValues_ch3||)+80,R5H ; [CPU_FPU] |239| 
         000002cd 0510 
    3763                      .dwpsn  file "../bts.c",line 234,column 5,is_stmt,isa 0
    3764 000002ce E2AF          MOV32     R0H,*-SP[18]          ; [CPU_FPU] |234| 
TMS320C2000 Assembler PC v20.2.4 Mon Jan 11 05:48:47 2021

Copyright (c) 1996-2018 Texas Instruments Incorporated
bts.asm                                                              PAGE   81

         000002cf 0052 
    3765                      .dwpsn  file "../bts.c",line 236,column 5,is_stmt,isa 0
    3766 000002d0 E203!         MOV32     @$BLOCKED(||BTS_measValues_ch3||)+74,R0H ; [CPU_FPU] |236| 
         000002d1 000A 
    3767 000002d2 761F!         MOVW      DP,#||BTS_measValues_ch4||+74 ; [CPU_ARAU] 
         000002d3 0001 
    3768                      .dwpsn  file "../bts.c",line 241,column 5,is_stmt,isa 0
    3769 000002d4 E203!         MOV32     @$BLOCKED(||BTS_measValues_ch4||)+74,R4H ; [CPU_FPU] |241| 
         000002d5 040A 
    3770                      .dwpsn  file "../bts.c",line 242,column 5,is_stmt,isa 0
    3771 000002d6 E203!         MOV32     @$BLOCKED(||BTS_measValues_ch4||)+76,R3H ; [CPU_FPU] |242| 
         000002d7 030C 
    3772                      .dwpsn  file "../bts.c",line 243,column 5,is_stmt,isa 0
    3773 000002d8 E203!         MOV32     @$BLOCKED(||BTS_measValues_ch4||)+78,R2H ; [CPU_FPU] |243| 
         000002d9 020E 
    3774                      .dwpsn  file "../bts.c",line 244,column 5,is_stmt,isa 0
    3775 000002da E203!         MOV32     @$BLOCKED(||BTS_measValues_ch4||)+80,R1H ; [CPU_FPU] |244| 
         000002db 0110 
    3776 000002dc FE92          SUBB      SP,#18                ; [CPU_ARAU] 
    3777                      .dwcfi  cfa_offset, -10
    3778 000002dd E2AF          MOV32     R7H,*--SP             ; [CPU_FPU] 
         000002de 07BE 
    3779                      .dwcfi  cfa_offset, -8
    3780                      .dwcfi  restore_reg, 71
    3781 000002df E2AF          MOV32     R6H,*--SP             ; [CPU_FPU] 
         000002e0 06BE 
    3782                      .dwcfi  cfa_offset, -6
    3783                      .dwcfi  restore_reg, 67
    3784 000002e1 E2AF          MOV32     R5H,*--SP             ; [CPU_FPU] 
         000002e2 05BE 
    3785                      .dwcfi  cfa_offset, -4
    3786                      .dwcfi  restore_reg, 63
    3787 000002e3 E2AF          MOV32     R4H,*--SP             ; [CPU_FPU] 
         000002e4 04BE 
    3788                      .dwcfi  cfa_offset, -2
    3789                      .dwcfi  restore_reg, 59
    3790              $C$DW$163       .dwtag  DW_TAG_TI_branch
    3791                      .dwattr $C$DW$163, DW_AT_low_pc(0x00)
    3792                      .dwattr $C$DW$163, DW_AT_TI_return
    3793              
    3794 000002e5 0006          LRETR     ; [CPU_ALU] 
    3795                      ; return occurs ; [] 
    3796                      .dwattr $C$DW$162, DW_AT_TI_end_file("../bts.c")
    3797                      .dwattr $C$DW$162, DW_AT_TI_end_line(0xf5)
    3798                      .dwattr $C$DW$162, DW_AT_TI_end_column(0x01)
    3799                      .dwendentry
    3800                      .dwendtag $C$DW$162
    3801              
    3802 000002e6               .sect   ".text"
    3803                      .clink
    3804                      .global ||BTS_initController||
    3805              
    3806              $C$DW$164       .dwtag  DW_TAG_subprogram
    3807                      .dwattr $C$DW$164, DW_AT_name("BTS_initController")
    3808                      .dwattr $C$DW$164, DW_AT_low_pc(||BTS_initController||)
TMS320C2000 Assembler PC v20.2.4 Mon Jan 11 05:48:47 2021

Copyright (c) 1996-2018 Texas Instruments Incorporated
bts.asm                                                              PAGE   82

    3809                      .dwattr $C$DW$164, DW_AT_high_pc(0x00)
    3810                      .dwattr $C$DW$164, DW_AT_linkage_name("BTS_initController")
    3811                      .dwattr $C$DW$164, DW_AT_external
    3812                      .dwattr $C$DW$164, DW_AT_decl_file("../bts.c")
    3813                      .dwattr $C$DW$164, DW_AT_decl_line(0xf7)
    3814                      .dwattr $C$DW$164, DW_AT_decl_column(0x06)
    3815                      .dwattr $C$DW$164, DW_AT_TI_max_frame_size(-4)
    3816                      .dwpsn  file "../bts.c",line 248,column 1,is_stmt,address ||BTS_initController||,isa 0
    3817              
    3818                      .dwfde $C$DW$CIE, ||BTS_initController||
    3819              
    3820              ;***************************************************************
    3821              ;* FNAME: BTS_initController            FR SIZE:   2           *
    3822              ;*                                                             *
    3823              ;* FUNCTION ENVIRONMENT                                        *
    3824              ;*                                                             *
    3825              ;* FUNCTION PROPERTIES                                         *
    3826              ;*                            0 Parameter,  0 Auto,  2 SOE     *
    3827              ;***************************************************************
    3828              
    3829 000002e6       ||BTS_initController||:
    3830                      .dwcfi  cfa_offset, -2
    3831                      .dwcfi  save_reg_to_mem, 26, 0
    3832                      .dwpsn  file "../bts.c",line 252,column 5,is_stmt,isa 0
    3833 000002e6 E801          MOVIZ     R1H,#15628            ; [CPU_FPU] |252| 
         000002e7 E861 
    3834                      .dwpsn  file "../bts.c",line 253,column 5,is_stmt,isa 0
    3835 000002e8 E805          MOVIZ     R0H,#48506            ; [CPU_FPU] |253| 
         000002e9 EBD0 
    3836                      .dwpsn  file "../bts.c",line 254,column 5,is_stmt,isa 0
    3837 000002ea E801          MOVIZ     R2H,#15581            ; [CPU_FPU] |254| 
         000002eb E6EA 
    3838 000002ec 761F!         MOVW      DP,#||BTS_ctrl_cc_ch1|| ; [CPU_ARAU] 
         000002ed 0000 
    3839 000002ee E203          MOV32     *SP++,R4H             ; [CPU_FPU] 
         000002ef 04BD 
    3840                      .dwcfi  save_reg_to_mem, 59, 2
    3841                      .dwcfi  cfa_offset, -4
    3842                      .dwpsn  file "../bts.c",line 252,column 5,is_stmt,isa 0
    3843 000002f0 E80B          MOVXI     R1H,#31105            ; [CPU_FPU] |252| 
         000002f1 CC09 
    3844                      .dwpsn  file "../bts.c",line 253,column 5,is_stmt,isa 0
    3845 000002f2 E80B          MOVXI     R0H,#27704            ; [CPU_FPU] |253| 
         000002f3 61C0 
    3846                      .dwpsn  file "../bts.c",line 254,column 5,is_stmt,isa 0
    3847 000002f4 E80E          MOVXI     R2H,#54450            ; [CPU_FPU] |254| 
         000002f5 A592 
    3848                      .dwpsn  file "../bts.c",line 252,column 5,is_stmt,isa 0
    3849 000002f6 E203!         MOV32     @$BLOCKED(||BTS_ctrl_cc_ch1||),R1H ; [CPU_FPU] |252| 
         000002f7 0100 
    3850                      .dwpsn  file "../bts.c",line 305,column 5,is_stmt,isa 0
    3851 000002f8 E801          MOVIZ     R4H,#16303            ; [CPU_FPU] |305| 
         000002f9 FD7C 
    3852                      .dwpsn  file "../bts.c",line 306,column 5,is_stmt,isa 0
    3853 000002fa E806          MOVIZ     R3H,#49180            ; [CPU_FPU] |306| 
TMS320C2000 Assembler PC v20.2.4 Mon Jan 11 05:48:47 2021

Copyright (c) 1996-2018 Texas Instruments Incorporated
bts.asm                                                              PAGE   83

         000002fb 00E3 
    3854                      .dwpsn  file "../bts.c",line 255,column 5,is_stmt,isa 0
    3855 000002fc E805          MOVIZ     R1H,#49142            ; [CPU_FPU] |255| 
         000002fd FFB1 
    3856                      .dwpsn  file "../bts.c",line 253,column 5,is_stmt,isa 0
    3857 000002fe E203!         MOV32     @$BLOCKED(||BTS_ctrl_cc_ch1||)+2,R0H ; [CPU_FPU] |253| 
         000002ff 0002 
    3858                      .dwpsn  file "../bts.c",line 256,column 5,is_stmt,isa 0
    3859 00000300 E801          MOVIZ     R0H,#16236            ; [CPU_FPU] |256| 
         00000301 FB60 
    3860                      .dwpsn  file "../bts.c",line 255,column 5,is_stmt,isa 0
    3861 00000302 E80A          MOVXI     R1H,#21415            ; [CPU_FPU] |255| 
         00000303 9D39 
    3862                      .dwpsn  file "../bts.c",line 254,column 5,is_stmt,isa 0
    3863 00000304 E203!         MOV32     @$BLOCKED(||BTS_ctrl_cc_ch1||)+4,R2H ; [CPU_FPU] |254| 
         00000305 0204 
    3864                      .dwpsn  file "../bts.c",line 256,column 5,is_stmt,isa 0
    3865 00000306 E80D          MOVXI     R0H,#42830            ; [CPU_FPU] |256| 
         00000307 3A70 
    3866                      .dwpsn  file "../bts.c",line 258,column 5,is_stmt,isa 0
    3867 00000308 E801          MOVIZ     R2H,#16303            ; [CPU_FPU] |258| 
         00000309 FD7A 
    3868                      .dwpsn  file "../bts.c",line 255,column 5,is_stmt,isa 0
    3869 0000030a E203!         MOV32     @$BLOCKED(||BTS_ctrl_cc_ch1||)+6,R1H ; [CPU_FPU] |255| 
         0000030b 0106 
    3870                      .dwpsn  file "../bts.c",line 259,column 5,is_stmt,isa 0
    3871 0000030c E806          MOVIZ     R1H,#49180            ; [CPU_FPU] |259| 
         0000030d 00E1 
    3872                      .dwpsn  file "../bts.c",line 258,column 5,is_stmt,isa 0
    3873 0000030e E80C          MOVXI     R2H,#38882            ; [CPU_FPU] |258| 
         0000030f BF12 
    3874                      .dwpsn  file "../bts.c",line 256,column 5,is_stmt,isa 0
    3875 00000310 E203!         MOV32     @$BLOCKED(||BTS_ctrl_cc_ch1||)+8,R0H ; [CPU_FPU] |256| 
         00000311 0008 
    3876                      .dwpsn  file "../bts.c",line 259,column 5,is_stmt,isa 0
    3877 00000312 E80C          MOVXI     R1H,#33699            ; [CPU_FPU] |259| 
         00000313 1D19 
    3878                      .dwpsn  file "../bts.c",line 260,column 5,is_stmt,isa 0
    3879 00000314 E801          MOVIZ     R0H,#16266            ; [CPU_FPU] |260| 
         00000315 FC50 
    3880 00000316 761F!         MOVW      DP,#||BTS_ctrl_cv_ch1|| ; [CPU_ARAU] 
         00000317 0000 
    3881 00000318 E80D          MOVXI     R0H,#42223            ; [CPU_FPU] |260| 
         00000319 2778 
    3882                      .dwpsn  file "../bts.c",line 258,column 5,is_stmt,isa 0
    3883 0000031a E203!         MOV32     @$BLOCKED(||BTS_ctrl_cv_ch1||),R2H ; [CPU_FPU] |258| 
         0000031b 0200 
    3884                      .dwpsn  file "../bts.c",line 261,column 5,is_stmt,isa 0
    3885 0000031c E805          MOVIZ     R2H,#49142            ; [CPU_FPU] |261| 
         0000031d FFB2 
    3886                      .dwpsn  file "../bts.c",line 259,column 5,is_stmt,isa 0
    3887 0000031e E203!         MOV32     @$BLOCKED(||BTS_ctrl_cv_ch1||)+2,R1H ; [CPU_FPU] |259| 
         0000031f 0102 
    3888                      .dwpsn  file "../bts.c",line 261,column 5,is_stmt,isa 0
    3889 00000320 E80A          MOVXI     R2H,#21415            ; [CPU_FPU] |261| 
TMS320C2000 Assembler PC v20.2.4 Mon Jan 11 05:48:47 2021

Copyright (c) 1996-2018 Texas Instruments Incorporated
bts.asm                                                              PAGE   84

         00000321 9D3A 
    3890                      .dwpsn  file "../bts.c",line 305,column 5,is_stmt,isa 0
    3891 00000322 E80C          MOVXI     R4H,#38882            ; [CPU_FPU] |305| 
         00000323 BF14 
    3892                      .dwpsn  file "../bts.c",line 306,column 5,is_stmt,isa 0
    3893 00000324 E80C          MOVXI     R3H,#33699            ; [CPU_FPU] |306| 
         00000325 1D1B 
    3894                      .dwpsn  file "../bts.c",line 262,column 5,is_stmt,isa 0
    3895 00000326 E801          MOVIZ     R1H,#16236            ; [CPU_FPU] |262| 
         00000327 FB61 
    3896 00000328 E80D          MOVXI     R1H,#42831            ; [CPU_FPU] |262| 
         00000329 3A79 
    3897                      .dwpsn  file "../bts.c",line 260,column 5,is_stmt,isa 0
    3898 0000032a E203!         MOV32     @$BLOCKED(||BTS_ctrl_cv_ch1||)+4,R0H ; [CPU_FPU] |260| 
         0000032b 0004 
    3899                      .dwpsn  file "../bts.c",line 267,column 5,is_stmt,isa 0
    3900 0000032c E801          MOVIZ     R0H,#15628            ; [CPU_FPU] |267| 
         0000032d E860 
    3901 0000032e E80B          MOVXI     R0H,#31105            ; [CPU_FPU] |267| 
         0000032f CC08 
    3902                      .dwpsn  file "../bts.c",line 261,column 5,is_stmt,isa 0
    3903 00000330 E203!         MOV32     @$BLOCKED(||BTS_ctrl_cv_ch1||)+6,R2H ; [CPU_FPU] |261| 
         00000331 0206 
    3904                      .dwpsn  file "../bts.c",line 268,column 5,is_stmt,isa 0
    3905 00000332 E805          MOVIZ     R2H,#48506            ; [CPU_FPU] |268| 
         00000333 EBD2 
    3906 00000334 E80B          MOVXI     R2H,#27704            ; [CPU_FPU] |268| 
         00000335 61C2 
    3907                      .dwpsn  file "../bts.c",line 262,column 5,is_stmt,isa 0
    3908 00000336 E203!         MOV32     @$BLOCKED(||BTS_ctrl_cv_ch1||)+8,R1H ; [CPU_FPU] |262| 
         00000337 0108 
    3909                      .dwpsn  file "../bts.c",line 269,column 5,is_stmt,isa 0
    3910 00000338 E801          MOVIZ     R1H,#15581            ; [CPU_FPU] |269| 
         00000339 E6E9 
    3911 0000033a 761F!         MOVW      DP,#||BTS_ctrl_cc_ch2|| ; [CPU_ARAU] 
         0000033b 0000 
    3912 0000033c E80E          MOVXI     R1H,#54450            ; [CPU_FPU] |269| 
         0000033d A591 
    3913                      .dwpsn  file "../bts.c",line 267,column 5,is_stmt,isa 0
    3914 0000033e E203!         MOV32     @$BLOCKED(||BTS_ctrl_cc_ch2||),R0H ; [CPU_FPU] |267| 
         0000033f 0000 
    3915                      .dwpsn  file "../bts.c",line 270,column 5,is_stmt,isa 0
    3916 00000340 E805          MOVIZ     R0H,#49142            ; [CPU_FPU] |270| 
         00000341 FFB0 
    3917 00000342 E80A          MOVXI     R0H,#21415            ; [CPU_FPU] |270| 
         00000343 9D38 
    3918                      .dwpsn  file "../bts.c",line 268,column 5,is_stmt,isa 0
    3919 00000344 E203!         MOV32     @$BLOCKED(||BTS_ctrl_cc_ch2||)+2,R2H ; [CPU_FPU] |268| 
         00000345 0202 
    3920                      .dwpsn  file "../bts.c",line 271,column 5,is_stmt,isa 0
    3921 00000346 E801          MOVIZ     R2H,#16236            ; [CPU_FPU] |271| 
         00000347 FB62 
    3922 00000348 E80D          MOVXI     R2H,#42830            ; [CPU_FPU] |271| 
         00000349 3A72 
    3923                      .dwpsn  file "../bts.c",line 269,column 5,is_stmt,isa 0
TMS320C2000 Assembler PC v20.2.4 Mon Jan 11 05:48:47 2021

Copyright (c) 1996-2018 Texas Instruments Incorporated
bts.asm                                                              PAGE   85

    3924 0000034a E203!         MOV32     @$BLOCKED(||BTS_ctrl_cc_ch2||)+4,R1H ; [CPU_FPU] |269| 
         0000034b 0104 
    3925                      .dwpsn  file "../bts.c",line 273,column 5,is_stmt,isa 0
    3926 0000034c E801          MOVIZ     R1H,#16303            ; [CPU_FPU] |273| 
         0000034d FD79 
    3927 0000034e E80C          MOVXI     R1H,#38882            ; [CPU_FPU] |273| 
         0000034f BF11 
    3928                      .dwpsn  file "../bts.c",line 270,column 5,is_stmt,isa 0
    3929 00000350 E203!         MOV32     @$BLOCKED(||BTS_ctrl_cc_ch2||)+6,R0H ; [CPU_FPU] |270| 
         00000351 0006 
    3930                      .dwpsn  file "../bts.c",line 274,column 5,is_stmt,isa 0
    3931 00000352 E806          MOVIZ     R0H,#49180            ; [CPU_FPU] |274| 
         00000353 00E0 
    3932 00000354 E80C          MOVXI     R0H,#33699            ; [CPU_FPU] |274| 
         00000355 1D18 
    3933                      .dwpsn  file "../bts.c",line 271,column 5,is_stmt,isa 0
    3934 00000356 E203!         MOV32     @$BLOCKED(||BTS_ctrl_cc_ch2||)+8,R2H ; [CPU_FPU] |271| 
         00000357 0208 
    3935                      .dwpsn  file "../bts.c",line 275,column 5,is_stmt,isa 0
    3936 00000358 E801          MOVIZ     R2H,#16266            ; [CPU_FPU] |275| 
         00000359 FC52 
    3937 0000035a 761F!         MOVW      DP,#||BTS_ctrl_cv_ch2|| ; [CPU_ARAU] 
         0000035b 0000 
    3938 0000035c E80D          MOVXI     R2H,#42223            ; [CPU_FPU] |275| 
         0000035d 277A 
    3939                      .dwpsn  file "../bts.c",line 273,column 5,is_stmt,isa 0
    3940 0000035e E203!         MOV32     @$BLOCKED(||BTS_ctrl_cv_ch2||),R1H ; [CPU_FPU] |273| 
         0000035f 0100 
    3941                      .dwpsn  file "../bts.c",line 276,column 5,is_stmt,isa 0
    3942 00000360 E805          MOVIZ     R1H,#49142            ; [CPU_FPU] |276| 
         00000361 FFB1 
    3943 00000362 E80A          MOVXI     R1H,#21415            ; [CPU_FPU] |276| 
         00000363 9D39 
    3944                      .dwpsn  file "../bts.c",line 274,column 5,is_stmt,isa 0
    3945 00000364 E203!         MOV32     @$BLOCKED(||BTS_ctrl_cv_ch2||)+2,R0H ; [CPU_FPU] |274| 
         00000365 0002 
    3946                      .dwpsn  file "../bts.c",line 277,column 5,is_stmt,isa 0
    3947 00000366 E801          MOVIZ     R0H,#16236            ; [CPU_FPU] |277| 
         00000367 FB60 
    3948 00000368 E80D          MOVXI     R0H,#42831            ; [CPU_FPU] |277| 
         00000369 3A78 
    3949                      .dwpsn  file "../bts.c",line 275,column 5,is_stmt,isa 0
    3950 0000036a E203!         MOV32     @$BLOCKED(||BTS_ctrl_cv_ch2||)+4,R2H ; [CPU_FPU] |275| 
         0000036b 0204 
    3951                      .dwpsn  file "../bts.c",line 283,column 5,is_stmt,isa 0
    3952 0000036c E801          MOVIZ     R2H,#15628            ; [CPU_FPU] |283| 
         0000036d E862 
    3953 0000036e E80B          MOVXI     R2H,#31105            ; [CPU_FPU] |283| 
         0000036f CC0A 
    3954                      .dwpsn  file "../bts.c",line 276,column 5,is_stmt,isa 0
    3955 00000370 E203!         MOV32     @$BLOCKED(||BTS_ctrl_cv_ch2||)+6,R1H ; [CPU_FPU] |276| 
         00000371 0106 
    3956                      .dwpsn  file "../bts.c",line 284,column 5,is_stmt,isa 0
    3957 00000372 E805          MOVIZ     R1H,#48506            ; [CPU_FPU] |284| 
         00000373 EBD1 
TMS320C2000 Assembler PC v20.2.4 Mon Jan 11 05:48:47 2021

Copyright (c) 1996-2018 Texas Instruments Incorporated
bts.asm                                                              PAGE   86

    3958 00000374 E80B          MOVXI     R1H,#27704            ; [CPU_FPU] |284| 
         00000375 61C1 
    3959                      .dwpsn  file "../bts.c",line 277,column 5,is_stmt,isa 0
    3960 00000376 E203!         MOV32     @$BLOCKED(||BTS_ctrl_cv_ch2||)+8,R0H ; [CPU_FPU] |277| 
         00000377 0008 
    3961                      .dwpsn  file "../bts.c",line 285,column 5,is_stmt,isa 0
    3962 00000378 E801          MOVIZ     R0H,#15581            ; [CPU_FPU] |285| 
         00000379 E6E8 
    3963 0000037a 761F!         MOVW      DP,#||BTS_ctrl_cc_ch3|| ; [CPU_ARAU] 
         0000037b 0000 
    3964 0000037c E80E          MOVXI     R0H,#54450            ; [CPU_FPU] |285| 
         0000037d A590 
    3965                      .dwpsn  file "../bts.c",line 283,column 5,is_stmt,isa 0
    3966 0000037e E203!         MOV32     @$BLOCKED(||BTS_ctrl_cc_ch3||),R2H ; [CPU_FPU] |283| 
         0000037f 0200 
    3967                      .dwpsn  file "../bts.c",line 286,column 5,is_stmt,isa 0
    3968 00000380 E805          MOVIZ     R2H,#49142            ; [CPU_FPU] |286| 
         00000381 FFB2 
    3969 00000382 E80A          MOVXI     R2H,#21415            ; [CPU_FPU] |286| 
         00000383 9D3A 
    3970                      .dwpsn  file "../bts.c",line 284,column 5,is_stmt,isa 0
    3971 00000384 E203!         MOV32     @$BLOCKED(||BTS_ctrl_cc_ch3||)+2,R1H ; [CPU_FPU] |284| 
         00000385 0102 
    3972                      .dwpsn  file "../bts.c",line 287,column 5,is_stmt,isa 0
    3973 00000386 E801          MOVIZ     R1H,#16236            ; [CPU_FPU] |287| 
         00000387 FB61 
    3974 00000388 E80D          MOVXI     R1H,#42830            ; [CPU_FPU] |287| 
         00000389 3A71 
    3975                      .dwpsn  file "../bts.c",line 285,column 5,is_stmt,isa 0
    3976 0000038a E203!         MOV32     @$BLOCKED(||BTS_ctrl_cc_ch3||)+4,R0H ; [CPU_FPU] |285| 
         0000038b 0004 
    3977                      .dwpsn  file "../bts.c",line 289,column 5,is_stmt,isa 0
    3978 0000038c E801          MOVIZ     R0H,#16303            ; [CPU_FPU] |289| 
         0000038d FD78 
    3979 0000038e E80C          MOVXI     R0H,#38882            ; [CPU_FPU] |289| 
         0000038f BF10 
    3980                      .dwpsn  file "../bts.c",line 286,column 5,is_stmt,isa 0
    3981 00000390 E203!         MOV32     @$BLOCKED(||BTS_ctrl_cc_ch3||)+6,R2H ; [CPU_FPU] |286| 
         00000391 0206 
    3982                      .dwpsn  file "../bts.c",line 290,column 5,is_stmt,isa 0
    3983 00000392 E806          MOVIZ     R2H,#49180            ; [CPU_FPU] |290| 
         00000393 00E2 
    3984 00000394 E80C          MOVXI     R2H,#33699            ; [CPU_FPU] |290| 
         00000395 1D1A 
    3985                      .dwpsn  file "../bts.c",line 287,column 5,is_stmt,isa 0
    3986 00000396 E203!         MOV32     @$BLOCKED(||BTS_ctrl_cc_ch3||)+8,R1H ; [CPU_FPU] |287| 
         00000397 0108 
    3987                      .dwpsn  file "../bts.c",line 291,column 5,is_stmt,isa 0
    3988 00000398 E801          MOVIZ     R1H,#16266            ; [CPU_FPU] |291| 
         00000399 FC51 
    3989 0000039a 761F!         MOVW      DP,#||BTS_ctrl_cv_ch3|| ; [CPU_ARAU] 
         0000039b 0000 
    3990 0000039c E80D          MOVXI     R1H,#42223            ; [CPU_FPU] |291| 
         0000039d 2779 
    3991                      .dwpsn  file "../bts.c",line 289,column 5,is_stmt,isa 0
TMS320C2000 Assembler PC v20.2.4 Mon Jan 11 05:48:47 2021

Copyright (c) 1996-2018 Texas Instruments Incorporated
bts.asm                                                              PAGE   87

    3992 0000039e E203!         MOV32     @$BLOCKED(||BTS_ctrl_cv_ch3||),R0H ; [CPU_FPU] |289| 
         0000039f 0000 
    3993                      .dwpsn  file "../bts.c",line 292,column 5,is_stmt,isa 0
    3994 000003a0 E805          MOVIZ     R0H,#49142            ; [CPU_FPU] |292| 
         000003a1 FFB0 
    3995 000003a2 E80A          MOVXI     R0H,#21415            ; [CPU_FPU] |292| 
         000003a3 9D38 
    3996                      .dwpsn  file "../bts.c",line 290,column 5,is_stmt,isa 0
    3997 000003a4 E203!         MOV32     @$BLOCKED(||BTS_ctrl_cv_ch3||)+2,R2H ; [CPU_FPU] |290| 
         000003a5 0202 
    3998                      .dwpsn  file "../bts.c",line 293,column 5,is_stmt,isa 0
    3999 000003a6 E801          MOVIZ     R2H,#16236            ; [CPU_FPU] |293| 
         000003a7 FB62 
    4000 000003a8 E80D          MOVXI     R2H,#42831            ; [CPU_FPU] |293| 
         000003a9 3A7A 
    4001                      .dwpsn  file "../bts.c",line 291,column 5,is_stmt,isa 0
    4002 000003aa E203!         MOV32     @$BLOCKED(||BTS_ctrl_cv_ch3||)+4,R1H ; [CPU_FPU] |291| 
         000003ab 0104 
    4003                      .dwpsn  file "../bts.c",line 299,column 5,is_stmt,isa 0
    4004 000003ac E801          MOVIZ     R1H,#15628            ; [CPU_FPU] |299| 
         000003ad E861 
    4005 000003ae E80B          MOVXI     R1H,#31105            ; [CPU_FPU] |299| 
         000003af CC09 
    4006                      .dwpsn  file "../bts.c",line 292,column 5,is_stmt,isa 0
    4007 000003b0 E203!         MOV32     @$BLOCKED(||BTS_ctrl_cv_ch3||)+6,R0H ; [CPU_FPU] |292| 
         000003b1 0006 
    4008                      .dwpsn  file "../bts.c",line 300,column 5,is_stmt,isa 0
    4009 000003b2 E805          MOVIZ     R0H,#48506            ; [CPU_FPU] |300| 
         000003b3 EBD0 
    4010 000003b4 E80B          MOVXI     R0H,#27704            ; [CPU_FPU] |300| 
         000003b5 61C0 
    4011                      .dwpsn  file "../bts.c",line 293,column 5,is_stmt,isa 0
    4012 000003b6 E203!         MOV32     @$BLOCKED(||BTS_ctrl_cv_ch3||)+8,R2H ; [CPU_FPU] |293| 
         000003b7 0208 
    4013                      .dwpsn  file "../bts.c",line 301,column 5,is_stmt,isa 0
    4014 000003b8 E801          MOVIZ     R2H,#15581            ; [CPU_FPU] |301| 
         000003b9 E6EA 
    4015 000003ba 761F!         MOVW      DP,#||BTS_ctrl_cc_ch4|| ; [CPU_ARAU] 
         000003bb 0000 
    4016 000003bc E80E          MOVXI     R2H,#54450            ; [CPU_FPU] |301| 
         000003bd A592 
    4017                      .dwpsn  file "../bts.c",line 299,column 5,is_stmt,isa 0
    4018 000003be E203!         MOV32     @$BLOCKED(||BTS_ctrl_cc_ch4||),R1H ; [CPU_FPU] |299| 
         000003bf 0100 
    4019                      .dwpsn  file "../bts.c",line 302,column 5,is_stmt,isa 0
    4020 000003c0 E805          MOVIZ     R1H,#49142            ; [CPU_FPU] |302| 
         000003c1 FFB1 
    4021 000003c2 E80A          MOVXI     R1H,#21415            ; [CPU_FPU] |302| 
         000003c3 9D39 
    4022                      .dwpsn  file "../bts.c",line 300,column 5,is_stmt,isa 0
    4023 000003c4 E203!         MOV32     @$BLOCKED(||BTS_ctrl_cc_ch4||)+2,R0H ; [CPU_FPU] |300| 
         000003c5 0002 
    4024                      .dwpsn  file "../bts.c",line 303,column 5,is_stmt,isa 0
    4025 000003c6 E801          MOVIZ     R0H,#16236            ; [CPU_FPU] |303| 
         000003c7 FB60 
TMS320C2000 Assembler PC v20.2.4 Mon Jan 11 05:48:47 2021

Copyright (c) 1996-2018 Texas Instruments Incorporated
bts.asm                                                              PAGE   88

    4026 000003c8 E80D          MOVXI     R0H,#42830            ; [CPU_FPU] |303| 
         000003c9 3A70 
    4027                      .dwpsn  file "../bts.c",line 301,column 5,is_stmt,isa 0
    4028 000003ca E203!         MOV32     @$BLOCKED(||BTS_ctrl_cc_ch4||)+4,R2H ; [CPU_FPU] |301| 
         000003cb 0204 
    4029                      .dwpsn  file "../bts.c",line 307,column 5,is_stmt,isa 0
    4030 000003cc E801          MOVIZ     R2H,#16266            ; [CPU_FPU] |307| 
         000003cd FC52 
    4031 000003ce E80D          MOVXI     R2H,#42223            ; [CPU_FPU] |307| 
         000003cf 277A 
    4032                      .dwpsn  file "../bts.c",line 302,column 5,is_stmt,isa 0
    4033 000003d0 E203!         MOV32     @$BLOCKED(||BTS_ctrl_cc_ch4||)+6,R1H ; [CPU_FPU] |302| 
         000003d1 0106 
    4034                      .dwpsn  file "../bts.c",line 308,column 5,is_stmt,isa 0
    4035 000003d2 E805          MOVIZ     R1H,#49142            ; [CPU_FPU] |308| 
         000003d3 FFB1 
    4036 000003d4 E80A          MOVXI     R1H,#21415            ; [CPU_FPU] |308| 
         000003d5 9D39 
    4037                      .dwpsn  file "../bts.c",line 303,column 5,is_stmt,isa 0
    4038 000003d6 E203!         MOV32     @$BLOCKED(||BTS_ctrl_cc_ch4||)+8,R0H ; [CPU_FPU] |303| 
         000003d7 0008 
    4039                      .dwpsn  file "../bts.c",line 309,column 5,is_stmt,isa 0
    4040 000003d8 E801          MOVIZ     R0H,#16236            ; [CPU_FPU] |309| 
         000003d9 FB60 
    4041 000003da 761F!         MOVW      DP,#||BTS_ctrl_cv_ch4|| ; [CPU_ARAU] 
         000003db 0000 
    4042 000003dc E80D          MOVXI     R0H,#42831            ; [CPU_FPU] |309| 
         000003dd 3A78 
    4043                      .dwpsn  file "../bts.c",line 305,column 5,is_stmt,isa 0
    4044 000003de E203!         MOV32     @$BLOCKED(||BTS_ctrl_cv_ch4||),R4H ; [CPU_FPU] |305| 
         000003df 0400 
    4045                      .dwpsn  file "../bts.c",line 306,column 5,is_stmt,isa 0
    4046 000003e0 E203!         MOV32     @$BLOCKED(||BTS_ctrl_cv_ch4||)+2,R3H ; [CPU_FPU] |306| 
         000003e1 0302 
    4047 000003e2 E2AF          MOV32     R4H,*--SP             ; [CPU_FPU] 
         000003e3 04BE 
    4048                      .dwcfi  cfa_offset, -2
    4049                      .dwcfi  restore_reg, 59
    4050                      .dwpsn  file "../bts.c",line 307,column 5,is_stmt,isa 0
    4051 000003e4 E203!         MOV32     @$BLOCKED(||BTS_ctrl_cv_ch4||)+4,R2H ; [CPU_FPU] |307| 
         000003e5 0204 
    4052                      .dwpsn  file "../bts.c",line 308,column 5,is_stmt,isa 0
    4053 000003e6 E203!         MOV32     @$BLOCKED(||BTS_ctrl_cv_ch4||)+6,R1H ; [CPU_FPU] |308| 
         000003e7 0106 
    4054                      .dwpsn  file "../bts.c",line 309,column 5,is_stmt,isa 0
    4055 000003e8 E203!         MOV32     @$BLOCKED(||BTS_ctrl_cv_ch4||)+8,R0H ; [CPU_FPU] |309| 
         000003e9 0008 
    4056              $C$DW$165       .dwtag  DW_TAG_TI_branch
    4057                      .dwattr $C$DW$165, DW_AT_low_pc(0x00)
    4058                      .dwattr $C$DW$165, DW_AT_TI_return
    4059              
    4060 000003ea 0006          LRETR     ; [CPU_ALU] 
    4061                      ; return occurs ; [] 
    4062                      .dwattr $C$DW$164, DW_AT_TI_end_file("../bts.c")
    4063                      .dwattr $C$DW$164, DW_AT_TI_end_line(0x137)
TMS320C2000 Assembler PC v20.2.4 Mon Jan 11 05:48:47 2021

Copyright (c) 1996-2018 Texas Instruments Incorporated
bts.asm                                                              PAGE   89

    4064                      .dwattr $C$DW$164, DW_AT_TI_end_column(0x01)
    4065                      .dwendentry
    4066                      .dwendtag $C$DW$164
    4067              
    4068              ;**************************************************************
    4069              ;* UNDEFINED EXTERNAL REFERENCES                              *
    4070              ;**************************************************************
    4071                      .global ||SFO||
    4072                      .global ||__c28xabi_cmpull||
    4073              ;**************************************************************
    4074              ;* SECTION GROUPS                                             *
    4075              ;**************************************************************
    4076                      .group    "__fpclassify", 1
    4077                      .gmember  ".text:__fpclassify"
    4078                      .endgroup
    4079                      .group    "__fpclassifyf", 1
    4080                      .gmember  ".text:__fpclassifyf"
    4081                      .endgroup
    4082                      .group    "__fpclassifyl", 1
    4083                      .gmember  ".text:__fpclassifyl"
    4084                      .endgroup
    4085                      .group    "__isfinite", 1
    4086                      .gmember  ".text:__isfinite"
    4087                      .endgroup
    4088                      .group    "__isfinitef", 1
    4089                      .gmember  ".text:__isfinitef"
    4090                      .endgroup
    4091                      .group    "__isfinitel", 1
    4092                      .gmember  ".text:__isfinitel"
    4093                      .endgroup
    4094                      .group    "__isinf", 1
    4095                      .gmember  ".text:__isinf"
    4096                      .endgroup
    4097                      .group    "__isinff", 1
    4098                      .gmember  ".text:__isinff"
    4099                      .endgroup
    4100                      .group    "__isinfl", 1
    4101                      .gmember  ".text:__isinfl"
    4102                      .endgroup
    4103                      .group    "__isnan", 1
    4104                      .gmember  ".text:__isnan"
    4105                      .endgroup
    4106                      .group    "__isnanf", 1
    4107                      .gmember  ".text:__isnanf"
    4108                      .endgroup
    4109                      .group    "__isnanl", 1
    4110                      .gmember  ".text:__isnanl"
    4111                      .endgroup
    4112                      .group    "__isnormal", 1
    4113                      .gmember  ".text:__isnormal"
    4114                      .endgroup
    4115                      .group    "__isnormalf", 1
    4116                      .gmember  ".text:__isnormalf"
    4117                      .endgroup
    4118                      .group    "__isnormall", 1
TMS320C2000 Assembler PC v20.2.4 Mon Jan 11 05:48:47 2021

Copyright (c) 1996-2018 Texas Instruments Incorporated
bts.asm                                                              PAGE   90

    4119                      .gmember  ".text:__isnormall"
    4120                      .endgroup
    4121                      .group    "__relaxed_atan2f", 1
    4122                      .gmember  ".text:__relaxed_atan2f"
    4123                      .endgroup
    4124                      .group    "__relaxed_atanf", 1
    4125                      .gmember  ".text:__relaxed_atanf"
    4126                      .endgroup
    4127                      .group    "__relaxed_cosf", 1
    4128                      .gmember  ".text:__relaxed_cosf"
    4129                      .endgroup
    4130                      .group    "__relaxed_sinf", 1
    4131                      .gmember  ".text:__relaxed_sinf"
    4132                      .endgroup
    4133                      .group    "__relaxed_sqrtf", 1
    4134                      .gmember  ".text:__relaxed_sqrtf"
    4135                      .endgroup
    4136                      .group    "__signbit", 1
    4137                      .gmember  ".text:__signbit"
    4138                      .endgroup
    4139                      .group    "__signbitf", 1
    4140                      .gmember  ".text:__signbitf"
    4141                      .endgroup
    4142                      .group    "__signbitl", 1
    4143                      .gmember  ".text:__signbitl"
    4144                      .endgroup
    4145              
    4146              
    4147              ;***************************************************************
    4148              ;* BUILD ATTRIBUTES                                            *
    4149              ;***************************************************************
    4150                      .battr "c28xabi", Tag_File, 1, Tag_float_args(1)
    4151                      .battr "c28xabi", Tag_File, 1, Tag_double_args(1)
    4152                      .dwattr $C$DW$CU, DW_AT_language(DW_LANG_C)
    4153              
    4154              ;***************************************************************
    4155              ;* DWARF CIE ENTRIES                                           *
    4156              ;***************************************************************
    4157              
    4158              $C$DW$CIE       .dwcie 26
    4159                      .dwcfi  cfa_register, 20
    4160                      .dwcfi  cfa_offset, 0
    4161                      .dwcfi  same_value, 28
    4162                      .dwcfi  same_value, 6
    4163                      .dwcfi  same_value, 7
    4164                      .dwcfi  same_value, 8
    4165                      .dwcfi  same_value, 9
    4166                      .dwcfi  same_value, 10
    4167                      .dwcfi  same_value, 11
    4168                      .dwcfi  same_value, 59
    4169                      .dwcfi  same_value, 63
    4170                      .dwcfi  same_value, 67
    4171                      .dwcfi  same_value, 71
    4172                      .dwendentry
    4173                      .dwendtag $C$DW$CU
TMS320C2000 Assembler PC v20.2.4 Mon Jan 11 05:48:47 2021

Copyright (c) 1996-2018 Texas Instruments Incorporated
bts.asm                                                              PAGE   91

    4174              
    4175              
    4176              ;***************************************************************
    4177              ;* TYPE INFORMATION                                            *
    4178              ;***************************************************************
    4179              
    4180              $C$DW$TU$24     .dwtag  DW_TAG_type_unit
    4181                      .dwmtype  $C$DW$T$24
    4182              
    4183              $C$DW$T$24      .dwtag  DW_TAG_structure_type
    4184                      .dwattr $C$DW$T$24, DW_AT_byte_size(0x1e)
    4185              $C$DW$166       .dwtag  DW_TAG_member
    4186                      .dwattr $C$DW$166, DW_AT_type(*$C$DW$T$20)
    4187                      .dwattr $C$DW$166, DW_AT_name("iref_A")
    4188                      .dwattr $C$DW$166, DW_AT_accessibility(DW_ACCESS_public)
    4189                      .dwattr $C$DW$166, DW_AT_decl_file("C:/sandbox/github/Lion-IRVT/Hardware/source/tida-010086/bts_F2837
    4190                      .dwattr $C$DW$166, DW_AT_decl_line(0x74)
    4191                      .dwattr $C$DW$166, DW_AT_decl_column(0x18)
    4192              
    4193              $C$DW$167       .dwtag  DW_TAG_member
    4194                      .dwattr $C$DW$167, DW_AT_type(*$C$DW$T$20)
    4195                      .dwattr $C$DW$167, DW_AT_name("vref_charge_V")
    4196                      .dwattr $C$DW$167, DW_AT_data_member_location[DW_OP_plus_uconst 0x2]
    4197                      .dwattr $C$DW$167, DW_AT_accessibility(DW_ACCESS_public)
    4198                      .dwattr $C$DW$167, DW_AT_decl_file("C:/sandbox/github/Lion-IRVT/Hardware/source/tida-010086/bts_F2837
    4199                      .dwattr $C$DW$167, DW_AT_decl_line(0x75)
    4200                      .dwattr $C$DW$167, DW_AT_decl_column(0x18)
    4201              
    4202              $C$DW$168       .dwtag  DW_TAG_member
    4203                      .dwattr $C$DW$168, DW_AT_type(*$C$DW$T$20)
    4204                      .dwattr $C$DW$168, DW_AT_name("vref_discharge_V")
    4205                      .dwattr $C$DW$168, DW_AT_data_member_location[DW_OP_plus_uconst 0x4]
    4206                      .dwattr $C$DW$168, DW_AT_accessibility(DW_ACCESS_public)
    4207                      .dwattr $C$DW$168, DW_AT_decl_file("C:/sandbox/github/Lion-IRVT/Hardware/source/tida-010086/bts_F2837
    4208                      .dwattr $C$DW$168, DW_AT_decl_line(0x76)
    4209                      .dwattr $C$DW$168, DW_AT_decl_column(0x18)
    4210              
    4211              $C$DW$169       .dwtag  DW_TAG_member
    4212                      .dwattr $C$DW$169, DW_AT_type(*$C$DW$T$23)
    4213                      .dwattr $C$DW$169, DW_AT_name("direction_logic")
    4214                      .dwattr $C$DW$169, DW_AT_data_member_location[DW_OP_plus_uconst 0x6]
    4215                      .dwattr $C$DW$169, DW_AT_accessibility(DW_ACCESS_public)
    4216                      .dwattr $C$DW$169, DW_AT_decl_file("C:/sandbox/github/Lion-IRVT/Hardware/source/tida-010086/bts_F2837
    4217                      .dwattr $C$DW$169, DW_AT_decl_line(0x77)
    4218                      .dwattr $C$DW$169, DW_AT_decl_column(0x17)
    4219              
    4220              $C$DW$170       .dwtag  DW_TAG_member
    4221                      .dwattr $C$DW$170, DW_AT_type(*$C$DW$T$23)
    4222                      .dwattr $C$DW$170, DW_AT_name("enable_logic")
    4223                      .dwattr $C$DW$170, DW_AT_data_member_location[DW_OP_plus_uconst 0x7]
    4224                      .dwattr $C$DW$170, DW_AT_accessibility(DW_ACCESS_public)
    4225                      .dwattr $C$DW$170, DW_AT_decl_file("C:/sandbox/github/Lion-IRVT/Hardware/source/tida-010086/bts_F2837
    4226                      .dwattr $C$DW$170, DW_AT_decl_line(0x78)
    4227                      .dwattr $C$DW$170, DW_AT_decl_column(0x17)
    4228              
TMS320C2000 Assembler PC v20.2.4 Mon Jan 11 05:48:47 2021

Copyright (c) 1996-2018 Texas Instruments Incorporated
bts.asm                                                              PAGE   92

    4229              $C$DW$171       .dwtag  DW_TAG_member
    4230                      .dwattr $C$DW$171, DW_AT_type(*$C$DW$T$20)
    4231                      .dwattr $C$DW$171, DW_AT_name("dutyRef_pu")
    4232                      .dwattr $C$DW$171, DW_AT_data_member_location[DW_OP_plus_uconst 0x8]
    4233                      .dwattr $C$DW$171, DW_AT_accessibility(DW_ACCESS_public)
    4234                      .dwattr $C$DW$171, DW_AT_decl_file("C:/sandbox/github/Lion-IRVT/Hardware/source/tida-010086/bts_F2837
    4235                      .dwattr $C$DW$171, DW_AT_decl_line(0x79)
    4236                      .dwattr $C$DW$171, DW_AT_decl_column(0x18)
    4237              
    4238              $C$DW$172       .dwtag  DW_TAG_member
    4239                      .dwattr $C$DW$172, DW_AT_type(*$C$DW$T$20)
    4240                      .dwattr $C$DW$172, DW_AT_name("ioutCal_pu")
    4241                      .dwattr $C$DW$172, DW_AT_data_member_location[DW_OP_plus_uconst 0xa]
    4242                      .dwattr $C$DW$172, DW_AT_accessibility(DW_ACCESS_public)
    4243                      .dwattr $C$DW$172, DW_AT_decl_file("C:/sandbox/github/Lion-IRVT/Hardware/source/tida-010086/bts_F2837
    4244                      .dwattr $C$DW$172, DW_AT_decl_line(0x7a)
    4245                      .dwattr $C$DW$172, DW_AT_decl_column(0x18)
    4246              
    4247              $C$DW$173       .dwtag  DW_TAG_member
    4248                      .dwattr $C$DW$173, DW_AT_type(*$C$DW$T$20)
    4249                      .dwattr $C$DW$173, DW_AT_name("voutCal_pu")
    4250                      .dwattr $C$DW$173, DW_AT_data_member_location[DW_OP_plus_uconst 0xc]
    4251                      .dwattr $C$DW$173, DW_AT_accessibility(DW_ACCESS_public)
    4252                      .dwattr $C$DW$173, DW_AT_decl_file("C:/sandbox/github/Lion-IRVT/Hardware/source/tida-010086/bts_F2837
    4253                      .dwattr $C$DW$173, DW_AT_decl_line(0x7b)
    4254                      .dwattr $C$DW$173, DW_AT_decl_column(0x18)
    4255              
    4256              $C$DW$174       .dwtag  DW_TAG_member
    4257                      .dwattr $C$DW$174, DW_AT_type(*$C$DW$T$19)
    4258                      .dwattr $C$DW$174, DW_AT_name("IoutGain_pu")
    4259                      .dwattr $C$DW$174, DW_AT_data_member_location[DW_OP_plus_uconst 0xe]
    4260                      .dwattr $C$DW$174, DW_AT_accessibility(DW_ACCESS_public)
    4261                      .dwattr $C$DW$174, DW_AT_decl_file("C:/sandbox/github/Lion-IRVT/Hardware/source/tida-010086/bts_F2837
    4262                      .dwattr $C$DW$174, DW_AT_decl_line(0x7d)
    4263                      .dwattr $C$DW$174, DW_AT_decl_column(0x0f)
    4264              
    4265              $C$DW$175       .dwtag  DW_TAG_member
    4266                      .dwattr $C$DW$175, DW_AT_type(*$C$DW$T$19)
    4267                      .dwattr $C$DW$175, DW_AT_name("IoutOffset_pu")
    4268                      .dwattr $C$DW$175, DW_AT_data_member_location[DW_OP_plus_uconst 0x10]
    4269                      .dwattr $C$DW$175, DW_AT_accessibility(DW_ACCESS_public)
    4270                      .dwattr $C$DW$175, DW_AT_decl_file("C:/sandbox/github/Lion-IRVT/Hardware/source/tida-010086/bts_F2837
    4271                      .dwattr $C$DW$175, DW_AT_decl_line(0x7e)
    4272                      .dwattr $C$DW$175, DW_AT_decl_column(0x0f)
    4273              
    4274              $C$DW$176       .dwtag  DW_TAG_member
    4275                      .dwattr $C$DW$176, DW_AT_type(*$C$DW$T$19)
    4276                      .dwattr $C$DW$176, DW_AT_name("IoutGain_A")
    4277                      .dwattr $C$DW$176, DW_AT_data_member_location[DW_OP_plus_uconst 0x12]
    4278                      .dwattr $C$DW$176, DW_AT_accessibility(DW_ACCESS_public)
    4279                      .dwattr $C$DW$176, DW_AT_decl_file("C:/sandbox/github/Lion-IRVT/Hardware/source/tida-010086/bts_F2837
    4280                      .dwattr $C$DW$176, DW_AT_decl_line(0x7f)
    4281                      .dwattr $C$DW$176, DW_AT_decl_column(0x0f)
    4282              
    4283              $C$DW$177       .dwtag  DW_TAG_member
TMS320C2000 Assembler PC v20.2.4 Mon Jan 11 05:48:47 2021

Copyright (c) 1996-2018 Texas Instruments Incorporated
bts.asm                                                              PAGE   93

    4284                      .dwattr $C$DW$177, DW_AT_type(*$C$DW$T$19)
    4285                      .dwattr $C$DW$177, DW_AT_name("IoutOffset_A")
    4286                      .dwattr $C$DW$177, DW_AT_data_member_location[DW_OP_plus_uconst 0x14]
    4287                      .dwattr $C$DW$177, DW_AT_accessibility(DW_ACCESS_public)
    4288                      .dwattr $C$DW$177, DW_AT_decl_file("C:/sandbox/github/Lion-IRVT/Hardware/source/tida-010086/bts_F2837
    4289                      .dwattr $C$DW$177, DW_AT_decl_line(0x80)
    4290                      .dwattr $C$DW$177, DW_AT_decl_column(0x0f)
    4291              
    4292              $C$DW$178       .dwtag  DW_TAG_member
    4293                      .dwattr $C$DW$178, DW_AT_type(*$C$DW$T$19)
    4294                      .dwattr $C$DW$178, DW_AT_name("VoutGain_pu")
    4295                      .dwattr $C$DW$178, DW_AT_data_member_location[DW_OP_plus_uconst 0x16]
    4296                      .dwattr $C$DW$178, DW_AT_accessibility(DW_ACCESS_public)
    4297                      .dwattr $C$DW$178, DW_AT_decl_file("C:/sandbox/github/Lion-IRVT/Hardware/source/tida-010086/bts_F2837
    4298                      .dwattr $C$DW$178, DW_AT_decl_line(0x82)
    4299                      .dwattr $C$DW$178, DW_AT_decl_column(0x0f)
    4300              
    4301              $C$DW$179       .dwtag  DW_TAG_member
    4302                      .dwattr $C$DW$179, DW_AT_type(*$C$DW$T$19)
    4303                      .dwattr $C$DW$179, DW_AT_name("VoutOffset_pu")
    4304                      .dwattr $C$DW$179, DW_AT_data_member_location[DW_OP_plus_uconst 0x18]
    4305                      .dwattr $C$DW$179, DW_AT_accessibility(DW_ACCESS_public)
    4306                      .dwattr $C$DW$179, DW_AT_decl_file("C:/sandbox/github/Lion-IRVT/Hardware/source/tida-010086/bts_F2837
    4307                      .dwattr $C$DW$179, DW_AT_decl_line(0x83)
    4308                      .dwattr $C$DW$179, DW_AT_decl_column(0x0f)
    4309              
    4310              $C$DW$180       .dwtag  DW_TAG_member
    4311                      .dwattr $C$DW$180, DW_AT_type(*$C$DW$T$19)
    4312                      .dwattr $C$DW$180, DW_AT_name("VoutGain_V")
    4313                      .dwattr $C$DW$180, DW_AT_data_member_location[DW_OP_plus_uconst 0x1a]
    4314                      .dwattr $C$DW$180, DW_AT_accessibility(DW_ACCESS_public)
    4315                      .dwattr $C$DW$180, DW_AT_decl_file("C:/sandbox/github/Lion-IRVT/Hardware/source/tida-010086/bts_F2837
    4316                      .dwattr $C$DW$180, DW_AT_decl_line(0x84)
    4317                      .dwattr $C$DW$180, DW_AT_decl_column(0x0f)
    4318              
    4319              $C$DW$181       .dwtag  DW_TAG_member
    4320                      .dwattr $C$DW$181, DW_AT_type(*$C$DW$T$19)
    4321                      .dwattr $C$DW$181, DW_AT_name("VoutOffset_V")
    4322                      .dwattr $C$DW$181, DW_AT_data_member_location[DW_OP_plus_uconst 0x1c]
    4323                      .dwattr $C$DW$181, DW_AT_accessibility(DW_ACCESS_public)
    4324                      .dwattr $C$DW$181, DW_AT_decl_file("C:/sandbox/github/Lion-IRVT/Hardware/source/tida-010086/bts_F2837
    4325                      .dwattr $C$DW$181, DW_AT_decl_line(0x85)
    4326                      .dwattr $C$DW$181, DW_AT_decl_column(0x0f)
    4327              
    4328                      .dwattr $C$DW$T$24, DW_AT_decl_file("C:/sandbox/github/Lion-IRVT/Hardware/source/tida-010086/bts_F283
    4329                      .dwattr $C$DW$T$24, DW_AT_decl_line(0x73)
    4330                      .dwattr $C$DW$T$24, DW_AT_decl_column(0x01)
    4331                      .dwendtag $C$DW$T$24
    4332              
    4333                      .dwendtag $C$DW$TU$24
    4334              
    4335              
    4336              $C$DW$TU$49     .dwtag  DW_TAG_type_unit
    4337                      .dwmtype  $C$DW$T$49
    4338              $C$DW$T$49      .dwtag  DW_TAG_typedef
TMS320C2000 Assembler PC v20.2.4 Mon Jan 11 05:48:47 2021

Copyright (c) 1996-2018 Texas Instruments Incorporated
bts.asm                                                              PAGE   94

    4339                      .dwattr $C$DW$T$49, DW_AT_name("BTS_userInput")
    4340                      .dwattr $C$DW$T$49, DW_AT_type(*$C$DW$T$24)
    4341                      .dwattr $C$DW$T$49, DW_AT_decl_file("C:/sandbox/github/Lion-IRVT/Hardware/source/tida-010086/bts_F283
    4342                      .dwattr $C$DW$T$49, DW_AT_decl_line(0x87)
    4343                      .dwattr $C$DW$T$49, DW_AT_decl_column(0x02)
    4344              
    4345                      .dwendtag $C$DW$TU$49
    4346              
    4347              
    4348              $C$DW$TU$50     .dwtag  DW_TAG_type_unit
    4349                      .dwmtype  $C$DW$T$50
    4350              $C$DW$T$50      .dwtag  DW_TAG_pointer_type
    4351                      .dwattr $C$DW$T$50, DW_AT_type(*$C$DW$T$49)
    4352                      .dwattr $C$DW$T$50, DW_AT_address_class(0x20)
    4353              
    4354                      .dwendtag $C$DW$TU$50
    4355              
    4356              
    4357              $C$DW$TU$51     .dwtag  DW_TAG_type_unit
    4358                      .dwmtype  $C$DW$T$51
    4359              $C$DW$182       .dwtag  DW_TAG_TI_far_type
    4360                      .dwattr $C$DW$182, DW_AT_type(*$C$DW$T$50)
    4361              
    4362              $C$DW$T$51      .dwtag  DW_TAG_const_type
    4363                      .dwattr $C$DW$T$51, DW_AT_type(*$C$DW$182)
    4364              
    4365                      .dwendtag $C$DW$TU$51
    4366              
    4367              
    4368              $C$DW$TU$27     .dwtag  DW_TAG_type_unit
    4369                      .dwmtype  $C$DW$T$27
    4370              
    4371              $C$DW$T$27      .dwtag  DW_TAG_structure_type
    4372                      .dwattr $C$DW$T$27, DW_AT_byte_size(0x24)
    4373              $C$DW$183       .dwtag  DW_TAG_member
    4374                      .dwattr $C$DW$183, DW_AT_type(*$C$DW$T$19)
    4375                      .dwattr $C$DW$183, DW_AT_name("dutySet_pu")
    4376                      .dwattr $C$DW$183, DW_AT_accessibility(DW_ACCESS_public)
    4377                      .dwattr $C$DW$183, DW_AT_decl_file("C:/sandbox/github/Lion-IRVT/Hardware/source/tida-010086/bts_F2837
    4378                      .dwattr $C$DW$183, DW_AT_decl_line(0x90)
    4379                      .dwattr $C$DW$183, DW_AT_decl_column(0x0f)
    4380              
    4381              $C$DW$184       .dwtag  DW_TAG_member
    4382                      .dwattr $C$DW$184, DW_AT_type(*$C$DW$T$19)
    4383                      .dwattr $C$DW$184, DW_AT_name("dutySetRef_pu")
    4384                      .dwattr $C$DW$184, DW_AT_data_member_location[DW_OP_plus_uconst 0x2]
    4385                      .dwattr $C$DW$184, DW_AT_accessibility(DW_ACCESS_public)
    4386                      .dwattr $C$DW$184, DW_AT_decl_file("C:/sandbox/github/Lion-IRVT/Hardware/source/tida-010086/bts_F2837
    4387                      .dwattr $C$DW$184, DW_AT_decl_line(0x91)
    4388                      .dwattr $C$DW$184, DW_AT_decl_column(0x0f)
    4389              
    4390              $C$DW$185       .dwtag  DW_TAG_member
    4391                      .dwattr $C$DW$185, DW_AT_type(*$C$DW$T$19)
    4392                      .dwattr $C$DW$185, DW_AT_name("ioutRef_pu")
    4393                      .dwattr $C$DW$185, DW_AT_data_member_location[DW_OP_plus_uconst 0x4]
TMS320C2000 Assembler PC v20.2.4 Mon Jan 11 05:48:47 2021

Copyright (c) 1996-2018 Texas Instruments Incorporated
bts.asm                                                              PAGE   95

    4394                      .dwattr $C$DW$185, DW_AT_accessibility(DW_ACCESS_public)
    4395                      .dwattr $C$DW$185, DW_AT_decl_file("C:/sandbox/github/Lion-IRVT/Hardware/source/tida-010086/bts_F2837
    4396                      .dwattr $C$DW$185, DW_AT_decl_line(0x93)
    4397                      .dwattr $C$DW$185, DW_AT_decl_column(0x0f)
    4398              
    4399              $C$DW$186       .dwtag  DW_TAG_member
    4400                      .dwattr $C$DW$186, DW_AT_type(*$C$DW$T$19)
    4401                      .dwattr $C$DW$186, DW_AT_name("ioutSet_pu")
    4402                      .dwattr $C$DW$186, DW_AT_data_member_location[DW_OP_plus_uconst 0x6]
    4403                      .dwattr $C$DW$186, DW_AT_accessibility(DW_ACCESS_public)
    4404                      .dwattr $C$DW$186, DW_AT_decl_file("C:/sandbox/github/Lion-IRVT/Hardware/source/tida-010086/bts_F2837
    4405                      .dwattr $C$DW$186, DW_AT_decl_line(0x94)
    4406                      .dwattr $C$DW$186, DW_AT_decl_column(0x0f)
    4407              
    4408              $C$DW$187       .dwtag  DW_TAG_member
    4409                      .dwattr $C$DW$187, DW_AT_type(*$C$DW$T$19)
    4410                      .dwattr $C$DW$187, DW_AT_name("ioutSense_pu")
    4411                      .dwattr $C$DW$187, DW_AT_data_member_location[DW_OP_plus_uconst 0x8]
    4412                      .dwattr $C$DW$187, DW_AT_accessibility(DW_ACCESS_public)
    4413                      .dwattr $C$DW$187, DW_AT_decl_file("C:/sandbox/github/Lion-IRVT/Hardware/source/tida-010086/bts_F2837
    4414                      .dwattr $C$DW$187, DW_AT_decl_line(0x95)
    4415                      .dwattr $C$DW$187, DW_AT_decl_column(0x0f)
    4416              
    4417              $C$DW$188       .dwtag  DW_TAG_member
    4418                      .dwattr $C$DW$188, DW_AT_type(*$C$DW$T$19)
    4419                      .dwattr $C$DW$188, DW_AT_name("voutRef_pu")
    4420                      .dwattr $C$DW$188, DW_AT_data_member_location[DW_OP_plus_uconst 0xa]
    4421                      .dwattr $C$DW$188, DW_AT_accessibility(DW_ACCESS_public)
    4422                      .dwattr $C$DW$188, DW_AT_decl_file("C:/sandbox/github/Lion-IRVT/Hardware/source/tida-010086/bts_F2837
    4423                      .dwattr $C$DW$188, DW_AT_decl_line(0x97)
    4424                      .dwattr $C$DW$188, DW_AT_decl_column(0x0f)
    4425              
    4426              $C$DW$189       .dwtag  DW_TAG_member
    4427                      .dwattr $C$DW$189, DW_AT_type(*$C$DW$T$19)
    4428                      .dwattr $C$DW$189, DW_AT_name("voutSet_pu")
    4429                      .dwattr $C$DW$189, DW_AT_data_member_location[DW_OP_plus_uconst 0xc]
    4430                      .dwattr $C$DW$189, DW_AT_accessibility(DW_ACCESS_public)
    4431                      .dwattr $C$DW$189, DW_AT_decl_file("C:/sandbox/github/Lion-IRVT/Hardware/source/tida-010086/bts_F2837
    4432                      .dwattr $C$DW$189, DW_AT_decl_line(0x98)
    4433                      .dwattr $C$DW$189, DW_AT_decl_column(0x0f)
    4434              
    4435              $C$DW$190       .dwtag  DW_TAG_member
    4436                      .dwattr $C$DW$190, DW_AT_type(*$C$DW$T$19)
    4437                      .dwattr $C$DW$190, DW_AT_name("voutSense_pu")
    4438                      .dwattr $C$DW$190, DW_AT_data_member_location[DW_OP_plus_uconst 0xe]
    4439                      .dwattr $C$DW$190, DW_AT_accessibility(DW_ACCESS_public)
    4440                      .dwattr $C$DW$190, DW_AT_decl_file("C:/sandbox/github/Lion-IRVT/Hardware/source/tida-010086/bts_F2837
    4441                      .dwattr $C$DW$190, DW_AT_decl_line(0x99)
    4442                      .dwattr $C$DW$190, DW_AT_decl_column(0x0f)
    4443              
    4444              $C$DW$191       .dwtag  DW_TAG_member
    4445                      .dwattr $C$DW$191, DW_AT_type(*$C$DW$T$19)
    4446                      .dwattr $C$DW$191, DW_AT_name("uk_cc_pu")
    4447                      .dwattr $C$DW$191, DW_AT_data_member_location[DW_OP_plus_uconst 0x10]
    4448                      .dwattr $C$DW$191, DW_AT_accessibility(DW_ACCESS_public)
TMS320C2000 Assembler PC v20.2.4 Mon Jan 11 05:48:47 2021

Copyright (c) 1996-2018 Texas Instruments Incorporated
bts.asm                                                              PAGE   96

    4449                      .dwattr $C$DW$191, DW_AT_decl_file("C:/sandbox/github/Lion-IRVT/Hardware/source/tida-010086/bts_F2837
    4450                      .dwattr $C$DW$191, DW_AT_decl_line(0x9b)
    4451                      .dwattr $C$DW$191, DW_AT_decl_column(0x0f)
    4452              
    4453              $C$DW$192       .dwtag  DW_TAG_member
    4454                      .dwattr $C$DW$192, DW_AT_type(*$C$DW$T$19)
    4455                      .dwattr $C$DW$192, DW_AT_name("ek_cc_pu")
    4456                      .dwattr $C$DW$192, DW_AT_data_member_location[DW_OP_plus_uconst 0x12]
    4457                      .dwattr $C$DW$192, DW_AT_accessibility(DW_ACCESS_public)
    4458                      .dwattr $C$DW$192, DW_AT_decl_file("C:/sandbox/github/Lion-IRVT/Hardware/source/tida-010086/bts_F2837
    4459                      .dwattr $C$DW$192, DW_AT_decl_line(0x9c)
    4460                      .dwattr $C$DW$192, DW_AT_decl_column(0x0f)
    4461              
    4462              $C$DW$193       .dwtag  DW_TAG_member
    4463                      .dwattr $C$DW$193, DW_AT_type(*$C$DW$T$19)
    4464                      .dwattr $C$DW$193, DW_AT_name("uk_cv_pu")
    4465                      .dwattr $C$DW$193, DW_AT_data_member_location[DW_OP_plus_uconst 0x14]
    4466                      .dwattr $C$DW$193, DW_AT_accessibility(DW_ACCESS_public)
    4467                      .dwattr $C$DW$193, DW_AT_decl_file("C:/sandbox/github/Lion-IRVT/Hardware/source/tida-010086/bts_F2837
    4468                      .dwattr $C$DW$193, DW_AT_decl_line(0x9d)
    4469                      .dwattr $C$DW$193, DW_AT_decl_column(0x0f)
    4470              
    4471              $C$DW$194       .dwtag  DW_TAG_member
    4472                      .dwattr $C$DW$194, DW_AT_type(*$C$DW$T$19)
    4473                      .dwattr $C$DW$194, DW_AT_name("ek_cv_pu")
    4474                      .dwattr $C$DW$194, DW_AT_data_member_location[DW_OP_plus_uconst 0x16]
    4475                      .dwattr $C$DW$194, DW_AT_accessibility(DW_ACCESS_public)
    4476                      .dwattr $C$DW$194, DW_AT_decl_file("C:/sandbox/github/Lion-IRVT/Hardware/source/tida-010086/bts_F2837
    4477                      .dwattr $C$DW$194, DW_AT_decl_line(0x9e)
    4478                      .dwattr $C$DW$194, DW_AT_decl_column(0x0f)
    4479              
    4480              $C$DW$195       .dwtag  DW_TAG_member
    4481                      .dwattr $C$DW$195, DW_AT_type(*$C$DW$T$19)
    4482                      .dwattr $C$DW$195, DW_AT_name("direction_coeff")
    4483                      .dwattr $C$DW$195, DW_AT_data_member_location[DW_OP_plus_uconst 0x18]
    4484                      .dwattr $C$DW$195, DW_AT_accessibility(DW_ACCESS_public)
    4485                      .dwattr $C$DW$195, DW_AT_decl_file("C:/sandbox/github/Lion-IRVT/Hardware/source/tida-010086/bts_F2837
    4486                      .dwattr $C$DW$195, DW_AT_decl_line(0x9f)
    4487                      .dwattr $C$DW$195, DW_AT_decl_column(0x0f)
    4488              
    4489              $C$DW$196       .dwtag  DW_TAG_member
    4490                      .dwattr $C$DW$196, DW_AT_type(*$C$DW$T$19)
    4491                      .dwattr $C$DW$196, DW_AT_name("dutyH_pu")
    4492                      .dwattr $C$DW$196, DW_AT_data_member_location[DW_OP_plus_uconst 0x1a]
    4493                      .dwattr $C$DW$196, DW_AT_accessibility(DW_ACCESS_public)
    4494                      .dwattr $C$DW$196, DW_AT_decl_file("C:/sandbox/github/Lion-IRVT/Hardware/source/tida-010086/bts_F2837
    4495                      .dwattr $C$DW$196, DW_AT_decl_line(0xa1)
    4496                      .dwattr $C$DW$196, DW_AT_decl_column(0x0f)
    4497              
    4498              $C$DW$197       .dwtag  DW_TAG_member
    4499                      .dwattr $C$DW$197, DW_AT_type(*$C$DW$T$19)
    4500                      .dwattr $C$DW$197, DW_AT_name("dutyL_pu")
    4501                      .dwattr $C$DW$197, DW_AT_data_member_location[DW_OP_plus_uconst 0x1c]
    4502                      .dwattr $C$DW$197, DW_AT_accessibility(DW_ACCESS_public)
    4503                      .dwattr $C$DW$197, DW_AT_decl_file("C:/sandbox/github/Lion-IRVT/Hardware/source/tida-010086/bts_F2837
TMS320C2000 Assembler PC v20.2.4 Mon Jan 11 05:48:47 2021

Copyright (c) 1996-2018 Texas Instruments Incorporated
bts.asm                                                              PAGE   97

    4504                      .dwattr $C$DW$197, DW_AT_decl_line(0xa2)
    4505                      .dwattr $C$DW$197, DW_AT_decl_column(0x0f)
    4506              
    4507              $C$DW$198       .dwtag  DW_TAG_member
    4508                      .dwattr $C$DW$198, DW_AT_type(*$C$DW$T$22)
    4509                      .dwattr $C$DW$198, DW_AT_name("ctrlMode_logic")
    4510                      .dwattr $C$DW$198, DW_AT_data_member_location[DW_OP_plus_uconst 0x1e]
    4511                      .dwattr $C$DW$198, DW_AT_accessibility(DW_ACCESS_public)
    4512                      .dwattr $C$DW$198, DW_AT_decl_file("C:/sandbox/github/Lion-IRVT/Hardware/source/tida-010086/bts_F2837
    4513                      .dwattr $C$DW$198, DW_AT_decl_line(0xa4)
    4514                      .dwattr $C$DW$198, DW_AT_decl_column(0x0e)
    4515              
    4516              $C$DW$199       .dwtag  DW_TAG_member
    4517                      .dwattr $C$DW$199, DW_AT_type(*$C$DW$T$22)
    4518                      .dwattr $C$DW$199, DW_AT_name("direction_logic")
    4519                      .dwattr $C$DW$199, DW_AT_data_member_location[DW_OP_plus_uconst 0x1f]
    4520                      .dwattr $C$DW$199, DW_AT_accessibility(DW_ACCESS_public)
    4521                      .dwattr $C$DW$199, DW_AT_decl_file("C:/sandbox/github/Lion-IRVT/Hardware/source/tida-010086/bts_F2837
    4522                      .dwattr $C$DW$199, DW_AT_decl_line(0xa5)
    4523                      .dwattr $C$DW$199, DW_AT_decl_column(0x0e)
    4524              
    4525              $C$DW$200       .dwtag  DW_TAG_member
    4526                      .dwattr $C$DW$200, DW_AT_type(*$C$DW$T$26)
    4527                      .dwattr $C$DW$200, DW_AT_name("ioutTrip_16b")
    4528                      .dwattr $C$DW$200, DW_AT_data_member_location[DW_OP_plus_uconst 0x20]
    4529                      .dwattr $C$DW$200, DW_AT_accessibility(DW_ACCESS_public)
    4530                      .dwattr $C$DW$200, DW_AT_decl_file("C:/sandbox/github/Lion-IRVT/Hardware/source/tida-010086/bts_F2837
    4531                      .dwattr $C$DW$200, DW_AT_decl_line(0xa7)
    4532                      .dwattr $C$DW$200, DW_AT_decl_column(0x0d)
    4533              
    4534              $C$DW$201       .dwtag  DW_TAG_member
    4535                      .dwattr $C$DW$201, DW_AT_type(*$C$DW$T$26)
    4536                      .dwattr $C$DW$201, DW_AT_name("ioutTrip_n_16b")
    4537                      .dwattr $C$DW$201, DW_AT_data_member_location[DW_OP_plus_uconst 0x21]
    4538                      .dwattr $C$DW$201, DW_AT_accessibility(DW_ACCESS_public)
    4539                      .dwattr $C$DW$201, DW_AT_decl_file("C:/sandbox/github/Lion-IRVT/Hardware/source/tida-010086/bts_F2837
    4540                      .dwattr $C$DW$201, DW_AT_decl_line(0xa8)
    4541                      .dwattr $C$DW$201, DW_AT_decl_column(0x0d)
    4542              
    4543              $C$DW$202       .dwtag  DW_TAG_member
    4544                      .dwattr $C$DW$202, DW_AT_type(*$C$DW$T$22)
    4545                      .dwattr $C$DW$202, DW_AT_name("tripFlag")
    4546                      .dwattr $C$DW$202, DW_AT_data_member_location[DW_OP_plus_uconst 0x22]
    4547                      .dwattr $C$DW$202, DW_AT_accessibility(DW_ACCESS_public)
    4548                      .dwattr $C$DW$202, DW_AT_decl_file("C:/sandbox/github/Lion-IRVT/Hardware/source/tida-010086/bts_F2837
    4549                      .dwattr $C$DW$202, DW_AT_decl_line(0xa9)
    4550                      .dwattr $C$DW$202, DW_AT_decl_column(0x0e)
    4551              
    4552                      .dwattr $C$DW$T$27, DW_AT_decl_file("C:/sandbox/github/Lion-IRVT/Hardware/source/tida-010086/bts_F283
    4553                      .dwattr $C$DW$T$27, DW_AT_decl_line(0x8f)
    4554                      .dwattr $C$DW$T$27, DW_AT_decl_column(0x01)
    4555                      .dwendtag $C$DW$T$27
    4556              
    4557                      .dwendtag $C$DW$TU$27
    4558              
TMS320C2000 Assembler PC v20.2.4 Mon Jan 11 05:48:47 2021

Copyright (c) 1996-2018 Texas Instruments Incorporated
bts.asm                                                              PAGE   98

    4559              
    4560              $C$DW$TU$54     .dwtag  DW_TAG_type_unit
    4561                      .dwmtype  $C$DW$T$54
    4562              $C$DW$T$54      .dwtag  DW_TAG_typedef
    4563                      .dwattr $C$DW$T$54, DW_AT_name("BTS_ctrlLoopVariable")
    4564                      .dwattr $C$DW$T$54, DW_AT_type(*$C$DW$T$27)
    4565                      .dwattr $C$DW$T$54, DW_AT_decl_file("C:/sandbox/github/Lion-IRVT/Hardware/source/tida-010086/bts_F283
    4566                      .dwattr $C$DW$T$54, DW_AT_decl_line(0xab)
    4567                      .dwattr $C$DW$T$54, DW_AT_decl_column(0x02)
    4568              
    4569                      .dwendtag $C$DW$TU$54
    4570              
    4571              
    4572              $C$DW$TU$55     .dwtag  DW_TAG_type_unit
    4573                      .dwmtype  $C$DW$T$55
    4574              $C$DW$T$55      .dwtag  DW_TAG_pointer_type
    4575                      .dwattr $C$DW$T$55, DW_AT_type(*$C$DW$T$54)
    4576                      .dwattr $C$DW$T$55, DW_AT_address_class(0x20)
    4577              
    4578                      .dwendtag $C$DW$TU$55
    4579              
    4580              
    4581              $C$DW$TU$56     .dwtag  DW_TAG_type_unit
    4582                      .dwmtype  $C$DW$T$56
    4583              $C$DW$203       .dwtag  DW_TAG_TI_far_type
    4584                      .dwattr $C$DW$203, DW_AT_type(*$C$DW$T$55)
    4585              
    4586              $C$DW$T$56      .dwtag  DW_TAG_const_type
    4587                      .dwattr $C$DW$T$56, DW_AT_type(*$C$DW$203)
    4588              
    4589                      .dwendtag $C$DW$TU$56
    4590              
    4591              
    4592              $C$DW$TU$31     .dwtag  DW_TAG_type_unit
    4593                      .dwmtype  $C$DW$T$31
    4594              
    4595              $C$DW$T$31      .dwtag  DW_TAG_structure_type
    4596                      .dwattr $C$DW$T$31, DW_AT_byte_size(0x52)
    4597              $C$DW$204       .dwtag  DW_TAG_member
    4598                      .dwattr $C$DW$204, DW_AT_type(*$C$DW$T$19)
    4599                      .dwattr $C$DW$204, DW_AT_name("Isense_A")
    4600                      .dwattr $C$DW$204, DW_AT_accessibility(DW_ACCESS_public)
    4601                      .dwattr $C$DW$204, DW_AT_decl_file("C:/sandbox/github/Lion-IRVT/Hardware/source/tida-010086/bts_F2837
    4602                      .dwattr $C$DW$204, DW_AT_decl_line(0x5f)
    4603                      .dwattr $C$DW$204, DW_AT_decl_column(0x0f)
    4604              
    4605              $C$DW$205       .dwtag  DW_TAG_member
    4606                      .dwattr $C$DW$205, DW_AT_type(*$C$DW$T$19)
    4607                      .dwattr $C$DW$205, DW_AT_name("Vsense_V")
    4608                      .dwattr $C$DW$205, DW_AT_data_member_location[DW_OP_plus_uconst 0x2]
    4609                      .dwattr $C$DW$205, DW_AT_accessibility(DW_ACCESS_public)
    4610                      .dwattr $C$DW$205, DW_AT_decl_file("C:/sandbox/github/Lion-IRVT/Hardware/source/tida-010086/bts_F2837
    4611                      .dwattr $C$DW$205, DW_AT_decl_line(0x60)
    4612                      .dwattr $C$DW$205, DW_AT_decl_column(0x0f)
    4613              
TMS320C2000 Assembler PC v20.2.4 Mon Jan 11 05:48:47 2021

Copyright (c) 1996-2018 Texas Instruments Incorporated
bts.asm                                                              PAGE   99

    4614              $C$DW$206       .dwtag  DW_TAG_member
    4615                      .dwattr $C$DW$206, DW_AT_type(*$C$DW$T$28)
    4616                      .dwattr $C$DW$206, DW_AT_name("Isense_16b")
    4617                      .dwattr $C$DW$206, DW_AT_data_member_location[DW_OP_plus_uconst 0x4]
    4618                      .dwattr $C$DW$206, DW_AT_accessibility(DW_ACCESS_public)
    4619                      .dwattr $C$DW$206, DW_AT_decl_file("C:/sandbox/github/Lion-IRVT/Hardware/source/tida-010086/bts_F2837
    4620                      .dwattr $C$DW$206, DW_AT_decl_line(0x61)
    4621                      .dwattr $C$DW$206, DW_AT_decl_column(0x0d)
    4622              
    4623              $C$DW$207       .dwtag  DW_TAG_member
    4624                      .dwattr $C$DW$207, DW_AT_type(*$C$DW$T$28)
    4625                      .dwattr $C$DW$207, DW_AT_name("Vsense_16b")
    4626                      .dwattr $C$DW$207, DW_AT_data_member_location[DW_OP_plus_uconst 0x24]
    4627                      .dwattr $C$DW$207, DW_AT_accessibility(DW_ACCESS_public)
    4628                      .dwattr $C$DW$207, DW_AT_decl_file("C:/sandbox/github/Lion-IRVT/Hardware/source/tida-010086/bts_F2837
    4629                      .dwattr $C$DW$207, DW_AT_decl_line(0x62)
    4630                      .dwattr $C$DW$207, DW_AT_decl_column(0x0d)
    4631              
    4632              $C$DW$208       .dwtag  DW_TAG_member
    4633                      .dwattr $C$DW$208, DW_AT_type(*$C$DW$T$30)
    4634                      .dwattr $C$DW$208, DW_AT_name("Sum_I")
    4635                      .dwattr $C$DW$208, DW_AT_data_member_location[DW_OP_plus_uconst 0x44]
    4636                      .dwattr $C$DW$208, DW_AT_accessibility(DW_ACCESS_public)
    4637                      .dwattr $C$DW$208, DW_AT_decl_file("C:/sandbox/github/Lion-IRVT/Hardware/source/tida-010086/bts_F2837
    4638                      .dwattr $C$DW$208, DW_AT_decl_line(0x63)
    4639                      .dwattr $C$DW$208, DW_AT_decl_column(0x0d)
    4640              
    4641              $C$DW$209       .dwtag  DW_TAG_member
    4642                      .dwattr $C$DW$209, DW_AT_type(*$C$DW$T$30)
    4643                      .dwattr $C$DW$209, DW_AT_name("Sum_V")
    4644                      .dwattr $C$DW$209, DW_AT_data_member_location[DW_OP_plus_uconst 0x46]
    4645                      .dwattr $C$DW$209, DW_AT_accessibility(DW_ACCESS_public)
    4646                      .dwattr $C$DW$209, DW_AT_decl_file("C:/sandbox/github/Lion-IRVT/Hardware/source/tida-010086/bts_F2837
    4647                      .dwattr $C$DW$209, DW_AT_decl_line(0x64)
    4648                      .dwattr $C$DW$209, DW_AT_decl_column(0x0d)
    4649              
    4650              $C$DW$210       .dwtag  DW_TAG_member
    4651                      .dwattr $C$DW$210, DW_AT_type(*$C$DW$T$22)
    4652                      .dwattr $C$DW$210, DW_AT_name("Index")
    4653                      .dwattr $C$DW$210, DW_AT_data_member_location[DW_OP_plus_uconst 0x48]
    4654                      .dwattr $C$DW$210, DW_AT_accessibility(DW_ACCESS_public)
    4655                      .dwattr $C$DW$210, DW_AT_decl_file("C:/sandbox/github/Lion-IRVT/Hardware/source/tida-010086/bts_F2837
    4656                      .dwattr $C$DW$210, DW_AT_decl_line(0x65)
    4657                      .dwattr $C$DW$210, DW_AT_decl_column(0x0e)
    4658              
    4659              $C$DW$211       .dwtag  DW_TAG_member
    4660                      .dwattr $C$DW$211, DW_AT_type(*$C$DW$T$19)
    4661                      .dwattr $C$DW$211, DW_AT_name("IoutGain_A")
    4662                      .dwattr $C$DW$211, DW_AT_data_member_location[DW_OP_plus_uconst 0x4a]
    4663                      .dwattr $C$DW$211, DW_AT_accessibility(DW_ACCESS_public)
    4664                      .dwattr $C$DW$211, DW_AT_decl_file("C:/sandbox/github/Lion-IRVT/Hardware/source/tida-010086/bts_F2837
    4665                      .dwattr $C$DW$211, DW_AT_decl_line(0x66)
    4666                      .dwattr $C$DW$211, DW_AT_decl_column(0x0f)
    4667              
    4668              $C$DW$212       .dwtag  DW_TAG_member
TMS320C2000 Assembler PC v20.2.4 Mon Jan 11 05:48:47 2021

Copyright (c) 1996-2018 Texas Instruments Incorporated
bts.asm                                                              PAGE  100

    4669                      .dwattr $C$DW$212, DW_AT_type(*$C$DW$T$19)
    4670                      .dwattr $C$DW$212, DW_AT_name("IoutOffset_A")
    4671                      .dwattr $C$DW$212, DW_AT_data_member_location[DW_OP_plus_uconst 0x4c]
    4672                      .dwattr $C$DW$212, DW_AT_accessibility(DW_ACCESS_public)
    4673                      .dwattr $C$DW$212, DW_AT_decl_file("C:/sandbox/github/Lion-IRVT/Hardware/source/tida-010086/bts_F2837
    4674                      .dwattr $C$DW$212, DW_AT_decl_line(0x67)
    4675                      .dwattr $C$DW$212, DW_AT_decl_column(0x0f)
    4676              
    4677              $C$DW$213       .dwtag  DW_TAG_member
    4678                      .dwattr $C$DW$213, DW_AT_type(*$C$DW$T$19)
    4679                      .dwattr $C$DW$213, DW_AT_name("VoutGain_V")
    4680                      .dwattr $C$DW$213, DW_AT_data_member_location[DW_OP_plus_uconst 0x4e]
    4681                      .dwattr $C$DW$213, DW_AT_accessibility(DW_ACCESS_public)
    4682                      .dwattr $C$DW$213, DW_AT_decl_file("C:/sandbox/github/Lion-IRVT/Hardware/source/tida-010086/bts_F2837
    4683                      .dwattr $C$DW$213, DW_AT_decl_line(0x68)
    4684                      .dwattr $C$DW$213, DW_AT_decl_column(0x0f)
    4685              
    4686              $C$DW$214       .dwtag  DW_TAG_member
    4687                      .dwattr $C$DW$214, DW_AT_type(*$C$DW$T$19)
    4688                      .dwattr $C$DW$214, DW_AT_name("VoutOffset_V")
    4689                      .dwattr $C$DW$214, DW_AT_data_member_location[DW_OP_plus_uconst 0x50]
    4690                      .dwattr $C$DW$214, DW_AT_accessibility(DW_ACCESS_public)
    4691                      .dwattr $C$DW$214, DW_AT_decl_file("C:/sandbox/github/Lion-IRVT/Hardware/source/tida-010086/bts_F2837
    4692                      .dwattr $C$DW$214, DW_AT_decl_line(0x69)
    4693                      .dwattr $C$DW$214, DW_AT_decl_column(0x0f)
    4694              
    4695                      .dwattr $C$DW$T$31, DW_AT_decl_file("C:/sandbox/github/Lion-IRVT/Hardware/source/tida-010086/bts_F283
    4696                      .dwattr $C$DW$T$31, DW_AT_decl_line(0x5e)
    4697                      .dwattr $C$DW$T$31, DW_AT_decl_column(0x01)
    4698                      .dwendtag $C$DW$T$31
    4699              
    4700                      .dwendtag $C$DW$TU$31
    4701              
    4702              
    4703              $C$DW$TU$59     .dwtag  DW_TAG_type_unit
    4704                      .dwmtype  $C$DW$T$59
    4705              $C$DW$T$59      .dwtag  DW_TAG_typedef
    4706                      .dwattr $C$DW$T$59, DW_AT_name("BTS_measValues")
    4707                      .dwattr $C$DW$T$59, DW_AT_type(*$C$DW$T$31)
    4708                      .dwattr $C$DW$T$59, DW_AT_decl_file("C:/sandbox/github/Lion-IRVT/Hardware/source/tida-010086/bts_F283
    4709                      .dwattr $C$DW$T$59, DW_AT_decl_line(0x6b)
    4710                      .dwattr $C$DW$T$59, DW_AT_decl_column(0x02)
    4711              
    4712                      .dwendtag $C$DW$TU$59
    4713              
    4714              
    4715              $C$DW$TU$60     .dwtag  DW_TAG_type_unit
    4716                      .dwmtype  $C$DW$T$60
    4717              $C$DW$T$60      .dwtag  DW_TAG_pointer_type
    4718                      .dwattr $C$DW$T$60, DW_AT_type(*$C$DW$T$59)
    4719                      .dwattr $C$DW$T$60, DW_AT_address_class(0x20)
    4720              
    4721                      .dwendtag $C$DW$TU$60
    4722              
    4723              
TMS320C2000 Assembler PC v20.2.4 Mon Jan 11 05:48:47 2021

Copyright (c) 1996-2018 Texas Instruments Incorporated
bts.asm                                                              PAGE  101

    4724              $C$DW$TU$61     .dwtag  DW_TAG_type_unit
    4725                      .dwmtype  $C$DW$T$61
    4726              $C$DW$215       .dwtag  DW_TAG_TI_far_type
    4727                      .dwattr $C$DW$215, DW_AT_type(*$C$DW$T$60)
    4728              
    4729              $C$DW$T$61      .dwtag  DW_TAG_const_type
    4730                      .dwattr $C$DW$T$61, DW_AT_type(*$C$DW$215)
    4731              
    4732                      .dwendtag $C$DW$TU$61
    4733              
    4734              
    4735              $C$DW$TU$33     .dwtag  DW_TAG_type_unit
    4736                      .dwmtype  $C$DW$T$33
    4737              
    4738              $C$DW$T$33      .dwtag  DW_TAG_structure_type
    4739                      .dwattr $C$DW$T$33, DW_AT_name("_Complex_double")
    4740                      .dwattr $C$DW$T$33, DW_AT_byte_size(0x08)
    4741              $C$DW$216       .dwtag  DW_TAG_member
    4742                      .dwattr $C$DW$216, DW_AT_type(*$C$DW$T$32)
    4743                      .dwattr $C$DW$216, DW_AT_name("_Vals")
    4744                      .dwattr $C$DW$216, DW_AT_accessibility(DW_ACCESS_public)
    4745                      .dwattr $C$DW$216, DW_AT_decl_file("../bts.c")
    4746                      .dwattr $C$DW$216, DW_AT_decl_line(0x01)
    4747                      .dwattr $C$DW$216, DW_AT_decl_column(0x00)
    4748              
    4749                      .dwendtag $C$DW$T$33
    4750              
    4751                      .dwendtag $C$DW$TU$33
    4752              
    4753              
    4754              $C$DW$TU$64     .dwtag  DW_TAG_type_unit
    4755                      .dwmtype  $C$DW$T$64
    4756              $C$DW$T$64      .dwtag  DW_TAG_typedef
    4757                      .dwattr $C$DW$T$64, DW_AT_name("_Complex_double")
    4758                      .dwattr $C$DW$T$64, DW_AT_type(*$C$DW$T$33)
    4759                      .dwattr $C$DW$T$64, DW_AT_decl_file("../bts.c")
    4760                      .dwattr $C$DW$T$64, DW_AT_decl_line(0x01)
    4761                      .dwattr $C$DW$T$64, DW_AT_decl_column(0x00)
    4762              
    4763                      .dwendtag $C$DW$TU$64
    4764              
    4765              
    4766              $C$DW$TU$35     .dwtag  DW_TAG_type_unit
    4767                      .dwmtype  $C$DW$T$35
    4768              
    4769              $C$DW$T$35      .dwtag  DW_TAG_structure_type
    4770                      .dwattr $C$DW$T$35, DW_AT_name("_Complex_float")
    4771                      .dwattr $C$DW$T$35, DW_AT_byte_size(0x04)
    4772              $C$DW$217       .dwtag  DW_TAG_member
    4773                      .dwattr $C$DW$217, DW_AT_type(*$C$DW$T$34)
    4774                      .dwattr $C$DW$217, DW_AT_name("_Vals")
    4775                      .dwattr $C$DW$217, DW_AT_accessibility(DW_ACCESS_public)
    4776                      .dwattr $C$DW$217, DW_AT_decl_file("../bts.c")
    4777                      .dwattr $C$DW$217, DW_AT_decl_line(0x01)
    4778                      .dwattr $C$DW$217, DW_AT_decl_column(0x00)
TMS320C2000 Assembler PC v20.2.4 Mon Jan 11 05:48:47 2021

Copyright (c) 1996-2018 Texas Instruments Incorporated
bts.asm                                                              PAGE  102

    4779              
    4780                      .dwendtag $C$DW$T$35
    4781              
    4782                      .dwendtag $C$DW$TU$35
    4783              
    4784              
    4785              $C$DW$TU$65     .dwtag  DW_TAG_type_unit
    4786                      .dwmtype  $C$DW$T$65
    4787              $C$DW$T$65      .dwtag  DW_TAG_typedef
    4788                      .dwattr $C$DW$T$65, DW_AT_name("_Complex_float")
    4789                      .dwattr $C$DW$T$65, DW_AT_type(*$C$DW$T$35)
    4790                      .dwattr $C$DW$T$65, DW_AT_decl_file("../bts.c")
    4791                      .dwattr $C$DW$T$65, DW_AT_decl_line(0x01)
    4792                      .dwattr $C$DW$T$65, DW_AT_decl_column(0x00)
    4793              
    4794                      .dwendtag $C$DW$TU$65
    4795              
    4796              
    4797              $C$DW$TU$37     .dwtag  DW_TAG_type_unit
    4798                      .dwmtype  $C$DW$T$37
    4799              
    4800              $C$DW$T$37      .dwtag  DW_TAG_structure_type
    4801                      .dwattr $C$DW$T$37, DW_AT_name("_Complex_long_double")
    4802                      .dwattr $C$DW$T$37, DW_AT_byte_size(0x08)
    4803              $C$DW$218       .dwtag  DW_TAG_member
    4804                      .dwattr $C$DW$218, DW_AT_type(*$C$DW$T$36)
    4805                      .dwattr $C$DW$218, DW_AT_name("_Vals")
    4806                      .dwattr $C$DW$218, DW_AT_accessibility(DW_ACCESS_public)
    4807                      .dwattr $C$DW$218, DW_AT_decl_file("../bts.c")
    4808                      .dwattr $C$DW$218, DW_AT_decl_line(0x01)
    4809                      .dwattr $C$DW$218, DW_AT_decl_column(0x00)
    4810              
    4811                      .dwendtag $C$DW$T$37
    4812              
    4813                      .dwendtag $C$DW$TU$37
    4814              
    4815              
    4816              $C$DW$TU$67     .dwtag  DW_TAG_type_unit
    4817                      .dwmtype  $C$DW$T$67
    4818              $C$DW$T$67      .dwtag  DW_TAG_typedef
    4819                      .dwattr $C$DW$T$67, DW_AT_name("_Complex_long_double")
    4820                      .dwattr $C$DW$T$67, DW_AT_type(*$C$DW$T$37)
    4821                      .dwattr $C$DW$T$67, DW_AT_decl_file("../bts.c")
    4822                      .dwattr $C$DW$T$67, DW_AT_decl_line(0x01)
    4823                      .dwattr $C$DW$T$67, DW_AT_decl_column(0x00)
    4824              
    4825                      .dwendtag $C$DW$TU$67
    4826              
    4827              
    4828              $C$DW$TU$2      .dwtag  DW_TAG_type_unit
    4829                      .dwmtype  $C$DW$T$2
    4830              $C$DW$T$2       .dwtag  DW_TAG_unspecified_type
    4831                      .dwattr $C$DW$T$2, DW_AT_name("void")
    4832              
    4833                      .dwendtag $C$DW$TU$2
TMS320C2000 Assembler PC v20.2.4 Mon Jan 11 05:48:47 2021

Copyright (c) 1996-2018 Texas Instruments Incorporated
bts.asm                                                              PAGE  103

    4834              
    4835              
    4836              $C$DW$TU$4      .dwtag  DW_TAG_type_unit
    4837                      .dwmtype  $C$DW$T$4
    4838              $C$DW$T$4       .dwtag  DW_TAG_base_type
    4839                      .dwattr $C$DW$T$4, DW_AT_encoding(DW_ATE_boolean)
    4840                      .dwattr $C$DW$T$4, DW_AT_name("bool")
    4841                      .dwattr $C$DW$T$4, DW_AT_byte_size(0x01)
    4842              
    4843                      .dwendtag $C$DW$TU$4
    4844              
    4845              
    4846              $C$DW$TU$5      .dwtag  DW_TAG_type_unit
    4847                      .dwmtype  $C$DW$T$5
    4848              $C$DW$T$5       .dwtag  DW_TAG_base_type
    4849                      .dwattr $C$DW$T$5, DW_AT_encoding(DW_ATE_signed_char)
    4850                      .dwattr $C$DW$T$5, DW_AT_name("signed char")
    4851                      .dwattr $C$DW$T$5, DW_AT_byte_size(0x01)
    4852              
    4853                      .dwendtag $C$DW$TU$5
    4854              
    4855              
    4856              $C$DW$TU$6      .dwtag  DW_TAG_type_unit
    4857                      .dwmtype  $C$DW$T$6
    4858              $C$DW$T$6       .dwtag  DW_TAG_base_type
    4859                      .dwattr $C$DW$T$6, DW_AT_encoding(DW_ATE_unsigned_char)
    4860                      .dwattr $C$DW$T$6, DW_AT_name("unsigned char")
    4861                      .dwattr $C$DW$T$6, DW_AT_byte_size(0x01)
    4862              
    4863                      .dwendtag $C$DW$TU$6
    4864              
    4865              
    4866              $C$DW$TU$7      .dwtag  DW_TAG_type_unit
    4867                      .dwmtype  $C$DW$T$7
    4868              $C$DW$T$7       .dwtag  DW_TAG_base_type
    4869                      .dwattr $C$DW$T$7, DW_AT_encoding(DW_ATE_signed_char)
    4870                      .dwattr $C$DW$T$7, DW_AT_name("wchar_t")
    4871                      .dwattr $C$DW$T$7, DW_AT_byte_size(0x02)
    4872              
    4873                      .dwendtag $C$DW$TU$7
    4874              
    4875              
    4876              $C$DW$TU$8      .dwtag  DW_TAG_type_unit
    4877                      .dwmtype  $C$DW$T$8
    4878              $C$DW$T$8       .dwtag  DW_TAG_base_type
    4879                      .dwattr $C$DW$T$8, DW_AT_encoding(DW_ATE_signed)
    4880                      .dwattr $C$DW$T$8, DW_AT_name("short")
    4881                      .dwattr $C$DW$T$8, DW_AT_byte_size(0x01)
    4882              
    4883                      .dwendtag $C$DW$TU$8
    4884              
    4885              
    4886              $C$DW$TU$9      .dwtag  DW_TAG_type_unit
    4887                      .dwmtype  $C$DW$T$9
    4888              $C$DW$T$9       .dwtag  DW_TAG_base_type
TMS320C2000 Assembler PC v20.2.4 Mon Jan 11 05:48:47 2021

Copyright (c) 1996-2018 Texas Instruments Incorporated
bts.asm                                                              PAGE  104

    4889                      .dwattr $C$DW$T$9, DW_AT_encoding(DW_ATE_unsigned)
    4890                      .dwattr $C$DW$T$9, DW_AT_name("unsigned short")
    4891                      .dwattr $C$DW$T$9, DW_AT_byte_size(0x01)
    4892              
    4893                      .dwendtag $C$DW$TU$9
    4894              
    4895              
    4896              $C$DW$TU$10     .dwtag  DW_TAG_type_unit
    4897                      .dwmtype  $C$DW$T$10
    4898              $C$DW$T$10      .dwtag  DW_TAG_base_type
    4899                      .dwattr $C$DW$T$10, DW_AT_encoding(DW_ATE_signed)
    4900                      .dwattr $C$DW$T$10, DW_AT_name("int")
    4901                      .dwattr $C$DW$T$10, DW_AT_byte_size(0x01)
    4902              
    4903                      .dwendtag $C$DW$TU$10
    4904              
    4905              
    4906              $C$DW$TU$25     .dwtag  DW_TAG_type_unit
    4907                      .dwmtype  $C$DW$T$25
    4908              $C$DW$T$25      .dwtag  DW_TAG_typedef
    4909                      .dwattr $C$DW$T$25, DW_AT_name("__int16_t")
    4910                      .dwattr $C$DW$T$25, DW_AT_type(*$C$DW$T$10)
    4911                      .dwattr $C$DW$T$25, DW_AT_decl_file("C:/ti/ccs1011/ccs/tools/compiler/ti-cgt-c2000_20.2.4.LTS/include
    4912                      .dwattr $C$DW$T$25, DW_AT_decl_line(0x40)
    4913                      .dwattr $C$DW$T$25, DW_AT_decl_column(0x1d)
    4914              
    4915                      .dwendtag $C$DW$TU$25
    4916              
    4917              
    4918              $C$DW$TU$26     .dwtag  DW_TAG_type_unit
    4919                      .dwmtype  $C$DW$T$26
    4920              $C$DW$T$26      .dwtag  DW_TAG_typedef
    4921                      .dwattr $C$DW$T$26, DW_AT_name("int16_t")
    4922                      .dwattr $C$DW$T$26, DW_AT_type(*$C$DW$T$25)
    4923                      .dwattr $C$DW$T$26, DW_AT_decl_file("C:/ti/ccs1011/ccs/tools/compiler/ti-cgt-c2000_20.2.4.LTS/include
    4924                      .dwattr $C$DW$T$26, DW_AT_decl_line(0x2b)
    4925                      .dwattr $C$DW$T$26, DW_AT_decl_column(0x14)
    4926              
    4927                      .dwendtag $C$DW$TU$26
    4928              
    4929              
    4930              $C$DW$TU$28     .dwtag  DW_TAG_type_unit
    4931                      .dwmtype  $C$DW$T$28
    4932              
    4933              $C$DW$T$28      .dwtag  DW_TAG_array_type
    4934                      .dwattr $C$DW$T$28, DW_AT_type(*$C$DW$T$26)
    4935                      .dwattr $C$DW$T$28, DW_AT_byte_size(0x20)
    4936              $C$DW$219       .dwtag  DW_TAG_subrange_type
    4937                      .dwattr $C$DW$219, DW_AT_upper_bound(0x1f)
    4938              
    4939                      .dwendtag $C$DW$T$28
    4940              
    4941                      .dwendtag $C$DW$TU$28
    4942              
    4943              
TMS320C2000 Assembler PC v20.2.4 Mon Jan 11 05:48:47 2021

Copyright (c) 1996-2018 Texas Instruments Incorporated
bts.asm                                                              PAGE  105

    4944              $C$DW$TU$11     .dwtag  DW_TAG_type_unit
    4945                      .dwmtype  $C$DW$T$11
    4946              $C$DW$T$11      .dwtag  DW_TAG_base_type
    4947                      .dwattr $C$DW$T$11, DW_AT_encoding(DW_ATE_unsigned)
    4948                      .dwattr $C$DW$T$11, DW_AT_name("unsigned int")
    4949                      .dwattr $C$DW$T$11, DW_AT_byte_size(0x01)
    4950              
    4951                      .dwendtag $C$DW$TU$11
    4952              
    4953              
    4954              $C$DW$TU$21     .dwtag  DW_TAG_type_unit
    4955                      .dwmtype  $C$DW$T$21
    4956              $C$DW$T$21      .dwtag  DW_TAG_typedef
    4957                      .dwattr $C$DW$T$21, DW_AT_name("__uint16_t")
    4958                      .dwattr $C$DW$T$21, DW_AT_type(*$C$DW$T$11)
    4959                      .dwattr $C$DW$T$21, DW_AT_decl_file("C:/ti/ccs1011/ccs/tools/compiler/ti-cgt-c2000_20.2.4.LTS/include
    4960                      .dwattr $C$DW$T$21, DW_AT_decl_line(0x41)
    4961                      .dwattr $C$DW$T$21, DW_AT_decl_column(0x1c)
    4962              
    4963                      .dwendtag $C$DW$TU$21
    4964              
    4965              
    4966              $C$DW$TU$22     .dwtag  DW_TAG_type_unit
    4967                      .dwmtype  $C$DW$T$22
    4968              $C$DW$T$22      .dwtag  DW_TAG_typedef
    4969                      .dwattr $C$DW$T$22, DW_AT_name("uint16_t")
    4970                      .dwattr $C$DW$T$22, DW_AT_type(*$C$DW$T$21)
    4971                      .dwattr $C$DW$T$22, DW_AT_decl_file("C:/ti/ccs1011/ccs/tools/compiler/ti-cgt-c2000_20.2.4.LTS/include
    4972                      .dwattr $C$DW$T$22, DW_AT_decl_line(0x41)
    4973                      .dwattr $C$DW$T$22, DW_AT_decl_column(0x15)
    4974              
    4975                      .dwendtag $C$DW$TU$22
    4976              
    4977              
    4978              $C$DW$TU$23     .dwtag  DW_TAG_type_unit
    4979                      .dwmtype  $C$DW$T$23
    4980              $C$DW$220       .dwtag  DW_TAG_TI_far_type
    4981                      .dwattr $C$DW$220, DW_AT_type(*$C$DW$T$22)
    4982              
    4983              $C$DW$T$23      .dwtag  DW_TAG_volatile_type
    4984                      .dwattr $C$DW$T$23, DW_AT_type(*$C$DW$220)
    4985              
    4986                      .dwendtag $C$DW$TU$23
    4987              
    4988              
    4989              $C$DW$TU$12     .dwtag  DW_TAG_type_unit
    4990                      .dwmtype  $C$DW$T$12
    4991              $C$DW$T$12      .dwtag  DW_TAG_base_type
    4992                      .dwattr $C$DW$T$12, DW_AT_encoding(DW_ATE_signed)
    4993                      .dwattr $C$DW$T$12, DW_AT_name("long")
    4994                      .dwattr $C$DW$T$12, DW_AT_byte_size(0x02)
    4995              
    4996                      .dwendtag $C$DW$TU$12
    4997              
    4998              
TMS320C2000 Assembler PC v20.2.4 Mon Jan 11 05:48:47 2021

Copyright (c) 1996-2018 Texas Instruments Incorporated
bts.asm                                                              PAGE  106

    4999              $C$DW$TU$29     .dwtag  DW_TAG_type_unit
    5000                      .dwmtype  $C$DW$T$29
    5001              $C$DW$T$29      .dwtag  DW_TAG_typedef
    5002                      .dwattr $C$DW$T$29, DW_AT_name("__int32_t")
    5003                      .dwattr $C$DW$T$29, DW_AT_type(*$C$DW$T$12)
    5004                      .dwattr $C$DW$T$29, DW_AT_decl_file("C:/ti/ccs1011/ccs/tools/compiler/ti-cgt-c2000_20.2.4.LTS/include
    5005                      .dwattr $C$DW$T$29, DW_AT_decl_line(0x42)
    5006                      .dwattr $C$DW$T$29, DW_AT_decl_column(0x1d)
    5007              
    5008                      .dwendtag $C$DW$TU$29
    5009              
    5010              
    5011              $C$DW$TU$30     .dwtag  DW_TAG_type_unit
    5012                      .dwmtype  $C$DW$T$30
    5013              $C$DW$T$30      .dwtag  DW_TAG_typedef
    5014                      .dwattr $C$DW$T$30, DW_AT_name("int32_t")
    5015                      .dwattr $C$DW$T$30, DW_AT_type(*$C$DW$T$29)
    5016                      .dwattr $C$DW$T$30, DW_AT_decl_file("C:/ti/ccs1011/ccs/tools/compiler/ti-cgt-c2000_20.2.4.LTS/include
    5017                      .dwattr $C$DW$T$30, DW_AT_decl_line(0x30)
    5018                      .dwattr $C$DW$T$30, DW_AT_decl_column(0x14)
    5019              
    5020                      .dwendtag $C$DW$TU$30
    5021              
    5022              
    5023              $C$DW$TU$13     .dwtag  DW_TAG_type_unit
    5024                      .dwmtype  $C$DW$T$13
    5025              $C$DW$T$13      .dwtag  DW_TAG_base_type
    5026                      .dwattr $C$DW$T$13, DW_AT_encoding(DW_ATE_unsigned)
    5027                      .dwattr $C$DW$T$13, DW_AT_name("unsigned long")
    5028                      .dwattr $C$DW$T$13, DW_AT_byte_size(0x02)
    5029              
    5030                      .dwendtag $C$DW$TU$13
    5031              
    5032              
    5033              $C$DW$TU$38     .dwtag  DW_TAG_type_unit
    5034                      .dwmtype  $C$DW$T$38
    5035              $C$DW$T$38      .dwtag  DW_TAG_typedef
    5036                      .dwattr $C$DW$T$38, DW_AT_name("__uint32_t")
    5037                      .dwattr $C$DW$T$38, DW_AT_type(*$C$DW$T$13)
    5038                      .dwattr $C$DW$T$38, DW_AT_decl_file("C:/ti/ccs1011/ccs/tools/compiler/ti-cgt-c2000_20.2.4.LTS/include
    5039                      .dwattr $C$DW$T$38, DW_AT_decl_line(0x43)
    5040                      .dwattr $C$DW$T$38, DW_AT_decl_column(0x1c)
    5041              
    5042                      .dwendtag $C$DW$TU$38
    5043              
    5044              
    5045              $C$DW$TU$39     .dwtag  DW_TAG_type_unit
    5046                      .dwmtype  $C$DW$T$39
    5047              $C$DW$T$39      .dwtag  DW_TAG_typedef
    5048                      .dwattr $C$DW$T$39, DW_AT_name("uint32_t")
    5049                      .dwattr $C$DW$T$39, DW_AT_type(*$C$DW$T$38)
    5050                      .dwattr $C$DW$T$39, DW_AT_decl_file("C:/ti/ccs1011/ccs/tools/compiler/ti-cgt-c2000_20.2.4.LTS/include
    5051                      .dwattr $C$DW$T$39, DW_AT_decl_line(0x46)
    5052                      .dwattr $C$DW$T$39, DW_AT_decl_column(0x15)
    5053              
TMS320C2000 Assembler PC v20.2.4 Mon Jan 11 05:48:47 2021

Copyright (c) 1996-2018 Texas Instruments Incorporated
bts.asm                                                              PAGE  107

    5054                      .dwendtag $C$DW$TU$39
    5055              
    5056              
    5057              $C$DW$TU$14     .dwtag  DW_TAG_type_unit
    5058                      .dwmtype  $C$DW$T$14
    5059              $C$DW$T$14      .dwtag  DW_TAG_base_type
    5060                      .dwattr $C$DW$T$14, DW_AT_encoding(DW_ATE_signed)
    5061                      .dwattr $C$DW$T$14, DW_AT_name("long long")
    5062                      .dwattr $C$DW$T$14, DW_AT_byte_size(0x04)
    5063              
    5064                      .dwendtag $C$DW$TU$14
    5065              
    5066              
    5067              $C$DW$TU$15     .dwtag  DW_TAG_type_unit
    5068                      .dwmtype  $C$DW$T$15
    5069              $C$DW$T$15      .dwtag  DW_TAG_base_type
    5070                      .dwattr $C$DW$T$15, DW_AT_encoding(DW_ATE_unsigned)
    5071                      .dwattr $C$DW$T$15, DW_AT_name("unsigned long long")
    5072                      .dwattr $C$DW$T$15, DW_AT_byte_size(0x04)
    5073              
    5074                      .dwendtag $C$DW$TU$15
    5075              
    5076              
    5077              $C$DW$TU$16     .dwtag  DW_TAG_type_unit
    5078                      .dwmtype  $C$DW$T$16
    5079              $C$DW$T$16      .dwtag  DW_TAG_base_type
    5080                      .dwattr $C$DW$T$16, DW_AT_encoding(DW_ATE_float)
    5081                      .dwattr $C$DW$T$16, DW_AT_name("float")
    5082                      .dwattr $C$DW$T$16, DW_AT_byte_size(0x02)
    5083              
    5084                      .dwendtag $C$DW$TU$16
    5085              
    5086              
    5087              $C$DW$TU$34     .dwtag  DW_TAG_type_unit
    5088                      .dwmtype  $C$DW$T$34
    5089              
    5090              $C$DW$T$34      .dwtag  DW_TAG_array_type
    5091                      .dwattr $C$DW$T$34, DW_AT_type(*$C$DW$T$16)
    5092                      .dwattr $C$DW$T$34, DW_AT_byte_size(0x04)
    5093              $C$DW$221       .dwtag  DW_TAG_subrange_type
    5094                      .dwattr $C$DW$221, DW_AT_upper_bound(0x01)
    5095              
    5096                      .dwendtag $C$DW$T$34
    5097              
    5098                      .dwendtag $C$DW$TU$34
    5099              
    5100              
    5101              $C$DW$TU$82     .dwtag  DW_TAG_type_unit
    5102                      .dwmtype  $C$DW$T$82
    5103              $C$DW$222       .dwtag  DW_TAG_TI_far_type
    5104                      .dwattr $C$DW$222, DW_AT_type(*$C$DW$T$16)
    5105              
    5106              $C$DW$T$82      .dwtag  DW_TAG_const_type
    5107                      .dwattr $C$DW$T$82, DW_AT_type(*$C$DW$222)
    5108              
TMS320C2000 Assembler PC v20.2.4 Mon Jan 11 05:48:47 2021

Copyright (c) 1996-2018 Texas Instruments Incorporated
bts.asm                                                              PAGE  108

    5109                      .dwendtag $C$DW$TU$82
    5110              
    5111              
    5112              $C$DW$TU$19     .dwtag  DW_TAG_type_unit
    5113                      .dwmtype  $C$DW$T$19
    5114              $C$DW$T$19      .dwtag  DW_TAG_typedef
    5115                      .dwattr $C$DW$T$19, DW_AT_name("float32_t")
    5116                      .dwattr $C$DW$T$19, DW_AT_type(*$C$DW$T$16)
    5117                      .dwattr $C$DW$T$19, DW_AT_decl_file("C:\ti\c2000\C2000Ware_DigitalPower_SDK_3_01_00_00\c2000ware\driv
    5118                      .dwattr $C$DW$T$19, DW_AT_decl_line(0x5e)
    5119                      .dwattr $C$DW$T$19, DW_AT_decl_column(0x17)
    5120              
    5121                      .dwendtag $C$DW$TU$19
    5122              
    5123              
    5124              $C$DW$TU$20     .dwtag  DW_TAG_type_unit
    5125                      .dwmtype  $C$DW$T$20
    5126              $C$DW$223       .dwtag  DW_TAG_TI_far_type
    5127                      .dwattr $C$DW$223, DW_AT_type(*$C$DW$T$19)
    5128              
    5129              $C$DW$T$20      .dwtag  DW_TAG_volatile_type
    5130                      .dwattr $C$DW$T$20, DW_AT_type(*$C$DW$223)
    5131              
    5132                      .dwendtag $C$DW$TU$20
    5133              
    5134              
    5135              $C$DW$TU$17     .dwtag  DW_TAG_type_unit
    5136                      .dwmtype  $C$DW$T$17
    5137              $C$DW$T$17      .dwtag  DW_TAG_base_type
    5138                      .dwattr $C$DW$T$17, DW_AT_encoding(DW_ATE_float)
    5139                      .dwattr $C$DW$T$17, DW_AT_name("double")
    5140                      .dwattr $C$DW$T$17, DW_AT_byte_size(0x04)
    5141              
    5142                      .dwendtag $C$DW$TU$17
    5143              
    5144              
    5145              $C$DW$TU$32     .dwtag  DW_TAG_type_unit
    5146                      .dwmtype  $C$DW$T$32
    5147              
    5148              $C$DW$T$32      .dwtag  DW_TAG_array_type
    5149                      .dwattr $C$DW$T$32, DW_AT_type(*$C$DW$T$17)
    5150                      .dwattr $C$DW$T$32, DW_AT_byte_size(0x08)
    5151              $C$DW$224       .dwtag  DW_TAG_subrange_type
    5152                      .dwattr $C$DW$224, DW_AT_upper_bound(0x01)
    5153              
    5154                      .dwendtag $C$DW$T$32
    5155              
    5156                      .dwendtag $C$DW$TU$32
    5157              
    5158              
    5159              $C$DW$TU$84     .dwtag  DW_TAG_type_unit
    5160                      .dwmtype  $C$DW$T$84
    5161              $C$DW$T$84      .dwtag  DW_TAG_pointer_type
    5162                      .dwattr $C$DW$T$84, DW_AT_type(*$C$DW$T$17)
    5163                      .dwattr $C$DW$T$84, DW_AT_address_class(0x20)
TMS320C2000 Assembler PC v20.2.4 Mon Jan 11 05:48:47 2021

Copyright (c) 1996-2018 Texas Instruments Incorporated
bts.asm                                                              PAGE  109

    5164              
    5165                      .dwendtag $C$DW$TU$84
    5166              
    5167              
    5168              $C$DW$TU$85     .dwtag  DW_TAG_type_unit
    5169                      .dwmtype  $C$DW$T$85
    5170              $C$DW$225       .dwtag  DW_TAG_TI_far_type
    5171                      .dwattr $C$DW$225, DW_AT_type(*$C$DW$T$84)
    5172              
    5173              $C$DW$T$85      .dwtag  DW_TAG_const_type
    5174                      .dwattr $C$DW$T$85, DW_AT_type(*$C$DW$225)
    5175              
    5176                      .dwendtag $C$DW$TU$85
    5177              
    5178              
    5179              $C$DW$TU$18     .dwtag  DW_TAG_type_unit
    5180                      .dwmtype  $C$DW$T$18
    5181              $C$DW$T$18      .dwtag  DW_TAG_base_type
    5182                      .dwattr $C$DW$T$18, DW_AT_encoding(DW_ATE_float)
    5183                      .dwattr $C$DW$T$18, DW_AT_name("long double")
    5184                      .dwattr $C$DW$T$18, DW_AT_byte_size(0x04)
    5185              
    5186                      .dwendtag $C$DW$TU$18
    5187              
    5188              
    5189              $C$DW$TU$36     .dwtag  DW_TAG_type_unit
    5190                      .dwmtype  $C$DW$T$36
    5191              
    5192              $C$DW$T$36      .dwtag  DW_TAG_array_type
    5193                      .dwattr $C$DW$T$36, DW_AT_type(*$C$DW$T$18)
    5194                      .dwattr $C$DW$T$36, DW_AT_byte_size(0x08)
    5195              $C$DW$226       .dwtag  DW_TAG_subrange_type
    5196                      .dwattr $C$DW$226, DW_AT_upper_bound(0x01)
    5197              
    5198                      .dwendtag $C$DW$T$36
    5199              
    5200                      .dwendtag $C$DW$TU$36
    5201              
    5202              
    5203              $C$DW$TU$87     .dwtag  DW_TAG_type_unit
    5204                      .dwmtype  $C$DW$T$87
    5205              $C$DW$T$87      .dwtag  DW_TAG_pointer_type
    5206                      .dwattr $C$DW$T$87, DW_AT_type(*$C$DW$T$18)
    5207                      .dwattr $C$DW$T$87, DW_AT_address_class(0x20)
    5208              
    5209                      .dwendtag $C$DW$TU$87
    5210              
    5211              
    5212              $C$DW$TU$88     .dwtag  DW_TAG_type_unit
    5213                      .dwmtype  $C$DW$T$88
    5214              $C$DW$227       .dwtag  DW_TAG_TI_far_type
    5215                      .dwattr $C$DW$227, DW_AT_type(*$C$DW$T$87)
    5216              
    5217              $C$DW$T$88      .dwtag  DW_TAG_const_type
    5218                      .dwattr $C$DW$T$88, DW_AT_type(*$C$DW$227)
TMS320C2000 Assembler PC v20.2.4 Mon Jan 11 05:48:47 2021

Copyright (c) 1996-2018 Texas Instruments Incorporated
bts.asm                                                              PAGE  110

    5219              
    5220                      .dwendtag $C$DW$TU$88
    5221              
    5222              
    5223              $C$DW$TU$40     .dwtag  DW_TAG_type_unit
    5224                      .dwmtype  $C$DW$T$40
    5225              
    5226              $C$DW$T$40      .dwtag  DW_TAG_structure_type
    5227                      .dwattr $C$DW$T$40, DW_AT_name("dcl_css")
    5228                      .dwattr $C$DW$T$40, DW_AT_byte_size(0x0a)
    5229              $C$DW$228       .dwtag  DW_TAG_member
    5230                      .dwattr $C$DW$228, DW_AT_type(*$C$DW$T$19)
    5231                      .dwattr $C$DW$228, DW_AT_name("tpt")
    5232                      .dwattr $C$DW$228, DW_AT_accessibility(DW_ACCESS_public)
    5233                      .dwattr $C$DW$228, DW_AT_decl_file("C:\sandbox\github\Lion-IRVT\Hardware\source\tida-010086\bts_F2837
    5234                      .dwattr $C$DW$228, DW_AT_decl_line(0x91)
    5235                      .dwattr $C$DW$228, DW_AT_decl_column(0x0f)
    5236              
    5237              $C$DW$229       .dwtag  DW_TAG_member
    5238                      .dwattr $C$DW$229, DW_AT_type(*$C$DW$T$19)
    5239                      .dwattr $C$DW$229, DW_AT_name("T")
    5240                      .dwattr $C$DW$229, DW_AT_data_member_location[DW_OP_plus_uconst 0x2]
    5241                      .dwattr $C$DW$229, DW_AT_accessibility(DW_ACCESS_public)
    5242                      .dwattr $C$DW$229, DW_AT_decl_file("C:\sandbox\github\Lion-IRVT\Hardware\source\tida-010086\bts_F2837
    5243                      .dwattr $C$DW$229, DW_AT_decl_line(0x92)
    5244                      .dwattr $C$DW$229, DW_AT_decl_column(0x0f)
    5245              
    5246              $C$DW$230       .dwtag  DW_TAG_member
    5247                      .dwattr $C$DW$230, DW_AT_type(*$C$DW$T$39)
    5248                      .dwattr $C$DW$230, DW_AT_name("sts")
    5249                      .dwattr $C$DW$230, DW_AT_data_member_location[DW_OP_plus_uconst 0x4]
    5250                      .dwattr $C$DW$230, DW_AT_accessibility(DW_ACCESS_public)
    5251                      .dwattr $C$DW$230, DW_AT_decl_file("C:\sandbox\github\Lion-IRVT\Hardware\source\tida-010086\bts_F2837
    5252                      .dwattr $C$DW$230, DW_AT_decl_line(0x93)
    5253                      .dwattr $C$DW$230, DW_AT_decl_column(0x0e)
    5254              
    5255              $C$DW$231       .dwtag  DW_TAG_member
    5256                      .dwattr $C$DW$231, DW_AT_type(*$C$DW$T$39)
    5257                      .dwattr $C$DW$231, DW_AT_name("err")
    5258                      .dwattr $C$DW$231, DW_AT_data_member_location[DW_OP_plus_uconst 0x6]
    5259                      .dwattr $C$DW$231, DW_AT_accessibility(DW_ACCESS_public)
    5260                      .dwattr $C$DW$231, DW_AT_decl_file("C:\sandbox\github\Lion-IRVT\Hardware\source\tida-010086\bts_F2837
    5261                      .dwattr $C$DW$231, DW_AT_decl_line(0x94)
    5262                      .dwattr $C$DW$231, DW_AT_decl_column(0x0e)
    5263              
    5264              $C$DW$232       .dwtag  DW_TAG_member
    5265                      .dwattr $C$DW$232, DW_AT_type(*$C$DW$T$39)
    5266                      .dwattr $C$DW$232, DW_AT_name("loc")
    5267                      .dwattr $C$DW$232, DW_AT_data_member_location[DW_OP_plus_uconst 0x8]
    5268                      .dwattr $C$DW$232, DW_AT_accessibility(DW_ACCESS_public)
    5269                      .dwattr $C$DW$232, DW_AT_decl_file("C:\sandbox\github\Lion-IRVT\Hardware\source\tida-010086\bts_F2837
    5270                      .dwattr $C$DW$232, DW_AT_decl_line(0x95)
    5271                      .dwattr $C$DW$232, DW_AT_decl_column(0x0e)
    5272              
    5273                      .dwattr $C$DW$T$40, DW_AT_decl_file("C:\sandbox\github\Lion-IRVT\Hardware\source\tida-010086\bts_F283
TMS320C2000 Assembler PC v20.2.4 Mon Jan 11 05:48:47 2021

Copyright (c) 1996-2018 Texas Instruments Incorporated
bts.asm                                                              PAGE  111

    5274                      .dwattr $C$DW$T$40, DW_AT_decl_line(0x90)
    5275                      .dwattr $C$DW$T$40, DW_AT_decl_column(0x19)
    5276                      .dwendtag $C$DW$T$40
    5277              
    5278                      .dwendtag $C$DW$TU$40
    5279              
    5280              
    5281              $C$DW$TU$44     .dwtag  DW_TAG_type_unit
    5282                      .dwmtype  $C$DW$T$44
    5283              $C$DW$233       .dwtag  DW_TAG_TI_far_type
    5284                      .dwattr $C$DW$233, DW_AT_type(*$C$DW$T$40)
    5285              
    5286              $C$DW$T$44      .dwtag  DW_TAG_volatile_type
    5287                      .dwattr $C$DW$T$44, DW_AT_type(*$C$DW$233)
    5288              
    5289                      .dwendtag $C$DW$TU$44
    5290              
    5291              
    5292              $C$DW$TU$45     .dwtag  DW_TAG_type_unit
    5293                      .dwmtype  $C$DW$T$45
    5294              $C$DW$T$45      .dwtag  DW_TAG_typedef
    5295                      .dwattr $C$DW$T$45, DW_AT_name("DCL_CSS")
    5296                      .dwattr $C$DW$T$45, DW_AT_type(*$C$DW$T$44)
    5297                      .dwattr $C$DW$T$45, DW_AT_decl_file("C:\sandbox\github\Lion-IRVT\Hardware\source\tida-010086\bts_F283
    5298                      .dwattr $C$DW$T$45, DW_AT_decl_line(0x96)
    5299                      .dwattr $C$DW$T$45, DW_AT_decl_column(0x03)
    5300              
    5301                      .dwendtag $C$DW$TU$45
    5302              
    5303              
    5304              $C$DW$TU$46     .dwtag  DW_TAG_type_unit
    5305                      .dwmtype  $C$DW$T$46
    5306              $C$DW$T$46      .dwtag  DW_TAG_pointer_type
    5307                      .dwattr $C$DW$T$46, DW_AT_type(*$C$DW$T$45)
    5308                      .dwattr $C$DW$T$46, DW_AT_address_class(0x20)
    5309              
    5310                      .dwendtag $C$DW$TU$46
    5311              
    5312              
    5313              $C$DW$TU$47     .dwtag  DW_TAG_type_unit
    5314                      .dwmtype  $C$DW$T$47
    5315              
    5316              $C$DW$T$47      .dwtag  DW_TAG_structure_type
    5317                      .dwattr $C$DW$T$47, DW_AT_name("dcl_df22")
    5318                      .dwattr $C$DW$T$47, DW_AT_byte_size(0x12)
    5319              $C$DW$234       .dwtag  DW_TAG_member
    5320                      .dwattr $C$DW$234, DW_AT_type(*$C$DW$T$19)
    5321                      .dwattr $C$DW$234, DW_AT_name("b0")
    5322                      .dwattr $C$DW$234, DW_AT_accessibility(DW_ACCESS_public)
    5323                      .dwattr $C$DW$234, DW_AT_decl_file("C:/sandbox/github/Lion-IRVT/Hardware/source/tida-010086/bts_F2837
    5324                      .dwattr $C$DW$234, DW_AT_decl_line(0x4ab)
    5325                      .dwattr $C$DW$234, DW_AT_decl_column(0x0f)
    5326              
    5327              $C$DW$235       .dwtag  DW_TAG_member
    5328                      .dwattr $C$DW$235, DW_AT_type(*$C$DW$T$19)
TMS320C2000 Assembler PC v20.2.4 Mon Jan 11 05:48:47 2021

Copyright (c) 1996-2018 Texas Instruments Incorporated
bts.asm                                                              PAGE  112

    5329                      .dwattr $C$DW$235, DW_AT_name("b1")
    5330                      .dwattr $C$DW$235, DW_AT_data_member_location[DW_OP_plus_uconst 0x2]
    5331                      .dwattr $C$DW$235, DW_AT_accessibility(DW_ACCESS_public)
    5332                      .dwattr $C$DW$235, DW_AT_decl_file("C:/sandbox/github/Lion-IRVT/Hardware/source/tida-010086/bts_F2837
    5333                      .dwattr $C$DW$235, DW_AT_decl_line(0x4ac)
    5334                      .dwattr $C$DW$235, DW_AT_decl_column(0x0f)
    5335              
    5336              $C$DW$236       .dwtag  DW_TAG_member
    5337                      .dwattr $C$DW$236, DW_AT_type(*$C$DW$T$19)
    5338                      .dwattr $C$DW$236, DW_AT_name("b2")
    5339                      .dwattr $C$DW$236, DW_AT_data_member_location[DW_OP_plus_uconst 0x4]
    5340                      .dwattr $C$DW$236, DW_AT_accessibility(DW_ACCESS_public)
    5341                      .dwattr $C$DW$236, DW_AT_decl_file("C:/sandbox/github/Lion-IRVT/Hardware/source/tida-010086/bts_F2837
    5342                      .dwattr $C$DW$236, DW_AT_decl_line(0x4ad)
    5343                      .dwattr $C$DW$236, DW_AT_decl_column(0x0f)
    5344              
    5345              $C$DW$237       .dwtag  DW_TAG_member
    5346                      .dwattr $C$DW$237, DW_AT_type(*$C$DW$T$19)
    5347                      .dwattr $C$DW$237, DW_AT_name("a1")
    5348                      .dwattr $C$DW$237, DW_AT_data_member_location[DW_OP_plus_uconst 0x6]
    5349                      .dwattr $C$DW$237, DW_AT_accessibility(DW_ACCESS_public)
    5350                      .dwattr $C$DW$237, DW_AT_decl_file("C:/sandbox/github/Lion-IRVT/Hardware/source/tida-010086/bts_F2837
    5351                      .dwattr $C$DW$237, DW_AT_decl_line(0x4ae)
    5352                      .dwattr $C$DW$237, DW_AT_decl_column(0x0f)
    5353              
    5354              $C$DW$238       .dwtag  DW_TAG_member
    5355                      .dwattr $C$DW$238, DW_AT_type(*$C$DW$T$19)
    5356                      .dwattr $C$DW$238, DW_AT_name("a2")
    5357                      .dwattr $C$DW$238, DW_AT_data_member_location[DW_OP_plus_uconst 0x8]
    5358                      .dwattr $C$DW$238, DW_AT_accessibility(DW_ACCESS_public)
    5359                      .dwattr $C$DW$238, DW_AT_decl_file("C:/sandbox/github/Lion-IRVT/Hardware/source/tida-010086/bts_F2837
    5360                      .dwattr $C$DW$238, DW_AT_decl_line(0x4af)
    5361                      .dwattr $C$DW$238, DW_AT_decl_column(0x0f)
    5362              
    5363              $C$DW$239       .dwtag  DW_TAG_member
    5364                      .dwattr $C$DW$239, DW_AT_type(*$C$DW$T$19)
    5365                      .dwattr $C$DW$239, DW_AT_name("x1")
    5366                      .dwattr $C$DW$239, DW_AT_data_member_location[DW_OP_plus_uconst 0xa]
    5367                      .dwattr $C$DW$239, DW_AT_accessibility(DW_ACCESS_public)
    5368                      .dwattr $C$DW$239, DW_AT_decl_file("C:/sandbox/github/Lion-IRVT/Hardware/source/tida-010086/bts_F2837
    5369                      .dwattr $C$DW$239, DW_AT_decl_line(0x4b0)
    5370                      .dwattr $C$DW$239, DW_AT_decl_column(0x0f)
    5371              
    5372              $C$DW$240       .dwtag  DW_TAG_member
    5373                      .dwattr $C$DW$240, DW_AT_type(*$C$DW$T$19)
    5374                      .dwattr $C$DW$240, DW_AT_name("x2")
    5375                      .dwattr $C$DW$240, DW_AT_data_member_location[DW_OP_plus_uconst 0xc]
    5376                      .dwattr $C$DW$240, DW_AT_accessibility(DW_ACCESS_public)
    5377                      .dwattr $C$DW$240, DW_AT_decl_file("C:/sandbox/github/Lion-IRVT/Hardware/source/tida-010086/bts_F2837
    5378                      .dwattr $C$DW$240, DW_AT_decl_line(0x4b1)
    5379                      .dwattr $C$DW$240, DW_AT_decl_column(0x0f)
    5380              
    5381              $C$DW$241       .dwtag  DW_TAG_member
    5382                      .dwattr $C$DW$241, DW_AT_type(*$C$DW$T$43)
    5383                      .dwattr $C$DW$241, DW_AT_name("sps")
TMS320C2000 Assembler PC v20.2.4 Mon Jan 11 05:48:47 2021

Copyright (c) 1996-2018 Texas Instruments Incorporated
bts.asm                                                              PAGE  113

    5384                      .dwattr $C$DW$241, DW_AT_data_member_location[DW_OP_plus_uconst 0xe]
    5385                      .dwattr $C$DW$241, DW_AT_accessibility(DW_ACCESS_public)
    5386                      .dwattr $C$DW$241, DW_AT_decl_file("C:/sandbox/github/Lion-IRVT/Hardware/source/tida-010086/bts_F2837
    5387                      .dwattr $C$DW$241, DW_AT_decl_line(0x4b2)
    5388                      .dwattr $C$DW$241, DW_AT_decl_column(0x13)
    5389              
    5390              $C$DW$242       .dwtag  DW_TAG_member
    5391                      .dwattr $C$DW$242, DW_AT_type(*$C$DW$T$46)
    5392                      .dwattr $C$DW$242, DW_AT_name("css")
    5393                      .dwattr $C$DW$242, DW_AT_data_member_location[DW_OP_plus_uconst 0x10]
    5394                      .dwattr $C$DW$242, DW_AT_accessibility(DW_ACCESS_public)
    5395                      .dwattr $C$DW$242, DW_AT_decl_file("C:/sandbox/github/Lion-IRVT/Hardware/source/tida-010086/bts_F2837
    5396                      .dwattr $C$DW$242, DW_AT_decl_line(0x4b3)
    5397                      .dwattr $C$DW$242, DW_AT_decl_column(0x0e)
    5398              
    5399                      .dwattr $C$DW$T$47, DW_AT_decl_file("C:/sandbox/github/Lion-IRVT/Hardware/source/tida-010086/bts_F283
    5400                      .dwattr $C$DW$T$47, DW_AT_decl_line(0x4aa)
    5401                      .dwattr $C$DW$T$47, DW_AT_decl_column(0x19)
    5402                      .dwendtag $C$DW$T$47
    5403              
    5404                      .dwendtag $C$DW$TU$47
    5405              
    5406              
    5407              $C$DW$TU$90     .dwtag  DW_TAG_type_unit
    5408                      .dwmtype  $C$DW$T$90
    5409              $C$DW$243       .dwtag  DW_TAG_TI_far_type
    5410                      .dwattr $C$DW$243, DW_AT_type(*$C$DW$T$47)
    5411              
    5412              $C$DW$T$90      .dwtag  DW_TAG_volatile_type
    5413                      .dwattr $C$DW$T$90, DW_AT_type(*$C$DW$243)
    5414              
    5415                      .dwendtag $C$DW$TU$90
    5416              
    5417              
    5418              $C$DW$TU$91     .dwtag  DW_TAG_type_unit
    5419                      .dwmtype  $C$DW$T$91
    5420              $C$DW$T$91      .dwtag  DW_TAG_typedef
    5421                      .dwattr $C$DW$T$91, DW_AT_name("DCL_DF22")
    5422                      .dwattr $C$DW$T$91, DW_AT_type(*$C$DW$T$90)
    5423                      .dwattr $C$DW$T$91, DW_AT_decl_file("C:/sandbox/github/Lion-IRVT/Hardware/source/tida-010086/bts_F283
    5424                      .dwattr $C$DW$T$91, DW_AT_decl_line(0x4b4)
    5425                      .dwattr $C$DW$T$91, DW_AT_decl_column(0x03)
    5426              
    5427                      .dwendtag $C$DW$TU$91
    5428              
    5429              
    5430              $C$DW$TU$48     .dwtag  DW_TAG_type_unit
    5431                      .dwmtype  $C$DW$T$48
    5432              
    5433              $C$DW$T$48      .dwtag  DW_TAG_structure_type
    5434                      .dwattr $C$DW$T$48, DW_AT_name("dcl_df22_sps")
    5435                      .dwattr $C$DW$T$48, DW_AT_byte_size(0x0a)
    5436              $C$DW$244       .dwtag  DW_TAG_member
    5437                      .dwattr $C$DW$244, DW_AT_type(*$C$DW$T$19)
    5438                      .dwattr $C$DW$244, DW_AT_name("b0")
TMS320C2000 Assembler PC v20.2.4 Mon Jan 11 05:48:47 2021

Copyright (c) 1996-2018 Texas Instruments Incorporated
bts.asm                                                              PAGE  114

    5439                      .dwattr $C$DW$244, DW_AT_accessibility(DW_ACCESS_public)
    5440                      .dwattr $C$DW$244, DW_AT_decl_file("C:/sandbox/github/Lion-IRVT/Hardware/source/tida-010086/bts_F2837
    5441                      .dwattr $C$DW$244, DW_AT_decl_line(0x49f)
    5442                      .dwattr $C$DW$244, DW_AT_decl_column(0x0f)
    5443              
    5444              $C$DW$245       .dwtag  DW_TAG_member
    5445                      .dwattr $C$DW$245, DW_AT_type(*$C$DW$T$19)
    5446                      .dwattr $C$DW$245, DW_AT_name("b1")
    5447                      .dwattr $C$DW$245, DW_AT_data_member_location[DW_OP_plus_uconst 0x2]
    5448                      .dwattr $C$DW$245, DW_AT_accessibility(DW_ACCESS_public)
    5449                      .dwattr $C$DW$245, DW_AT_decl_file("C:/sandbox/github/Lion-IRVT/Hardware/source/tida-010086/bts_F2837
    5450                      .dwattr $C$DW$245, DW_AT_decl_line(0x4a0)
    5451                      .dwattr $C$DW$245, DW_AT_decl_column(0x0f)
    5452              
    5453              $C$DW$246       .dwtag  DW_TAG_member
    5454                      .dwattr $C$DW$246, DW_AT_type(*$C$DW$T$19)
    5455                      .dwattr $C$DW$246, DW_AT_name("b2")
    5456                      .dwattr $C$DW$246, DW_AT_data_member_location[DW_OP_plus_uconst 0x4]
    5457                      .dwattr $C$DW$246, DW_AT_accessibility(DW_ACCESS_public)
    5458                      .dwattr $C$DW$246, DW_AT_decl_file("C:/sandbox/github/Lion-IRVT/Hardware/source/tida-010086/bts_F2837
    5459                      .dwattr $C$DW$246, DW_AT_decl_line(0x4a1)
    5460                      .dwattr $C$DW$246, DW_AT_decl_column(0x0f)
    5461              
    5462              $C$DW$247       .dwtag  DW_TAG_member
    5463                      .dwattr $C$DW$247, DW_AT_type(*$C$DW$T$19)
    5464                      .dwattr $C$DW$247, DW_AT_name("a1")
    5465                      .dwattr $C$DW$247, DW_AT_data_member_location[DW_OP_plus_uconst 0x6]
    5466                      .dwattr $C$DW$247, DW_AT_accessibility(DW_ACCESS_public)
    5467                      .dwattr $C$DW$247, DW_AT_decl_file("C:/sandbox/github/Lion-IRVT/Hardware/source/tida-010086/bts_F2837
    5468                      .dwattr $C$DW$247, DW_AT_decl_line(0x4a2)
    5469                      .dwattr $C$DW$247, DW_AT_decl_column(0x0f)
    5470              
    5471              $C$DW$248       .dwtag  DW_TAG_member
    5472                      .dwattr $C$DW$248, DW_AT_type(*$C$DW$T$19)
    5473                      .dwattr $C$DW$248, DW_AT_name("a2")
    5474                      .dwattr $C$DW$248, DW_AT_data_member_location[DW_OP_plus_uconst 0x8]
    5475                      .dwattr $C$DW$248, DW_AT_accessibility(DW_ACCESS_public)
    5476                      .dwattr $C$DW$248, DW_AT_decl_file("C:/sandbox/github/Lion-IRVT/Hardware/source/tida-010086/bts_F2837
    5477                      .dwattr $C$DW$248, DW_AT_decl_line(0x4a3)
    5478                      .dwattr $C$DW$248, DW_AT_decl_column(0x0f)
    5479              
    5480                      .dwattr $C$DW$T$48, DW_AT_decl_file("C:/sandbox/github/Lion-IRVT/Hardware/source/tida-010086/bts_F283
    5481                      .dwattr $C$DW$T$48, DW_AT_decl_line(0x49e)
    5482                      .dwattr $C$DW$T$48, DW_AT_decl_column(0x19)
    5483                      .dwendtag $C$DW$T$48
    5484              
    5485                      .dwendtag $C$DW$TU$48
    5486              
    5487              
    5488              $C$DW$TU$41     .dwtag  DW_TAG_type_unit
    5489                      .dwmtype  $C$DW$T$41
    5490              $C$DW$249       .dwtag  DW_TAG_TI_far_type
    5491                      .dwattr $C$DW$249, DW_AT_type(*$C$DW$T$48)
    5492              
    5493              $C$DW$T$41      .dwtag  DW_TAG_volatile_type
TMS320C2000 Assembler PC v20.2.4 Mon Jan 11 05:48:47 2021

Copyright (c) 1996-2018 Texas Instruments Incorporated
bts.asm                                                              PAGE  115

    5494                      .dwattr $C$DW$T$41, DW_AT_type(*$C$DW$249)
    5495              
    5496                      .dwendtag $C$DW$TU$41
    5497              
    5498              
    5499              $C$DW$TU$42     .dwtag  DW_TAG_type_unit
    5500                      .dwmtype  $C$DW$T$42
    5501              $C$DW$T$42      .dwtag  DW_TAG_typedef
    5502                      .dwattr $C$DW$T$42, DW_AT_name("DCL_DF22_SPS")
    5503                      .dwattr $C$DW$T$42, DW_AT_type(*$C$DW$T$41)
    5504                      .dwattr $C$DW$T$42, DW_AT_decl_file("C:/sandbox/github/Lion-IRVT/Hardware/source/tida-010086/bts_F283
    5505                      .dwattr $C$DW$T$42, DW_AT_decl_line(0x4a4)
    5506                      .dwattr $C$DW$T$42, DW_AT_decl_column(0x03)
    5507              
    5508                      .dwendtag $C$DW$TU$42
    5509              
    5510              
    5511              $C$DW$TU$43     .dwtag  DW_TAG_type_unit
    5512                      .dwmtype  $C$DW$T$43
    5513              $C$DW$T$43      .dwtag  DW_TAG_pointer_type
    5514                      .dwattr $C$DW$T$43, DW_AT_type(*$C$DW$T$42)
    5515                      .dwattr $C$DW$T$43, DW_AT_address_class(0x20)
    5516              
    5517                      .dwendtag $C$DW$TU$43
    5518              

No Assembly Errors, No Assembly Warnings
