TMS320C2000 Assembler PC v20.2.4 Tue Mar  2 07:24:45 2021

Copyright (c) 1996-2018 Texas Instruments Incorporated
bts.asm                                                              PAGE    1

       1              ;***************************************************************
       2              ;* TMS320C2000 G3 C/C++ Codegen                               PC v20.2.4.LTS *
       3              ;* Date/Time created: Tue Mar  2 07:24:44 2021                 *
       4              ;***************************************************************
       5                      .compiler_opts --abi=eabi --cla_support=cla1 --diag_wrap=off --float_support=fpu32 --hll_source=on --
       6                      .asg    XAR2, FP
       7              
       8              $C$DW$CU        .dwtag  DW_TAG_compile_unit
       9                      .dwattr $C$DW$CU, DW_AT_name("../bts.c")
      10                      .dwattr $C$DW$CU, DW_AT_producer("TI TMS320C2000 G3 C/C++ Codegen PC v20.2.4.LTS Copyright (c) 1996-2
      11                      .dwattr $C$DW$CU, DW_AT_TI_version(0x01)
      12                      .dwattr $C$DW$CU, DW_AT_comp_dir("C:\sandbox\github\Lion-IRVT\Hardware\source\tida-010086\bts_F2837xD
      13              
      14              $C$DW$1 .dwtag  DW_TAG_subprogram
      15                      .dwattr $C$DW$1, DW_AT_name("SFRA_F32_reset")
      16                      .dwattr $C$DW$1, DW_AT_linkage_name("SFRA_F32_reset")
      17                      .dwattr $C$DW$1, DW_AT_declaration
      18                      .dwattr $C$DW$1, DW_AT_external
      19                      .dwattr $C$DW$1, DW_AT_decl_file("C:/sandbox/github/Lion-IRVT/Hardware/source/tida-010086/bts_F2837xD
      20                      .dwattr $C$DW$1, DW_AT_decl_line(0x5a)
      21                      .dwattr $C$DW$1, DW_AT_decl_column(0x0d)
      22              $C$DW$2 .dwtag  DW_TAG_formal_parameter
      23                      .dwattr $C$DW$2, DW_AT_type(*$C$DW$T$58)
      24              
      25                      .dwendtag $C$DW$1
      26              
      27              
      28              $C$DW$3 .dwtag  DW_TAG_subprogram
      29                      .dwattr $C$DW$3, DW_AT_name("SFRA_F32_config")
      30                      .dwattr $C$DW$3, DW_AT_linkage_name("SFRA_F32_config")
      31                      .dwattr $C$DW$3, DW_AT_declaration
      32                      .dwattr $C$DW$3, DW_AT_external
      33                      .dwattr $C$DW$3, DW_AT_decl_file("C:/sandbox/github/Lion-IRVT/Hardware/source/tida-010086/bts_F2837xD
      34                      .dwattr $C$DW$3, DW_AT_decl_line(0x6e)
      35                      .dwattr $C$DW$3, DW_AT_decl_column(0x0d)
      36              $C$DW$4 .dwtag  DW_TAG_formal_parameter
      37                      .dwattr $C$DW$4, DW_AT_type(*$C$DW$T$58)
      38              
      39              $C$DW$5 .dwtag  DW_TAG_formal_parameter
      40                      .dwattr $C$DW$5, DW_AT_type(*$C$DW$T$19)
      41              
      42              $C$DW$6 .dwtag  DW_TAG_formal_parameter
      43                      .dwattr $C$DW$6, DW_AT_type(*$C$DW$T$19)
      44              
      45              $C$DW$7 .dwtag  DW_TAG_formal_parameter
      46                      .dwattr $C$DW$7, DW_AT_type(*$C$DW$T$22)
      47              
      48              $C$DW$8 .dwtag  DW_TAG_formal_parameter
      49                      .dwattr $C$DW$8, DW_AT_type(*$C$DW$T$19)
      50              
      51              $C$DW$9 .dwtag  DW_TAG_formal_parameter
      52                      .dwattr $C$DW$9, DW_AT_type(*$C$DW$T$19)
      53              
      54              $C$DW$10        .dwtag  DW_TAG_formal_parameter
      55                      .dwattr $C$DW$10, DW_AT_type(*$C$DW$T$20)
TMS320C2000 Assembler PC v20.2.4 Tue Mar  2 07:24:45 2021

Copyright (c) 1996-2018 Texas Instruments Incorporated
bts.asm                                                              PAGE    2

      56              
      57              $C$DW$11        .dwtag  DW_TAG_formal_parameter
      58                      .dwattr $C$DW$11, DW_AT_type(*$C$DW$T$20)
      59              
      60              $C$DW$12        .dwtag  DW_TAG_formal_parameter
      61                      .dwattr $C$DW$12, DW_AT_type(*$C$DW$T$20)
      62              
      63              $C$DW$13        .dwtag  DW_TAG_formal_parameter
      64                      .dwattr $C$DW$13, DW_AT_type(*$C$DW$T$20)
      65              
      66              $C$DW$14        .dwtag  DW_TAG_formal_parameter
      67                      .dwattr $C$DW$14, DW_AT_type(*$C$DW$T$20)
      68              
      69              $C$DW$15        .dwtag  DW_TAG_formal_parameter
      70                      .dwattr $C$DW$15, DW_AT_type(*$C$DW$T$20)
      71              
      72              $C$DW$16        .dwtag  DW_TAG_formal_parameter
      73                      .dwattr $C$DW$16, DW_AT_type(*$C$DW$T$20)
      74              
      75              $C$DW$17        .dwtag  DW_TAG_formal_parameter
      76                      .dwattr $C$DW$17, DW_AT_type(*$C$DW$T$22)
      77              
      78                      .dwendtag $C$DW$3
      79              
      80              
      81              $C$DW$18        .dwtag  DW_TAG_subprogram
      82                      .dwattr $C$DW$18, DW_AT_name("SFRA_F32_resetFreqRespArray")
      83                      .dwattr $C$DW$18, DW_AT_linkage_name("SFRA_F32_resetFreqRespArray")
      84                      .dwattr $C$DW$18, DW_AT_declaration
      85                      .dwattr $C$DW$18, DW_AT_external
      86                      .dwattr $C$DW$18, DW_AT_decl_file("C:/sandbox/github/Lion-IRVT/Hardware/source/tida-010086/bts_F2837x
      87                      .dwattr $C$DW$18, DW_AT_decl_line(0x8c)
      88                      .dwattr $C$DW$18, DW_AT_decl_column(0x0d)
      89              $C$DW$19        .dwtag  DW_TAG_formal_parameter
      90                      .dwattr $C$DW$19, DW_AT_type(*$C$DW$T$58)
      91              
      92                      .dwendtag $C$DW$18
      93              
      94              
      95              $C$DW$20        .dwtag  DW_TAG_subprogram
      96                      .dwattr $C$DW$20, DW_AT_name("SFRA_F32_initFreqArrayWithLogSteps")
      97                      .dwattr $C$DW$20, DW_AT_linkage_name("SFRA_F32_initFreqArrayWithLogSteps")
      98                      .dwattr $C$DW$20, DW_AT_declaration
      99                      .dwattr $C$DW$20, DW_AT_external
     100                      .dwattr $C$DW$20, DW_AT_decl_file("C:/sandbox/github/Lion-IRVT/Hardware/source/tida-010086/bts_F2837x
     101                      .dwattr $C$DW$20, DW_AT_decl_line(0x83)
     102                      .dwattr $C$DW$20, DW_AT_decl_column(0x0d)
     103              $C$DW$21        .dwtag  DW_TAG_formal_parameter
     104                      .dwattr $C$DW$21, DW_AT_type(*$C$DW$T$58)
     105              
     106              $C$DW$22        .dwtag  DW_TAG_formal_parameter
     107                      .dwattr $C$DW$22, DW_AT_type(*$C$DW$T$19)
     108              
     109              $C$DW$23        .dwtag  DW_TAG_formal_parameter
     110                      .dwattr $C$DW$23, DW_AT_type(*$C$DW$T$19)
TMS320C2000 Assembler PC v20.2.4 Tue Mar  2 07:24:45 2021

Copyright (c) 1996-2018 Texas Instruments Incorporated
bts.asm                                                              PAGE    3

     111              
     112                      .dwendtag $C$DW$20
     113              
     114              
     115              $C$DW$24        .dwtag  DW_TAG_subprogram
     116                      .dwattr $C$DW$24, DW_AT_name("SFRA_GUI_config")
     117                      .dwattr $C$DW$24, DW_AT_linkage_name("SFRA_GUI_config")
     118                      .dwattr $C$DW$24, DW_AT_declaration
     119                      .dwattr $C$DW$24, DW_AT_external
     120                      .dwattr $C$DW$24, DW_AT_decl_file("C:/sandbox/github/Lion-IRVT/Hardware/source/tida-010086/bts_F2837x
     121                      .dwattr $C$DW$24, DW_AT_decl_line(0x3b)
     122                      .dwattr $C$DW$24, DW_AT_decl_column(0x06)
     123              $C$DW$25        .dwtag  DW_TAG_formal_parameter
     124                      .dwattr $C$DW$25, DW_AT_type(*$C$DW$T$92)
     125              
     126              $C$DW$26        .dwtag  DW_TAG_formal_parameter
     127                      .dwattr $C$DW$26, DW_AT_type(*$C$DW$T$37)
     128              
     129              $C$DW$27        .dwtag  DW_TAG_formal_parameter
     130                      .dwattr $C$DW$27, DW_AT_type(*$C$DW$T$37)
     131              
     132              $C$DW$28        .dwtag  DW_TAG_formal_parameter
     133                      .dwattr $C$DW$28, DW_AT_type(*$C$DW$T$26)
     134              
     135              $C$DW$29        .dwtag  DW_TAG_formal_parameter
     136                      .dwattr $C$DW$29, DW_AT_type(*$C$DW$T$37)
     137              
     138              $C$DW$30        .dwtag  DW_TAG_formal_parameter
     139                      .dwattr $C$DW$30, DW_AT_type(*$C$DW$T$26)
     140              
     141              $C$DW$31        .dwtag  DW_TAG_formal_parameter
     142                      .dwattr $C$DW$31, DW_AT_type(*$C$DW$T$37)
     143              
     144              $C$DW$32        .dwtag  DW_TAG_formal_parameter
     145                      .dwattr $C$DW$32, DW_AT_type(*$C$DW$T$26)
     146              
     147              $C$DW$33        .dwtag  DW_TAG_formal_parameter
     148                      .dwattr $C$DW$33, DW_AT_type(*$C$DW$T$26)
     149              
     150              $C$DW$34        .dwtag  DW_TAG_formal_parameter
     151                      .dwattr $C$DW$34, DW_AT_type(*$C$DW$T$37)
     152              
     153              $C$DW$35        .dwtag  DW_TAG_formal_parameter
     154                      .dwattr $C$DW$35, DW_AT_type(*$C$DW$T$58)
     155              
     156              $C$DW$36        .dwtag  DW_TAG_formal_parameter
     157                      .dwattr $C$DW$36, DW_AT_type(*$C$DW$T$26)
     158              
     159                      .dwendtag $C$DW$24
     160              
     161              
     162              $C$DW$37        .dwtag  DW_TAG_subprogram
     163                      .dwattr $C$DW$37, DW_AT_name("I2C_disableInterrupt")
     164                      .dwattr $C$DW$37, DW_AT_linkage_name("I2C_disableInterrupt")
     165                      .dwattr $C$DW$37, DW_AT_declaration
TMS320C2000 Assembler PC v20.2.4 Tue Mar  2 07:24:45 2021

Copyright (c) 1996-2018 Texas Instruments Incorporated
bts.asm                                                              PAGE    4

     166                      .dwattr $C$DW$37, DW_AT_external
     167                      .dwattr $C$DW$37, DW_AT_decl_file("C:/ti/c2000/C2000Ware_DigitalPower_SDK_3_01_00_00/c2000ware/driver
     168                      .dwattr $C$DW$37, DW_AT_decl_line(0x4af)
     169                      .dwattr $C$DW$37, DW_AT_decl_column(0x01)
     170              $C$DW$38        .dwtag  DW_TAG_formal_parameter
     171                      .dwattr $C$DW$38, DW_AT_type(*$C$DW$T$37)
     172              
     173              $C$DW$39        .dwtag  DW_TAG_formal_parameter
     174                      .dwattr $C$DW$39, DW_AT_type(*$C$DW$T$37)
     175              
     176                      .dwendtag $C$DW$37
     177              
     178              
     179              $C$DW$40        .dwtag  DW_TAG_subprogram
     180                      .dwattr $C$DW$40, DW_AT_name("handleI2C_ErrorCondition")
     181                      .dwattr $C$DW$40, DW_AT_linkage_name("handleI2C_ErrorCondition")
     182                      .dwattr $C$DW$40, DW_AT_declaration
     183                      .dwattr $C$DW$40, DW_AT_external
     184                      .dwattr $C$DW$40, DW_AT_decl_file("C:\sandbox\github\Lion-IRVT\Hardware\source\tida-010086\bts_F2837x
     185                      .dwattr $C$DW$40, DW_AT_decl_line(0x61)
     186                      .dwattr $C$DW$40, DW_AT_decl_column(0x0d)
     187              $C$DW$41        .dwtag  DW_TAG_formal_parameter
     188                      .dwattr $C$DW$41, DW_AT_type(*$C$DW$T$40)
     189              
     190                      .dwendtag $C$DW$40
     191              
     192              
     193              $C$DW$42        .dwtag  DW_TAG_subprogram
     194                      .dwattr $C$DW$42, DW_AT_name("Write_Read_TX_RX_FIFO")
     195                      .dwattr $C$DW$42, DW_AT_linkage_name("Write_Read_TX_RX_FIFO")
     196                      .dwattr $C$DW$42, DW_AT_declaration
     197                      .dwattr $C$DW$42, DW_AT_external
     198                      .dwattr $C$DW$42, DW_AT_decl_file("C:\sandbox\github\Lion-IRVT\Hardware\source\tida-010086\bts_F2837x
     199                      .dwattr $C$DW$42, DW_AT_decl_line(0x62)
     200                      .dwattr $C$DW$42, DW_AT_decl_column(0x0d)
     201              $C$DW$43        .dwtag  DW_TAG_formal_parameter
     202                      .dwattr $C$DW$43, DW_AT_type(*$C$DW$T$40)
     203              
     204                      .dwendtag $C$DW$42
     205              
     206              
     207              $C$DW$44        .dwtag  DW_TAG_subprogram
     208                      .dwattr $C$DW$44, DW_AT_name("I2C_enableInterrupt")
     209                      .dwattr $C$DW$44, DW_AT_linkage_name("I2C_enableInterrupt")
     210                      .dwattr $C$DW$44, DW_AT_declaration
     211                      .dwattr $C$DW$44, DW_AT_external
     212                      .dwattr $C$DW$44, DW_AT_decl_file("C:/ti/c2000/C2000Ware_DigitalPower_SDK_3_01_00_00/c2000ware/driver
     213                      .dwattr $C$DW$44, DW_AT_decl_line(0x49b)
     214                      .dwattr $C$DW$44, DW_AT_decl_column(0x01)
     215              $C$DW$45        .dwtag  DW_TAG_formal_parameter
     216                      .dwattr $C$DW$45, DW_AT_type(*$C$DW$T$37)
     217              
     218              $C$DW$46        .dwtag  DW_TAG_formal_parameter
     219                      .dwattr $C$DW$46, DW_AT_type(*$C$DW$T$37)
     220              
TMS320C2000 Assembler PC v20.2.4 Tue Mar  2 07:24:45 2021

Copyright (c) 1996-2018 Texas Instruments Incorporated
bts.asm                                                              PAGE    5

     221                      .dwendtag $C$DW$44
     222              
     223              
     224              $C$DW$47        .dwtag  DW_TAG_subprogram
     225                      .dwattr $C$DW$47, DW_AT_name("I2C_clearInterruptStatus")
     226                      .dwattr $C$DW$47, DW_AT_linkage_name("I2C_clearInterruptStatus")
     227                      .dwattr $C$DW$47, DW_AT_declaration
     228                      .dwattr $C$DW$47, DW_AT_external
     229                      .dwattr $C$DW$47, DW_AT_decl_file("C:/ti/c2000/C2000Ware_DigitalPower_SDK_3_01_00_00/c2000ware/driver
     230                      .dwattr $C$DW$47, DW_AT_decl_line(0x4e5)
     231                      .dwattr $C$DW$47, DW_AT_decl_column(0x01)
     232              $C$DW$48        .dwtag  DW_TAG_formal_parameter
     233                      .dwattr $C$DW$48, DW_AT_type(*$C$DW$T$37)
     234              
     235              $C$DW$49        .dwtag  DW_TAG_formal_parameter
     236                      .dwattr $C$DW$49, DW_AT_type(*$C$DW$T$37)
     237              
     238                      .dwendtag $C$DW$47
     239              
     240                      .global ||BUCK_sfoStatus||
     241 00000000               .bss    ||BUCK_sfoStatus||,1,1,0
     242              $C$DW$50        .dwtag  DW_TAG_variable
     243                      .dwattr $C$DW$50, DW_AT_name("BUCK_sfoStatus")
     244                      .dwattr $C$DW$50, DW_AT_linkage_name("BUCK_sfoStatus")
     245                      .dwattr $C$DW$50, DW_AT_location[DW_OP_addr ||BUCK_sfoStatus||]
     246                      .dwattr $C$DW$50, DW_AT_type(*$C$DW$T$26)
     247                      .dwattr $C$DW$50, DW_AT_external
     248                      .dwattr $C$DW$50, DW_AT_decl_file("../bts.c")
     249                      .dwattr $C$DW$50, DW_AT_decl_line(0x58)
     250                      .dwattr $C$DW$50, DW_AT_decl_column(0x16)
     251              
     252                      .global ||BTS_sfoStatus||
     253 00000001               .bss    ||BTS_sfoStatus||,1,1,0
     254              $C$DW$51        .dwtag  DW_TAG_variable
     255                      .dwattr $C$DW$51, DW_AT_name("BTS_sfoStatus")
     256                      .dwattr $C$DW$51, DW_AT_linkage_name("BTS_sfoStatus")
     257                      .dwattr $C$DW$51, DW_AT_location[DW_OP_addr ||BTS_sfoStatus||]
     258                      .dwattr $C$DW$51, DW_AT_type(*$C$DW$T$26)
     259                      .dwattr $C$DW$51, DW_AT_external
     260                      .dwattr $C$DW$51, DW_AT_decl_file("../bts.c")
     261                      .dwattr $C$DW$51, DW_AT_decl_line(0x59)
     262                      .dwattr $C$DW$51, DW_AT_decl_column(0x16)
     263              
     264                      .global ||status||
     265 00000002               .bss    ||status||,1,1,0
     266              $C$DW$52        .dwtag  DW_TAG_variable
     267                      .dwattr $C$DW$52, DW_AT_name("status")
     268                      .dwattr $C$DW$52, DW_AT_linkage_name("status")
     269                      .dwattr $C$DW$52, DW_AT_location[DW_OP_addr ||status||]
     270                      .dwattr $C$DW$52, DW_AT_type(*$C$DW$T$26)
     271                      .dwattr $C$DW$52, DW_AT_external
     272                      .dwattr $C$DW$52, DW_AT_decl_file("../bts.c")
     273                      .dwattr $C$DW$52, DW_AT_decl_line(0x240)
     274                      .dwattr $C$DW$52, DW_AT_decl_column(0x0a)
     275              
TMS320C2000 Assembler PC v20.2.4 Tue Mar  2 07:24:45 2021

Copyright (c) 1996-2018 Texas Instruments Incorporated
bts.asm                                                              PAGE    6

     276              
     277              $C$DW$53        .dwtag  DW_TAG_subprogram
     278                      .dwattr $C$DW$53, DW_AT_name("SFO")
     279                      .dwattr $C$DW$53, DW_AT_linkage_name("SFO")
     280                      .dwattr $C$DW$53, DW_AT_type(*$C$DW$T$10)
     281                      .dwattr $C$DW$53, DW_AT_declaration
     282                      .dwattr $C$DW$53, DW_AT_external
     283                      .dwattr $C$DW$53, DW_AT_decl_file("C:/sandbox/github/Lion-IRVT/Hardware/source/tida-010086/bts_F2837x
     284                      .dwattr $C$DW$53, DW_AT_decl_line(0x40)
     285                      .dwattr $C$DW$53, DW_AT_decl_column(0x05)
     286                      .dwendtag $C$DW$53
     287              
     288                      .global ||MEP_ScaleFactor||
     289 00000004               .bss    ||MEP_ScaleFactor||,2,1,1
     290              $C$DW$54        .dwtag  DW_TAG_variable
     291                      .dwattr $C$DW$54, DW_AT_name("MEP_ScaleFactor")
     292                      .dwattr $C$DW$54, DW_AT_linkage_name("MEP_ScaleFactor")
     293                      .dwattr $C$DW$54, DW_AT_location[DW_OP_addr ||MEP_ScaleFactor||]
     294                      .dwattr $C$DW$54, DW_AT_type(*$C$DW$T$37)
     295                      .dwattr $C$DW$54, DW_AT_external
     296                      .dwattr $C$DW$54, DW_AT_decl_file("../bts.c")
     297                      .dwattr $C$DW$54, DW_AT_decl_line(0x57)
     298                      .dwattr $C$DW$54, DW_AT_decl_column(0x16)
     299              
     300                      .global ||i2c_int_crnt_responderPtr||
     301 00000006               .bss    ||i2c_int_crnt_responderPtr||,2,1,1
     302              $C$DW$55        .dwtag  DW_TAG_variable
     303                      .dwattr $C$DW$55, DW_AT_name("i2c_int_crnt_responderPtr")
     304                      .dwattr $C$DW$55, DW_AT_linkage_name("i2c_int_crnt_responderPtr")
     305                      .dwattr $C$DW$55, DW_AT_location[DW_OP_addr ||i2c_int_crnt_responderPtr||]
     306                      .dwattr $C$DW$55, DW_AT_type(*$C$DW$T$40)
     307                      .dwattr $C$DW$55, DW_AT_external
     308                      .dwattr $C$DW$55, DW_AT_decl_file("../bts.c")
     309                      .dwattr $C$DW$55, DW_AT_decl_line(0x234)
     310                      .dwattr $C$DW$55, DW_AT_decl_column(0x13)
     311              
     312                      .global ||I2CA_ControlAddr||
     313 00000008               .bss    ||I2CA_ControlAddr||,2,1,1
     314              $C$DW$56        .dwtag  DW_TAG_variable
     315                      .dwattr $C$DW$56, DW_AT_name("I2CA_ControlAddr")
     316                      .dwattr $C$DW$56, DW_AT_linkage_name("I2CA_ControlAddr")
     317                      .dwattr $C$DW$56, DW_AT_location[DW_OP_addr ||I2CA_ControlAddr||]
     318                      .dwattr $C$DW$56, DW_AT_type(*$C$DW$T$37)
     319                      .dwattr $C$DW$56, DW_AT_external
     320                      .dwattr $C$DW$56, DW_AT_decl_file("../bts.c")
     321                      .dwattr $C$DW$56, DW_AT_decl_line(0x23e)
     322                      .dwattr $C$DW$56, DW_AT_decl_column(0x0a)
     323              
     324                      .global ||I2CB_ControlAddr||
     325 0000000a               .bss    ||I2CB_ControlAddr||,2,1,1
     326              $C$DW$57        .dwtag  DW_TAG_variable
     327                      .dwattr $C$DW$57, DW_AT_name("I2CB_ControlAddr")
     328                      .dwattr $C$DW$57, DW_AT_linkage_name("I2CB_ControlAddr")
     329                      .dwattr $C$DW$57, DW_AT_location[DW_OP_addr ||I2CB_ControlAddr||]
     330                      .dwattr $C$DW$57, DW_AT_type(*$C$DW$T$37)
TMS320C2000 Assembler PC v20.2.4 Tue Mar  2 07:24:45 2021

Copyright (c) 1996-2018 Texas Instruments Incorporated
bts.asm                                                              PAGE    7

     331                      .dwattr $C$DW$57, DW_AT_external
     332                      .dwattr $C$DW$57, DW_AT_decl_file("../bts.c")
     333                      .dwattr $C$DW$57, DW_AT_decl_line(0x23f)
     334                      .dwattr $C$DW$57, DW_AT_decl_column(0x0a)
     335              
     336              
     337              $C$DW$58        .dwtag  DW_TAG_subprogram
     338                      .dwattr $C$DW$58, DW_AT_name("SysCtl_getLowSpeedClock")
     339                      .dwattr $C$DW$58, DW_AT_linkage_name("SysCtl_getLowSpeedClock")
     340                      .dwattr $C$DW$58, DW_AT_type(*$C$DW$T$37)
     341                      .dwattr $C$DW$58, DW_AT_declaration
     342                      .dwattr $C$DW$58, DW_AT_external
     343                      .dwattr $C$DW$58, DW_AT_decl_file("C:\ti\c2000\C2000Ware_DigitalPower_SDK_3_01_00_00\c2000ware\driver
     344                      .dwattr $C$DW$58, DW_AT_decl_line(0xc8a)
     345                      .dwattr $C$DW$58, DW_AT_decl_column(0x01)
     346              $C$DW$59        .dwtag  DW_TAG_formal_parameter
     347                      .dwattr $C$DW$59, DW_AT_type(*$C$DW$T$37)
     348              
     349                      .dwendtag $C$DW$58
     350              
     351                      .global ||BTS_ctrl_cc_ch1||
     352 00000000               .data
     353                      .align  2
     354                      .elfsym ||BTS_ctrl_cc_ch1||,SYM_SIZE(18),SYM_BLOCKED(1)
     355 00000000       ||BTS_ctrl_cc_ch1||:
     356 00000000 0000          .xfloat $strtod("0x1p+0")               ; BTS_ctrl_cc_ch1.b0 @ 0
         00000001 3F80 
     357 00000002 0000          .xfloat $strtod("0x0p+0")               ; BTS_ctrl_cc_ch1.b1 @ 32
         00000003 0000 
     358 00000004 0000          .xfloat $strtod("0x0p+0")               ; BTS_ctrl_cc_ch1.b2 @ 64
         00000005 0000 
     359 00000006 0000          .xfloat $strtod("0x0p+0")               ; BTS_ctrl_cc_ch1.a1 @ 96
         00000007 0000 
     360 00000008 0000          .xfloat $strtod("0x0p+0")               ; BTS_ctrl_cc_ch1.a2 @ 128
         00000009 0000 
     361 0000000a 0000          .xfloat $strtod("0x0p+0")               ; BTS_ctrl_cc_ch1.x1 @ 160
         0000000b 0000 
     362 0000000c 0000          .xfloat $strtod("0x0p+0")               ; BTS_ctrl_cc_ch1.x2 @ 192
         0000000d 0000 
     363 0000000e 0000          .bits           0,32
         0000000f 0000 
     364                                      ; BTS_ctrl_cc_ch1.sps @ 224
     365 00000010 0000          .bits           0,32
         00000011 0000 
     366                                      ; BTS_ctrl_cc_ch1.css @ 256
     367              
     368              $C$DW$60        .dwtag  DW_TAG_variable
     369                      .dwattr $C$DW$60, DW_AT_name("BTS_ctrl_cc_ch1")
     370                      .dwattr $C$DW$60, DW_AT_linkage_name("BTS_ctrl_cc_ch1")
     371                      .dwattr $C$DW$60, DW_AT_location[DW_OP_addr ||BTS_ctrl_cc_ch1||]
     372                      .dwattr $C$DW$60, DW_AT_type(*$C$DW$T$129)
     373                      .dwattr $C$DW$60, DW_AT_external
     374                      .dwattr $C$DW$60, DW_AT_decl_file("../bts.c")
     375                      .dwattr $C$DW$60, DW_AT_decl_line(0x31)
     376                      .dwattr $C$DW$60, DW_AT_decl_column(0x15)
TMS320C2000 Assembler PC v20.2.4 Tue Mar  2 07:24:45 2021

Copyright (c) 1996-2018 Texas Instruments Incorporated
bts.asm                                                              PAGE    8

     377              
     378                      .global ||BTS_ctrl_cc_ch2||
     379 00000012               .data
     380                      .align  2
     381                      .elfsym ||BTS_ctrl_cc_ch2||,SYM_SIZE(18),SYM_BLOCKED(1)
     382 00000012       ||BTS_ctrl_cc_ch2||:
     383 00000012 0000          .xfloat $strtod("0x1p+0")               ; BTS_ctrl_cc_ch2.b0 @ 0
         00000013 3F80 
     384 00000014 0000          .xfloat $strtod("0x0p+0")               ; BTS_ctrl_cc_ch2.b1 @ 32
         00000015 0000 
     385 00000016 0000          .xfloat $strtod("0x0p+0")               ; BTS_ctrl_cc_ch2.b2 @ 64
         00000017 0000 
     386 00000018 0000          .xfloat $strtod("0x0p+0")               ; BTS_ctrl_cc_ch2.a1 @ 96
         00000019 0000 
     387 0000001a 0000          .xfloat $strtod("0x0p+0")               ; BTS_ctrl_cc_ch2.a2 @ 128
         0000001b 0000 
     388 0000001c 0000          .xfloat $strtod("0x0p+0")               ; BTS_ctrl_cc_ch2.x1 @ 160
         0000001d 0000 
     389 0000001e 0000          .xfloat $strtod("0x0p+0")               ; BTS_ctrl_cc_ch2.x2 @ 192
         0000001f 0000 
     390 00000020 0000          .bits           0,32
         00000021 0000 
     391                                      ; BTS_ctrl_cc_ch2.sps @ 224
     392 00000022 0000          .bits           0,32
         00000023 0000 
     393                                      ; BTS_ctrl_cc_ch2.css @ 256
     394              
     395              $C$DW$61        .dwtag  DW_TAG_variable
     396                      .dwattr $C$DW$61, DW_AT_name("BTS_ctrl_cc_ch2")
     397                      .dwattr $C$DW$61, DW_AT_linkage_name("BTS_ctrl_cc_ch2")
     398                      .dwattr $C$DW$61, DW_AT_location[DW_OP_addr ||BTS_ctrl_cc_ch2||]
     399                      .dwattr $C$DW$61, DW_AT_type(*$C$DW$T$129)
     400                      .dwattr $C$DW$61, DW_AT_external
     401                      .dwattr $C$DW$61, DW_AT_decl_file("../bts.c")
     402                      .dwattr $C$DW$61, DW_AT_decl_line(0x32)
     403                      .dwattr $C$DW$61, DW_AT_decl_column(0x15)
     404              
     405                      .global ||BTS_ctrl_cc_ch3||
     406 00000024               .data
     407                      .align  2
     408                      .elfsym ||BTS_ctrl_cc_ch3||,SYM_SIZE(18),SYM_BLOCKED(1)
     409 00000024       ||BTS_ctrl_cc_ch3||:
     410 00000024 0000          .xfloat $strtod("0x1p+0")               ; BTS_ctrl_cc_ch3.b0 @ 0
         00000025 3F80 
     411 00000026 0000          .xfloat $strtod("0x0p+0")               ; BTS_ctrl_cc_ch3.b1 @ 32
         00000027 0000 
     412 00000028 0000          .xfloat $strtod("0x0p+0")               ; BTS_ctrl_cc_ch3.b2 @ 64
         00000029 0000 
     413 0000002a 0000          .xfloat $strtod("0x0p+0")               ; BTS_ctrl_cc_ch3.a1 @ 96
         0000002b 0000 
     414 0000002c 0000          .xfloat $strtod("0x0p+0")               ; BTS_ctrl_cc_ch3.a2 @ 128
         0000002d 0000 
     415 0000002e 0000          .xfloat $strtod("0x0p+0")               ; BTS_ctrl_cc_ch3.x1 @ 160
         0000002f 0000 
     416 00000030 0000          .xfloat $strtod("0x0p+0")               ; BTS_ctrl_cc_ch3.x2 @ 192
TMS320C2000 Assembler PC v20.2.4 Tue Mar  2 07:24:45 2021

Copyright (c) 1996-2018 Texas Instruments Incorporated
bts.asm                                                              PAGE    9

         00000031 0000 
     417 00000032 0000          .bits           0,32
         00000033 0000 
     418                                      ; BTS_ctrl_cc_ch3.sps @ 224
     419 00000034 0000          .bits           0,32
         00000035 0000 
     420                                      ; BTS_ctrl_cc_ch3.css @ 256
     421              
     422              $C$DW$62        .dwtag  DW_TAG_variable
     423                      .dwattr $C$DW$62, DW_AT_name("BTS_ctrl_cc_ch3")
     424                      .dwattr $C$DW$62, DW_AT_linkage_name("BTS_ctrl_cc_ch3")
     425                      .dwattr $C$DW$62, DW_AT_location[DW_OP_addr ||BTS_ctrl_cc_ch3||]
     426                      .dwattr $C$DW$62, DW_AT_type(*$C$DW$T$129)
     427                      .dwattr $C$DW$62, DW_AT_external
     428                      .dwattr $C$DW$62, DW_AT_decl_file("../bts.c")
     429                      .dwattr $C$DW$62, DW_AT_decl_line(0x33)
     430                      .dwattr $C$DW$62, DW_AT_decl_column(0x15)
     431              
     432                      .global ||BTS_ctrl_cc_ch4||
     433 00000036               .data
     434                      .align  2
     435                      .elfsym ||BTS_ctrl_cc_ch4||,SYM_SIZE(18),SYM_BLOCKED(1)
     436 00000040       ||BTS_ctrl_cc_ch4||:
     437 00000040 0000          .xfloat $strtod("0x1p+0")               ; BTS_ctrl_cc_ch4.b0 @ 0
         00000041 3F80 
     438 00000042 0000          .xfloat $strtod("0x0p+0")               ; BTS_ctrl_cc_ch4.b1 @ 32
         00000043 0000 
     439 00000044 0000          .xfloat $strtod("0x0p+0")               ; BTS_ctrl_cc_ch4.b2 @ 64
         00000045 0000 
     440 00000046 0000          .xfloat $strtod("0x0p+0")               ; BTS_ctrl_cc_ch4.a1 @ 96
         00000047 0000 
     441 00000048 0000          .xfloat $strtod("0x0p+0")               ; BTS_ctrl_cc_ch4.a2 @ 128
         00000049 0000 
     442 0000004a 0000          .xfloat $strtod("0x0p+0")               ; BTS_ctrl_cc_ch4.x1 @ 160
         0000004b 0000 
     443 0000004c 0000          .xfloat $strtod("0x0p+0")               ; BTS_ctrl_cc_ch4.x2 @ 192
         0000004d 0000 
     444 0000004e 0000          .bits           0,32
         0000004f 0000 
     445                                      ; BTS_ctrl_cc_ch4.sps @ 224
     446 00000050 0000          .bits           0,32
         00000051 0000 
     447                                      ; BTS_ctrl_cc_ch4.css @ 256
     448              
     449              $C$DW$63        .dwtag  DW_TAG_variable
     450                      .dwattr $C$DW$63, DW_AT_name("BTS_ctrl_cc_ch4")
     451                      .dwattr $C$DW$63, DW_AT_linkage_name("BTS_ctrl_cc_ch4")
     452                      .dwattr $C$DW$63, DW_AT_location[DW_OP_addr ||BTS_ctrl_cc_ch4||]
     453                      .dwattr $C$DW$63, DW_AT_type(*$C$DW$T$129)
     454                      .dwattr $C$DW$63, DW_AT_external
     455                      .dwattr $C$DW$63, DW_AT_decl_file("../bts.c")
     456                      .dwattr $C$DW$63, DW_AT_decl_line(0x34)
     457                      .dwattr $C$DW$63, DW_AT_decl_column(0x15)
     458              
     459                      .global ||BTS_ctrl_cc_ch5||
TMS320C2000 Assembler PC v20.2.4 Tue Mar  2 07:24:45 2021

Copyright (c) 1996-2018 Texas Instruments Incorporated
bts.asm                                                              PAGE   10

     460 00000052               .data
     461                      .align  2
     462                      .elfsym ||BTS_ctrl_cc_ch5||,SYM_SIZE(18),SYM_BLOCKED(1)
     463 00000052       ||BTS_ctrl_cc_ch5||:
     464 00000052 0000          .xfloat $strtod("0x1p+0")               ; BTS_ctrl_cc_ch5.b0 @ 0
         00000053 3F80 
     465 00000054 0000          .xfloat $strtod("0x0p+0")               ; BTS_ctrl_cc_ch5.b1 @ 32
         00000055 0000 
     466 00000056 0000          .xfloat $strtod("0x0p+0")               ; BTS_ctrl_cc_ch5.b2 @ 64
         00000057 0000 
     467 00000058 0000          .xfloat $strtod("0x0p+0")               ; BTS_ctrl_cc_ch5.a1 @ 96
         00000059 0000 
     468 0000005a 0000          .xfloat $strtod("0x0p+0")               ; BTS_ctrl_cc_ch5.a2 @ 128
         0000005b 0000 
     469 0000005c 0000          .xfloat $strtod("0x0p+0")               ; BTS_ctrl_cc_ch5.x1 @ 160
         0000005d 0000 
     470 0000005e 0000          .xfloat $strtod("0x0p+0")               ; BTS_ctrl_cc_ch5.x2 @ 192
         0000005f 0000 
     471 00000060 0000          .bits           0,32
         00000061 0000 
     472                                      ; BTS_ctrl_cc_ch5.sps @ 224
     473 00000062 0000          .bits           0,32
         00000063 0000 
     474                                      ; BTS_ctrl_cc_ch5.css @ 256
     475              
     476              $C$DW$64        .dwtag  DW_TAG_variable
     477                      .dwattr $C$DW$64, DW_AT_name("BTS_ctrl_cc_ch5")
     478                      .dwattr $C$DW$64, DW_AT_linkage_name("BTS_ctrl_cc_ch5")
     479                      .dwattr $C$DW$64, DW_AT_location[DW_OP_addr ||BTS_ctrl_cc_ch5||]
     480                      .dwattr $C$DW$64, DW_AT_type(*$C$DW$T$129)
     481                      .dwattr $C$DW$64, DW_AT_external
     482                      .dwattr $C$DW$64, DW_AT_decl_file("../bts.c")
     483                      .dwattr $C$DW$64, DW_AT_decl_line(0x35)
     484                      .dwattr $C$DW$64, DW_AT_decl_column(0x15)
     485              
     486                      .global ||BTS_ctrl_cc_ch6||
     487 00000064               .data
     488                      .align  2
     489                      .elfsym ||BTS_ctrl_cc_ch6||,SYM_SIZE(18),SYM_BLOCKED(1)
     490 00000064       ||BTS_ctrl_cc_ch6||:
     491 00000064 0000          .xfloat $strtod("0x1p+0")               ; BTS_ctrl_cc_ch6.b0 @ 0
         00000065 3F80 
     492 00000066 0000          .xfloat $strtod("0x0p+0")               ; BTS_ctrl_cc_ch6.b1 @ 32
         00000067 0000 
     493 00000068 0000          .xfloat $strtod("0x0p+0")               ; BTS_ctrl_cc_ch6.b2 @ 64
         00000069 0000 
     494 0000006a 0000          .xfloat $strtod("0x0p+0")               ; BTS_ctrl_cc_ch6.a1 @ 96
         0000006b 0000 
     495 0000006c 0000          .xfloat $strtod("0x0p+0")               ; BTS_ctrl_cc_ch6.a2 @ 128
         0000006d 0000 
     496 0000006e 0000          .xfloat $strtod("0x0p+0")               ; BTS_ctrl_cc_ch6.x1 @ 160
         0000006f 0000 
     497 00000070 0000          .xfloat $strtod("0x0p+0")               ; BTS_ctrl_cc_ch6.x2 @ 192
         00000071 0000 
     498 00000072 0000          .bits           0,32
TMS320C2000 Assembler PC v20.2.4 Tue Mar  2 07:24:45 2021

Copyright (c) 1996-2018 Texas Instruments Incorporated
bts.asm                                                              PAGE   11

         00000073 0000 
     499                                      ; BTS_ctrl_cc_ch6.sps @ 224
     500 00000074 0000          .bits           0,32
         00000075 0000 
     501                                      ; BTS_ctrl_cc_ch6.css @ 256
     502              
     503              $C$DW$65        .dwtag  DW_TAG_variable
     504                      .dwattr $C$DW$65, DW_AT_name("BTS_ctrl_cc_ch6")
     505                      .dwattr $C$DW$65, DW_AT_linkage_name("BTS_ctrl_cc_ch6")
     506                      .dwattr $C$DW$65, DW_AT_location[DW_OP_addr ||BTS_ctrl_cc_ch6||]
     507                      .dwattr $C$DW$65, DW_AT_type(*$C$DW$T$129)
     508                      .dwattr $C$DW$65, DW_AT_external
     509                      .dwattr $C$DW$65, DW_AT_decl_file("../bts.c")
     510                      .dwattr $C$DW$65, DW_AT_decl_line(0x36)
     511                      .dwattr $C$DW$65, DW_AT_decl_column(0x15)
     512              
     513                      .global ||BTS_ctrl_cc_ch7||
     514 00000076               .data
     515                      .align  2
     516                      .elfsym ||BTS_ctrl_cc_ch7||,SYM_SIZE(18),SYM_BLOCKED(1)
     517 00000080       ||BTS_ctrl_cc_ch7||:
     518 00000080 0000          .xfloat $strtod("0x1p+0")               ; BTS_ctrl_cc_ch7.b0 @ 0
         00000081 3F80 
     519 00000082 0000          .xfloat $strtod("0x0p+0")               ; BTS_ctrl_cc_ch7.b1 @ 32
         00000083 0000 
     520 00000084 0000          .xfloat $strtod("0x0p+0")               ; BTS_ctrl_cc_ch7.b2 @ 64
         00000085 0000 
     521 00000086 0000          .xfloat $strtod("0x0p+0")               ; BTS_ctrl_cc_ch7.a1 @ 96
         00000087 0000 
     522 00000088 0000          .xfloat $strtod("0x0p+0")               ; BTS_ctrl_cc_ch7.a2 @ 128
         00000089 0000 
     523 0000008a 0000          .xfloat $strtod("0x0p+0")               ; BTS_ctrl_cc_ch7.x1 @ 160
         0000008b 0000 
     524 0000008c 0000          .xfloat $strtod("0x0p+0")               ; BTS_ctrl_cc_ch7.x2 @ 192
         0000008d 0000 
     525 0000008e 0000          .bits           0,32
         0000008f 0000 
     526                                      ; BTS_ctrl_cc_ch7.sps @ 224
     527 00000090 0000          .bits           0,32
         00000091 0000 
     528                                      ; BTS_ctrl_cc_ch7.css @ 256
     529              
     530              $C$DW$66        .dwtag  DW_TAG_variable
     531                      .dwattr $C$DW$66, DW_AT_name("BTS_ctrl_cc_ch7")
     532                      .dwattr $C$DW$66, DW_AT_linkage_name("BTS_ctrl_cc_ch7")
     533                      .dwattr $C$DW$66, DW_AT_location[DW_OP_addr ||BTS_ctrl_cc_ch7||]
     534                      .dwattr $C$DW$66, DW_AT_type(*$C$DW$T$129)
     535                      .dwattr $C$DW$66, DW_AT_external
     536                      .dwattr $C$DW$66, DW_AT_decl_file("../bts.c")
     537                      .dwattr $C$DW$66, DW_AT_decl_line(0x37)
     538                      .dwattr $C$DW$66, DW_AT_decl_column(0x15)
     539              
     540                      .global ||BTS_ctrl_cc_ch8||
     541 00000092               .data
     542                      .align  2
TMS320C2000 Assembler PC v20.2.4 Tue Mar  2 07:24:45 2021

Copyright (c) 1996-2018 Texas Instruments Incorporated
bts.asm                                                              PAGE   12

     543                      .elfsym ||BTS_ctrl_cc_ch8||,SYM_SIZE(18),SYM_BLOCKED(1)
     544 00000092       ||BTS_ctrl_cc_ch8||:
     545 00000092 0000          .xfloat $strtod("0x1p+0")               ; BTS_ctrl_cc_ch8.b0 @ 0
         00000093 3F80 
     546 00000094 0000          .xfloat $strtod("0x0p+0")               ; BTS_ctrl_cc_ch8.b1 @ 32
         00000095 0000 
     547 00000096 0000          .xfloat $strtod("0x0p+0")               ; BTS_ctrl_cc_ch8.b2 @ 64
         00000097 0000 
     548 00000098 0000          .xfloat $strtod("0x0p+0")               ; BTS_ctrl_cc_ch8.a1 @ 96
         00000099 0000 
     549 0000009a 0000          .xfloat $strtod("0x0p+0")               ; BTS_ctrl_cc_ch8.a2 @ 128
         0000009b 0000 
     550 0000009c 0000          .xfloat $strtod("0x0p+0")               ; BTS_ctrl_cc_ch8.x1 @ 160
         0000009d 0000 
     551 0000009e 0000          .xfloat $strtod("0x0p+0")               ; BTS_ctrl_cc_ch8.x2 @ 192
         0000009f 0000 
     552 000000a0 0000          .bits           0,32
         000000a1 0000 
     553                                      ; BTS_ctrl_cc_ch8.sps @ 224
     554 000000a2 0000          .bits           0,32
         000000a3 0000 
     555                                      ; BTS_ctrl_cc_ch8.css @ 256
     556              
     557              $C$DW$67        .dwtag  DW_TAG_variable
     558                      .dwattr $C$DW$67, DW_AT_name("BTS_ctrl_cc_ch8")
     559                      .dwattr $C$DW$67, DW_AT_linkage_name("BTS_ctrl_cc_ch8")
     560                      .dwattr $C$DW$67, DW_AT_location[DW_OP_addr ||BTS_ctrl_cc_ch8||]
     561                      .dwattr $C$DW$67, DW_AT_type(*$C$DW$T$129)
     562                      .dwattr $C$DW$67, DW_AT_external
     563                      .dwattr $C$DW$67, DW_AT_decl_file("../bts.c")
     564                      .dwattr $C$DW$67, DW_AT_decl_line(0x38)
     565                      .dwattr $C$DW$67, DW_AT_decl_column(0x15)
     566              
     567                      .global ||BTS_ctrl_cv_ch1||
     568 000000a4               .data
     569                      .align  2
     570                      .elfsym ||BTS_ctrl_cv_ch1||,SYM_SIZE(18),SYM_BLOCKED(1)
     571 000000a4       ||BTS_ctrl_cv_ch1||:
     572 000000a4 0000          .xfloat $strtod("0x1p+0")               ; BTS_ctrl_cv_ch1.b0 @ 0
         000000a5 3F80 
     573 000000a6 0000          .xfloat $strtod("0x0p+0")               ; BTS_ctrl_cv_ch1.b1 @ 32
         000000a7 0000 
     574 000000a8 0000          .xfloat $strtod("0x0p+0")               ; BTS_ctrl_cv_ch1.b2 @ 64
         000000a9 0000 
     575 000000aa 0000          .xfloat $strtod("0x0p+0")               ; BTS_ctrl_cv_ch1.a1 @ 96
         000000ab 0000 
     576 000000ac 0000          .xfloat $strtod("0x0p+0")               ; BTS_ctrl_cv_ch1.a2 @ 128
         000000ad 0000 
     577 000000ae 0000          .xfloat $strtod("0x0p+0")               ; BTS_ctrl_cv_ch1.x1 @ 160
         000000af 0000 
     578 000000b0 0000          .xfloat $strtod("0x0p+0")               ; BTS_ctrl_cv_ch1.x2 @ 192
         000000b1 0000 
     579 000000b2 0000          .bits           0,32
         000000b3 0000 
     580                                      ; BTS_ctrl_cv_ch1.sps @ 224
TMS320C2000 Assembler PC v20.2.4 Tue Mar  2 07:24:45 2021

Copyright (c) 1996-2018 Texas Instruments Incorporated
bts.asm                                                              PAGE   13

     581 000000b4 0000          .bits           0,32
         000000b5 0000 
     582                                      ; BTS_ctrl_cv_ch1.css @ 256
     583              
     584              $C$DW$68        .dwtag  DW_TAG_variable
     585                      .dwattr $C$DW$68, DW_AT_name("BTS_ctrl_cv_ch1")
     586                      .dwattr $C$DW$68, DW_AT_linkage_name("BTS_ctrl_cv_ch1")
     587                      .dwattr $C$DW$68, DW_AT_location[DW_OP_addr ||BTS_ctrl_cv_ch1||]
     588                      .dwattr $C$DW$68, DW_AT_type(*$C$DW$T$129)
     589                      .dwattr $C$DW$68, DW_AT_external
     590                      .dwattr $C$DW$68, DW_AT_decl_file("../bts.c")
     591                      .dwattr $C$DW$68, DW_AT_decl_line(0x3a)
     592                      .dwattr $C$DW$68, DW_AT_decl_column(0x15)
     593              
     594                      .global ||BTS_ctrl_cv_ch2||
     595 000000b6               .data
     596                      .align  2
     597                      .elfsym ||BTS_ctrl_cv_ch2||,SYM_SIZE(18),SYM_BLOCKED(1)
     598 000000c0       ||BTS_ctrl_cv_ch2||:
     599 000000c0 0000          .xfloat $strtod("0x1p+0")               ; BTS_ctrl_cv_ch2.b0 @ 0
         000000c1 3F80 
     600 000000c2 0000          .xfloat $strtod("0x0p+0")               ; BTS_ctrl_cv_ch2.b1 @ 32
         000000c3 0000 
     601 000000c4 0000          .xfloat $strtod("0x0p+0")               ; BTS_ctrl_cv_ch2.b2 @ 64
         000000c5 0000 
     602 000000c6 0000          .xfloat $strtod("0x0p+0")               ; BTS_ctrl_cv_ch2.a1 @ 96
         000000c7 0000 
     603 000000c8 0000          .xfloat $strtod("0x0p+0")               ; BTS_ctrl_cv_ch2.a2 @ 128
         000000c9 0000 
     604 000000ca 0000          .xfloat $strtod("0x0p+0")               ; BTS_ctrl_cv_ch2.x1 @ 160
         000000cb 0000 
     605 000000cc 0000          .xfloat $strtod("0x0p+0")               ; BTS_ctrl_cv_ch2.x2 @ 192
         000000cd 0000 
     606 000000ce 0000          .bits           0,32
         000000cf 0000 
     607                                      ; BTS_ctrl_cv_ch2.sps @ 224
     608 000000d0 0000          .bits           0,32
         000000d1 0000 
     609                                      ; BTS_ctrl_cv_ch2.css @ 256
     610              
     611              $C$DW$69        .dwtag  DW_TAG_variable
     612                      .dwattr $C$DW$69, DW_AT_name("BTS_ctrl_cv_ch2")
     613                      .dwattr $C$DW$69, DW_AT_linkage_name("BTS_ctrl_cv_ch2")
     614                      .dwattr $C$DW$69, DW_AT_location[DW_OP_addr ||BTS_ctrl_cv_ch2||]
     615                      .dwattr $C$DW$69, DW_AT_type(*$C$DW$T$129)
     616                      .dwattr $C$DW$69, DW_AT_external
     617                      .dwattr $C$DW$69, DW_AT_decl_file("../bts.c")
     618                      .dwattr $C$DW$69, DW_AT_decl_line(0x3b)
     619                      .dwattr $C$DW$69, DW_AT_decl_column(0x15)
     620              
     621                      .global ||BTS_ctrl_cv_ch3||
     622 000000d2               .data
     623                      .align  2
     624                      .elfsym ||BTS_ctrl_cv_ch3||,SYM_SIZE(18),SYM_BLOCKED(1)
     625 000000d2       ||BTS_ctrl_cv_ch3||:
TMS320C2000 Assembler PC v20.2.4 Tue Mar  2 07:24:45 2021

Copyright (c) 1996-2018 Texas Instruments Incorporated
bts.asm                                                              PAGE   14

     626 000000d2 0000          .xfloat $strtod("0x1p+0")               ; BTS_ctrl_cv_ch3.b0 @ 0
         000000d3 3F80 
     627 000000d4 0000          .xfloat $strtod("0x0p+0")               ; BTS_ctrl_cv_ch3.b1 @ 32
         000000d5 0000 
     628 000000d6 0000          .xfloat $strtod("0x0p+0")               ; BTS_ctrl_cv_ch3.b2 @ 64
         000000d7 0000 
     629 000000d8 0000          .xfloat $strtod("0x0p+0")               ; BTS_ctrl_cv_ch3.a1 @ 96
         000000d9 0000 
     630 000000da 0000          .xfloat $strtod("0x0p+0")               ; BTS_ctrl_cv_ch3.a2 @ 128
         000000db 0000 
     631 000000dc 0000          .xfloat $strtod("0x0p+0")               ; BTS_ctrl_cv_ch3.x1 @ 160
         000000dd 0000 
     632 000000de 0000          .xfloat $strtod("0x0p+0")               ; BTS_ctrl_cv_ch3.x2 @ 192
         000000df 0000 
     633 000000e0 0000          .bits           0,32
         000000e1 0000 
     634                                      ; BTS_ctrl_cv_ch3.sps @ 224
     635 000000e2 0000          .bits           0,32
         000000e3 0000 
     636                                      ; BTS_ctrl_cv_ch3.css @ 256
     637              
     638              $C$DW$70        .dwtag  DW_TAG_variable
     639                      .dwattr $C$DW$70, DW_AT_name("BTS_ctrl_cv_ch3")
     640                      .dwattr $C$DW$70, DW_AT_linkage_name("BTS_ctrl_cv_ch3")
     641                      .dwattr $C$DW$70, DW_AT_location[DW_OP_addr ||BTS_ctrl_cv_ch3||]
     642                      .dwattr $C$DW$70, DW_AT_type(*$C$DW$T$129)
     643                      .dwattr $C$DW$70, DW_AT_external
     644                      .dwattr $C$DW$70, DW_AT_decl_file("../bts.c")
     645                      .dwattr $C$DW$70, DW_AT_decl_line(0x3c)
     646                      .dwattr $C$DW$70, DW_AT_decl_column(0x15)
     647              
     648                      .global ||BTS_ctrl_cv_ch4||
     649 000000e4               .data
     650                      .align  2
     651                      .elfsym ||BTS_ctrl_cv_ch4||,SYM_SIZE(18),SYM_BLOCKED(1)
     652 000000e4       ||BTS_ctrl_cv_ch4||:
     653 000000e4 0000          .xfloat $strtod("0x1p+0")               ; BTS_ctrl_cv_ch4.b0 @ 0
         000000e5 3F80 
     654 000000e6 0000          .xfloat $strtod("0x0p+0")               ; BTS_ctrl_cv_ch4.b1 @ 32
         000000e7 0000 
     655 000000e8 0000          .xfloat $strtod("0x0p+0")               ; BTS_ctrl_cv_ch4.b2 @ 64
         000000e9 0000 
     656 000000ea 0000          .xfloat $strtod("0x0p+0")               ; BTS_ctrl_cv_ch4.a1 @ 96
         000000eb 0000 
     657 000000ec 0000          .xfloat $strtod("0x0p+0")               ; BTS_ctrl_cv_ch4.a2 @ 128
         000000ed 0000 
     658 000000ee 0000          .xfloat $strtod("0x0p+0")               ; BTS_ctrl_cv_ch4.x1 @ 160
         000000ef 0000 
     659 000000f0 0000          .xfloat $strtod("0x0p+0")               ; BTS_ctrl_cv_ch4.x2 @ 192
         000000f1 0000 
     660 000000f2 0000          .bits           0,32
         000000f3 0000 
     661                                      ; BTS_ctrl_cv_ch4.sps @ 224
     662 000000f4 0000          .bits           0,32
         000000f5 0000 
TMS320C2000 Assembler PC v20.2.4 Tue Mar  2 07:24:45 2021

Copyright (c) 1996-2018 Texas Instruments Incorporated
bts.asm                                                              PAGE   15

     663                                      ; BTS_ctrl_cv_ch4.css @ 256
     664              
     665              $C$DW$71        .dwtag  DW_TAG_variable
     666                      .dwattr $C$DW$71, DW_AT_name("BTS_ctrl_cv_ch4")
     667                      .dwattr $C$DW$71, DW_AT_linkage_name("BTS_ctrl_cv_ch4")
     668                      .dwattr $C$DW$71, DW_AT_location[DW_OP_addr ||BTS_ctrl_cv_ch4||]
     669                      .dwattr $C$DW$71, DW_AT_type(*$C$DW$T$129)
     670                      .dwattr $C$DW$71, DW_AT_external
     671                      .dwattr $C$DW$71, DW_AT_decl_file("../bts.c")
     672                      .dwattr $C$DW$71, DW_AT_decl_line(0x3d)
     673                      .dwattr $C$DW$71, DW_AT_decl_column(0x15)
     674              
     675                      .global ||BTS_ctrl_cv_ch5||
     676 000000f6               .data
     677                      .align  2
     678                      .elfsym ||BTS_ctrl_cv_ch5||,SYM_SIZE(18),SYM_BLOCKED(1)
     679 00000100       ||BTS_ctrl_cv_ch5||:
     680 00000100 0000          .xfloat $strtod("0x1p+0")               ; BTS_ctrl_cv_ch5.b0 @ 0
         00000101 3F80 
     681 00000102 0000          .xfloat $strtod("0x0p+0")               ; BTS_ctrl_cv_ch5.b1 @ 32
         00000103 0000 
     682 00000104 0000          .xfloat $strtod("0x0p+0")               ; BTS_ctrl_cv_ch5.b2 @ 64
         00000105 0000 
     683 00000106 0000          .xfloat $strtod("0x0p+0")               ; BTS_ctrl_cv_ch5.a1 @ 96
         00000107 0000 
     684 00000108 0000          .xfloat $strtod("0x0p+0")               ; BTS_ctrl_cv_ch5.a2 @ 128
         00000109 0000 
     685 0000010a 0000          .xfloat $strtod("0x0p+0")               ; BTS_ctrl_cv_ch5.x1 @ 160
         0000010b 0000 
     686 0000010c 0000          .xfloat $strtod("0x0p+0")               ; BTS_ctrl_cv_ch5.x2 @ 192
         0000010d 0000 
     687 0000010e 0000          .bits           0,32
         0000010f 0000 
     688                                      ; BTS_ctrl_cv_ch5.sps @ 224
     689 00000110 0000          .bits           0,32
         00000111 0000 
     690                                      ; BTS_ctrl_cv_ch5.css @ 256
     691              
     692              $C$DW$72        .dwtag  DW_TAG_variable
     693                      .dwattr $C$DW$72, DW_AT_name("BTS_ctrl_cv_ch5")
     694                      .dwattr $C$DW$72, DW_AT_linkage_name("BTS_ctrl_cv_ch5")
     695                      .dwattr $C$DW$72, DW_AT_location[DW_OP_addr ||BTS_ctrl_cv_ch5||]
     696                      .dwattr $C$DW$72, DW_AT_type(*$C$DW$T$129)
     697                      .dwattr $C$DW$72, DW_AT_external
     698                      .dwattr $C$DW$72, DW_AT_decl_file("../bts.c")
     699                      .dwattr $C$DW$72, DW_AT_decl_line(0x3e)
     700                      .dwattr $C$DW$72, DW_AT_decl_column(0x15)
     701              
     702                      .global ||BTS_ctrl_cv_ch6||
     703 00000112               .data
     704                      .align  2
     705                      .elfsym ||BTS_ctrl_cv_ch6||,SYM_SIZE(18),SYM_BLOCKED(1)
     706 00000112       ||BTS_ctrl_cv_ch6||:
     707 00000112 0000          .xfloat $strtod("0x1p+0")               ; BTS_ctrl_cv_ch6.b0 @ 0
         00000113 3F80 
TMS320C2000 Assembler PC v20.2.4 Tue Mar  2 07:24:45 2021

Copyright (c) 1996-2018 Texas Instruments Incorporated
bts.asm                                                              PAGE   16

     708 00000114 0000          .xfloat $strtod("0x0p+0")               ; BTS_ctrl_cv_ch6.b1 @ 32
         00000115 0000 
     709 00000116 0000          .xfloat $strtod("0x0p+0")               ; BTS_ctrl_cv_ch6.b2 @ 64
         00000117 0000 
     710 00000118 0000          .xfloat $strtod("0x0p+0")               ; BTS_ctrl_cv_ch6.a1 @ 96
         00000119 0000 
     711 0000011a 0000          .xfloat $strtod("0x0p+0")               ; BTS_ctrl_cv_ch6.a2 @ 128
         0000011b 0000 
     712 0000011c 0000          .xfloat $strtod("0x0p+0")               ; BTS_ctrl_cv_ch6.x1 @ 160
         0000011d 0000 
     713 0000011e 0000          .xfloat $strtod("0x0p+0")               ; BTS_ctrl_cv_ch6.x2 @ 192
         0000011f 0000 
     714 00000120 0000          .bits           0,32
         00000121 0000 
     715                                      ; BTS_ctrl_cv_ch6.sps @ 224
     716 00000122 0000          .bits           0,32
         00000123 0000 
     717                                      ; BTS_ctrl_cv_ch6.css @ 256
     718              
     719              $C$DW$73        .dwtag  DW_TAG_variable
     720                      .dwattr $C$DW$73, DW_AT_name("BTS_ctrl_cv_ch6")
     721                      .dwattr $C$DW$73, DW_AT_linkage_name("BTS_ctrl_cv_ch6")
     722                      .dwattr $C$DW$73, DW_AT_location[DW_OP_addr ||BTS_ctrl_cv_ch6||]
     723                      .dwattr $C$DW$73, DW_AT_type(*$C$DW$T$129)
     724                      .dwattr $C$DW$73, DW_AT_external
     725                      .dwattr $C$DW$73, DW_AT_decl_file("../bts.c")
     726                      .dwattr $C$DW$73, DW_AT_decl_line(0x3f)
     727                      .dwattr $C$DW$73, DW_AT_decl_column(0x15)
     728              
     729                      .global ||BTS_ctrl_cv_ch7||
     730 00000124               .data
     731                      .align  2
     732                      .elfsym ||BTS_ctrl_cv_ch7||,SYM_SIZE(18),SYM_BLOCKED(1)
     733 00000124       ||BTS_ctrl_cv_ch7||:
     734 00000124 0000          .xfloat $strtod("0x1p+0")               ; BTS_ctrl_cv_ch7.b0 @ 0
         00000125 3F80 
     735 00000126 0000          .xfloat $strtod("0x0p+0")               ; BTS_ctrl_cv_ch7.b1 @ 32
         00000127 0000 
     736 00000128 0000          .xfloat $strtod("0x0p+0")               ; BTS_ctrl_cv_ch7.b2 @ 64
         00000129 0000 
     737 0000012a 0000          .xfloat $strtod("0x0p+0")               ; BTS_ctrl_cv_ch7.a1 @ 96
         0000012b 0000 
     738 0000012c 0000          .xfloat $strtod("0x0p+0")               ; BTS_ctrl_cv_ch7.a2 @ 128
         0000012d 0000 
     739 0000012e 0000          .xfloat $strtod("0x0p+0")               ; BTS_ctrl_cv_ch7.x1 @ 160
         0000012f 0000 
     740 00000130 0000          .xfloat $strtod("0x0p+0")               ; BTS_ctrl_cv_ch7.x2 @ 192
         00000131 0000 
     741 00000132 0000          .bits           0,32
         00000133 0000 
     742                                      ; BTS_ctrl_cv_ch7.sps @ 224
     743 00000134 0000          .bits           0,32
         00000135 0000 
     744                                      ; BTS_ctrl_cv_ch7.css @ 256
     745              
TMS320C2000 Assembler PC v20.2.4 Tue Mar  2 07:24:45 2021

Copyright (c) 1996-2018 Texas Instruments Incorporated
bts.asm                                                              PAGE   17

     746              $C$DW$74        .dwtag  DW_TAG_variable
     747                      .dwattr $C$DW$74, DW_AT_name("BTS_ctrl_cv_ch7")
     748                      .dwattr $C$DW$74, DW_AT_linkage_name("BTS_ctrl_cv_ch7")
     749                      .dwattr $C$DW$74, DW_AT_location[DW_OP_addr ||BTS_ctrl_cv_ch7||]
     750                      .dwattr $C$DW$74, DW_AT_type(*$C$DW$T$129)
     751                      .dwattr $C$DW$74, DW_AT_external
     752                      .dwattr $C$DW$74, DW_AT_decl_file("../bts.c")
     753                      .dwattr $C$DW$74, DW_AT_decl_line(0x40)
     754                      .dwattr $C$DW$74, DW_AT_decl_column(0x15)
     755              
     756                      .global ||BTS_ctrl_cv_ch8||
     757 00000136               .data
     758                      .align  2
     759                      .elfsym ||BTS_ctrl_cv_ch8||,SYM_SIZE(18),SYM_BLOCKED(1)
     760 00000140       ||BTS_ctrl_cv_ch8||:
     761 00000140 0000          .xfloat $strtod("0x1p+0")               ; BTS_ctrl_cv_ch8.b0 @ 0
         00000141 3F80 
     762 00000142 0000          .xfloat $strtod("0x0p+0")               ; BTS_ctrl_cv_ch8.b1 @ 32
         00000143 0000 
     763 00000144 0000          .xfloat $strtod("0x0p+0")               ; BTS_ctrl_cv_ch8.b2 @ 64
         00000145 0000 
     764 00000146 0000          .xfloat $strtod("0x0p+0")               ; BTS_ctrl_cv_ch8.a1 @ 96
         00000147 0000 
     765 00000148 0000          .xfloat $strtod("0x0p+0")               ; BTS_ctrl_cv_ch8.a2 @ 128
         00000149 0000 
     766 0000014a 0000          .xfloat $strtod("0x0p+0")               ; BTS_ctrl_cv_ch8.x1 @ 160
         0000014b 0000 
     767 0000014c 0000          .xfloat $strtod("0x0p+0")               ; BTS_ctrl_cv_ch8.x2 @ 192
         0000014d 0000 
     768 0000014e 0000          .bits           0,32
         0000014f 0000 
     769                                      ; BTS_ctrl_cv_ch8.sps @ 224
     770 00000150 0000          .bits           0,32
         00000151 0000 
     771                                      ; BTS_ctrl_cv_ch8.css @ 256
     772              
     773              $C$DW$75        .dwtag  DW_TAG_variable
     774                      .dwattr $C$DW$75, DW_AT_name("BTS_ctrl_cv_ch8")
     775                      .dwattr $C$DW$75, DW_AT_linkage_name("BTS_ctrl_cv_ch8")
     776                      .dwattr $C$DW$75, DW_AT_location[DW_OP_addr ||BTS_ctrl_cv_ch8||]
     777                      .dwattr $C$DW$75, DW_AT_type(*$C$DW$T$129)
     778                      .dwattr $C$DW$75, DW_AT_external
     779                      .dwattr $C$DW$75, DW_AT_decl_file("../bts.c")
     780                      .dwattr $C$DW$75, DW_AT_decl_line(0x41)
     781                      .dwattr $C$DW$75, DW_AT_decl_column(0x15)
     782              
     783                      .global ||BTS_ctrl_ch1||
     784 00000152               .data
     785                      .align  2
     786                      .elfsym ||BTS_ctrl_ch1||,SYM_SIZE(18),SYM_BLOCKED(1)
     787 00000152       ||BTS_ctrl_ch1||:
     788 00000152 0000          .xfloat $strtod("0x1p+0")               ; BTS_ctrl_ch1.b0 @ 0
         00000153 3F80 
     789 00000154 0000          .xfloat $strtod("0x0p+0")               ; BTS_ctrl_ch1.b1 @ 32
         00000155 0000 
TMS320C2000 Assembler PC v20.2.4 Tue Mar  2 07:24:45 2021

Copyright (c) 1996-2018 Texas Instruments Incorporated
bts.asm                                                              PAGE   18

     790 00000156 0000          .xfloat $strtod("0x0p+0")               ; BTS_ctrl_ch1.b2 @ 64
         00000157 0000 
     791 00000158 0000          .xfloat $strtod("0x0p+0")               ; BTS_ctrl_ch1.a1 @ 96
         00000159 0000 
     792 0000015a 0000          .xfloat $strtod("0x0p+0")               ; BTS_ctrl_ch1.a2 @ 128
         0000015b 0000 
     793 0000015c 0000          .xfloat $strtod("0x0p+0")               ; BTS_ctrl_ch1.x1 @ 160
         0000015d 0000 
     794 0000015e 0000          .xfloat $strtod("0x0p+0")               ; BTS_ctrl_ch1.x2 @ 192
         0000015f 0000 
     795 00000160 0000          .bits           0,32
         00000161 0000 
     796                                      ; BTS_ctrl_ch1.sps @ 224
     797 00000162 0000          .bits           0,32
         00000163 0000 
     798                                      ; BTS_ctrl_ch1.css @ 256
     799              
     800              $C$DW$76        .dwtag  DW_TAG_variable
     801                      .dwattr $C$DW$76, DW_AT_name("BTS_ctrl_ch1")
     802                      .dwattr $C$DW$76, DW_AT_linkage_name("BTS_ctrl_ch1")
     803                      .dwattr $C$DW$76, DW_AT_location[DW_OP_addr ||BTS_ctrl_ch1||]
     804                      .dwattr $C$DW$76, DW_AT_type(*$C$DW$T$129)
     805                      .dwattr $C$DW$76, DW_AT_external
     806                      .dwattr $C$DW$76, DW_AT_decl_file("../bts.c")
     807                      .dwattr $C$DW$76, DW_AT_decl_line(0x6b)
     808                      .dwattr $C$DW$76, DW_AT_decl_column(0x1e)
     809              
     810                      .global ||BTS_ctrl_ch2||
     811 00000164               .data
     812                      .align  2
     813                      .elfsym ||BTS_ctrl_ch2||,SYM_SIZE(18),SYM_BLOCKED(1)
     814 00000164       ||BTS_ctrl_ch2||:
     815 00000164 0000          .xfloat $strtod("0x1p+0")               ; BTS_ctrl_ch2.b0 @ 0
         00000165 3F80 
     816 00000166 0000          .xfloat $strtod("0x0p+0")               ; BTS_ctrl_ch2.b1 @ 32
         00000167 0000 
     817 00000168 0000          .xfloat $strtod("0x0p+0")               ; BTS_ctrl_ch2.b2 @ 64
         00000169 0000 
     818 0000016a 0000          .xfloat $strtod("0x0p+0")               ; BTS_ctrl_ch2.a1 @ 96
         0000016b 0000 
     819 0000016c 0000          .xfloat $strtod("0x0p+0")               ; BTS_ctrl_ch2.a2 @ 128
         0000016d 0000 
     820 0000016e 0000          .xfloat $strtod("0x0p+0")               ; BTS_ctrl_ch2.x1 @ 160
         0000016f 0000 
     821 00000170 0000          .xfloat $strtod("0x0p+0")               ; BTS_ctrl_ch2.x2 @ 192
         00000171 0000 
     822 00000172 0000          .bits           0,32
         00000173 0000 
     823                                      ; BTS_ctrl_ch2.sps @ 224
     824 00000174 0000          .bits           0,32
         00000175 0000 
     825                                      ; BTS_ctrl_ch2.css @ 256
     826              
     827              $C$DW$77        .dwtag  DW_TAG_variable
     828                      .dwattr $C$DW$77, DW_AT_name("BTS_ctrl_ch2")
TMS320C2000 Assembler PC v20.2.4 Tue Mar  2 07:24:45 2021

Copyright (c) 1996-2018 Texas Instruments Incorporated
bts.asm                                                              PAGE   19

     829                      .dwattr $C$DW$77, DW_AT_linkage_name("BTS_ctrl_ch2")
     830                      .dwattr $C$DW$77, DW_AT_location[DW_OP_addr ||BTS_ctrl_ch2||]
     831                      .dwattr $C$DW$77, DW_AT_type(*$C$DW$T$129)
     832                      .dwattr $C$DW$77, DW_AT_external
     833                      .dwattr $C$DW$77, DW_AT_decl_file("../bts.c")
     834                      .dwattr $C$DW$77, DW_AT_decl_line(0x6c)
     835                      .dwattr $C$DW$77, DW_AT_decl_column(0x1e)
     836              
     837                      .global ||BTS_ctrl_ch3||
     838 00000176               .data
     839                      .align  2
     840                      .elfsym ||BTS_ctrl_ch3||,SYM_SIZE(18),SYM_BLOCKED(1)
     841 00000180       ||BTS_ctrl_ch3||:
     842 00000180 0000          .xfloat $strtod("0x1p+0")               ; BTS_ctrl_ch3.b0 @ 0
         00000181 3F80 
     843 00000182 0000          .xfloat $strtod("0x0p+0")               ; BTS_ctrl_ch3.b1 @ 32
         00000183 0000 
     844 00000184 0000          .xfloat $strtod("0x0p+0")               ; BTS_ctrl_ch3.b2 @ 64
         00000185 0000 
     845 00000186 0000          .xfloat $strtod("0x0p+0")               ; BTS_ctrl_ch3.a1 @ 96
         00000187 0000 
     846 00000188 0000          .xfloat $strtod("0x0p+0")               ; BTS_ctrl_ch3.a2 @ 128
         00000189 0000 
     847 0000018a 0000          .xfloat $strtod("0x0p+0")               ; BTS_ctrl_ch3.x1 @ 160
         0000018b 0000 
     848 0000018c 0000          .xfloat $strtod("0x0p+0")               ; BTS_ctrl_ch3.x2 @ 192
         0000018d 0000 
     849 0000018e 0000          .bits           0,32
         0000018f 0000 
     850                                      ; BTS_ctrl_ch3.sps @ 224
     851 00000190 0000          .bits           0,32
         00000191 0000 
     852                                      ; BTS_ctrl_ch3.css @ 256
     853              
     854              $C$DW$78        .dwtag  DW_TAG_variable
     855                      .dwattr $C$DW$78, DW_AT_name("BTS_ctrl_ch3")
     856                      .dwattr $C$DW$78, DW_AT_linkage_name("BTS_ctrl_ch3")
     857                      .dwattr $C$DW$78, DW_AT_location[DW_OP_addr ||BTS_ctrl_ch3||]
     858                      .dwattr $C$DW$78, DW_AT_type(*$C$DW$T$129)
     859                      .dwattr $C$DW$78, DW_AT_external
     860                      .dwattr $C$DW$78, DW_AT_decl_file("../bts.c")
     861                      .dwattr $C$DW$78, DW_AT_decl_line(0x6d)
     862                      .dwattr $C$DW$78, DW_AT_decl_column(0x1e)
     863              
     864                      .global ||BTS_ctrl_ch4||
     865 00000192               .data
     866                      .align  2
     867                      .elfsym ||BTS_ctrl_ch4||,SYM_SIZE(18),SYM_BLOCKED(1)
     868 00000192       ||BTS_ctrl_ch4||:
     869 00000192 0000          .xfloat $strtod("0x1p+0")               ; BTS_ctrl_ch4.b0 @ 0
         00000193 3F80 
     870 00000194 0000          .xfloat $strtod("0x0p+0")               ; BTS_ctrl_ch4.b1 @ 32
         00000195 0000 
     871 00000196 0000          .xfloat $strtod("0x0p+0")               ; BTS_ctrl_ch4.b2 @ 64
         00000197 0000 
TMS320C2000 Assembler PC v20.2.4 Tue Mar  2 07:24:45 2021

Copyright (c) 1996-2018 Texas Instruments Incorporated
bts.asm                                                              PAGE   20

     872 00000198 0000          .xfloat $strtod("0x0p+0")               ; BTS_ctrl_ch4.a1 @ 96
         00000199 0000 
     873 0000019a 0000          .xfloat $strtod("0x0p+0")               ; BTS_ctrl_ch4.a2 @ 128
         0000019b 0000 
     874 0000019c 0000          .xfloat $strtod("0x0p+0")               ; BTS_ctrl_ch4.x1 @ 160
         0000019d 0000 
     875 0000019e 0000          .xfloat $strtod("0x0p+0")               ; BTS_ctrl_ch4.x2 @ 192
         0000019f 0000 
     876 000001a0 0000          .bits           0,32
         000001a1 0000 
     877                                      ; BTS_ctrl_ch4.sps @ 224
     878 000001a2 0000          .bits           0,32
         000001a3 0000 
     879                                      ; BTS_ctrl_ch4.css @ 256
     880              
     881              $C$DW$79        .dwtag  DW_TAG_variable
     882                      .dwattr $C$DW$79, DW_AT_name("BTS_ctrl_ch4")
     883                      .dwattr $C$DW$79, DW_AT_linkage_name("BTS_ctrl_ch4")
     884                      .dwattr $C$DW$79, DW_AT_location[DW_OP_addr ||BTS_ctrl_ch4||]
     885                      .dwattr $C$DW$79, DW_AT_type(*$C$DW$T$129)
     886                      .dwattr $C$DW$79, DW_AT_external
     887                      .dwattr $C$DW$79, DW_AT_decl_file("../bts.c")
     888                      .dwattr $C$DW$79, DW_AT_decl_line(0x6e)
     889                      .dwattr $C$DW$79, DW_AT_decl_column(0x1e)
     890              
     891                      .global ||BTS_ctrl_ch5||
     892 000001a4               .data
     893                      .align  2
     894                      .elfsym ||BTS_ctrl_ch5||,SYM_SIZE(18),SYM_BLOCKED(1)
     895 000001a4       ||BTS_ctrl_ch5||:
     896 000001a4 0000          .xfloat $strtod("0x1p+0")               ; BTS_ctrl_ch5.b0 @ 0
         000001a5 3F80 
     897 000001a6 0000          .xfloat $strtod("0x0p+0")               ; BTS_ctrl_ch5.b1 @ 32
         000001a7 0000 
     898 000001a8 0000          .xfloat $strtod("0x0p+0")               ; BTS_ctrl_ch5.b2 @ 64
         000001a9 0000 
     899 000001aa 0000          .xfloat $strtod("0x0p+0")               ; BTS_ctrl_ch5.a1 @ 96
         000001ab 0000 
     900 000001ac 0000          .xfloat $strtod("0x0p+0")               ; BTS_ctrl_ch5.a2 @ 128
         000001ad 0000 
     901 000001ae 0000          .xfloat $strtod("0x0p+0")               ; BTS_ctrl_ch5.x1 @ 160
         000001af 0000 
     902 000001b0 0000          .xfloat $strtod("0x0p+0")               ; BTS_ctrl_ch5.x2 @ 192
         000001b1 0000 
     903 000001b2 0000          .bits           0,32
         000001b3 0000 
     904                                      ; BTS_ctrl_ch5.sps @ 224
     905 000001b4 0000          .bits           0,32
         000001b5 0000 
     906                                      ; BTS_ctrl_ch5.css @ 256
     907              
     908              $C$DW$80        .dwtag  DW_TAG_variable
     909                      .dwattr $C$DW$80, DW_AT_name("BTS_ctrl_ch5")
     910                      .dwattr $C$DW$80, DW_AT_linkage_name("BTS_ctrl_ch5")
     911                      .dwattr $C$DW$80, DW_AT_location[DW_OP_addr ||BTS_ctrl_ch5||]
TMS320C2000 Assembler PC v20.2.4 Tue Mar  2 07:24:45 2021

Copyright (c) 1996-2018 Texas Instruments Incorporated
bts.asm                                                              PAGE   21

     912                      .dwattr $C$DW$80, DW_AT_type(*$C$DW$T$129)
     913                      .dwattr $C$DW$80, DW_AT_external
     914                      .dwattr $C$DW$80, DW_AT_decl_file("../bts.c")
     915                      .dwattr $C$DW$80, DW_AT_decl_line(0x6f)
     916                      .dwattr $C$DW$80, DW_AT_decl_column(0x1e)
     917              
     918                      .global ||BTS_ctrl_ch6||
     919 000001b6               .data
     920                      .align  2
     921                      .elfsym ||BTS_ctrl_ch6||,SYM_SIZE(18),SYM_BLOCKED(1)
     922 000001c0       ||BTS_ctrl_ch6||:
     923 000001c0 0000          .xfloat $strtod("0x1p+0")               ; BTS_ctrl_ch6.b0 @ 0
         000001c1 3F80 
     924 000001c2 0000          .xfloat $strtod("0x0p+0")               ; BTS_ctrl_ch6.b1 @ 32
         000001c3 0000 
     925 000001c4 0000          .xfloat $strtod("0x0p+0")               ; BTS_ctrl_ch6.b2 @ 64
         000001c5 0000 
     926 000001c6 0000          .xfloat $strtod("0x0p+0")               ; BTS_ctrl_ch6.a1 @ 96
         000001c7 0000 
     927 000001c8 0000          .xfloat $strtod("0x0p+0")               ; BTS_ctrl_ch6.a2 @ 128
         000001c9 0000 
     928 000001ca 0000          .xfloat $strtod("0x0p+0")               ; BTS_ctrl_ch6.x1 @ 160
         000001cb 0000 
     929 000001cc 0000          .xfloat $strtod("0x0p+0")               ; BTS_ctrl_ch6.x2 @ 192
         000001cd 0000 
     930 000001ce 0000          .bits           0,32
         000001cf 0000 
     931                                      ; BTS_ctrl_ch6.sps @ 224
     932 000001d0 0000          .bits           0,32
         000001d1 0000 
     933                                      ; BTS_ctrl_ch6.css @ 256
     934              
     935              $C$DW$81        .dwtag  DW_TAG_variable
     936                      .dwattr $C$DW$81, DW_AT_name("BTS_ctrl_ch6")
     937                      .dwattr $C$DW$81, DW_AT_linkage_name("BTS_ctrl_ch6")
     938                      .dwattr $C$DW$81, DW_AT_location[DW_OP_addr ||BTS_ctrl_ch6||]
     939                      .dwattr $C$DW$81, DW_AT_type(*$C$DW$T$129)
     940                      .dwattr $C$DW$81, DW_AT_external
     941                      .dwattr $C$DW$81, DW_AT_decl_file("../bts.c")
     942                      .dwattr $C$DW$81, DW_AT_decl_line(0x70)
     943                      .dwattr $C$DW$81, DW_AT_decl_column(0x1e)
     944              
     945                      .global ||BTS_ctrl_ch7||
     946 000001d2               .data
     947                      .align  2
     948                      .elfsym ||BTS_ctrl_ch7||,SYM_SIZE(18),SYM_BLOCKED(1)
     949 000001d2       ||BTS_ctrl_ch7||:
     950 000001d2 0000          .xfloat $strtod("0x1p+0")               ; BTS_ctrl_ch7.b0 @ 0
         000001d3 3F80 
     951 000001d4 0000          .xfloat $strtod("0x0p+0")               ; BTS_ctrl_ch7.b1 @ 32
         000001d5 0000 
     952 000001d6 0000          .xfloat $strtod("0x0p+0")               ; BTS_ctrl_ch7.b2 @ 64
         000001d7 0000 
     953 000001d8 0000          .xfloat $strtod("0x0p+0")               ; BTS_ctrl_ch7.a1 @ 96
         000001d9 0000 
TMS320C2000 Assembler PC v20.2.4 Tue Mar  2 07:24:45 2021

Copyright (c) 1996-2018 Texas Instruments Incorporated
bts.asm                                                              PAGE   22

     954 000001da 0000          .xfloat $strtod("0x0p+0")               ; BTS_ctrl_ch7.a2 @ 128
         000001db 0000 
     955 000001dc 0000          .xfloat $strtod("0x0p+0")               ; BTS_ctrl_ch7.x1 @ 160
         000001dd 0000 
     956 000001de 0000          .xfloat $strtod("0x0p+0")               ; BTS_ctrl_ch7.x2 @ 192
         000001df 0000 
     957 000001e0 0000          .bits           0,32
         000001e1 0000 
     958                                      ; BTS_ctrl_ch7.sps @ 224
     959 000001e2 0000          .bits           0,32
         000001e3 0000 
     960                                      ; BTS_ctrl_ch7.css @ 256
     961              
     962              $C$DW$82        .dwtag  DW_TAG_variable
     963                      .dwattr $C$DW$82, DW_AT_name("BTS_ctrl_ch7")
     964                      .dwattr $C$DW$82, DW_AT_linkage_name("BTS_ctrl_ch7")
     965                      .dwattr $C$DW$82, DW_AT_location[DW_OP_addr ||BTS_ctrl_ch7||]
     966                      .dwattr $C$DW$82, DW_AT_type(*$C$DW$T$129)
     967                      .dwattr $C$DW$82, DW_AT_external
     968                      .dwattr $C$DW$82, DW_AT_decl_file("../bts.c")
     969                      .dwattr $C$DW$82, DW_AT_decl_line(0x71)
     970                      .dwattr $C$DW$82, DW_AT_decl_column(0x1e)
     971              
     972                      .global ||BTS_ctrl_ch8||
     973 000001e4               .data
     974                      .align  2
     975                      .elfsym ||BTS_ctrl_ch8||,SYM_SIZE(18),SYM_BLOCKED(1)
     976 000001e4       ||BTS_ctrl_ch8||:
     977 000001e4 0000          .xfloat $strtod("0x1p+0")               ; BTS_ctrl_ch8.b0 @ 0
         000001e5 3F80 
     978 000001e6 0000          .xfloat $strtod("0x0p+0")               ; BTS_ctrl_ch8.b1 @ 32
         000001e7 0000 
     979 000001e8 0000          .xfloat $strtod("0x0p+0")               ; BTS_ctrl_ch8.b2 @ 64
         000001e9 0000 
     980 000001ea 0000          .xfloat $strtod("0x0p+0")               ; BTS_ctrl_ch8.a1 @ 96
         000001eb 0000 
     981 000001ec 0000          .xfloat $strtod("0x0p+0")               ; BTS_ctrl_ch8.a2 @ 128
         000001ed 0000 
     982 000001ee 0000          .xfloat $strtod("0x0p+0")               ; BTS_ctrl_ch8.x1 @ 160
         000001ef 0000 
     983 000001f0 0000          .xfloat $strtod("0x0p+0")               ; BTS_ctrl_ch8.x2 @ 192
         000001f1 0000 
     984 000001f2 0000          .bits           0,32
         000001f3 0000 
     985                                      ; BTS_ctrl_ch8.sps @ 224
     986 000001f4 0000          .bits           0,32
         000001f5 0000 
     987                                      ; BTS_ctrl_ch8.css @ 256
     988              
     989              $C$DW$83        .dwtag  DW_TAG_variable
     990                      .dwattr $C$DW$83, DW_AT_name("BTS_ctrl_ch8")
     991                      .dwattr $C$DW$83, DW_AT_linkage_name("BTS_ctrl_ch8")
     992                      .dwattr $C$DW$83, DW_AT_location[DW_OP_addr ||BTS_ctrl_ch8||]
     993                      .dwattr $C$DW$83, DW_AT_type(*$C$DW$T$129)
     994                      .dwattr $C$DW$83, DW_AT_external
TMS320C2000 Assembler PC v20.2.4 Tue Mar  2 07:24:45 2021

Copyright (c) 1996-2018 Texas Instruments Incorporated
bts.asm                                                              PAGE   23

     995                      .dwattr $C$DW$83, DW_AT_decl_file("../bts.c")
     996                      .dwattr $C$DW$83, DW_AT_decl_line(0x72)
     997                      .dwattr $C$DW$83, DW_AT_decl_column(0x1e)
     998              
     999                      .global ||I2CA||
    1000 0000000c               .bss    ||I2CA||,18,1,1
    1001              $C$DW$84        .dwtag  DW_TAG_variable
    1002                      .dwattr $C$DW$84, DW_AT_name("I2CA")
    1003                      .dwattr $C$DW$84, DW_AT_linkage_name("I2CA")
    1004                      .dwattr $C$DW$84, DW_AT_location[DW_OP_addr ||I2CA||]
    1005                      .dwattr $C$DW$84, DW_AT_type(*$C$DW$T$41)
    1006                      .dwattr $C$DW$84, DW_AT_external
    1007                      .dwattr $C$DW$84, DW_AT_decl_file("../bts.c")
    1008                      .dwattr $C$DW$84, DW_AT_decl_line(0x228)
    1009                      .dwattr $C$DW$84, DW_AT_decl_column(0x12)
    1010              
    1011                      .global ||I2CB||
    1012 0000001e               .bss    ||I2CB||,18,1,1
    1013              $C$DW$85        .dwtag  DW_TAG_variable
    1014                      .dwattr $C$DW$85, DW_AT_name("I2CB")
    1015                      .dwattr $C$DW$85, DW_AT_linkage_name("I2CB")
    1016                      .dwattr $C$DW$85, DW_AT_location[DW_OP_addr ||I2CB||]
    1017                      .dwattr $C$DW$85, DW_AT_type(*$C$DW$T$41)
    1018                      .dwattr $C$DW$85, DW_AT_external
    1019                      .dwattr $C$DW$85, DW_AT_decl_file("../bts.c")
    1020                      .dwattr $C$DW$85, DW_AT_decl_line(0x229)
    1021                      .dwattr $C$DW$85, DW_AT_decl_column(0x12)
    1022              
    1023                      .global ||AvailableI2C_slaves||
    1024 00000000       ||AvailableI2C_slaves||:        .usect  ".bss:AvailableI2C_slaves",20,0,0
    1025              $C$DW$86        .dwtag  DW_TAG_variable
    1026                      .dwattr $C$DW$86, DW_AT_name("AvailableI2C_slaves")
    1027                      .dwattr $C$DW$86, DW_AT_linkage_name("AvailableI2C_slaves")
    1028                      .dwattr $C$DW$86, DW_AT_location[DW_OP_addr ||AvailableI2C_slaves||]
    1029                      .dwattr $C$DW$86, DW_AT_type(*$C$DW$T$109)
    1030                      .dwattr $C$DW$86, DW_AT_external
    1031                      .dwattr $C$DW$86, DW_AT_decl_file("../bts.c")
    1032                      .dwattr $C$DW$86, DW_AT_decl_line(0x236)
    1033                      .dwattr $C$DW$86, DW_AT_decl_column(0x0a)
    1034              
    1035                      .global ||BTS_userInput_ch1||
    1036 00000040               .bss    ||BTS_userInput_ch1||,30,1,1
    1037              $C$DW$87        .dwtag  DW_TAG_variable
    1038                      .dwattr $C$DW$87, DW_AT_name("BTS_userInput_ch1")
    1039                      .dwattr $C$DW$87, DW_AT_linkage_name("BTS_userInput_ch1")
    1040                      .dwattr $C$DW$87, DW_AT_location[DW_OP_addr ||BTS_userInput_ch1||]
    1041                      .dwattr $C$DW$87, DW_AT_type(*$C$DW$T$60)
    1042                      .dwattr $C$DW$87, DW_AT_external
    1043                      .dwattr $C$DW$87, DW_AT_decl_file("../bts.c")
    1044                      .dwattr $C$DW$87, DW_AT_decl_line(0x28)
    1045                      .dwattr $C$DW$87, DW_AT_decl_column(0x0f)
    1046              
    1047                      .global ||BTS_userInput_ch2||
    1048 0000005e               .bss    ||BTS_userInput_ch2||,30,1,1
    1049              $C$DW$88        .dwtag  DW_TAG_variable
TMS320C2000 Assembler PC v20.2.4 Tue Mar  2 07:24:45 2021

Copyright (c) 1996-2018 Texas Instruments Incorporated
bts.asm                                                              PAGE   24

    1050                      .dwattr $C$DW$88, DW_AT_name("BTS_userInput_ch2")
    1051                      .dwattr $C$DW$88, DW_AT_linkage_name("BTS_userInput_ch2")
    1052                      .dwattr $C$DW$88, DW_AT_location[DW_OP_addr ||BTS_userInput_ch2||]
    1053                      .dwattr $C$DW$88, DW_AT_type(*$C$DW$T$60)
    1054                      .dwattr $C$DW$88, DW_AT_external
    1055                      .dwattr $C$DW$88, DW_AT_decl_file("../bts.c")
    1056                      .dwattr $C$DW$88, DW_AT_decl_line(0x29)
    1057                      .dwattr $C$DW$88, DW_AT_decl_column(0x0f)
    1058              
    1059                      .global ||BTS_userInput_ch3||
    1060 00000080               .bss    ||BTS_userInput_ch3||,30,1,1
    1061              $C$DW$89        .dwtag  DW_TAG_variable
    1062                      .dwattr $C$DW$89, DW_AT_name("BTS_userInput_ch3")
    1063                      .dwattr $C$DW$89, DW_AT_linkage_name("BTS_userInput_ch3")
    1064                      .dwattr $C$DW$89, DW_AT_location[DW_OP_addr ||BTS_userInput_ch3||]
    1065                      .dwattr $C$DW$89, DW_AT_type(*$C$DW$T$60)
    1066                      .dwattr $C$DW$89, DW_AT_external
    1067                      .dwattr $C$DW$89, DW_AT_decl_file("../bts.c")
    1068                      .dwattr $C$DW$89, DW_AT_decl_line(0x2a)
    1069                      .dwattr $C$DW$89, DW_AT_decl_column(0x0f)
    1070              
    1071                      .global ||BTS_userInput_ch4||
    1072 0000009e               .bss    ||BTS_userInput_ch4||,30,1,1
    1073              $C$DW$90        .dwtag  DW_TAG_variable
    1074                      .dwattr $C$DW$90, DW_AT_name("BTS_userInput_ch4")
    1075                      .dwattr $C$DW$90, DW_AT_linkage_name("BTS_userInput_ch4")
    1076                      .dwattr $C$DW$90, DW_AT_location[DW_OP_addr ||BTS_userInput_ch4||]
    1077                      .dwattr $C$DW$90, DW_AT_type(*$C$DW$T$60)
    1078                      .dwattr $C$DW$90, DW_AT_external
    1079                      .dwattr $C$DW$90, DW_AT_decl_file("../bts.c")
    1080                      .dwattr $C$DW$90, DW_AT_decl_line(0x2b)
    1081                      .dwattr $C$DW$90, DW_AT_decl_column(0x0f)
    1082              
    1083                      .global ||BTS_userInput_ch5||
    1084 000000c0               .bss    ||BTS_userInput_ch5||,30,1,1
    1085              $C$DW$91        .dwtag  DW_TAG_variable
    1086                      .dwattr $C$DW$91, DW_AT_name("BTS_userInput_ch5")
    1087                      .dwattr $C$DW$91, DW_AT_linkage_name("BTS_userInput_ch5")
    1088                      .dwattr $C$DW$91, DW_AT_location[DW_OP_addr ||BTS_userInput_ch5||]
    1089                      .dwattr $C$DW$91, DW_AT_type(*$C$DW$T$60)
    1090                      .dwattr $C$DW$91, DW_AT_external
    1091                      .dwattr $C$DW$91, DW_AT_decl_file("../bts.c")
    1092                      .dwattr $C$DW$91, DW_AT_decl_line(0x2c)
    1093                      .dwattr $C$DW$91, DW_AT_decl_column(0x0f)
    1094              
    1095                      .global ||BTS_userInput_ch6||
    1096 000000de               .bss    ||BTS_userInput_ch6||,30,1,1
    1097              $C$DW$92        .dwtag  DW_TAG_variable
    1098                      .dwattr $C$DW$92, DW_AT_name("BTS_userInput_ch6")
    1099                      .dwattr $C$DW$92, DW_AT_linkage_name("BTS_userInput_ch6")
    1100                      .dwattr $C$DW$92, DW_AT_location[DW_OP_addr ||BTS_userInput_ch6||]
    1101                      .dwattr $C$DW$92, DW_AT_type(*$C$DW$T$60)
    1102                      .dwattr $C$DW$92, DW_AT_external
    1103                      .dwattr $C$DW$92, DW_AT_decl_file("../bts.c")
    1104                      .dwattr $C$DW$92, DW_AT_decl_line(0x2d)
TMS320C2000 Assembler PC v20.2.4 Tue Mar  2 07:24:45 2021

Copyright (c) 1996-2018 Texas Instruments Incorporated
bts.asm                                                              PAGE   25

    1105                      .dwattr $C$DW$92, DW_AT_decl_column(0x0f)
    1106              
    1107                      .global ||BTS_userInput_ch7||
    1108 00000100               .bss    ||BTS_userInput_ch7||,30,1,1
    1109              $C$DW$93        .dwtag  DW_TAG_variable
    1110                      .dwattr $C$DW$93, DW_AT_name("BTS_userInput_ch7")
    1111                      .dwattr $C$DW$93, DW_AT_linkage_name("BTS_userInput_ch7")
    1112                      .dwattr $C$DW$93, DW_AT_location[DW_OP_addr ||BTS_userInput_ch7||]
    1113                      .dwattr $C$DW$93, DW_AT_type(*$C$DW$T$60)
    1114                      .dwattr $C$DW$93, DW_AT_external
    1115                      .dwattr $C$DW$93, DW_AT_decl_file("../bts.c")
    1116                      .dwattr $C$DW$93, DW_AT_decl_line(0x2e)
    1117                      .dwattr $C$DW$93, DW_AT_decl_column(0x0f)
    1118              
    1119                      .global ||BTS_userInput_ch8||
    1120 0000011e               .bss    ||BTS_userInput_ch8||,30,1,1
    1121              $C$DW$94        .dwtag  DW_TAG_variable
    1122                      .dwattr $C$DW$94, DW_AT_name("BTS_userInput_ch8")
    1123                      .dwattr $C$DW$94, DW_AT_linkage_name("BTS_userInput_ch8")
    1124                      .dwattr $C$DW$94, DW_AT_location[DW_OP_addr ||BTS_userInput_ch8||]
    1125                      .dwattr $C$DW$94, DW_AT_type(*$C$DW$T$60)
    1126                      .dwattr $C$DW$94, DW_AT_external
    1127                      .dwattr $C$DW$94, DW_AT_decl_file("../bts.c")
    1128                      .dwattr $C$DW$94, DW_AT_decl_line(0x2f)
    1129                      .dwattr $C$DW$94, DW_AT_decl_column(0x0f)
    1130              
    1131                      .global ||BTS_sfra||
    1132 00000140               .bss    ||BTS_sfra||,32,1,1
    1133              $C$DW$95        .dwtag  DW_TAG_variable
    1134                      .dwattr $C$DW$95, DW_AT_name("BTS_sfra")
    1135                      .dwattr $C$DW$95, DW_AT_linkage_name("BTS_sfra")
    1136                      .dwattr $C$DW$95, DW_AT_location[DW_OP_addr ||BTS_sfra||]
    1137                      .dwattr $C$DW$95, DW_AT_type(*$C$DW$T$57)
    1138                      .dwattr $C$DW$95, DW_AT_external
    1139                      .dwattr $C$DW$95, DW_AT_decl_file("../bts.c")
    1140                      .dwattr $C$DW$95, DW_AT_decl_line(0x8f)
    1141                      .dwattr $C$DW$95, DW_AT_decl_column(0x16)
    1142              
    1143                      .global ||BTS_ctrlLoopVariable_ch1||
    1144 00000180               .bss    ||BTS_ctrlLoopVariable_ch1||,36,1,1
    1145              $C$DW$96        .dwtag  DW_TAG_variable
    1146                      .dwattr $C$DW$96, DW_AT_name("BTS_ctrlLoopVariable_ch1")
    1147                      .dwattr $C$DW$96, DW_AT_linkage_name("BTS_ctrlLoopVariable_ch1")
    1148                      .dwattr $C$DW$96, DW_AT_location[DW_OP_addr ||BTS_ctrlLoopVariable_ch1||]
    1149                      .dwattr $C$DW$96, DW_AT_type(*$C$DW$T$65)
    1150                      .dwattr $C$DW$96, DW_AT_external
    1151                      .dwattr $C$DW$96, DW_AT_decl_file("../bts.c")
    1152                      .dwattr $C$DW$96, DW_AT_decl_line(0x79)
    1153                      .dwattr $C$DW$96, DW_AT_decl_column(0x16)
    1154              
    1155                      .global ||BTS_ctrlLoopVariable_ch2||
    1156 000001c0               .bss    ||BTS_ctrlLoopVariable_ch2||,36,1,1
    1157              $C$DW$97        .dwtag  DW_TAG_variable
    1158                      .dwattr $C$DW$97, DW_AT_name("BTS_ctrlLoopVariable_ch2")
    1159                      .dwattr $C$DW$97, DW_AT_linkage_name("BTS_ctrlLoopVariable_ch2")
TMS320C2000 Assembler PC v20.2.4 Tue Mar  2 07:24:45 2021

Copyright (c) 1996-2018 Texas Instruments Incorporated
bts.asm                                                              PAGE   26

    1160                      .dwattr $C$DW$97, DW_AT_location[DW_OP_addr ||BTS_ctrlLoopVariable_ch2||]
    1161                      .dwattr $C$DW$97, DW_AT_type(*$C$DW$T$65)
    1162                      .dwattr $C$DW$97, DW_AT_external
    1163                      .dwattr $C$DW$97, DW_AT_decl_file("../bts.c")
    1164                      .dwattr $C$DW$97, DW_AT_decl_line(0x7a)
    1165                      .dwattr $C$DW$97, DW_AT_decl_column(0x16)
    1166              
    1167                      .global ||BTS_ctrlLoopVariable_ch3||
    1168 00000200               .bss    ||BTS_ctrlLoopVariable_ch3||,36,1,1
    1169              $C$DW$98        .dwtag  DW_TAG_variable
    1170                      .dwattr $C$DW$98, DW_AT_name("BTS_ctrlLoopVariable_ch3")
    1171                      .dwattr $C$DW$98, DW_AT_linkage_name("BTS_ctrlLoopVariable_ch3")
    1172                      .dwattr $C$DW$98, DW_AT_location[DW_OP_addr ||BTS_ctrlLoopVariable_ch3||]
    1173                      .dwattr $C$DW$98, DW_AT_type(*$C$DW$T$65)
    1174                      .dwattr $C$DW$98, DW_AT_external
    1175                      .dwattr $C$DW$98, DW_AT_decl_file("../bts.c")
    1176                      .dwattr $C$DW$98, DW_AT_decl_line(0x7b)
    1177                      .dwattr $C$DW$98, DW_AT_decl_column(0x16)
    1178              
    1179                      .global ||BTS_ctrlLoopVariable_ch4||
    1180 00000240               .bss    ||BTS_ctrlLoopVariable_ch4||,36,1,1
    1181              $C$DW$99        .dwtag  DW_TAG_variable
    1182                      .dwattr $C$DW$99, DW_AT_name("BTS_ctrlLoopVariable_ch4")
    1183                      .dwattr $C$DW$99, DW_AT_linkage_name("BTS_ctrlLoopVariable_ch4")
    1184                      .dwattr $C$DW$99, DW_AT_location[DW_OP_addr ||BTS_ctrlLoopVariable_ch4||]
    1185                      .dwattr $C$DW$99, DW_AT_type(*$C$DW$T$65)
    1186                      .dwattr $C$DW$99, DW_AT_external
    1187                      .dwattr $C$DW$99, DW_AT_decl_file("../bts.c")
    1188                      .dwattr $C$DW$99, DW_AT_decl_line(0x7c)
    1189                      .dwattr $C$DW$99, DW_AT_decl_column(0x16)
    1190              
    1191                      .global ||BTS_ctrlLoopVariable_ch5||
    1192 00000280               .bss    ||BTS_ctrlLoopVariable_ch5||,36,1,1
    1193              $C$DW$100       .dwtag  DW_TAG_variable
    1194                      .dwattr $C$DW$100, DW_AT_name("BTS_ctrlLoopVariable_ch5")
    1195                      .dwattr $C$DW$100, DW_AT_linkage_name("BTS_ctrlLoopVariable_ch5")
    1196                      .dwattr $C$DW$100, DW_AT_location[DW_OP_addr ||BTS_ctrlLoopVariable_ch5||]
    1197                      .dwattr $C$DW$100, DW_AT_type(*$C$DW$T$65)
    1198                      .dwattr $C$DW$100, DW_AT_external
    1199                      .dwattr $C$DW$100, DW_AT_decl_file("../bts.c")
    1200                      .dwattr $C$DW$100, DW_AT_decl_line(0x7d)
    1201                      .dwattr $C$DW$100, DW_AT_decl_column(0x16)
    1202              
    1203                      .global ||BTS_ctrlLoopVariable_ch6||
    1204 000002c0               .bss    ||BTS_ctrlLoopVariable_ch6||,36,1,1
    1205              $C$DW$101       .dwtag  DW_TAG_variable
    1206                      .dwattr $C$DW$101, DW_AT_name("BTS_ctrlLoopVariable_ch6")
    1207                      .dwattr $C$DW$101, DW_AT_linkage_name("BTS_ctrlLoopVariable_ch6")
    1208                      .dwattr $C$DW$101, DW_AT_location[DW_OP_addr ||BTS_ctrlLoopVariable_ch6||]
    1209                      .dwattr $C$DW$101, DW_AT_type(*$C$DW$T$65)
    1210                      .dwattr $C$DW$101, DW_AT_external
    1211                      .dwattr $C$DW$101, DW_AT_decl_file("../bts.c")
    1212                      .dwattr $C$DW$101, DW_AT_decl_line(0x7e)
    1213                      .dwattr $C$DW$101, DW_AT_decl_column(0x16)
    1214              
TMS320C2000 Assembler PC v20.2.4 Tue Mar  2 07:24:45 2021

Copyright (c) 1996-2018 Texas Instruments Incorporated
bts.asm                                                              PAGE   27

    1215                      .global ||BTS_ctrlLoopVariable_ch7||
    1216 00000300               .bss    ||BTS_ctrlLoopVariable_ch7||,36,1,1
    1217              $C$DW$102       .dwtag  DW_TAG_variable
    1218                      .dwattr $C$DW$102, DW_AT_name("BTS_ctrlLoopVariable_ch7")
    1219                      .dwattr $C$DW$102, DW_AT_linkage_name("BTS_ctrlLoopVariable_ch7")
    1220                      .dwattr $C$DW$102, DW_AT_location[DW_OP_addr ||BTS_ctrlLoopVariable_ch7||]
    1221                      .dwattr $C$DW$102, DW_AT_type(*$C$DW$T$65)
    1222                      .dwattr $C$DW$102, DW_AT_external
    1223                      .dwattr $C$DW$102, DW_AT_decl_file("../bts.c")
    1224                      .dwattr $C$DW$102, DW_AT_decl_line(0x7f)
    1225                      .dwattr $C$DW$102, DW_AT_decl_column(0x16)
    1226              
    1227                      .global ||BTS_ctrlLoopVariable_ch8||
    1228 00000340               .bss    ||BTS_ctrlLoopVariable_ch8||,36,1,1
    1229              $C$DW$103       .dwtag  DW_TAG_variable
    1230                      .dwattr $C$DW$103, DW_AT_name("BTS_ctrlLoopVariable_ch8")
    1231                      .dwattr $C$DW$103, DW_AT_linkage_name("BTS_ctrlLoopVariable_ch8")
    1232                      .dwattr $C$DW$103, DW_AT_location[DW_OP_addr ||BTS_ctrlLoopVariable_ch8||]
    1233                      .dwattr $C$DW$103, DW_AT_type(*$C$DW$T$65)
    1234                      .dwattr $C$DW$103, DW_AT_external
    1235                      .dwattr $C$DW$103, DW_AT_decl_file("../bts.c")
    1236                      .dwattr $C$DW$103, DW_AT_decl_line(0x80)
    1237                      .dwattr $C$DW$103, DW_AT_decl_column(0x16)
    1238              
    1239                      .global ||I2CA_TXdata||
    1240 00000000       ||I2CA_TXdata||:        .usect  ".bss:I2CA_TXdata",64,0,0
    1241              $C$DW$104       .dwtag  DW_TAG_variable
    1242                      .dwattr $C$DW$104, DW_AT_name("I2CA_TXdata")
    1243                      .dwattr $C$DW$104, DW_AT_linkage_name("I2CA_TXdata")
    1244                      .dwattr $C$DW$104, DW_AT_location[DW_OP_addr ||I2CA_TXdata||]
    1245                      .dwattr $C$DW$104, DW_AT_type(*$C$DW$T$110)
    1246                      .dwattr $C$DW$104, DW_AT_external
    1247                      .dwattr $C$DW$104, DW_AT_decl_file("../bts.c")
    1248                      .dwattr $C$DW$104, DW_AT_decl_line(0x238)
    1249                      .dwattr $C$DW$104, DW_AT_decl_column(0x0a)
    1250              
    1251                      .global ||I2CB_TXdata||
    1252 00000000       ||I2CB_TXdata||:        .usect  ".bss:I2CB_TXdata",64,0,0
    1253              $C$DW$105       .dwtag  DW_TAG_variable
    1254                      .dwattr $C$DW$105, DW_AT_name("I2CB_TXdata")
    1255                      .dwattr $C$DW$105, DW_AT_linkage_name("I2CB_TXdata")
    1256                      .dwattr $C$DW$105, DW_AT_location[DW_OP_addr ||I2CB_TXdata||]
    1257                      .dwattr $C$DW$105, DW_AT_type(*$C$DW$T$110)
    1258                      .dwattr $C$DW$105, DW_AT_external
    1259                      .dwattr $C$DW$105, DW_AT_decl_file("../bts.c")
    1260                      .dwattr $C$DW$105, DW_AT_decl_line(0x239)
    1261                      .dwattr $C$DW$105, DW_AT_decl_column(0x0a)
    1262              
    1263                      .global ||I2CA_RXdata||
    1264 00000000       ||I2CA_RXdata||:        .usect  ".bss:I2CA_RXdata",64,0,0
    1265              $C$DW$106       .dwtag  DW_TAG_variable
    1266                      .dwattr $C$DW$106, DW_AT_name("I2CA_RXdata")
    1267                      .dwattr $C$DW$106, DW_AT_linkage_name("I2CA_RXdata")
    1268                      .dwattr $C$DW$106, DW_AT_location[DW_OP_addr ||I2CA_RXdata||]
    1269                      .dwattr $C$DW$106, DW_AT_type(*$C$DW$T$110)
TMS320C2000 Assembler PC v20.2.4 Tue Mar  2 07:24:45 2021

Copyright (c) 1996-2018 Texas Instruments Incorporated
bts.asm                                                              PAGE   28

    1270                      .dwattr $C$DW$106, DW_AT_external
    1271                      .dwattr $C$DW$106, DW_AT_decl_file("../bts.c")
    1272                      .dwattr $C$DW$106, DW_AT_decl_line(0x23b)
    1273                      .dwattr $C$DW$106, DW_AT_decl_column(0x0a)
    1274              
    1275                      .global ||I2CB_RXdata||
    1276 00000000       ||I2CB_RXdata||:        .usect  ".bss:I2CB_RXdata",64,0,0
    1277              $C$DW$107       .dwtag  DW_TAG_variable
    1278                      .dwattr $C$DW$107, DW_AT_name("I2CB_RXdata")
    1279                      .dwattr $C$DW$107, DW_AT_linkage_name("I2CB_RXdata")
    1280                      .dwattr $C$DW$107, DW_AT_location[DW_OP_addr ||I2CB_RXdata||]
    1281                      .dwattr $C$DW$107, DW_AT_type(*$C$DW$T$110)
    1282                      .dwattr $C$DW$107, DW_AT_external
    1283                      .dwattr $C$DW$107, DW_AT_decl_file("../bts.c")
    1284                      .dwattr $C$DW$107, DW_AT_decl_line(0x23c)
    1285                      .dwattr $C$DW$107, DW_AT_decl_column(0x0a)
    1286              
    1287                      .global ||BTS_measValues_ch1||
    1288 00000380               .bss    ||BTS_measValues_ch1||,82,1,1
    1289              $C$DW$108       .dwtag  DW_TAG_variable
    1290                      .dwattr $C$DW$108, DW_AT_name("BTS_measValues_ch1")
    1291                      .dwattr $C$DW$108, DW_AT_linkage_name("BTS_measValues_ch1")
    1292                      .dwattr $C$DW$108, DW_AT_location[DW_OP_addr ||BTS_measValues_ch1||]
    1293                      .dwattr $C$DW$108, DW_AT_type(*$C$DW$T$70)
    1294                      .dwattr $C$DW$108, DW_AT_external
    1295                      .dwattr $C$DW$108, DW_AT_decl_file("../bts.c")
    1296                      .dwattr $C$DW$108, DW_AT_decl_line(0x1f)
    1297                      .dwattr $C$DW$108, DW_AT_decl_column(0x10)
    1298              
    1299                      .global ||BTS_measValues_ch2||
    1300 00000400               .bss    ||BTS_measValues_ch2||,82,1,1
    1301              $C$DW$109       .dwtag  DW_TAG_variable
    1302                      .dwattr $C$DW$109, DW_AT_name("BTS_measValues_ch2")
    1303                      .dwattr $C$DW$109, DW_AT_linkage_name("BTS_measValues_ch2")
    1304                      .dwattr $C$DW$109, DW_AT_location[DW_OP_addr ||BTS_measValues_ch2||]
    1305                      .dwattr $C$DW$109, DW_AT_type(*$C$DW$T$70)
    1306                      .dwattr $C$DW$109, DW_AT_external
    1307                      .dwattr $C$DW$109, DW_AT_decl_file("../bts.c")
    1308                      .dwattr $C$DW$109, DW_AT_decl_line(0x20)
    1309                      .dwattr $C$DW$109, DW_AT_decl_column(0x10)
    1310              
    1311                      .global ||BTS_measValues_ch3||
    1312 00000480               .bss    ||BTS_measValues_ch3||,82,1,1
    1313              $C$DW$110       .dwtag  DW_TAG_variable
    1314                      .dwattr $C$DW$110, DW_AT_name("BTS_measValues_ch3")
    1315                      .dwattr $C$DW$110, DW_AT_linkage_name("BTS_measValues_ch3")
    1316                      .dwattr $C$DW$110, DW_AT_location[DW_OP_addr ||BTS_measValues_ch3||]
    1317                      .dwattr $C$DW$110, DW_AT_type(*$C$DW$T$70)
    1318                      .dwattr $C$DW$110, DW_AT_external
    1319                      .dwattr $C$DW$110, DW_AT_decl_file("../bts.c")
    1320                      .dwattr $C$DW$110, DW_AT_decl_line(0x21)
    1321                      .dwattr $C$DW$110, DW_AT_decl_column(0x10)
    1322              
    1323                      .global ||BTS_measValues_ch4||
    1324 00000500               .bss    ||BTS_measValues_ch4||,82,1,1
TMS320C2000 Assembler PC v20.2.4 Tue Mar  2 07:24:45 2021

Copyright (c) 1996-2018 Texas Instruments Incorporated
bts.asm                                                              PAGE   29

    1325              $C$DW$111       .dwtag  DW_TAG_variable
    1326                      .dwattr $C$DW$111, DW_AT_name("BTS_measValues_ch4")
    1327                      .dwattr $C$DW$111, DW_AT_linkage_name("BTS_measValues_ch4")
    1328                      .dwattr $C$DW$111, DW_AT_location[DW_OP_addr ||BTS_measValues_ch4||]
    1329                      .dwattr $C$DW$111, DW_AT_type(*$C$DW$T$70)
    1330                      .dwattr $C$DW$111, DW_AT_external
    1331                      .dwattr $C$DW$111, DW_AT_decl_file("../bts.c")
    1332                      .dwattr $C$DW$111, DW_AT_decl_line(0x22)
    1333                      .dwattr $C$DW$111, DW_AT_decl_column(0x10)
    1334              
    1335                      .global ||BTS_measValues_ch5||
    1336 00000580               .bss    ||BTS_measValues_ch5||,82,1,1
    1337              $C$DW$112       .dwtag  DW_TAG_variable
    1338                      .dwattr $C$DW$112, DW_AT_name("BTS_measValues_ch5")
    1339                      .dwattr $C$DW$112, DW_AT_linkage_name("BTS_measValues_ch5")
    1340                      .dwattr $C$DW$112, DW_AT_location[DW_OP_addr ||BTS_measValues_ch5||]
    1341                      .dwattr $C$DW$112, DW_AT_type(*$C$DW$T$70)
    1342                      .dwattr $C$DW$112, DW_AT_external
    1343                      .dwattr $C$DW$112, DW_AT_decl_file("../bts.c")
    1344                      .dwattr $C$DW$112, DW_AT_decl_line(0x23)
    1345                      .dwattr $C$DW$112, DW_AT_decl_column(0x10)
    1346              
    1347                      .global ||BTS_measValues_ch6||
    1348 00000600               .bss    ||BTS_measValues_ch6||,82,1,1
    1349              $C$DW$113       .dwtag  DW_TAG_variable
    1350                      .dwattr $C$DW$113, DW_AT_name("BTS_measValues_ch6")
    1351                      .dwattr $C$DW$113, DW_AT_linkage_name("BTS_measValues_ch6")
    1352                      .dwattr $C$DW$113, DW_AT_location[DW_OP_addr ||BTS_measValues_ch6||]
    1353                      .dwattr $C$DW$113, DW_AT_type(*$C$DW$T$70)
    1354                      .dwattr $C$DW$113, DW_AT_external
    1355                      .dwattr $C$DW$113, DW_AT_decl_file("../bts.c")
    1356                      .dwattr $C$DW$113, DW_AT_decl_line(0x24)
    1357                      .dwattr $C$DW$113, DW_AT_decl_column(0x10)
    1358              
    1359                      .global ||BTS_measValues_ch7||
    1360 00000680               .bss    ||BTS_measValues_ch7||,82,1,1
    1361              $C$DW$114       .dwtag  DW_TAG_variable
    1362                      .dwattr $C$DW$114, DW_AT_name("BTS_measValues_ch7")
    1363                      .dwattr $C$DW$114, DW_AT_linkage_name("BTS_measValues_ch7")
    1364                      .dwattr $C$DW$114, DW_AT_location[DW_OP_addr ||BTS_measValues_ch7||]
    1365                      .dwattr $C$DW$114, DW_AT_type(*$C$DW$T$70)
    1366                      .dwattr $C$DW$114, DW_AT_external
    1367                      .dwattr $C$DW$114, DW_AT_decl_file("../bts.c")
    1368                      .dwattr $C$DW$114, DW_AT_decl_line(0x25)
    1369                      .dwattr $C$DW$114, DW_AT_decl_column(0x10)
    1370              
    1371                      .global ||BTS_measValues_ch8||
    1372 00000700               .bss    ||BTS_measValues_ch8||,82,1,1
    1373              $C$DW$115       .dwtag  DW_TAG_variable
    1374                      .dwattr $C$DW$115, DW_AT_name("BTS_measValues_ch8")
    1375                      .dwattr $C$DW$115, DW_AT_linkage_name("BTS_measValues_ch8")
    1376                      .dwattr $C$DW$115, DW_AT_location[DW_OP_addr ||BTS_measValues_ch8||]
    1377                      .dwattr $C$DW$115, DW_AT_type(*$C$DW$T$70)
    1378                      .dwattr $C$DW$115, DW_AT_external
    1379                      .dwattr $C$DW$115, DW_AT_decl_file("../bts.c")
TMS320C2000 Assembler PC v20.2.4 Tue Mar  2 07:24:45 2021

Copyright (c) 1996-2018 Texas Instruments Incorporated
bts.asm                                                              PAGE   30

    1380                      .dwattr $C$DW$115, DW_AT_decl_line(0x26)
    1381                      .dwattr $C$DW$115, DW_AT_decl_column(0x10)
    1382              
    1383                      .global ||BTS_sfraData||
    1384 00000780               .bss    ||BTS_sfraData||,1030,1,1
    1385              $C$DW$116       .dwtag  DW_TAG_variable
    1386                      .dwattr $C$DW$116, DW_AT_name("BTS_sfraData")
    1387                      .dwattr $C$DW$116, DW_AT_linkage_name("BTS_sfraData")
    1388                      .dwattr $C$DW$116, DW_AT_location[DW_OP_addr ||BTS_sfraData||]
    1389                      .dwattr $C$DW$116, DW_AT_type(*$C$DW$T$75)
    1390                      .dwattr $C$DW$116, DW_AT_external
    1391                      .dwattr $C$DW$116, DW_AT_decl_file("../bts.c")
    1392                      .dwattr $C$DW$116, DW_AT_decl_line(0x90)
    1393                      .dwattr $C$DW$116, DW_AT_decl_column(0x15)
    1394              
    1395                      .sblock ".bss"
    1396                      .sblock ".data"
    1397              ;       C:\ti\ccs1011\ccs\tools\compiler\ti-cgt-c2000_20.2.4.LTS\bin\opt2000.exe C:\\Users\\LUCAS~1.OLD\\AppD
    1398              ;       C:\ti\ccs1011\ccs\tools\compiler\ti-cgt-c2000_20.2.4.LTS\bin\acia2000.exe -@C:\\Users\\LUCAS~1.OLD\\A
    1399 00000000               .sect   "isrcodefuncs:retain"
    1400                      .retain
    1401                      .retainrefs
    1402                      .global ||i2cBISR||
    1403              
    1404              $C$DW$117       .dwtag  DW_TAG_subprogram
    1405                      .dwattr $C$DW$117, DW_AT_name("i2cBISR")
    1406                      .dwattr $C$DW$117, DW_AT_low_pc(||i2cBISR||)
    1407                      .dwattr $C$DW$117, DW_AT_high_pc(0x00)
    1408                      .dwattr $C$DW$117, DW_AT_linkage_name("i2cBISR")
    1409                      .dwattr $C$DW$117, DW_AT_external
    1410                      .dwattr $C$DW$117, DW_AT_decl_file("../bts.c")
    1411                      .dwattr $C$DW$117, DW_AT_decl_line(0x248)
    1412                      .dwattr $C$DW$117, DW_AT_decl_column(0x12)
    1413                      .dwattr $C$DW$117, DW_AT_TI_interrupt
    1414                      .dwattr $C$DW$117, DW_AT_TI_max_frame_size(-18)
    1415                      .dwpsn  file "../bts.c",line 585,column 1,is_stmt,address ||i2cBISR||,isa 0
    1416              
    1417                      .dwfde $C$DW$CIE, ||i2cBISR||
    1418              
    1419              ;***************************************************************
    1420              ;* FNAME: i2cBISR                       FR SIZE:  16           *
    1421              ;*                                                             *
    1422              ;* FUNCTION ENVIRONMENT                                        *
    1423              ;*                                                             *
    1424              ;* FUNCTION PROPERTIES                                         *
    1425              ;*                            2 Parameter,  0 Auto, 14 SOE     *
    1426              ;***************************************************************
    1427              
    1428 00000000       ||i2cBISR||:
    1429              ;* AR1   assigned to $O$K1
    1430              ;* AL    assigned to $O$R1
    1431                      .dwcfi  cfa_offset, -2
    1432                      .dwcfi  save_reg_to_mem, 26, 0
    1433 00000000 761B          ASP       ; [CPU_ALU] 
    1434 00000001 0005          PUSH      AR1H:AR0H             ; [CPU_ALU] 
TMS320C2000 Assembler PC v20.2.4 Tue Mar  2 07:24:45 2021

Copyright (c) 1996-2018 Texas Instruments Incorporated
bts.asm                                                              PAGE   31

    1435                      .dwcfi  save_reg_to_mem, 5, 2
    1436                      .dwcfi  save_reg_to_mem, 7, 3
    1437                      .dwcfi  cfa_offset, -4
    1438 00000002 ABBD          MOVL      *SP++,XT              ; [CPU_ALU] 
    1439                      .dwcfi  save_reg_to_mem, 21, 4
    1440                      .dwcfi  save_reg_to_mem, 22, 5
    1441                      .dwcfi  cfa_offset, -6
    1442 00000003 A8BD          MOVL      *SP++,XAR4            ; [CPU_ALU] 
    1443                      .dwcfi  save_reg_to_mem, 12, 6
    1444                      .dwcfi  save_reg_to_mem, 13, 7
    1445                      .dwcfi  cfa_offset, -8
    1446 00000004 A0BD          MOVL      *SP++,XAR5            ; [CPU_ALU] 
    1447                      .dwcfi  save_reg_to_mem, 14, 8
    1448                      .dwcfi  save_reg_to_mem, 15, 9
    1449                      .dwcfi  cfa_offset, -10
    1450 00000005 C2BD          MOVL      *SP++,XAR6            ; [CPU_ALU] 
    1451                      .dwcfi  save_reg_to_mem, 16, 10
    1452                      .dwcfi  save_reg_to_mem, 17, 11
    1453                      .dwcfi  cfa_offset, -12
    1454 00000006 C3BD          MOVL      *SP++,XAR7            ; [CPU_ALU] 
    1455                      .dwcfi  save_reg_to_mem, 18, 12
    1456                      .dwcfi  save_reg_to_mem, 19, 13
    1457                      .dwcfi  cfa_offset, -14
    1458 00000007 FFF0          PUSH      RB                    ; [CPU_FPU] 
    1459                      .dwcfi  save_reg_to_mem, 74, 16
    1460                      .dwcfi  cfa_offset, -16
    1461 00000008 E670          SAVE      RNDF32=1, RNDF64=1    ; [CPU_FPU] 
         00000009 0600 
    1462 0000000a FE02          ADDB      SP,#2                 ; [CPU_ARAU] 
    1463                      .dwcfi  cfa_offset, -18
    1464 0000000b FF69          SPM       0                     ; [CPU_ALU] 
    1465 0000000c 2942          CLRC      PAGE0,OVM             ; [CPU_ALU] 
    1466 0000000d 5616          CLRC      AMODE                 ; [CPU_ALU] 
    1467                      .dwpsn  file "C:/ti/c2000/C2000Ware_DigitalPower_SDK_3_01_00_00/c2000ware/driverlib/f2837xd/driverlib
    1468 0000000e 8D40!         MOVL      XAR1,#||I2CB||        ; [CPU_ARAU] |653| 
         0000000f 0000 
    1469 00000010 8AC1          MOVL      XAR4,*+XAR1[0]        ; [CPU_ALU] |653| 
    1470 00000011 92D4          MOV       AL,*+XAR4[2]          ; [CPU_ALU] |653| 
    1471                      .dwpsn  file "../bts.c",line 588,column 4,is_stmt,isa 0
    1472 00000012 49A9          TBIT      AL,#9                 ; [CPU_ALU] |588| 
    1473 00000013 6C09          B         ||$C$L1||,NTC         ; [CPU_ALU] |588| 
    1474                      ; branchcc occurs ; [] |588| 
    1475 00000014 761F!         MOVW      DP,#||I2CA||          ; [CPU_ARAU] 
         00000015 0000 
    1476                      .dwpsn  file "../bts.c",line 592,column 8,is_stmt,isa 0
    1477 00000016 8F02          MOVL      XAR4,#131072          ; [CPU_ARAU] |592| 
         00000017 0000 
    1478 00000018 0600!         MOVL      ACC,@$BLOCKED(||I2CA||) ; [CPU_ALU] |592| 
    1479 00000019 A842          MOVL      *-SP[2],XAR4          ; [CPU_ALU] |592| 
    1480              $C$DW$118       .dwtag  DW_TAG_TI_branch
    1481                      .dwattr $C$DW$118, DW_AT_low_pc(0x00)
    1482                      .dwattr $C$DW$118, DW_AT_name("I2C_disableInterrupt")
    1483                      .dwattr $C$DW$118, DW_AT_TI_call
    1484              
    1485 0000001a 7640!         LCR       #||I2C_disableInterrupt|| ; [CPU_ALU] |592| 
TMS320C2000 Assembler PC v20.2.4 Tue Mar  2 07:24:45 2021

Copyright (c) 1996-2018 Texas Instruments Incorporated
bts.asm                                                              PAGE   32

         0000001b 0000 
    1486                      ; call occurs [#||I2C_disableInterrupt||] ; [] |592| 
    1487 0000001c       ||$C$L1||:    
    1488                      .dwpsn  file "../bts.c",line 596,column 4,is_stmt,isa 0
    1489 0000001c 8AA1          MOVL      XAR4,XAR1             ; [CPU_ALU] |596| 
    1490              $C$DW$119       .dwtag  DW_TAG_TI_branch
    1491                      .dwattr $C$DW$119, DW_AT_low_pc(0x00)
    1492                      .dwattr $C$DW$119, DW_AT_name("handleI2C_ErrorCondition")
    1493                      .dwattr $C$DW$119, DW_AT_TI_call
    1494              
    1495 0000001d 7640!         LCR       #||handleI2C_ErrorCondition|| ; [CPU_ALU] |596| 
         0000001e 0000 
    1496                      ; call occurs [#||handleI2C_ErrorCondition||] ; [] |596| 
    1497                      .dwpsn  file "C:\ti\c2000\C2000Ware_DigitalPower_SDK_3_01_00_00\c2000ware\driverlib\f2837xd\driverlib
    1498 0000001f 9A80          MOVB      AL,#128               ; [CPU_ALU] |429| 
    1499 00000020 F4A9          MOV       *(0:0x0ce1),AL        ; [CPU_ALU] |429| 
         00000021 0CE1 
    1500 00000022 FE82          SUBB      SP,#2                 ; [CPU_ARAU] 
    1501                      .dwcfi  cfa_offset, -16
    1502 00000023 E562          RESTORE   ; [CPU_FPU] 
    1503 00000024 FFF1          POP       RB                    ; [CPU_FPU] 
    1504                      .dwcfi  cfa_offset, -14
    1505                      .dwcfi  restore_reg, 74
    1506 00000025 C5BE          MOVL      XAR7,*--SP            ; [CPU_ALU] 
    1507                      .dwcfi  cfa_offset, -12
    1508                      .dwcfi  restore_reg, 18
    1509 00000026 C4BE          MOVL      XAR6,*--SP            ; [CPU_ALU] 
    1510                      .dwcfi  cfa_offset, -10
    1511                      .dwcfi  restore_reg, 16
    1512 00000027 83BE          MOVL      XAR5,*--SP            ; [CPU_ALU] 
    1513                      .dwcfi  cfa_offset, -8
    1514                      .dwcfi  restore_reg, 14
    1515 00000028 8ABE          MOVL      XAR4,*--SP            ; [CPU_ALU] 
    1516                      .dwcfi  cfa_offset, -6
    1517                      .dwcfi  restore_reg, 12
    1518 00000029 87BE          MOVL      XT,*--SP              ; [CPU_ALU] 
    1519                      .dwcfi  cfa_offset, -4
    1520                      .dwcfi  restore_reg, 22
    1521                      .dwcfi  restore_reg, 21
    1522 0000002a 0003          POP       AR1H:AR0H             ; [CPU_ALU] 
    1523                      .dwcfi  cfa_offset, -2
    1524                      .dwcfi  restore_reg, 5
    1525                      .dwcfi  restore_reg, 7
    1526 0000002b 7617          NASP      ; [CPU_ALU] 
    1527              $C$DW$120       .dwtag  DW_TAG_TI_branch
    1528                      .dwattr $C$DW$120, DW_AT_low_pc(0x00)
    1529                      .dwattr $C$DW$120, DW_AT_TI_return
    1530              
    1531 0000002c 7602          IRET      ; [CPU_ALU] 
    1532                      ; return occurs ; [] 
    1533                      .dwattr $C$DW$117, DW_AT_TI_end_file("../bts.c")
    1534                      .dwattr $C$DW$117, DW_AT_TI_end_line(0x257)
    1535                      .dwattr $C$DW$117, DW_AT_TI_end_column(0x01)
    1536                      .dwendentry
    1537                      .dwendtag $C$DW$117
TMS320C2000 Assembler PC v20.2.4 Tue Mar  2 07:24:45 2021

Copyright (c) 1996-2018 Texas Instruments Incorporated
bts.asm                                                              PAGE   33

    1538              
    1539 0000002d               .sect   "isrcodefuncs:retain"
    1540                      .retain
    1541                      .retainrefs
    1542                      .global ||i2cBFIFOISR||
    1543              
    1544              $C$DW$121       .dwtag  DW_TAG_subprogram
    1545                      .dwattr $C$DW$121, DW_AT_name("i2cBFIFOISR")
    1546                      .dwattr $C$DW$121, DW_AT_low_pc(||i2cBFIFOISR||)
    1547                      .dwattr $C$DW$121, DW_AT_high_pc(0x00)
    1548                      .dwattr $C$DW$121, DW_AT_linkage_name("i2cBFIFOISR")
    1549                      .dwattr $C$DW$121, DW_AT_external
    1550                      .dwattr $C$DW$121, DW_AT_decl_file("../bts.c")
    1551                      .dwattr $C$DW$121, DW_AT_decl_line(0x25e)
    1552                      .dwattr $C$DW$121, DW_AT_decl_column(0x12)
    1553                      .dwattr $C$DW$121, DW_AT_TI_interrupt
    1554                      .dwattr $C$DW$121, DW_AT_TI_max_frame_size(-18)
    1555                      .dwpsn  file "../bts.c",line 607,column 1,is_stmt,address ||i2cBFIFOISR||,isa 0
    1556              
    1557                      .dwfde $C$DW$CIE, ||i2cBFIFOISR||
    1558              
    1559              ;***************************************************************
    1560              ;* FNAME: i2cBFIFOISR                   FR SIZE:  16           *
    1561              ;*                                                             *
    1562              ;* FUNCTION ENVIRONMENT                                        *
    1563              ;*                                                             *
    1564              ;* FUNCTION PROPERTIES                                         *
    1565              ;*                            2 Parameter,  0 Auto, 14 SOE     *
    1566              ;***************************************************************
    1567              
    1568              ||i2cBFIFOISR||:
    1569              ;* AR4   assigned to $O$C1
    1570              ;* AR4   assigned to $O$v2
    1571              ;* AR4   assigned to $O$v1
    1572              ;* AL    assigned to MasterSlave
    1573              $C$DW$122       .dwtag  DW_TAG_variable
    1574                      .dwattr $C$DW$122, DW_AT_name("MasterSlave")
    1575                      .dwattr $C$DW$122, DW_AT_type(*$C$DW$T$26)
    1576                      .dwattr $C$DW$122, DW_AT_location[DW_OP_reg0]
    1577              
    1578                      .dwcfi  cfa_offset, -2
    1579                      .dwcfi  save_reg_to_mem, 26, 0
    1580 0000002d 761B          ASP       ; [CPU_ALU] 
    1581 0000002e 0005          PUSH      AR1H:AR0H             ; [CPU_ALU] 
    1582                      .dwcfi  save_reg_to_mem, 5, 2
    1583                      .dwcfi  save_reg_to_mem, 7, 3
    1584                      .dwcfi  cfa_offset, -4
    1585 0000002f ABBD          MOVL      *SP++,XT              ; [CPU_ALU] 
    1586                      .dwcfi  save_reg_to_mem, 21, 4
    1587                      .dwcfi  save_reg_to_mem, 22, 5
    1588                      .dwcfi  cfa_offset, -6
    1589 00000030 A8BD          MOVL      *SP++,XAR4            ; [CPU_ALU] 
    1590                      .dwcfi  save_reg_to_mem, 12, 6
    1591                      .dwcfi  save_reg_to_mem, 13, 7
    1592                      .dwcfi  cfa_offset, -8
TMS320C2000 Assembler PC v20.2.4 Tue Mar  2 07:24:45 2021

Copyright (c) 1996-2018 Texas Instruments Incorporated
bts.asm                                                              PAGE   34

    1593 00000031 A0BD          MOVL      *SP++,XAR5            ; [CPU_ALU] 
    1594                      .dwcfi  save_reg_to_mem, 14, 8
    1595                      .dwcfi  save_reg_to_mem, 15, 9
    1596                      .dwcfi  cfa_offset, -10
    1597 00000032 C2BD          MOVL      *SP++,XAR6            ; [CPU_ALU] 
    1598                      .dwcfi  save_reg_to_mem, 16, 10
    1599                      .dwcfi  save_reg_to_mem, 17, 11
    1600                      .dwcfi  cfa_offset, -12
    1601 00000033 C3BD          MOVL      *SP++,XAR7            ; [CPU_ALU] 
    1602                      .dwcfi  save_reg_to_mem, 18, 12
    1603                      .dwcfi  save_reg_to_mem, 19, 13
    1604                      .dwcfi  cfa_offset, -14
    1605 00000034 FFF0          PUSH      RB                    ; [CPU_FPU] 
    1606                      .dwcfi  save_reg_to_mem, 74, 16
    1607                      .dwcfi  cfa_offset, -16
    1608 00000035 E670          SAVE      RNDF32=1, RNDF64=1    ; [CPU_FPU] 
         00000036 0600 
    1609 00000037 FE02          ADDB      SP,#2                 ; [CPU_ARAU] 
    1610                      .dwcfi  cfa_offset, -18
    1611 00000038 FF69          SPM       0                     ; [CPU_ALU] 
    1612 00000039 2942          CLRC      PAGE0,OVM             ; [CPU_ALU] 
    1613 0000003a 5616          CLRC      AMODE                 ; [CPU_ALU] 
    1614                      .dwpsn  file "../bts.c",line 608,column 5,is_stmt,isa 0
    1615 0000003b 8F00!         MOVL      XAR4,#||I2CB||        ; [CPU_ARAU] |608| 
         0000003c 0000 
    1616              $C$DW$123       .dwtag  DW_TAG_TI_branch
    1617                      .dwattr $C$DW$123, DW_AT_low_pc(0x00)
    1618                      .dwattr $C$DW$123, DW_AT_name("Write_Read_TX_RX_FIFO")
    1619                      .dwattr $C$DW$123, DW_AT_TI_call
    1620              
    1621 0000003d 7640!         LCR       #||Write_Read_TX_RX_FIFO|| ; [CPU_ALU] |608| 
         0000003e 0000 
    1622                      ; call occurs [#||Write_Read_TX_RX_FIFO||] ; [] |608| 
    1623 0000003f 761F!         MOVW      DP,#||I2CB||          ; [CPU_ARAU] 
         00000040 0000 
    1624                      .dwpsn  file "../bts.c",line 610,column 26,is_stmt,isa 0
    1625 00000041 8A00!         MOVL      XAR4,@$BLOCKED(||I2CB||) ; [CPU_ALU] |610| 
    1626 00000042 D009          MOVB      XAR0,#9               ; [CPU_ALU] |610| 
    1627 00000043 9294          MOV       AL,*+XAR4[AR0]        ; [CPU_ALU] |610| 
    1628                      .dwpsn  file "../bts.c",line 612,column 5,is_stmt,isa 0
    1629 00000044 4AA9          TBIT      AL,#10                ; [CPU_ALU] |612| 
    1630 00000045 6D54          B         ||$C$L4||,TC          ; [CPU_ALU] |612| 
    1631                      ; branchcc occurs ; [] |612| 
    1632                      .dwpsn  file "../bts.c",line 630,column 8,is_stmt,isa 0
    1633 00000046 49A9          TBIT      AL,#9                 ; [CPU_ALU] |630| 
    1634 00000047 6D35          B         ||$C$L3||,TC          ; [CPU_ALU] |630| 
    1635                      ; branchcc occurs ; [] |630| 
    1636                      .dwpsn  file "../bts.c",line 644,column 12,is_stmt,isa 0
    1637 00000048 8A00!         MOVL      XAR4,@$BLOCKED(||I2CA||) ; [CPU_ALU] |644| 
    1638 00000049 88EC          MOVZ      AR6,*+XAR4[5]         ; [CPU_ALU] |644| 
    1639 0000004a 0E06!         MOVU      ACC,@$BLOCKED(||I2CA||)+6 ; [CPU_ALU] |644| 
    1640 0000004b 0FA6          CMPL      ACC,XAR6              ; [CPU_ALU] |644| 
    1641 0000004c 6121          B         ||$C$L2||,EQ          ; [CPU_ALU] |644| 
    1642                      ; branchcc occurs ; [] |644| 
    1643                      .dwpsn  file "../bts.c",line 658,column 16,is_stmt,isa 0
TMS320C2000 Assembler PC v20.2.4 Tue Mar  2 07:24:45 2021

Copyright (c) 1996-2018 Texas Instruments Incorporated
bts.asm                                                              PAGE   35

    1644 0000004d 8F42          MOVL      XAR5,#131072          ; [CPU_ARAU] |658| 
         0000004e 0000 
    1645 0000004f A8A9          MOVL      ACC,XAR4              ; [CPU_ALU] |658| 
    1646 00000050 A042          MOVL      *-SP[2],XAR5          ; [CPU_ALU] |658| 
    1647              $C$DW$124       .dwtag  DW_TAG_TI_branch
    1648                      .dwattr $C$DW$124, DW_AT_low_pc(0x00)
    1649                      .dwattr $C$DW$124, DW_AT_name("I2C_enableInterrupt")
    1650                      .dwattr $C$DW$124, DW_AT_TI_call
    1651              
    1652 00000051 7640!         LCR       #||I2C_enableInterrupt|| ; [CPU_ALU] |658| 
         00000052 0000 
    1653                      ; call occurs [#||I2C_enableInterrupt||] ; [] |658| 
    1654 00000053 761F!         MOVW      DP,#||I2CA||          ; [CPU_ARAU] 
         00000054 0000 
    1655                      .dwpsn  file "../bts.c",line 659,column 16,is_stmt,isa 0
    1656 00000055 8F01          MOVL      XAR4,#65536           ; [CPU_ARAU] |659| 
         00000056 0000 
    1657 00000057 A842          MOVL      *-SP[2],XAR4          ; [CPU_ALU] |659| 
    1658 00000058 0600!         MOVL      ACC,@$BLOCKED(||I2CA||) ; [CPU_ALU] |659| 
    1659              $C$DW$125       .dwtag  DW_TAG_TI_branch
    1660                      .dwattr $C$DW$125, DW_AT_low_pc(0x00)
    1661                      .dwattr $C$DW$125, DW_AT_name("I2C_disableInterrupt")
    1662                      .dwattr $C$DW$125, DW_AT_TI_call
    1663              
    1664 00000059 7640!         LCR       #||I2C_disableInterrupt|| ; [CPU_ALU] |659| 
         0000005a 0000 
    1665                      ; call occurs [#||I2C_disableInterrupt||] ; [] |659| 
    1666 0000005b 761F!         MOVW      DP,#||I2CA||          ; [CPU_ARAU] 
         0000005c 0000 
    1667                      .dwpsn  file "../bts.c",line 660,column 16,is_stmt,isa 0
    1668 0000005d 8F03          MOVL      XAR4,#196608          ; [CPU_ARAU] |660| 
         0000005e 0000 
    1669 0000005f A842          MOVL      *-SP[2],XAR4          ; [CPU_ALU] |660| 
    1670 00000060 0600!         MOVL      ACC,@$BLOCKED(||I2CA||) ; [CPU_ALU] |660| 
    1671              $C$DW$126       .dwtag  DW_TAG_TI_branch
    1672                      .dwattr $C$DW$126, DW_AT_low_pc(0x00)
    1673                      .dwattr $C$DW$126, DW_AT_name("I2C_clearInterruptStatus")
    1674                      .dwattr $C$DW$126, DW_AT_TI_call
    1675              
    1676 00000061 7640!         LCR       #||I2C_clearInterruptStatus|| ; [CPU_ALU] |660| 
         00000062 0000 
    1677                      ; call occurs [#||I2C_clearInterruptStatus||] ; [] |660| 
    1678 00000063 761F!         MOVW      DP,#||I2CB||+10       ; [CPU_ARAU] 
         00000064 0000 
    1679                      .dwpsn  file "../bts.c",line 661,column 16,is_stmt,isa 0
    1680 00000065 060A!         MOVL      ACC,@$BLOCKED(||I2CB||)+10 ; [CPU_ALU] |661| 
    1681 00000066 604A          B         ||$C$L7||,NEQ         ; [CPU_ALU] |661| 
    1682                      ; branchcc occurs ; [] |661| 
    1683                      .dwpsn  file "../bts.c",line 664,column 20,is_stmt,isa 0
    1684 00000067 BE00          MOVB      XAR6,#0               ; [CPU_ALU] |664| 
    1685                      .dwpsn  file "../bts.c",line 663,column 20,is_stmt,isa 0
    1686 00000068 0604!         MOVL      ACC,@$BLOCKED(||I2CB||)+4 ; [CPU_ALU] |663| 
    1687 00000069 91FF          ANDB      AH,#255               ; [CPU_ALU] |663| 
    1688 0000006a 1E0A!         MOVL      @$BLOCKED(||I2CB||)+10,ACC ; [CPU_ALU] |663| 
    1689                      .dwpsn  file "../bts.c",line 664,column 20,is_stmt,isa 0
TMS320C2000 Assembler PC v20.2.4 Tue Mar  2 07:24:45 2021

Copyright (c) 1996-2018 Texas Instruments Incorporated
bts.asm                                                              PAGE   36

    1690 0000006b C208!         MOVL      @$BLOCKED(||I2CB||)+8,XAR6 ; [CPU_ALU] |664| 
    1691 0000006c 6F44          B         ||$C$L7||,UNC         ; [CPU_ALU] |664| 
    1692                      ; branch occurs ; [] |664| 
    1693 0000006d       ||$C$L2||:    
    1694                      .dwpsn  file "../bts.c",line 648,column 16,is_stmt,isa 0
    1695 0000006d 0204          MOVB      ACC,#4                ; [CPU_ALU] |648| 
    1696 0000006e 1E42          MOVL      *-SP[2],ACC           ; [CPU_ALU] |648| 
    1697 0000006f A8A9          MOVL      ACC,XAR4              ; [CPU_ALU] |648| 
    1698              $C$DW$127       .dwtag  DW_TAG_TI_branch
    1699                      .dwattr $C$DW$127, DW_AT_low_pc(0x00)
    1700                      .dwattr $C$DW$127, DW_AT_name("I2C_enableInterrupt")
    1701                      .dwattr $C$DW$127, DW_AT_TI_call
    1702              
    1703 00000070 7640!         LCR       #||I2C_enableInterrupt|| ; [CPU_ALU] |648| 
         00000071 0000 
    1704                      ; call occurs [#||I2C_enableInterrupt||] ; [] |648| 
    1705 00000072 761F!         MOVW      DP,#||I2CB||+8        ; [CPU_ARAU] 
         00000073 0000 
    1706                      .dwpsn  file "../bts.c",line 649,column 16,is_stmt,isa 0
    1707 00000074 0608!         MOVL      ACC,@$BLOCKED(||I2CB||)+8 ; [CPU_ALU] |649| 
    1708 00000075 603B          B         ||$C$L7||,NEQ         ; [CPU_ALU] |649| 
    1709                      ; branchcc occurs ; [] |649| 
    1710                      .dwpsn  file "../bts.c",line 652,column 21,is_stmt,isa 0
    1711 00000076 BE00          MOVB      XAR6,#0               ; [CPU_ALU] |652| 
    1712                      .dwpsn  file "../bts.c",line 651,column 21,is_stmt,isa 0
    1713 00000077 0604!         MOVL      ACC,@$BLOCKED(||I2CB||)+4 ; [CPU_ALU] |651| 
    1714 00000078 91FF          ANDB      AH,#255               ; [CPU_ALU] |651| 
    1715 00000079 1E08!         MOVL      @$BLOCKED(||I2CB||)+8,ACC ; [CPU_ALU] |651| 
    1716                      .dwpsn  file "../bts.c",line 652,column 21,is_stmt,isa 0
    1717 0000007a C20A!         MOVL      @$BLOCKED(||I2CB||)+10,XAR6 ; [CPU_ALU] |652| 
    1718 0000007b 6F35          B         ||$C$L7||,UNC         ; [CPU_ALU] |652| 
    1719                      ; branch occurs ; [] |652| 
    1720 0000007c       ||$C$L3||:    
    1721                      .dwpsn  file "../bts.c",line 635,column 12,is_stmt,isa 0
    1722 0000007c 8F01          MOVL      XAR4,#65536           ; [CPU_ARAU] |635| 
         0000007d 0000 
    1723 0000007e 0600!         MOVL      ACC,@$BLOCKED(||I2CA||) ; [CPU_ALU] |635| 
    1724 0000007f A842          MOVL      *-SP[2],XAR4          ; [CPU_ALU] |635| 
    1725              $C$DW$128       .dwtag  DW_TAG_TI_branch
    1726                      .dwattr $C$DW$128, DW_AT_low_pc(0x00)
    1727                      .dwattr $C$DW$128, DW_AT_name("I2C_enableInterrupt")
    1728                      .dwattr $C$DW$128, DW_AT_TI_call
    1729              
    1730 00000080 7640!         LCR       #||I2C_enableInterrupt|| ; [CPU_ALU] |635| 
         00000081 0000 
    1731                      ; call occurs [#||I2C_enableInterrupt||] ; [] |635| 
    1732 00000082 761F!         MOVW      DP,#||I2CA||          ; [CPU_ARAU] 
         00000083 0000 
    1733                      .dwpsn  file "../bts.c",line 636,column 12,is_stmt,isa 0
    1734 00000084 8F02          MOVL      XAR4,#131072          ; [CPU_ARAU] |636| 
         00000085 0000 
    1735 00000086 A842          MOVL      *-SP[2],XAR4          ; [CPU_ALU] |636| 
    1736 00000087 0600!         MOVL      ACC,@$BLOCKED(||I2CA||) ; [CPU_ALU] |636| 
    1737              $C$DW$129       .dwtag  DW_TAG_TI_branch
    1738                      .dwattr $C$DW$129, DW_AT_low_pc(0x00)
TMS320C2000 Assembler PC v20.2.4 Tue Mar  2 07:24:45 2021

Copyright (c) 1996-2018 Texas Instruments Incorporated
bts.asm                                                              PAGE   37

    1739                      .dwattr $C$DW$129, DW_AT_name("I2C_disableInterrupt")
    1740                      .dwattr $C$DW$129, DW_AT_TI_call
    1741              
    1742 00000088 7640!         LCR       #||I2C_disableInterrupt|| ; [CPU_ALU] |636| 
         00000089 0000 
    1743                      ; call occurs [#||I2C_disableInterrupt||] ; [] |636| 
    1744 0000008a 761F!         MOVW      DP,#||I2CA||          ; [CPU_ARAU] 
         0000008b 0000 
    1745                      .dwpsn  file "../bts.c",line 637,column 12,is_stmt,isa 0
    1746 0000008c 8F01          MOVL      XAR4,#65536           ; [CPU_ARAU] |637| 
         0000008d 0000 
    1747 0000008e A842          MOVL      *-SP[2],XAR4          ; [CPU_ALU] |637| 
    1748 0000008f 0600!         MOVL      ACC,@$BLOCKED(||I2CA||) ; [CPU_ALU] |637| 
    1749              $C$DW$130       .dwtag  DW_TAG_TI_branch
    1750                      .dwattr $C$DW$130, DW_AT_low_pc(0x00)
    1751                      .dwattr $C$DW$130, DW_AT_name("I2C_clearInterruptStatus")
    1752                      .dwattr $C$DW$130, DW_AT_TI_call
    1753              
    1754 00000090 7640!         LCR       #||I2C_clearInterruptStatus|| ; [CPU_ALU] |637| 
         00000091 0000 
    1755                      ; call occurs [#||I2C_clearInterruptStatus||] ; [] |637| 
    1756 00000092 761F!         MOVW      DP,#||I2CB||          ; [CPU_ARAU] 
         00000093 0000 
    1757                      .dwpsn  file "../bts.c",line 639,column 12,is_stmt,isa 0
    1758 00000094 8F02          MOVL      XAR4,#131072          ; [CPU_ARAU] |639| 
         00000095 0000 
    1759 00000096 A842          MOVL      *-SP[2],XAR4          ; [CPU_ALU] |639| 
    1760 00000097 0600!         MOVL      ACC,@$BLOCKED(||I2CB||) ; [CPU_ALU] |639| 
    1761 00000098 6F16          B         ||$C$L6||,UNC         ; [CPU_ALU] 
    1762                      ; branch occurs ; [] 
    1763 00000099       ||$C$L4||:    
    1764                      .dwpsn  file "../bts.c",line 615,column 9,is_stmt,isa 0
    1765 00000099 49A9          TBIT      AL,#9                 ; [CPU_ALU] |615| 
    1766 0000009a 6D10          B         ||$C$L5||,TC          ; [CPU_ALU] |615| 
    1767                      ; branchcc occurs ; [] |615| 
    1768                      .dwpsn  file "../bts.c",line 623,column 12,is_stmt,isa 0
    1769 0000009b 8F02          MOVL      XAR4,#131072          ; [CPU_ARAU] |623| 
         0000009c 0000 
    1770 0000009d 0600!         MOVL      ACC,@$BLOCKED(||I2CA||) ; [CPU_ALU] |623| 
    1771 0000009e A842          MOVL      *-SP[2],XAR4          ; [CPU_ALU] |623| 
    1772              $C$DW$131       .dwtag  DW_TAG_TI_branch
    1773                      .dwattr $C$DW$131, DW_AT_low_pc(0x00)
    1774                      .dwattr $C$DW$131, DW_AT_name("I2C_enableInterrupt")
    1775                      .dwattr $C$DW$131, DW_AT_TI_call
    1776              
    1777 0000009f 7640!         LCR       #||I2C_enableInterrupt|| ; [CPU_ALU] |623| 
         000000a0 0000 
    1778                      ; call occurs [#||I2C_enableInterrupt||] ; [] |623| 
    1779 000000a1 761F!         MOVW      DP,#||I2CA||          ; [CPU_ARAU] 
         000000a2 0000 
    1780                      .dwpsn  file "../bts.c",line 624,column 12,is_stmt,isa 0
    1781 000000a3 8F02          MOVL      XAR4,#131072          ; [CPU_ARAU] |624| 
         000000a4 0000 
    1782 000000a5 A842          MOVL      *-SP[2],XAR4          ; [CPU_ALU] |624| 
    1783 000000a6 0600!         MOVL      ACC,@$BLOCKED(||I2CA||) ; [CPU_ALU] |624| 
TMS320C2000 Assembler PC v20.2.4 Tue Mar  2 07:24:45 2021

Copyright (c) 1996-2018 Texas Instruments Incorporated
bts.asm                                                              PAGE   38

    1784              $C$DW$132       .dwtag  DW_TAG_TI_branch
    1785                      .dwattr $C$DW$132, DW_AT_low_pc(0x00)
    1786                      .dwattr $C$DW$132, DW_AT_name("I2C_clearInterruptStatus")
    1787                      .dwattr $C$DW$132, DW_AT_TI_call
    1788              
    1789 000000a7 7640!         LCR       #||I2C_clearInterruptStatus|| ; [CPU_ALU] |624| 
         000000a8 0000 
    1790                      ; call occurs [#||I2C_clearInterruptStatus||] ; [] |624| 
    1791 000000a9 6F07          B         ||$C$L7||,UNC         ; [CPU_ALU] |624| 
    1792                      ; branch occurs ; [] |624| 
    1793 000000aa       ||$C$L5||:    
    1794                      .dwpsn  file "../bts.c",line 618,column 12,is_stmt,isa 0
    1795 000000aa 8F42          MOVL      XAR5,#131072          ; [CPU_ARAU] |618| 
         000000ab 0000 
    1796 000000ac A8A9          MOVL      ACC,XAR4              ; [CPU_ALU] |618| 
    1797 000000ad A042          MOVL      *-SP[2],XAR5          ; [CPU_ALU] |618| 
    1798              ||$C$L6||:    
    1799              $C$DW$133       .dwtag  DW_TAG_TI_branch
    1800                      .dwattr $C$DW$133, DW_AT_low_pc(0x00)
    1801                      .dwattr $C$DW$133, DW_AT_name("I2C_disableInterrupt")
    1802                      .dwattr $C$DW$133, DW_AT_TI_call
    1803              
    1804 000000ae 7640!         LCR       #||I2C_disableInterrupt|| ; [CPU_ALU] |618| 
         000000af 0000 
    1805                      ; call occurs [#||I2C_disableInterrupt||] ; [] |618| 
    1806 000000b0       ||$C$L7||:    
    1807                      .dwpsn  file "C:\ti\c2000\C2000Ware_DigitalPower_SDK_3_01_00_00\c2000ware\driverlib\f2837xd\driverlib
    1808 000000b0 9A80          MOVB      AL,#128               ; [CPU_ALU] |429| 
    1809 000000b1 F4A9          MOV       *(0:0x0ce1),AL        ; [CPU_ALU] |429| 
         000000b2 0CE1 
    1810 000000b3 FE82          SUBB      SP,#2                 ; [CPU_ARAU] 
    1811                      .dwcfi  cfa_offset, -16
    1812 000000b4 E562          RESTORE   ; [CPU_FPU] 
    1813 000000b5 FFF1          POP       RB                    ; [CPU_FPU] 
    1814                      .dwcfi  cfa_offset, -14
    1815                      .dwcfi  restore_reg, 74
    1816 000000b6 C5BE          MOVL      XAR7,*--SP            ; [CPU_ALU] 
    1817                      .dwcfi  cfa_offset, -12
    1818                      .dwcfi  restore_reg, 18
    1819 000000b7 C4BE          MOVL      XAR6,*--SP            ; [CPU_ALU] 
    1820                      .dwcfi  cfa_offset, -10
    1821                      .dwcfi  restore_reg, 16
    1822 000000b8 83BE          MOVL      XAR5,*--SP            ; [CPU_ALU] 
    1823                      .dwcfi  cfa_offset, -8
    1824                      .dwcfi  restore_reg, 14
    1825 000000b9 8ABE          MOVL      XAR4,*--SP            ; [CPU_ALU] 
    1826                      .dwcfi  cfa_offset, -6
    1827                      .dwcfi  restore_reg, 12
    1828 000000ba 87BE          MOVL      XT,*--SP              ; [CPU_ALU] 
    1829                      .dwcfi  cfa_offset, -4
    1830                      .dwcfi  restore_reg, 22
    1831                      .dwcfi  restore_reg, 21
    1832 000000bb 0003          POP       AR1H:AR0H             ; [CPU_ALU] 
    1833                      .dwcfi  cfa_offset, -2
    1834                      .dwcfi  restore_reg, 5
TMS320C2000 Assembler PC v20.2.4 Tue Mar  2 07:24:45 2021

Copyright (c) 1996-2018 Texas Instruments Incorporated
bts.asm                                                              PAGE   39

    1835                      .dwcfi  restore_reg, 7
    1836 000000bc 7617          NASP      ; [CPU_ALU] 
    1837              $C$DW$134       .dwtag  DW_TAG_TI_branch
    1838                      .dwattr $C$DW$134, DW_AT_low_pc(0x00)
    1839                      .dwattr $C$DW$134, DW_AT_TI_return
    1840              
    1841 000000bd 7602          IRET      ; [CPU_ALU] 
    1842                      ; return occurs ; [] 
    1843                      .dwattr $C$DW$121, DW_AT_TI_end_file("../bts.c")
    1844                      .dwattr $C$DW$121, DW_AT_TI_end_line(0x29f)
    1845                      .dwattr $C$DW$121, DW_AT_TI_end_column(0x01)
    1846                      .dwendentry
    1847                      .dwendtag $C$DW$121
    1848              
    1849 000000be               .sect   "isrcodefuncs:retain"
    1850                      .retain
    1851                      .retainrefs
    1852                      .global ||i2cAISR||
    1853              
    1854              $C$DW$135       .dwtag  DW_TAG_subprogram
    1855                      .dwattr $C$DW$135, DW_AT_name("i2cAISR")
    1856                      .dwattr $C$DW$135, DW_AT_low_pc(||i2cAISR||)
    1857                      .dwattr $C$DW$135, DW_AT_high_pc(0x00)
    1858                      .dwattr $C$DW$135, DW_AT_linkage_name("i2cAISR")
    1859                      .dwattr $C$DW$135, DW_AT_external
    1860                      .dwattr $C$DW$135, DW_AT_decl_file("../bts.c")
    1861                      .dwattr $C$DW$135, DW_AT_decl_line(0x2a6)
    1862                      .dwattr $C$DW$135, DW_AT_decl_column(0x12)
    1863                      .dwattr $C$DW$135, DW_AT_TI_interrupt
    1864                      .dwattr $C$DW$135, DW_AT_TI_max_frame_size(-18)
    1865                      .dwpsn  file "../bts.c",line 679,column 1,is_stmt,address ||i2cAISR||,isa 0
    1866              
    1867                      .dwfde $C$DW$CIE, ||i2cAISR||
    1868              
    1869              ;***************************************************************
    1870              ;* FNAME: i2cAISR                       FR SIZE:  16           *
    1871              ;*                                                             *
    1872              ;* FUNCTION ENVIRONMENT                                        *
    1873              ;*                                                             *
    1874              ;* FUNCTION PROPERTIES                                         *
    1875              ;*                            2 Parameter,  0 Auto, 14 SOE     *
    1876              ;***************************************************************
    1877              
    1878 000000be       ||i2cAISR||:
    1879              ;* AR1   assigned to $O$K1
    1880              ;* AL    assigned to $O$R1
    1881                      .dwcfi  cfa_offset, -2
    1882                      .dwcfi  save_reg_to_mem, 26, 0
    1883 000000be 761B          ASP       ; [CPU_ALU] 
    1884 000000bf 0005          PUSH      AR1H:AR0H             ; [CPU_ALU] 
    1885                      .dwcfi  save_reg_to_mem, 5, 2
    1886                      .dwcfi  save_reg_to_mem, 7, 3
    1887                      .dwcfi  cfa_offset, -4
    1888 000000c0 ABBD          MOVL      *SP++,XT              ; [CPU_ALU] 
    1889                      .dwcfi  save_reg_to_mem, 21, 4
TMS320C2000 Assembler PC v20.2.4 Tue Mar  2 07:24:45 2021

Copyright (c) 1996-2018 Texas Instruments Incorporated
bts.asm                                                              PAGE   40

    1890                      .dwcfi  save_reg_to_mem, 22, 5
    1891                      .dwcfi  cfa_offset, -6
    1892 000000c1 A8BD          MOVL      *SP++,XAR4            ; [CPU_ALU] 
    1893                      .dwcfi  save_reg_to_mem, 12, 6
    1894                      .dwcfi  save_reg_to_mem, 13, 7
    1895                      .dwcfi  cfa_offset, -8
    1896 000000c2 A0BD          MOVL      *SP++,XAR5            ; [CPU_ALU] 
    1897                      .dwcfi  save_reg_to_mem, 14, 8
    1898                      .dwcfi  save_reg_to_mem, 15, 9
    1899                      .dwcfi  cfa_offset, -10
    1900 000000c3 C2BD          MOVL      *SP++,XAR6            ; [CPU_ALU] 
    1901                      .dwcfi  save_reg_to_mem, 16, 10
    1902                      .dwcfi  save_reg_to_mem, 17, 11
    1903                      .dwcfi  cfa_offset, -12
    1904 000000c4 C3BD          MOVL      *SP++,XAR7            ; [CPU_ALU] 
    1905                      .dwcfi  save_reg_to_mem, 18, 12
    1906                      .dwcfi  save_reg_to_mem, 19, 13
    1907                      .dwcfi  cfa_offset, -14
    1908 000000c5 FFF0          PUSH      RB                    ; [CPU_FPU] 
    1909                      .dwcfi  save_reg_to_mem, 74, 16
    1910                      .dwcfi  cfa_offset, -16
    1911 000000c6 E670          SAVE      RNDF32=1, RNDF64=1    ; [CPU_FPU] 
         000000c7 0600 
    1912 000000c8 FE02          ADDB      SP,#2                 ; [CPU_ARAU] 
    1913                      .dwcfi  cfa_offset, -18
    1914 000000c9 FF69          SPM       0                     ; [CPU_ALU] 
    1915 000000ca 2942          CLRC      PAGE0,OVM             ; [CPU_ALU] 
    1916 000000cb 5616          CLRC      AMODE                 ; [CPU_ALU] 
    1917                      .dwpsn  file "C:/ti/c2000/C2000Ware_DigitalPower_SDK_3_01_00_00/c2000ware/driverlib/f2837xd/driverlib
    1918 000000cc 8D40!         MOVL      XAR1,#||I2CA||        ; [CPU_ARAU] |653| 
         000000cd 0000 
    1919 000000ce 8AC1          MOVL      XAR4,*+XAR1[0]        ; [CPU_ALU] |653| 
    1920 000000cf 92D4          MOV       AL,*+XAR4[2]          ; [CPU_ALU] |653| 
    1921                      .dwpsn  file "../bts.c",line 682,column 5,is_stmt,isa 0
    1922 000000d0 49A9          TBIT      AL,#9                 ; [CPU_ALU] |682| 
    1923 000000d1 6C09          B         ||$C$L8||,NTC         ; [CPU_ALU] |682| 
    1924                      ; branchcc occurs ; [] |682| 
    1925 000000d2 761F!         MOVW      DP,#||I2CB||          ; [CPU_ARAU] 
         000000d3 0000 
    1926                      .dwpsn  file "../bts.c",line 686,column 9,is_stmt,isa 0
    1927 000000d4 8F02          MOVL      XAR4,#131072          ; [CPU_ARAU] |686| 
         000000d5 0000 
    1928 000000d6 0600!         MOVL      ACC,@$BLOCKED(||I2CB||) ; [CPU_ALU] |686| 
    1929 000000d7 A842          MOVL      *-SP[2],XAR4          ; [CPU_ALU] |686| 
    1930              $C$DW$136       .dwtag  DW_TAG_TI_branch
    1931                      .dwattr $C$DW$136, DW_AT_low_pc(0x00)
    1932                      .dwattr $C$DW$136, DW_AT_name("I2C_disableInterrupt")
    1933                      .dwattr $C$DW$136, DW_AT_TI_call
    1934              
    1935 000000d8 7640!         LCR       #||I2C_disableInterrupt|| ; [CPU_ALU] |686| 
         000000d9 0000 
    1936                      ; call occurs [#||I2C_disableInterrupt||] ; [] |686| 
    1937 000000da       ||$C$L8||:    
    1938                      .dwpsn  file "../bts.c",line 689,column 5,is_stmt,isa 0
    1939 000000da 8AA1          MOVL      XAR4,XAR1             ; [CPU_ALU] |689| 
TMS320C2000 Assembler PC v20.2.4 Tue Mar  2 07:24:45 2021

Copyright (c) 1996-2018 Texas Instruments Incorporated
bts.asm                                                              PAGE   41

    1940              $C$DW$137       .dwtag  DW_TAG_TI_branch
    1941                      .dwattr $C$DW$137, DW_AT_low_pc(0x00)
    1942                      .dwattr $C$DW$137, DW_AT_name("handleI2C_ErrorCondition")
    1943                      .dwattr $C$DW$137, DW_AT_TI_call
    1944              
    1945 000000db 7640!         LCR       #||handleI2C_ErrorCondition|| ; [CPU_ALU] |689| 
         000000dc 0000 
    1946                      ; call occurs [#||handleI2C_ErrorCondition||] ; [] |689| 
    1947                      .dwpsn  file "C:\ti\c2000\C2000Ware_DigitalPower_SDK_3_01_00_00\c2000ware\driverlib\f2837xd\driverlib
    1948 000000dd 9A80          MOVB      AL,#128               ; [CPU_ALU] |429| 
    1949 000000de F4A9          MOV       *(0:0x0ce1),AL        ; [CPU_ALU] |429| 
         000000df 0CE1 
    1950 000000e0 FE82          SUBB      SP,#2                 ; [CPU_ARAU] 
    1951                      .dwcfi  cfa_offset, -16
    1952 000000e1 E562          RESTORE   ; [CPU_FPU] 
    1953 000000e2 FFF1          POP       RB                    ; [CPU_FPU] 
    1954                      .dwcfi  cfa_offset, -14
    1955                      .dwcfi  restore_reg, 74
    1956 000000e3 C5BE          MOVL      XAR7,*--SP            ; [CPU_ALU] 
    1957                      .dwcfi  cfa_offset, -12
    1958                      .dwcfi  restore_reg, 18
    1959 000000e4 C4BE          MOVL      XAR6,*--SP            ; [CPU_ALU] 
    1960                      .dwcfi  cfa_offset, -10
    1961                      .dwcfi  restore_reg, 16
    1962 000000e5 83BE          MOVL      XAR5,*--SP            ; [CPU_ALU] 
    1963                      .dwcfi  cfa_offset, -8
    1964                      .dwcfi  restore_reg, 14
    1965 000000e6 8ABE          MOVL      XAR4,*--SP            ; [CPU_ALU] 
    1966                      .dwcfi  cfa_offset, -6
    1967                      .dwcfi  restore_reg, 12
    1968 000000e7 87BE          MOVL      XT,*--SP              ; [CPU_ALU] 
    1969                      .dwcfi  cfa_offset, -4
    1970                      .dwcfi  restore_reg, 22
    1971                      .dwcfi  restore_reg, 21
    1972 000000e8 0003          POP       AR1H:AR0H             ; [CPU_ALU] 
    1973                      .dwcfi  cfa_offset, -2
    1974                      .dwcfi  restore_reg, 5
    1975                      .dwcfi  restore_reg, 7
    1976 000000e9 7617          NASP      ; [CPU_ALU] 
    1977              $C$DW$138       .dwtag  DW_TAG_TI_branch
    1978                      .dwattr $C$DW$138, DW_AT_low_pc(0x00)
    1979                      .dwattr $C$DW$138, DW_AT_TI_return
    1980              
    1981 000000ea 7602          IRET      ; [CPU_ALU] 
    1982                      ; return occurs ; [] 
    1983                      .dwattr $C$DW$135, DW_AT_TI_end_file("../bts.c")
    1984                      .dwattr $C$DW$135, DW_AT_TI_end_line(0x2b3)
    1985                      .dwattr $C$DW$135, DW_AT_TI_end_column(0x01)
    1986                      .dwendentry
    1987                      .dwendtag $C$DW$135
    1988              
    1989 000000eb               .sect   "isrcodefuncs:retain"
    1990                      .retain
    1991                      .retainrefs
    1992                      .global ||i2cAFIFOISR||
TMS320C2000 Assembler PC v20.2.4 Tue Mar  2 07:24:45 2021

Copyright (c) 1996-2018 Texas Instruments Incorporated
bts.asm                                                              PAGE   42

    1993              
    1994              $C$DW$139       .dwtag  DW_TAG_subprogram
    1995                      .dwattr $C$DW$139, DW_AT_name("i2cAFIFOISR")
    1996                      .dwattr $C$DW$139, DW_AT_low_pc(||i2cAFIFOISR||)
    1997                      .dwattr $C$DW$139, DW_AT_high_pc(0x00)
    1998                      .dwattr $C$DW$139, DW_AT_linkage_name("i2cAFIFOISR")
    1999                      .dwattr $C$DW$139, DW_AT_external
    2000                      .dwattr $C$DW$139, DW_AT_decl_file("../bts.c")
    2001                      .dwattr $C$DW$139, DW_AT_decl_line(0x2ba)
    2002                      .dwattr $C$DW$139, DW_AT_decl_column(0x12)
    2003                      .dwattr $C$DW$139, DW_AT_TI_interrupt
    2004                      .dwattr $C$DW$139, DW_AT_TI_max_frame_size(-18)
    2005                      .dwpsn  file "../bts.c",line 699,column 1,is_stmt,address ||i2cAFIFOISR||,isa 0
    2006              
    2007                      .dwfde $C$DW$CIE, ||i2cAFIFOISR||
    2008              
    2009              ;***************************************************************
    2010              ;* FNAME: i2cAFIFOISR                   FR SIZE:  16           *
    2011              ;*                                                             *
    2012              ;* FUNCTION ENVIRONMENT                                        *
    2013              ;*                                                             *
    2014              ;* FUNCTION PROPERTIES                                         *
    2015              ;*                            2 Parameter,  0 Auto, 14 SOE     *
    2016              ;***************************************************************
    2017              
    2018              ||i2cAFIFOISR||:
    2019              ;* AR4   assigned to $O$C1
    2020              ;* AR4   assigned to $O$v2
    2021              ;* AR4   assigned to $O$v1
    2022              ;* AL    assigned to MasterSlave
    2023              $C$DW$140       .dwtag  DW_TAG_variable
    2024                      .dwattr $C$DW$140, DW_AT_name("MasterSlave")
    2025                      .dwattr $C$DW$140, DW_AT_type(*$C$DW$T$26)
    2026                      .dwattr $C$DW$140, DW_AT_location[DW_OP_reg0]
    2027              
    2028                      .dwcfi  cfa_offset, -2
    2029                      .dwcfi  save_reg_to_mem, 26, 0
    2030 000000eb 761B          ASP       ; [CPU_ALU] 
    2031 000000ec 0005          PUSH      AR1H:AR0H             ; [CPU_ALU] 
    2032                      .dwcfi  save_reg_to_mem, 5, 2
    2033                      .dwcfi  save_reg_to_mem, 7, 3
    2034                      .dwcfi  cfa_offset, -4
    2035 000000ed ABBD          MOVL      *SP++,XT              ; [CPU_ALU] 
    2036                      .dwcfi  save_reg_to_mem, 21, 4
    2037                      .dwcfi  save_reg_to_mem, 22, 5
    2038                      .dwcfi  cfa_offset, -6
    2039 000000ee A8BD          MOVL      *SP++,XAR4            ; [CPU_ALU] 
    2040                      .dwcfi  save_reg_to_mem, 12, 6
    2041                      .dwcfi  save_reg_to_mem, 13, 7
    2042                      .dwcfi  cfa_offset, -8
    2043 000000ef A0BD          MOVL      *SP++,XAR5            ; [CPU_ALU] 
    2044                      .dwcfi  save_reg_to_mem, 14, 8
    2045                      .dwcfi  save_reg_to_mem, 15, 9
    2046                      .dwcfi  cfa_offset, -10
    2047 000000f0 C2BD          MOVL      *SP++,XAR6            ; [CPU_ALU] 
TMS320C2000 Assembler PC v20.2.4 Tue Mar  2 07:24:45 2021

Copyright (c) 1996-2018 Texas Instruments Incorporated
bts.asm                                                              PAGE   43

    2048                      .dwcfi  save_reg_to_mem, 16, 10
    2049                      .dwcfi  save_reg_to_mem, 17, 11
    2050                      .dwcfi  cfa_offset, -12
    2051 000000f1 C3BD          MOVL      *SP++,XAR7            ; [CPU_ALU] 
    2052                      .dwcfi  save_reg_to_mem, 18, 12
    2053                      .dwcfi  save_reg_to_mem, 19, 13
    2054                      .dwcfi  cfa_offset, -14
    2055 000000f2 FFF0          PUSH      RB                    ; [CPU_FPU] 
    2056                      .dwcfi  save_reg_to_mem, 74, 16
    2057                      .dwcfi  cfa_offset, -16
    2058 000000f3 E670          SAVE      RNDF32=1, RNDF64=1    ; [CPU_FPU] 
         000000f4 0600 
    2059 000000f5 FE02          ADDB      SP,#2                 ; [CPU_ARAU] 
    2060                      .dwcfi  cfa_offset, -18
    2061 000000f6 FF69          SPM       0                     ; [CPU_ALU] 
    2062 000000f7 2942          CLRC      PAGE0,OVM             ; [CPU_ALU] 
    2063 000000f8 5616          CLRC      AMODE                 ; [CPU_ALU] 
    2064                      .dwpsn  file "../bts.c",line 700,column 5,is_stmt,isa 0
    2065 000000f9 8F00!         MOVL      XAR4,#||I2CA||        ; [CPU_ARAU] |700| 
         000000fa 0000 
    2066              $C$DW$141       .dwtag  DW_TAG_TI_branch
    2067                      .dwattr $C$DW$141, DW_AT_low_pc(0x00)
    2068                      .dwattr $C$DW$141, DW_AT_name("Write_Read_TX_RX_FIFO")
    2069                      .dwattr $C$DW$141, DW_AT_TI_call
    2070              
    2071 000000fb 7640!         LCR       #||Write_Read_TX_RX_FIFO|| ; [CPU_ALU] |700| 
         000000fc 0000 
    2072                      ; call occurs [#||Write_Read_TX_RX_FIFO||] ; [] |700| 
    2073 000000fd 761F!         MOVW      DP,#||I2CA||          ; [CPU_ARAU] 
         000000fe 0000 
    2074                      .dwpsn  file "../bts.c",line 702,column 26,is_stmt,isa 0
    2075 000000ff 8A00!         MOVL      XAR4,@$BLOCKED(||I2CA||) ; [CPU_ALU] |702| 
    2076 00000100 D009          MOVB      XAR0,#9               ; [CPU_ALU] |702| 
    2077 00000101 9294          MOV       AL,*+XAR4[AR0]        ; [CPU_ALU] |702| 
    2078                      .dwpsn  file "../bts.c",line 704,column 5,is_stmt,isa 0
    2079 00000102 4AA9          TBIT      AL,#10                ; [CPU_ALU] |704| 
    2080 00000103 6D54          B         ||$C$L11||,TC         ; [CPU_ALU] |704| 
    2081                      ; branchcc occurs ; [] |704| 
    2082                      .dwpsn  file "../bts.c",line 722,column 9,is_stmt,isa 0
    2083 00000104 49A9          TBIT      AL,#9                 ; [CPU_ALU] |722| 
    2084 00000105 6D35          B         ||$C$L10||,TC         ; [CPU_ALU] |722| 
    2085                      ; branchcc occurs ; [] |722| 
    2086                      .dwpsn  file "../bts.c",line 736,column 12,is_stmt,isa 0
    2087 00000106 8A00!         MOVL      XAR4,@$BLOCKED(||I2CB||) ; [CPU_ALU] |736| 
    2088 00000107 88EC          MOVZ      AR6,*+XAR4[5]         ; [CPU_ALU] |736| 
    2089 00000108 0E06!         MOVU      ACC,@$BLOCKED(||I2CB||)+6 ; [CPU_ALU] |736| 
    2090 00000109 0FA6          CMPL      ACC,XAR6              ; [CPU_ALU] |736| 
    2091 0000010a 6121          B         ||$C$L9||,EQ          ; [CPU_ALU] |736| 
    2092                      ; branchcc occurs ; [] |736| 
    2093                      .dwpsn  file "../bts.c",line 750,column 16,is_stmt,isa 0
    2094 0000010b 8F42          MOVL      XAR5,#131072          ; [CPU_ARAU] |750| 
         0000010c 0000 
    2095 0000010d A8A9          MOVL      ACC,XAR4              ; [CPU_ALU] |750| 
    2096 0000010e A042          MOVL      *-SP[2],XAR5          ; [CPU_ALU] |750| 
    2097              $C$DW$142       .dwtag  DW_TAG_TI_branch
TMS320C2000 Assembler PC v20.2.4 Tue Mar  2 07:24:45 2021

Copyright (c) 1996-2018 Texas Instruments Incorporated
bts.asm                                                              PAGE   44

    2098                      .dwattr $C$DW$142, DW_AT_low_pc(0x00)
    2099                      .dwattr $C$DW$142, DW_AT_name("I2C_enableInterrupt")
    2100                      .dwattr $C$DW$142, DW_AT_TI_call
    2101              
    2102 0000010f 7640!         LCR       #||I2C_enableInterrupt|| ; [CPU_ALU] |750| 
         00000110 0000 
    2103                      ; call occurs [#||I2C_enableInterrupt||] ; [] |750| 
    2104 00000111 761F!         MOVW      DP,#||I2CB||          ; [CPU_ARAU] 
         00000112 0000 
    2105                      .dwpsn  file "../bts.c",line 751,column 16,is_stmt,isa 0
    2106 00000113 8F01          MOVL      XAR4,#65536           ; [CPU_ARAU] |751| 
         00000114 0000 
    2107 00000115 A842          MOVL      *-SP[2],XAR4          ; [CPU_ALU] |751| 
    2108 00000116 0600!         MOVL      ACC,@$BLOCKED(||I2CB||) ; [CPU_ALU] |751| 
    2109              $C$DW$143       .dwtag  DW_TAG_TI_branch
    2110                      .dwattr $C$DW$143, DW_AT_low_pc(0x00)
    2111                      .dwattr $C$DW$143, DW_AT_name("I2C_disableInterrupt")
    2112                      .dwattr $C$DW$143, DW_AT_TI_call
    2113              
    2114 00000117 7640!         LCR       #||I2C_disableInterrupt|| ; [CPU_ALU] |751| 
         00000118 0000 
    2115                      ; call occurs [#||I2C_disableInterrupt||] ; [] |751| 
    2116 00000119 761F!         MOVW      DP,#||I2CB||          ; [CPU_ARAU] 
         0000011a 0000 
    2117                      .dwpsn  file "../bts.c",line 752,column 16,is_stmt,isa 0
    2118 0000011b 8F03          MOVL      XAR4,#196608          ; [CPU_ARAU] |752| 
         0000011c 0000 
    2119 0000011d A842          MOVL      *-SP[2],XAR4          ; [CPU_ALU] |752| 
    2120 0000011e 0600!         MOVL      ACC,@$BLOCKED(||I2CB||) ; [CPU_ALU] |752| 
    2121              $C$DW$144       .dwtag  DW_TAG_TI_branch
    2122                      .dwattr $C$DW$144, DW_AT_low_pc(0x00)
    2123                      .dwattr $C$DW$144, DW_AT_name("I2C_clearInterruptStatus")
    2124                      .dwattr $C$DW$144, DW_AT_TI_call
    2125              
    2126 0000011f 7640!         LCR       #||I2C_clearInterruptStatus|| ; [CPU_ALU] |752| 
         00000120 0000 
    2127                      ; call occurs [#||I2C_clearInterruptStatus||] ; [] |752| 
    2128 00000121 761F!         MOVW      DP,#||I2CA||+10       ; [CPU_ARAU] 
         00000122 0000 
    2129                      .dwpsn  file "../bts.c",line 753,column 16,is_stmt,isa 0
    2130 00000123 060A!         MOVL      ACC,@$BLOCKED(||I2CA||)+10 ; [CPU_ALU] |753| 
    2131 00000124 604A          B         ||$C$L14||,NEQ        ; [CPU_ALU] |753| 
    2132                      ; branchcc occurs ; [] |753| 
    2133                      .dwpsn  file "../bts.c",line 756,column 20,is_stmt,isa 0
    2134 00000125 BE00          MOVB      XAR6,#0               ; [CPU_ALU] |756| 
    2135                      .dwpsn  file "../bts.c",line 755,column 20,is_stmt,isa 0
    2136 00000126 0604!         MOVL      ACC,@$BLOCKED(||I2CA||)+4 ; [CPU_ALU] |755| 
    2137 00000127 91FF          ANDB      AH,#255               ; [CPU_ALU] |755| 
    2138 00000128 1E0A!         MOVL      @$BLOCKED(||I2CA||)+10,ACC ; [CPU_ALU] |755| 
    2139                      .dwpsn  file "../bts.c",line 756,column 20,is_stmt,isa 0
    2140 00000129 C208!         MOVL      @$BLOCKED(||I2CA||)+8,XAR6 ; [CPU_ALU] |756| 
    2141 0000012a 6F44          B         ||$C$L14||,UNC        ; [CPU_ALU] |756| 
    2142                      ; branch occurs ; [] |756| 
    2143 0000012b       ||$C$L9||:    
    2144                      .dwpsn  file "../bts.c",line 740,column 16,is_stmt,isa 0
TMS320C2000 Assembler PC v20.2.4 Tue Mar  2 07:24:45 2021

Copyright (c) 1996-2018 Texas Instruments Incorporated
bts.asm                                                              PAGE   45

    2145 0000012b 0204          MOVB      ACC,#4                ; [CPU_ALU] |740| 
    2146 0000012c 1E42          MOVL      *-SP[2],ACC           ; [CPU_ALU] |740| 
    2147 0000012d A8A9          MOVL      ACC,XAR4              ; [CPU_ALU] |740| 
    2148              $C$DW$145       .dwtag  DW_TAG_TI_branch
    2149                      .dwattr $C$DW$145, DW_AT_low_pc(0x00)
    2150                      .dwattr $C$DW$145, DW_AT_name("I2C_enableInterrupt")
    2151                      .dwattr $C$DW$145, DW_AT_TI_call
    2152              
    2153 0000012e 7640!         LCR       #||I2C_enableInterrupt|| ; [CPU_ALU] |740| 
         0000012f 0000 
    2154                      ; call occurs [#||I2C_enableInterrupt||] ; [] |740| 
    2155 00000130 761F!         MOVW      DP,#||I2CA||+8        ; [CPU_ARAU] 
         00000131 0000 
    2156                      .dwpsn  file "../bts.c",line 741,column 16,is_stmt,isa 0
    2157 00000132 0608!         MOVL      ACC,@$BLOCKED(||I2CA||)+8 ; [CPU_ALU] |741| 
    2158 00000133 603B          B         ||$C$L14||,NEQ        ; [CPU_ALU] |741| 
    2159                      ; branchcc occurs ; [] |741| 
    2160                      .dwpsn  file "../bts.c",line 744,column 21,is_stmt,isa 0
    2161 00000134 BE00          MOVB      XAR6,#0               ; [CPU_ALU] |744| 
    2162                      .dwpsn  file "../bts.c",line 743,column 21,is_stmt,isa 0
    2163 00000135 0604!         MOVL      ACC,@$BLOCKED(||I2CA||)+4 ; [CPU_ALU] |743| 
    2164 00000136 91FF          ANDB      AH,#255               ; [CPU_ALU] |743| 
    2165 00000137 1E08!         MOVL      @$BLOCKED(||I2CA||)+8,ACC ; [CPU_ALU] |743| 
    2166                      .dwpsn  file "../bts.c",line 744,column 21,is_stmt,isa 0
    2167 00000138 C20A!         MOVL      @$BLOCKED(||I2CA||)+10,XAR6 ; [CPU_ALU] |744| 
    2168 00000139 6F35          B         ||$C$L14||,UNC        ; [CPU_ALU] |744| 
    2169                      ; branch occurs ; [] |744| 
    2170 0000013a       ||$C$L10||:    
    2171                      .dwpsn  file "../bts.c",line 727,column 13,is_stmt,isa 0
    2172 0000013a 8F01          MOVL      XAR4,#65536           ; [CPU_ARAU] |727| 
         0000013b 0000 
    2173 0000013c 0600!         MOVL      ACC,@$BLOCKED(||I2CB||) ; [CPU_ALU] |727| 
    2174 0000013d A842          MOVL      *-SP[2],XAR4          ; [CPU_ALU] |727| 
    2175              $C$DW$146       .dwtag  DW_TAG_TI_branch
    2176                      .dwattr $C$DW$146, DW_AT_low_pc(0x00)
    2177                      .dwattr $C$DW$146, DW_AT_name("I2C_enableInterrupt")
    2178                      .dwattr $C$DW$146, DW_AT_TI_call
    2179              
    2180 0000013e 7640!         LCR       #||I2C_enableInterrupt|| ; [CPU_ALU] |727| 
         0000013f 0000 
    2181                      ; call occurs [#||I2C_enableInterrupt||] ; [] |727| 
    2182 00000140 761F!         MOVW      DP,#||I2CB||          ; [CPU_ARAU] 
         00000141 0000 
    2183                      .dwpsn  file "../bts.c",line 728,column 13,is_stmt,isa 0
    2184 00000142 8F02          MOVL      XAR4,#131072          ; [CPU_ARAU] |728| 
         00000143 0000 
    2185 00000144 A842          MOVL      *-SP[2],XAR4          ; [CPU_ALU] |728| 
    2186 00000145 0600!         MOVL      ACC,@$BLOCKED(||I2CB||) ; [CPU_ALU] |728| 
    2187              $C$DW$147       .dwtag  DW_TAG_TI_branch
    2188                      .dwattr $C$DW$147, DW_AT_low_pc(0x00)
    2189                      .dwattr $C$DW$147, DW_AT_name("I2C_disableInterrupt")
    2190                      .dwattr $C$DW$147, DW_AT_TI_call
    2191              
    2192 00000146 7640!         LCR       #||I2C_disableInterrupt|| ; [CPU_ALU] |728| 
         00000147 0000 
TMS320C2000 Assembler PC v20.2.4 Tue Mar  2 07:24:45 2021

Copyright (c) 1996-2018 Texas Instruments Incorporated
bts.asm                                                              PAGE   46

    2193                      ; call occurs [#||I2C_disableInterrupt||] ; [] |728| 
    2194 00000148 761F!         MOVW      DP,#||I2CB||          ; [CPU_ARAU] 
         00000149 0000 
    2195                      .dwpsn  file "../bts.c",line 729,column 13,is_stmt,isa 0
    2196 0000014a 8F01          MOVL      XAR4,#65536           ; [CPU_ARAU] |729| 
         0000014b 0000 
    2197 0000014c A842          MOVL      *-SP[2],XAR4          ; [CPU_ALU] |729| 
    2198 0000014d 0600!         MOVL      ACC,@$BLOCKED(||I2CB||) ; [CPU_ALU] |729| 
    2199              $C$DW$148       .dwtag  DW_TAG_TI_branch
    2200                      .dwattr $C$DW$148, DW_AT_low_pc(0x00)
    2201                      .dwattr $C$DW$148, DW_AT_name("I2C_clearInterruptStatus")
    2202                      .dwattr $C$DW$148, DW_AT_TI_call
    2203              
    2204 0000014e 7640!         LCR       #||I2C_clearInterruptStatus|| ; [CPU_ALU] |729| 
         0000014f 0000 
    2205                      ; call occurs [#||I2C_clearInterruptStatus||] ; [] |729| 
    2206 00000150 761F!         MOVW      DP,#||I2CA||          ; [CPU_ARAU] 
         00000151 0000 
    2207                      .dwpsn  file "../bts.c",line 731,column 13,is_stmt,isa 0
    2208 00000152 8F02          MOVL      XAR4,#131072          ; [CPU_ARAU] |731| 
         00000153 0000 
    2209 00000154 A842          MOVL      *-SP[2],XAR4          ; [CPU_ALU] |731| 
    2210 00000155 0600!         MOVL      ACC,@$BLOCKED(||I2CA||) ; [CPU_ALU] |731| 
    2211 00000156 6F16          B         ||$C$L13||,UNC        ; [CPU_ALU] 
    2212                      ; branch occurs ; [] 
    2213 00000157       ||$C$L11||:    
    2214                      .dwpsn  file "../bts.c",line 707,column 9,is_stmt,isa 0
    2215 00000157 49A9          TBIT      AL,#9                 ; [CPU_ALU] |707| 
    2216 00000158 6D10          B         ||$C$L12||,TC         ; [CPU_ALU] |707| 
    2217                      ; branchcc occurs ; [] |707| 
    2218                      .dwpsn  file "../bts.c",line 715,column 11,is_stmt,isa 0
    2219 00000159 8F02          MOVL      XAR4,#131072          ; [CPU_ARAU] |715| 
         0000015a 0000 
    2220 0000015b 0600!         MOVL      ACC,@$BLOCKED(||I2CB||) ; [CPU_ALU] |715| 
    2221 0000015c A842          MOVL      *-SP[2],XAR4          ; [CPU_ALU] |715| 
    2222              $C$DW$149       .dwtag  DW_TAG_TI_branch
    2223                      .dwattr $C$DW$149, DW_AT_low_pc(0x00)
    2224                      .dwattr $C$DW$149, DW_AT_name("I2C_enableInterrupt")
    2225                      .dwattr $C$DW$149, DW_AT_TI_call
    2226              
    2227 0000015d 7640!         LCR       #||I2C_enableInterrupt|| ; [CPU_ALU] |715| 
         0000015e 0000 
    2228                      ; call occurs [#||I2C_enableInterrupt||] ; [] |715| 
    2229 0000015f 761F!         MOVW      DP,#||I2CB||          ; [CPU_ARAU] 
         00000160 0000 
    2230                      .dwpsn  file "../bts.c",line 716,column 11,is_stmt,isa 0
    2231 00000161 8F02          MOVL      XAR4,#131072          ; [CPU_ARAU] |716| 
         00000162 0000 
    2232 00000163 A842          MOVL      *-SP[2],XAR4          ; [CPU_ALU] |716| 
    2233 00000164 0600!         MOVL      ACC,@$BLOCKED(||I2CB||) ; [CPU_ALU] |716| 
    2234              $C$DW$150       .dwtag  DW_TAG_TI_branch
    2235                      .dwattr $C$DW$150, DW_AT_low_pc(0x00)
    2236                      .dwattr $C$DW$150, DW_AT_name("I2C_clearInterruptStatus")
    2237                      .dwattr $C$DW$150, DW_AT_TI_call
    2238              
TMS320C2000 Assembler PC v20.2.4 Tue Mar  2 07:24:45 2021

Copyright (c) 1996-2018 Texas Instruments Incorporated
bts.asm                                                              PAGE   47

    2239 00000165 7640!         LCR       #||I2C_clearInterruptStatus|| ; [CPU_ALU] |716| 
         00000166 0000 
    2240                      ; call occurs [#||I2C_clearInterruptStatus||] ; [] |716| 
    2241 00000167 6F07          B         ||$C$L14||,UNC        ; [CPU_ALU] |716| 
    2242                      ; branch occurs ; [] |716| 
    2243 00000168       ||$C$L12||:    
    2244                      .dwpsn  file "../bts.c",line 710,column 11,is_stmt,isa 0
    2245 00000168 8F42          MOVL      XAR5,#131072          ; [CPU_ARAU] |710| 
         00000169 0000 
    2246 0000016a A8A9          MOVL      ACC,XAR4              ; [CPU_ALU] |710| 
    2247 0000016b A042          MOVL      *-SP[2],XAR5          ; [CPU_ALU] |710| 
    2248              ||$C$L13||:    
    2249              $C$DW$151       .dwtag  DW_TAG_TI_branch
    2250                      .dwattr $C$DW$151, DW_AT_low_pc(0x00)
    2251                      .dwattr $C$DW$151, DW_AT_name("I2C_disableInterrupt")
    2252                      .dwattr $C$DW$151, DW_AT_TI_call
    2253              
    2254 0000016c 7640!         LCR       #||I2C_disableInterrupt|| ; [CPU_ALU] |710| 
         0000016d 0000 
    2255                      ; call occurs [#||I2C_disableInterrupt||] ; [] |710| 
    2256 0000016e       ||$C$L14||:    
    2257                      .dwpsn  file "C:\ti\c2000\C2000Ware_DigitalPower_SDK_3_01_00_00\c2000ware\driverlib\f2837xd\driverlib
    2258 0000016e 9A80          MOVB      AL,#128               ; [CPU_ALU] |429| 
    2259 0000016f F4A9          MOV       *(0:0x0ce1),AL        ; [CPU_ALU] |429| 
         00000170 0CE1 
    2260 00000171 FE82          SUBB      SP,#2                 ; [CPU_ARAU] 
    2261                      .dwcfi  cfa_offset, -16
    2262 00000172 E562          RESTORE   ; [CPU_FPU] 
    2263 00000173 FFF1          POP       RB                    ; [CPU_FPU] 
    2264                      .dwcfi  cfa_offset, -14
    2265                      .dwcfi  restore_reg, 74
    2266 00000174 C5BE          MOVL      XAR7,*--SP            ; [CPU_ALU] 
    2267                      .dwcfi  cfa_offset, -12
    2268                      .dwcfi  restore_reg, 18
    2269 00000175 C4BE          MOVL      XAR6,*--SP            ; [CPU_ALU] 
    2270                      .dwcfi  cfa_offset, -10
    2271                      .dwcfi  restore_reg, 16
    2272 00000176 83BE          MOVL      XAR5,*--SP            ; [CPU_ALU] 
    2273                      .dwcfi  cfa_offset, -8
    2274                      .dwcfi  restore_reg, 14
    2275 00000177 8ABE          MOVL      XAR4,*--SP            ; [CPU_ALU] 
    2276                      .dwcfi  cfa_offset, -6
    2277                      .dwcfi  restore_reg, 12
    2278 00000178 87BE          MOVL      XT,*--SP              ; [CPU_ALU] 
    2279                      .dwcfi  cfa_offset, -4
    2280                      .dwcfi  restore_reg, 22
    2281                      .dwcfi  restore_reg, 21
    2282 00000179 0003          POP       AR1H:AR0H             ; [CPU_ALU] 
    2283                      .dwcfi  cfa_offset, -2
    2284                      .dwcfi  restore_reg, 5
    2285                      .dwcfi  restore_reg, 7
    2286 0000017a 7617          NASP      ; [CPU_ALU] 
    2287              $C$DW$152       .dwtag  DW_TAG_TI_branch
    2288                      .dwattr $C$DW$152, DW_AT_low_pc(0x00)
    2289                      .dwattr $C$DW$152, DW_AT_TI_return
TMS320C2000 Assembler PC v20.2.4 Tue Mar  2 07:24:45 2021

Copyright (c) 1996-2018 Texas Instruments Incorporated
bts.asm                                                              PAGE   48

    2290              
    2291 0000017b 7602          IRET      ; [CPU_ALU] 
    2292                      ; return occurs ; [] 
    2293                      .dwattr $C$DW$139, DW_AT_TI_end_file("../bts.c")
    2294                      .dwattr $C$DW$139, DW_AT_TI_end_line(0x2fb)
    2295                      .dwattr $C$DW$139, DW_AT_TI_end_column(0x01)
    2296                      .dwendentry
    2297                      .dwendtag $C$DW$139
    2298              
    2299 00000000               .sect   ".text:__signbitl"
    2300                      .clink
    2301                      .global ||__signbitl||
    2302              
    2303              $C$DW$153       .dwtag  DW_TAG_subprogram
    2304                      .dwattr $C$DW$153, DW_AT_name("__signbitl")
    2305                      .dwattr $C$DW$153, DW_AT_low_pc(||__signbitl||)
    2306                      .dwattr $C$DW$153, DW_AT_high_pc(0x00)
    2307                      .dwattr $C$DW$153, DW_AT_linkage_name("__signbitl")
    2308                      .dwattr $C$DW$153, DW_AT_external
    2309                      .dwattr $C$DW$153, DW_AT_type(*$C$DW$T$10)
    2310                      .dwattr $C$DW$153, DW_AT_decl_file("C:/ti/ccs1011/ccs/tools/compiler/ti-cgt-c2000_20.2.4.LTS/include/
    2311                      .dwattr $C$DW$153, DW_AT_decl_line(0x16f)
    2312                      .dwattr $C$DW$153, DW_AT_decl_column(0x25)
    2313                      .dwattr $C$DW$153, DW_AT_TI_max_frame_size(-6)
    2314                      .dwpsn  file "C:/ti/ccs1011/ccs/tools/compiler/ti-cgt-c2000_20.2.4.LTS/include/_defs.h",line 368,colu
    2315              
    2316                      .dwfde $C$DW$CIE, ||__signbitl||
    2317              $C$DW$154       .dwtag  DW_TAG_formal_parameter
    2318                      .dwattr $C$DW$154, DW_AT_name("e")
    2319                      .dwattr $C$DW$154, DW_AT_type(*$C$DW$T$125)
    2320                      .dwattr $C$DW$154, DW_AT_location[DW_OP_reg12]
    2321              
    2322              
    2323              ;***************************************************************
    2324              ;* FNAME: __signbitl                    FR SIZE:   4           *
    2325              ;*                                                             *
    2326              ;* FUNCTION ENVIRONMENT                                        *
    2327              ;*                                                             *
    2328              ;* FUNCTION PROPERTIES                                         *
    2329              ;*                            4 Parameter,  0 Auto,  0 SOE     *
    2330              ;***************************************************************
    2331              
    2332              ||__signbitl||:
    2333              ;* AR4   assigned to e
    2334              $C$DW$155       .dwtag  DW_TAG_variable
    2335                      .dwattr $C$DW$155, DW_AT_name("e")
    2336                      .dwattr $C$DW$155, DW_AT_type(*$C$DW$T$126)
    2337                      .dwattr $C$DW$155, DW_AT_location[DW_OP_reg12]
    2338              
    2339                      .dwcfi  cfa_offset, -2
    2340                      .dwcfi  save_reg_to_mem, 26, 0
    2341 00000000 FE04          ADDB      SP,#4                 ; [CPU_ARAU] 
    2342                      .dwcfi  cfa_offset, -6
    2343                      .dwpsn  file "C:/ti/ccs1011/ccs/tools/compiler/ti-cgt-c2000_20.2.4.LTS/include/_defs.h",line 368,colu
    2344 00000001 0200          MOVB      ACC,#0                ; [CPU_ALU] |368| 
TMS320C2000 Assembler PC v20.2.4 Tue Mar  2 07:24:45 2021

Copyright (c) 1996-2018 Texas Instruments Incorporated
bts.asm                                                              PAGE   49

    2345 00000002 1E44          MOVL      *-SP[4],ACC           ; [CPU_ALU] |368| 
    2346 00000003 2B42          MOV       *-SP[2],#0            ; [CPU_ALU] |368| 
    2347 00000004 2B41          MOV       *-SP[1],#0            ; [CPU_ALU] |368| 
    2348 00000005 A3C4          MOVL      P,*+XAR4[0]           ; [CPU_ALU] |368| 
    2349 00000006 06D4          MOVL      ACC,*+XAR4[2]         ; [CPU_ALU] |368| 
    2350 00000007 18AB          AND       PL,#0                 ; [CPU_ALU] |368| 
         00000008 0000 
    2351 00000009 18AA          AND       PH,#0                 ; [CPU_ALU] |368| 
         0000000a 0000 
    2352 0000000b 9000          ANDB      AL,#0                 ; [CPU_ALU] |368| 
    2353 0000000c 18A8          AND       AH,#32768             ; [CPU_ALU] |368| 
         0000000d 8000 
    2354              $C$DW$156       .dwtag  DW_TAG_TI_branch
    2355                      .dwattr $C$DW$156, DW_AT_low_pc(0x00)
    2356                      .dwattr $C$DW$156, DW_AT_name("__c28xabi_cmpull")
    2357                      .dwattr $C$DW$156, DW_AT_TI_call
    2358              
    2359 0000000e 7640!         LCR       #||__c28xabi_cmpull|| ; [CPU_ALU] |368| 
         0000000f 0000 
    2360                      ; call occurs [#||__c28xabi_cmpull||] ; [] |368| 
    2361 00000010 9B00          MOVB      AH,#0                 ; [CPU_ALU] |368| 
    2362 00000011 5200          CMPB      AL,#0                 ; [CPU_ALU] |368| 
    2363 00000012 56B0          MOVB      AH,#1,NEQ             ; [CPU_ALU] |368| 
         00000013 01A8 
    2364 00000014 92A8          MOV       AL,AH                 ; [CPU_ALU] |368| 
    2365 00000015 FE84          SUBB      SP,#4                 ; [CPU_ARAU] 
    2366                      .dwcfi  cfa_offset, -2
    2367              $C$DW$157       .dwtag  DW_TAG_TI_branch
    2368                      .dwattr $C$DW$157, DW_AT_low_pc(0x00)
    2369                      .dwattr $C$DW$157, DW_AT_TI_return
    2370              
    2371 00000016 0006          LRETR     ; [CPU_ALU] 
    2372                      ; return occurs ; [] 
    2373                      .dwattr $C$DW$153, DW_AT_TI_end_file("C:/ti/ccs1011/ccs/tools/compiler/ti-cgt-c2000_20.2.4.LTS/includ
    2374                      .dwattr $C$DW$153, DW_AT_TI_end_line(0x170)
    2375                      .dwattr $C$DW$153, DW_AT_TI_end_column(0x2b)
    2376                      .dwendentry
    2377                      .dwendtag $C$DW$153
    2378              
    2379 00000000               .sect   ".text:__signbitf"
    2380                      .clink
    2381                      .global ||__signbitf||
    2382              
    2383              $C$DW$158       .dwtag  DW_TAG_subprogram
    2384                      .dwattr $C$DW$158, DW_AT_name("__signbitf")
    2385                      .dwattr $C$DW$158, DW_AT_low_pc(||__signbitf||)
    2386                      .dwattr $C$DW$158, DW_AT_high_pc(0x00)
    2387                      .dwattr $C$DW$158, DW_AT_linkage_name("__signbitf")
    2388                      .dwattr $C$DW$158, DW_AT_external
    2389                      .dwattr $C$DW$158, DW_AT_type(*$C$DW$T$10)
    2390                      .dwattr $C$DW$158, DW_AT_decl_file("C:/ti/ccs1011/ccs/tools/compiler/ti-cgt-c2000_20.2.4.LTS/include/
    2391                      .dwattr $C$DW$158, DW_AT_decl_line(0x16d)
    2392                      .dwattr $C$DW$158, DW_AT_decl_column(0x25)
    2393                      .dwattr $C$DW$158, DW_AT_TI_max_frame_size(-2)
    2394                      .dwpsn  file "C:/ti/ccs1011/ccs/tools/compiler/ti-cgt-c2000_20.2.4.LTS/include/_defs.h",line 366,colu
TMS320C2000 Assembler PC v20.2.4 Tue Mar  2 07:24:45 2021

Copyright (c) 1996-2018 Texas Instruments Incorporated
bts.asm                                                              PAGE   50

    2395              
    2396                      .dwfde $C$DW$CIE, ||__signbitf||
    2397              $C$DW$159       .dwtag  DW_TAG_formal_parameter
    2398                      .dwattr $C$DW$159, DW_AT_name("f")
    2399                      .dwattr $C$DW$159, DW_AT_type(*$C$DW$T$16)
    2400                      .dwattr $C$DW$159, DW_AT_location[DW_OP_regx 0x2b]
    2401              
    2402              
    2403              ;***************************************************************
    2404              ;* FNAME: __signbitf                    FR SIZE:   0           *
    2405              ;*                                                             *
    2406              ;* FUNCTION ENVIRONMENT                                        *
    2407              ;*                                                             *
    2408              ;* FUNCTION PROPERTIES                                         *
    2409              ;*                            0 Parameter,  0 Auto,  0 SOE     *
    2410              ;***************************************************************
    2411              
    2412              ||__signbitf||:
    2413              ;* R0    assigned to f
    2414              $C$DW$160       .dwtag  DW_TAG_variable
    2415                      .dwattr $C$DW$160, DW_AT_name("f")
    2416                      .dwattr $C$DW$160, DW_AT_type(*$C$DW$T$120)
    2417                      .dwattr $C$DW$160, DW_AT_location[DW_OP_regx 0x2b]
    2418              
    2419                      .dwcfi  cfa_offset, -2
    2420                      .dwcfi  save_reg_to_mem, 26, 0
    2421                      .dwpsn  file "C:/ti/ccs1011/ccs/tools/compiler/ti-cgt-c2000_20.2.4.LTS/include/_defs.h",line 366,colu
    2422 00000000 BFA9          MOV32     ACC,R0H               ; [CPU_FPU] |366| 
         00000001 0F12 
    2423 00000002 BE00          MOVB      XAR6,#0               ; [CPU_ALU] |366| 
    2424 00000003 9000          ANDB      AL,#0                 ; [CPU_ALU] |366| 
    2425 00000004 18A8          AND       AH,#32768             ; [CPU_ALU] |366| 
         00000005 8000 
    2426 00000006 FF58          TEST      ACC                   ; [CPU_ALU] |366| 
    2427 00000007 56B0          MOVB      XAR6,#1,NEQ           ; [CPU_ALU] |366| 
         00000008 01A6 
    2428 00000009 92A6          MOV       AL,AR6                ; [CPU_ALU] |366| 
    2429              $C$DW$161       .dwtag  DW_TAG_TI_branch
    2430                      .dwattr $C$DW$161, DW_AT_low_pc(0x00)
    2431                      .dwattr $C$DW$161, DW_AT_TI_return
    2432              
    2433 0000000a 0006          LRETR     ; [CPU_ALU] 
    2434                      ; return occurs ; [] 
    2435                      .dwattr $C$DW$158, DW_AT_TI_end_file("C:/ti/ccs1011/ccs/tools/compiler/ti-cgt-c2000_20.2.4.LTS/includ
    2436                      .dwattr $C$DW$158, DW_AT_TI_end_line(0x16e)
    2437                      .dwattr $C$DW$158, DW_AT_TI_end_column(0x29)
    2438                      .dwendentry
    2439                      .dwendtag $C$DW$158
    2440              
    2441 00000000               .sect   ".text:__signbit"
    2442                      .clink
    2443                      .global ||__signbit||
    2444              
    2445              $C$DW$162       .dwtag  DW_TAG_subprogram
    2446                      .dwattr $C$DW$162, DW_AT_name("__signbit")
TMS320C2000 Assembler PC v20.2.4 Tue Mar  2 07:24:45 2021

Copyright (c) 1996-2018 Texas Instruments Incorporated
bts.asm                                                              PAGE   51

    2447                      .dwattr $C$DW$162, DW_AT_low_pc(||__signbit||)
    2448                      .dwattr $C$DW$162, DW_AT_high_pc(0x00)
    2449                      .dwattr $C$DW$162, DW_AT_linkage_name("__signbit")
    2450                      .dwattr $C$DW$162, DW_AT_external
    2451                      .dwattr $C$DW$162, DW_AT_type(*$C$DW$T$10)
    2452                      .dwattr $C$DW$162, DW_AT_decl_file("C:/ti/ccs1011/ccs/tools/compiler/ti-cgt-c2000_20.2.4.LTS/include/
    2453                      .dwattr $C$DW$162, DW_AT_decl_line(0x16b)
    2454                      .dwattr $C$DW$162, DW_AT_decl_column(0x25)
    2455                      .dwattr $C$DW$162, DW_AT_TI_max_frame_size(-6)
    2456                      .dwpsn  file "C:/ti/ccs1011/ccs/tools/compiler/ti-cgt-c2000_20.2.4.LTS/include/_defs.h",line 364,colu
    2457              
    2458                      .dwfde $C$DW$CIE, ||__signbit||
    2459              $C$DW$163       .dwtag  DW_TAG_formal_parameter
    2460                      .dwattr $C$DW$163, DW_AT_name("d")
    2461                      .dwattr $C$DW$163, DW_AT_type(*$C$DW$T$122)
    2462                      .dwattr $C$DW$163, DW_AT_location[DW_OP_reg12]
    2463              
    2464              
    2465              ;***************************************************************
    2466              ;* FNAME: __signbit                     FR SIZE:   4           *
    2467              ;*                                                             *
    2468              ;* FUNCTION ENVIRONMENT                                        *
    2469              ;*                                                             *
    2470              ;* FUNCTION PROPERTIES                                         *
    2471              ;*                            4 Parameter,  0 Auto,  0 SOE     *
    2472              ;***************************************************************
    2473              
    2474              ||__signbit||:
    2475              ;* AR4   assigned to d
    2476              $C$DW$164       .dwtag  DW_TAG_variable
    2477                      .dwattr $C$DW$164, DW_AT_name("d")
    2478                      .dwattr $C$DW$164, DW_AT_type(*$C$DW$T$123)
    2479                      .dwattr $C$DW$164, DW_AT_location[DW_OP_reg12]
    2480              
    2481                      .dwcfi  cfa_offset, -2
    2482                      .dwcfi  save_reg_to_mem, 26, 0
    2483 00000000 FE04          ADDB      SP,#4                 ; [CPU_ARAU] 
    2484                      .dwcfi  cfa_offset, -6
    2485                      .dwpsn  file "C:/ti/ccs1011/ccs/tools/compiler/ti-cgt-c2000_20.2.4.LTS/include/_defs.h",line 364,colu
    2486 00000001 0200          MOVB      ACC,#0                ; [CPU_ALU] |364| 
    2487 00000002 1E44          MOVL      *-SP[4],ACC           ; [CPU_ALU] |364| 
    2488 00000003 2B42          MOV       *-SP[2],#0            ; [CPU_ALU] |364| 
    2489 00000004 2B41          MOV       *-SP[1],#0            ; [CPU_ALU] |364| 
    2490 00000005 A3C4          MOVL      P,*+XAR4[0]           ; [CPU_ALU] |364| 
    2491 00000006 06D4          MOVL      ACC,*+XAR4[2]         ; [CPU_ALU] |364| 
    2492 00000007 18AB          AND       PL,#0                 ; [CPU_ALU] |364| 
         00000008 0000 
    2493 00000009 18AA          AND       PH,#0                 ; [CPU_ALU] |364| 
         0000000a 0000 
    2494 0000000b 9000          ANDB      AL,#0                 ; [CPU_ALU] |364| 
    2495 0000000c 18A8          AND       AH,#32768             ; [CPU_ALU] |364| 
         0000000d 8000 
    2496              $C$DW$165       .dwtag  DW_TAG_TI_branch
    2497                      .dwattr $C$DW$165, DW_AT_low_pc(0x00)
    2498                      .dwattr $C$DW$165, DW_AT_name("__c28xabi_cmpull")
TMS320C2000 Assembler PC v20.2.4 Tue Mar  2 07:24:45 2021

Copyright (c) 1996-2018 Texas Instruments Incorporated
bts.asm                                                              PAGE   52

    2499                      .dwattr $C$DW$165, DW_AT_TI_call
    2500              
    2501 0000000e 7640!         LCR       #||__c28xabi_cmpull|| ; [CPU_ALU] |364| 
         0000000f 0000 
    2502                      ; call occurs [#||__c28xabi_cmpull||] ; [] |364| 
    2503 00000010 9B00          MOVB      AH,#0                 ; [CPU_ALU] |364| 
    2504 00000011 5200          CMPB      AL,#0                 ; [CPU_ALU] |364| 
    2505 00000012 56B0          MOVB      AH,#1,NEQ             ; [CPU_ALU] |364| 
         00000013 01A8 
    2506 00000014 92A8          MOV       AL,AH                 ; [CPU_ALU] |364| 
    2507 00000015 FE84          SUBB      SP,#4                 ; [CPU_ARAU] 
    2508                      .dwcfi  cfa_offset, -2
    2509              $C$DW$166       .dwtag  DW_TAG_TI_branch
    2510                      .dwattr $C$DW$166, DW_AT_low_pc(0x00)
    2511                      .dwattr $C$DW$166, DW_AT_TI_return
    2512              
    2513 00000016 0006          LRETR     ; [CPU_ALU] 
    2514                      ; return occurs ; [] 
    2515                      .dwattr $C$DW$162, DW_AT_TI_end_file("C:/ti/ccs1011/ccs/tools/compiler/ti-cgt-c2000_20.2.4.LTS/includ
    2516                      .dwattr $C$DW$162, DW_AT_TI_end_line(0x16c)
    2517                      .dwattr $C$DW$162, DW_AT_TI_end_column(0x2a)
    2518                      .dwendentry
    2519                      .dwendtag $C$DW$162
    2520              
    2521 00000000               .sect   ".text:__relaxed_sqrtf"
    2522                      .clink
    2523                      .global ||__relaxed_sqrtf||
    2524              
    2525              $C$DW$167       .dwtag  DW_TAG_subprogram
    2526                      .dwattr $C$DW$167, DW_AT_name("__relaxed_sqrtf")
    2527                      .dwattr $C$DW$167, DW_AT_low_pc(||__relaxed_sqrtf||)
    2528                      .dwattr $C$DW$167, DW_AT_high_pc(0x00)
    2529                      .dwattr $C$DW$167, DW_AT_linkage_name("__relaxed_sqrtf")
    2530                      .dwattr $C$DW$167, DW_AT_external
    2531                      .dwattr $C$DW$167, DW_AT_type(*$C$DW$T$16)
    2532                      .dwattr $C$DW$167, DW_AT_decl_file("C:/ti/ccs1011/ccs/tools/compiler/ti-cgt-c2000_20.2.4.LTS/include/
    2533                      .dwattr $C$DW$167, DW_AT_decl_line(0xe4)
    2534                      .dwattr $C$DW$167, DW_AT_decl_column(0x10)
    2535                      .dwattr $C$DW$167, DW_AT_TI_max_frame_size(-2)
    2536                      .dwpsn  file "C:/ti/ccs1011/ccs/tools/compiler/ti-cgt-c2000_20.2.4.LTS/include/math.h",line 229,colum
    2537              
    2538                      .dwfde $C$DW$CIE, ||__relaxed_sqrtf||
    2539              $C$DW$168       .dwtag  DW_TAG_formal_parameter
    2540                      .dwattr $C$DW$168, DW_AT_name("x")
    2541                      .dwattr $C$DW$168, DW_AT_type(*$C$DW$T$16)
    2542                      .dwattr $C$DW$168, DW_AT_location[DW_OP_regx 0x2b]
    2543              
    2544              
    2545              ;***************************************************************
    2546              ;* FNAME: __relaxed_sqrtf               FR SIZE:   0           *
    2547              ;*                                                             *
    2548              ;* FUNCTION ENVIRONMENT                                        *
    2549              ;*                                                             *
    2550              ;* FUNCTION PROPERTIES                                         *
    2551              ;*                            0 Parameter,  0 Auto,  0 SOE     *
TMS320C2000 Assembler PC v20.2.4 Tue Mar  2 07:24:45 2021

Copyright (c) 1996-2018 Texas Instruments Incorporated
bts.asm                                                              PAGE   53

    2552              ;***************************************************************
    2553              
    2554              ||__relaxed_sqrtf||:
    2555              ;* R0    assigned to x
    2556              $C$DW$169       .dwtag  DW_TAG_variable
    2557                      .dwattr $C$DW$169, DW_AT_name("x")
    2558                      .dwattr $C$DW$169, DW_AT_type(*$C$DW$T$120)
    2559                      .dwattr $C$DW$169, DW_AT_location[DW_OP_regx 0x2b]
    2560              
    2561                      .dwcfi  cfa_offset, -2
    2562                      .dwcfi  save_reg_to_mem, 26, 0
    2563                      .dwpsn  file "C:/ti/ccs1011/ccs/tools/compiler/ti-cgt-c2000_20.2.4.LTS/include/math.h",line 230,colum
    2564 00000000 E277          SQRTF32   R0H,R0H               ; [CPU_FPU] |230| 
         00000001 0000 
    2565 00000002 7700          NOP       ; [CPU_ALU] 
    2566 00000003 7700          NOP       ; [CPU_ALU] 
    2567 00000004 7700          NOP       ; [CPU_ALU] 
    2568              $C$DW$170       .dwtag  DW_TAG_TI_branch
    2569                      .dwattr $C$DW$170, DW_AT_low_pc(0x00)
    2570                      .dwattr $C$DW$170, DW_AT_TI_return
    2571              
    2572 00000005 0006          LRETR     ; [CPU_ALU] 
    2573                      ; return occurs ; [] 
    2574                      .dwattr $C$DW$167, DW_AT_TI_end_file("C:/ti/ccs1011/ccs/tools/compiler/ti-cgt-c2000_20.2.4.LTS/includ
    2575                      .dwattr $C$DW$167, DW_AT_TI_end_line(0xe7)
    2576                      .dwattr $C$DW$167, DW_AT_TI_end_column(0x01)
    2577                      .dwendentry
    2578                      .dwendtag $C$DW$167
    2579              
    2580 00000000               .sect   ".text:__relaxed_sinf"
    2581                      .clink
    2582                      .global ||__relaxed_sinf||
    2583              
    2584              $C$DW$171       .dwtag  DW_TAG_subprogram
    2585                      .dwattr $C$DW$171, DW_AT_name("__relaxed_sinf")
    2586                      .dwattr $C$DW$171, DW_AT_low_pc(||__relaxed_sinf||)
    2587                      .dwattr $C$DW$171, DW_AT_high_pc(0x00)
    2588                      .dwattr $C$DW$171, DW_AT_linkage_name("__relaxed_sinf")
    2589                      .dwattr $C$DW$171, DW_AT_external
    2590                      .dwattr $C$DW$171, DW_AT_type(*$C$DW$T$16)
    2591                      .dwattr $C$DW$171, DW_AT_decl_file("C:/ti/ccs1011/ccs/tools/compiler/ti-cgt-c2000_20.2.4.LTS/include/
    2592                      .dwattr $C$DW$171, DW_AT_decl_line(0xe9)
    2593                      .dwattr $C$DW$171, DW_AT_decl_column(0x10)
    2594                      .dwattr $C$DW$171, DW_AT_TI_max_frame_size(-2)
    2595                      .dwpsn  file "C:/ti/ccs1011/ccs/tools/compiler/ti-cgt-c2000_20.2.4.LTS/include/math.h",line 234,colum
    2596              
    2597                      .dwfde $C$DW$CIE, ||__relaxed_sinf||
    2598              $C$DW$172       .dwtag  DW_TAG_formal_parameter
    2599                      .dwattr $C$DW$172, DW_AT_name("x")
    2600                      .dwattr $C$DW$172, DW_AT_type(*$C$DW$T$16)
    2601                      .dwattr $C$DW$172, DW_AT_location[DW_OP_regx 0x2b]
    2602              
    2603              
    2604              ;***************************************************************
    2605              ;* FNAME: __relaxed_sinf                FR SIZE:   0           *
TMS320C2000 Assembler PC v20.2.4 Tue Mar  2 07:24:45 2021

Copyright (c) 1996-2018 Texas Instruments Incorporated
bts.asm                                                              PAGE   54

    2606              ;*                                                             *
    2607              ;* FUNCTION ENVIRONMENT                                        *
    2608              ;*                                                             *
    2609              ;* FUNCTION PROPERTIES                                         *
    2610              ;*                            0 Parameter,  0 Auto,  0 SOE     *
    2611              ;***************************************************************
    2612              
    2613              ||__relaxed_sinf||:
    2614              ;* R0    assigned to x
    2615              $C$DW$173       .dwtag  DW_TAG_variable
    2616                      .dwattr $C$DW$173, DW_AT_name("x")
    2617                      .dwattr $C$DW$173, DW_AT_type(*$C$DW$T$120)
    2618                      .dwattr $C$DW$173, DW_AT_location[DW_OP_regx 0x2b]
    2619              
    2620                      .dwcfi  cfa_offset, -2
    2621                      .dwcfi  save_reg_to_mem, 26, 0
    2622                      .dwpsn  file "C:/ti/ccs1011/ccs/tools/compiler/ti-cgt-c2000_20.2.4.LTS/include/math.h",line 235,colum
    2623 00000000 E271          DIV2PIF32 R0H,R0H               ; [CPU_FPU] |235| 
         00000001 0000 
    2624 00000002 7700          NOP       ; [CPU_ALU] 
    2625 00000003 E278          SINPUF32  R0H,R0H               ; [CPU_FPU] |235| 
         00000004 0000 
    2626 00000005 7700          NOP       ; [CPU_ALU] 
    2627 00000006 7700          NOP       ; [CPU_ALU] 
    2628              $C$DW$174       .dwtag  DW_TAG_TI_branch
    2629                      .dwattr $C$DW$174, DW_AT_low_pc(0x00)
    2630                      .dwattr $C$DW$174, DW_AT_TI_return
    2631              
    2632 00000007 0006          LRETR     ; [CPU_ALU] 
    2633                      ; return occurs ; [] 
    2634                      .dwattr $C$DW$171, DW_AT_TI_end_file("C:/ti/ccs1011/ccs/tools/compiler/ti-cgt-c2000_20.2.4.LTS/includ
    2635                      .dwattr $C$DW$171, DW_AT_TI_end_line(0xec)
    2636                      .dwattr $C$DW$171, DW_AT_TI_end_column(0x01)
    2637                      .dwendentry
    2638                      .dwendtag $C$DW$171
    2639              
    2640 00000000               .sect   ".text:__relaxed_cosf"
    2641                      .clink
    2642                      .global ||__relaxed_cosf||
    2643              
    2644              $C$DW$175       .dwtag  DW_TAG_subprogram
    2645                      .dwattr $C$DW$175, DW_AT_name("__relaxed_cosf")
    2646                      .dwattr $C$DW$175, DW_AT_low_pc(||__relaxed_cosf||)
    2647                      .dwattr $C$DW$175, DW_AT_high_pc(0x00)
    2648                      .dwattr $C$DW$175, DW_AT_linkage_name("__relaxed_cosf")
    2649                      .dwattr $C$DW$175, DW_AT_external
    2650                      .dwattr $C$DW$175, DW_AT_type(*$C$DW$T$16)
    2651                      .dwattr $C$DW$175, DW_AT_decl_file("C:/ti/ccs1011/ccs/tools/compiler/ti-cgt-c2000_20.2.4.LTS/include/
    2652                      .dwattr $C$DW$175, DW_AT_decl_line(0xee)
    2653                      .dwattr $C$DW$175, DW_AT_decl_column(0x10)
    2654                      .dwattr $C$DW$175, DW_AT_TI_max_frame_size(-2)
    2655                      .dwpsn  file "C:/ti/ccs1011/ccs/tools/compiler/ti-cgt-c2000_20.2.4.LTS/include/math.h",line 239,colum
    2656              
    2657                      .dwfde $C$DW$CIE, ||__relaxed_cosf||
    2658              $C$DW$176       .dwtag  DW_TAG_formal_parameter
TMS320C2000 Assembler PC v20.2.4 Tue Mar  2 07:24:45 2021

Copyright (c) 1996-2018 Texas Instruments Incorporated
bts.asm                                                              PAGE   55

    2659                      .dwattr $C$DW$176, DW_AT_name("x")
    2660                      .dwattr $C$DW$176, DW_AT_type(*$C$DW$T$16)
    2661                      .dwattr $C$DW$176, DW_AT_location[DW_OP_regx 0x2b]
    2662              
    2663              
    2664              ;***************************************************************
    2665              ;* FNAME: __relaxed_cosf                FR SIZE:   0           *
    2666              ;*                                                             *
    2667              ;* FUNCTION ENVIRONMENT                                        *
    2668              ;*                                                             *
    2669              ;* FUNCTION PROPERTIES                                         *
    2670              ;*                            0 Parameter,  0 Auto,  0 SOE     *
    2671              ;***************************************************************
    2672              
    2673              ||__relaxed_cosf||:
    2674              ;* R0    assigned to x
    2675              $C$DW$177       .dwtag  DW_TAG_variable
    2676                      .dwattr $C$DW$177, DW_AT_name("x")
    2677                      .dwattr $C$DW$177, DW_AT_type(*$C$DW$T$120)
    2678                      .dwattr $C$DW$177, DW_AT_location[DW_OP_regx 0x2b]
    2679              
    2680                      .dwcfi  cfa_offset, -2
    2681                      .dwcfi  save_reg_to_mem, 26, 0
    2682                      .dwpsn  file "C:/ti/ccs1011/ccs/tools/compiler/ti-cgt-c2000_20.2.4.LTS/include/math.h",line 240,colum
    2683 00000000 E271          DIV2PIF32 R0H,R0H               ; [CPU_FPU] |240| 
         00000001 0000 
    2684 00000002 7700          NOP       ; [CPU_ALU] 
    2685 00000003 E279          COSPUF32  R0H,R0H               ; [CPU_FPU] |240| 
         00000004 0000 
    2686 00000005 7700          NOP       ; [CPU_ALU] 
    2687 00000006 7700          NOP       ; [CPU_ALU] 
    2688              $C$DW$178       .dwtag  DW_TAG_TI_branch
    2689                      .dwattr $C$DW$178, DW_AT_low_pc(0x00)
    2690                      .dwattr $C$DW$178, DW_AT_TI_return
    2691              
    2692 00000007 0006          LRETR     ; [CPU_ALU] 
    2693                      ; return occurs ; [] 
    2694                      .dwattr $C$DW$175, DW_AT_TI_end_file("C:/ti/ccs1011/ccs/tools/compiler/ti-cgt-c2000_20.2.4.LTS/includ
    2695                      .dwattr $C$DW$175, DW_AT_TI_end_line(0xf1)
    2696                      .dwattr $C$DW$175, DW_AT_TI_end_column(0x01)
    2697                      .dwendentry
    2698                      .dwendtag $C$DW$175
    2699              
    2700 00000000               .sect   ".text:__relaxed_atanf"
    2701                      .clink
    2702                      .global ||__relaxed_atanf||
    2703              
    2704              $C$DW$179       .dwtag  DW_TAG_subprogram
    2705                      .dwattr $C$DW$179, DW_AT_name("__relaxed_atanf")
    2706                      .dwattr $C$DW$179, DW_AT_low_pc(||__relaxed_atanf||)
    2707                      .dwattr $C$DW$179, DW_AT_high_pc(0x00)
    2708                      .dwattr $C$DW$179, DW_AT_linkage_name("__relaxed_atanf")
    2709                      .dwattr $C$DW$179, DW_AT_external
    2710                      .dwattr $C$DW$179, DW_AT_type(*$C$DW$T$16)
    2711                      .dwattr $C$DW$179, DW_AT_decl_file("C:/ti/ccs1011/ccs/tools/compiler/ti-cgt-c2000_20.2.4.LTS/include/
TMS320C2000 Assembler PC v20.2.4 Tue Mar  2 07:24:45 2021

Copyright (c) 1996-2018 Texas Instruments Incorporated
bts.asm                                                              PAGE   56

    2712                      .dwattr $C$DW$179, DW_AT_decl_line(0xf3)
    2713                      .dwattr $C$DW$179, DW_AT_decl_column(0x10)
    2714                      .dwattr $C$DW$179, DW_AT_TI_max_frame_size(-2)
    2715                      .dwpsn  file "C:/ti/ccs1011/ccs/tools/compiler/ti-cgt-c2000_20.2.4.LTS/include/math.h",line 244,colum
    2716              
    2717                      .dwfde $C$DW$CIE, ||__relaxed_atanf||
    2718              $C$DW$180       .dwtag  DW_TAG_formal_parameter
    2719                      .dwattr $C$DW$180, DW_AT_name("x")
    2720                      .dwattr $C$DW$180, DW_AT_type(*$C$DW$T$16)
    2721                      .dwattr $C$DW$180, DW_AT_location[DW_OP_regx 0x2b]
    2722              
    2723              
    2724              ;***************************************************************
    2725              ;* FNAME: __relaxed_atanf               FR SIZE:   0           *
    2726              ;*                                                             *
    2727              ;* FUNCTION ENVIRONMENT                                        *
    2728              ;*                                                             *
    2729              ;* FUNCTION PROPERTIES                                         *
    2730              ;*                            0 Parameter,  0 Auto,  0 SOE     *
    2731              ;***************************************************************
    2732              
    2733              ||__relaxed_atanf||:
    2734              ;* R0    assigned to x
    2735              $C$DW$181       .dwtag  DW_TAG_variable
    2736                      .dwattr $C$DW$181, DW_AT_name("x")
    2737                      .dwattr $C$DW$181, DW_AT_type(*$C$DW$T$120)
    2738                      .dwattr $C$DW$181, DW_AT_location[DW_OP_regx 0x2b]
    2739              
    2740                      .dwcfi  cfa_offset, -2
    2741                      .dwcfi  save_reg_to_mem, 26, 0
    2742                      .dwpsn  file "C:/ti/ccs1011/ccs/tools/compiler/ti-cgt-c2000_20.2.4.LTS/include/math.h",line 245,colum
    2743 00000000 E801          MOVIZ     R1H,#16256            ; [CPU_FPU] |245| 
         00000001 FC01 
    2744 00000002 E27C          QUADF32   R1H,R0H,R0H,R1H       ; [CPU_FPU] |245| 
         00000003 0201 
    2745 00000004 7700          NOP       ; [CPU_ALU] 
    2746 00000005 7700          NOP       ; [CPU_ALU] 
    2747 00000006 7700          NOP       ; [CPU_ALU] 
    2748 00000007 7700          NOP       ; [CPU_ALU] 
    2749 00000008 E27A          ATANPUF32 R0H,R0H               ; [CPU_FPU] |245| 
         00000009 0000 
    2750 0000000a 7700          NOP       ; [CPU_ALU] 
    2751 0000000b 7700          NOP       ; [CPU_ALU] 
    2752 0000000c 7700          NOP       ; [CPU_ALU] 
    2753 0000000d E710          ADDF32    R0H,R0H,R1H           ; [CPU_FPU] |245| 
         0000000e 0040 
    2754 0000000f 7700          NOP       ; [CPU_ALU] 
    2755 00000010 7700          NOP       ; [CPU_ALU] 
    2756 00000011 E270          MPY2PIF32 R0H,R0H               ; [CPU_FPU] |245| 
         00000012 0000 
    2757 00000013 7700          NOP       ; [CPU_ALU] 
    2758              $C$DW$182       .dwtag  DW_TAG_TI_branch
    2759                      .dwattr $C$DW$182, DW_AT_low_pc(0x00)
    2760                      .dwattr $C$DW$182, DW_AT_TI_return
    2761              
TMS320C2000 Assembler PC v20.2.4 Tue Mar  2 07:24:45 2021

Copyright (c) 1996-2018 Texas Instruments Incorporated
bts.asm                                                              PAGE   57

    2762 00000014 0006          LRETR     ; [CPU_ALU] 
    2763                      ; return occurs ; [] 
    2764                      .dwattr $C$DW$179, DW_AT_TI_end_file("C:/ti/ccs1011/ccs/tools/compiler/ti-cgt-c2000_20.2.4.LTS/includ
    2765                      .dwattr $C$DW$179, DW_AT_TI_end_line(0xf6)
    2766                      .dwattr $C$DW$179, DW_AT_TI_end_column(0x01)
    2767                      .dwendentry
    2768                      .dwendtag $C$DW$179
    2769              
    2770 00000000               .sect   ".text:__relaxed_atan2f"
    2771                      .clink
    2772                      .global ||__relaxed_atan2f||
    2773              
    2774              $C$DW$183       .dwtag  DW_TAG_subprogram
    2775                      .dwattr $C$DW$183, DW_AT_name("__relaxed_atan2f")
    2776                      .dwattr $C$DW$183, DW_AT_low_pc(||__relaxed_atan2f||)
    2777                      .dwattr $C$DW$183, DW_AT_high_pc(0x00)
    2778                      .dwattr $C$DW$183, DW_AT_linkage_name("__relaxed_atan2f")
    2779                      .dwattr $C$DW$183, DW_AT_external
    2780                      .dwattr $C$DW$183, DW_AT_type(*$C$DW$T$16)
    2781                      .dwattr $C$DW$183, DW_AT_decl_file("C:/ti/ccs1011/ccs/tools/compiler/ti-cgt-c2000_20.2.4.LTS/include/
    2782                      .dwattr $C$DW$183, DW_AT_decl_line(0xf8)
    2783                      .dwattr $C$DW$183, DW_AT_decl_column(0x10)
    2784                      .dwattr $C$DW$183, DW_AT_TI_max_frame_size(-2)
    2785                      .dwpsn  file "C:/ti/ccs1011/ccs/tools/compiler/ti-cgt-c2000_20.2.4.LTS/include/math.h",line 249,colum
    2786              
    2787                      .dwfde $C$DW$CIE, ||__relaxed_atan2f||
    2788              $C$DW$184       .dwtag  DW_TAG_formal_parameter
    2789                      .dwattr $C$DW$184, DW_AT_name("y")
    2790                      .dwattr $C$DW$184, DW_AT_type(*$C$DW$T$16)
    2791                      .dwattr $C$DW$184, DW_AT_location[DW_OP_regx 0x2b]
    2792              
    2793              $C$DW$185       .dwtag  DW_TAG_formal_parameter
    2794                      .dwattr $C$DW$185, DW_AT_name("x")
    2795                      .dwattr $C$DW$185, DW_AT_type(*$C$DW$T$16)
    2796                      .dwattr $C$DW$185, DW_AT_location[DW_OP_regx 0x2f]
    2797              
    2798              
    2799              ;***************************************************************
    2800              ;* FNAME: __relaxed_atan2f              FR SIZE:   0           *
    2801              ;*                                                             *
    2802              ;* FUNCTION ENVIRONMENT                                        *
    2803              ;*                                                             *
    2804              ;* FUNCTION PROPERTIES                                         *
    2805              ;*                            0 Parameter,  0 Auto,  0 SOE     *
    2806              ;***************************************************************
    2807              
    2808              ||__relaxed_atan2f||:
    2809              ;* R0    assigned to y
    2810              $C$DW$186       .dwtag  DW_TAG_variable
    2811                      .dwattr $C$DW$186, DW_AT_name("y")
    2812                      .dwattr $C$DW$186, DW_AT_type(*$C$DW$T$120)
    2813                      .dwattr $C$DW$186, DW_AT_location[DW_OP_regx 0x2b]
    2814              
    2815              ;* R1    assigned to x
    2816              $C$DW$187       .dwtag  DW_TAG_variable
TMS320C2000 Assembler PC v20.2.4 Tue Mar  2 07:24:45 2021

Copyright (c) 1996-2018 Texas Instruments Incorporated
bts.asm                                                              PAGE   58

    2817                      .dwattr $C$DW$187, DW_AT_name("x")
    2818                      .dwattr $C$DW$187, DW_AT_type(*$C$DW$T$120)
    2819                      .dwattr $C$DW$187, DW_AT_location[DW_OP_regx 0x2f]
    2820              
    2821                      .dwcfi  cfa_offset, -2
    2822                      .dwcfi  save_reg_to_mem, 26, 0
    2823                      .dwpsn  file "C:/ti/ccs1011/ccs/tools/compiler/ti-cgt-c2000_20.2.4.LTS/include/math.h",line 250,colum
    2824 00000000 E27C          QUADF32   R1H,R0H,R0H,R1H       ; [CPU_FPU] |250| 
         00000001 0201 
    2825 00000002 7700          NOP       ; [CPU_ALU] 
    2826 00000003 7700          NOP       ; [CPU_ALU] 
    2827 00000004 7700          NOP       ; [CPU_ALU] 
    2828 00000005 7700          NOP       ; [CPU_ALU] 
    2829 00000006 E27A          ATANPUF32 R0H,R0H               ; [CPU_FPU] |250| 
         00000007 0000 
    2830 00000008 7700          NOP       ; [CPU_ALU] 
    2831 00000009 7700          NOP       ; [CPU_ALU] 
    2832 0000000a 7700          NOP       ; [CPU_ALU] 
    2833 0000000b E710          ADDF32    R0H,R0H,R1H           ; [CPU_FPU] |250| 
         0000000c 0040 
    2834 0000000d 7700          NOP       ; [CPU_ALU] 
    2835 0000000e 7700          NOP       ; [CPU_ALU] 
    2836 0000000f E270          MPY2PIF32 R0H,R0H               ; [CPU_FPU] |250| 
         00000010 0000 
    2837 00000011 7700          NOP       ; [CPU_ALU] 
    2838              $C$DW$188       .dwtag  DW_TAG_TI_branch
    2839                      .dwattr $C$DW$188, DW_AT_low_pc(0x00)
    2840                      .dwattr $C$DW$188, DW_AT_TI_return
    2841              
    2842 00000012 0006          LRETR     ; [CPU_ALU] 
    2843                      ; return occurs ; [] 
    2844                      .dwattr $C$DW$183, DW_AT_TI_end_file("C:/ti/ccs1011/ccs/tools/compiler/ti-cgt-c2000_20.2.4.LTS/includ
    2845                      .dwattr $C$DW$183, DW_AT_TI_end_line(0xfb)
    2846                      .dwattr $C$DW$183, DW_AT_TI_end_column(0x01)
    2847                      .dwendentry
    2848                      .dwendtag $C$DW$183
    2849              
    2850 00000000               .sect   ".text:__isnormall"
    2851                      .clink
    2852                      .global ||__isnormall||
    2853              
    2854              $C$DW$189       .dwtag  DW_TAG_subprogram
    2855                      .dwattr $C$DW$189, DW_AT_name("__isnormall")
    2856                      .dwattr $C$DW$189, DW_AT_low_pc(||__isnormall||)
    2857                      .dwattr $C$DW$189, DW_AT_high_pc(0x00)
    2858                      .dwattr $C$DW$189, DW_AT_linkage_name("__isnormall")
    2859                      .dwattr $C$DW$189, DW_AT_external
    2860                      .dwattr $C$DW$189, DW_AT_type(*$C$DW$T$10)
    2861                      .dwattr $C$DW$189, DW_AT_decl_file("C:/ti/ccs1011/ccs/tools/compiler/ti-cgt-c2000_20.2.4.LTS/include/
    2862                      .dwattr $C$DW$189, DW_AT_decl_line(0x167)
    2863                      .dwattr $C$DW$189, DW_AT_decl_column(0x25)
    2864                      .dwattr $C$DW$189, DW_AT_TI_max_frame_size(-6)
    2865                      .dwpsn  file "C:/ti/ccs1011/ccs/tools/compiler/ti-cgt-c2000_20.2.4.LTS/include/_defs.h",line 360,colu
    2866              
    2867                      .dwfde $C$DW$CIE, ||__isnormall||
TMS320C2000 Assembler PC v20.2.4 Tue Mar  2 07:24:45 2021

Copyright (c) 1996-2018 Texas Instruments Incorporated
bts.asm                                                              PAGE   59

    2868              $C$DW$190       .dwtag  DW_TAG_formal_parameter
    2869                      .dwattr $C$DW$190, DW_AT_name("e")
    2870                      .dwattr $C$DW$190, DW_AT_type(*$C$DW$T$125)
    2871                      .dwattr $C$DW$190, DW_AT_location[DW_OP_reg12]
    2872              
    2873              
    2874              ;***************************************************************
    2875              ;* FNAME: __isnormall                   FR SIZE:   4           *
    2876              ;*                                                             *
    2877              ;* FUNCTION ENVIRONMENT                                        *
    2878              ;*                                                             *
    2879              ;* FUNCTION PROPERTIES                                         *
    2880              ;*                            4 Parameter,  0 Auto,  0 SOE     *
    2881              ;***************************************************************
    2882              
    2883              ||__isnormall||:
    2884              ;* AR5   assigned to $O$C2
    2885              ;* AR6   assigned to $O$S1
    2886              ;* AR4   assigned to e
    2887              $C$DW$191       .dwtag  DW_TAG_variable
    2888                      .dwattr $C$DW$191, DW_AT_name("e")
    2889                      .dwattr $C$DW$191, DW_AT_type(*$C$DW$T$126)
    2890                      .dwattr $C$DW$191, DW_AT_location[DW_OP_reg12]
    2891              
    2892                      .dwcfi  cfa_offset, -2
    2893                      .dwcfi  save_reg_to_mem, 26, 0
    2894 00000000 FE04          ADDB      SP,#4                 ; [CPU_ARAU] 
    2895                      .dwcfi  cfa_offset, -6
    2896                      .dwpsn  file "C:/ti/ccs1011/ccs/tools/compiler/ti-cgt-c2000_20.2.4.LTS/include/_defs.h",line 360,colu
    2897 00000001 83C4          MOVL      XAR5,*+XAR4[0]        ; [CPU_ALU] |360| 
    2898 00000002 8AD4          MOVL      XAR4,*+XAR4[2]        ; [CPU_ALU] |360| 
    2899 00000003 BE00          MOVB      XAR6,#0               ; [CPU_ALU] |360| 
    2900 00000004 28AC          MOV       T,#52                 ; [CPU_ALU] |360| 
         00000005 0034 
    2901 00000006 A0AB          MOVL      P,XAR5                ; [CPU_ALU] |360| 
    2902 00000007 A8A9          MOVL      ACC,XAR4              ; [CPU_ALU] |360| 
    2903 00000008 C244          MOVL      *-SP[4],XAR6          ; [CPU_ALU] |360| 
    2904 00000009 2B42          MOV       *-SP[2],#0            ; [CPU_ALU] |360| 
    2905 0000000a 565B          LSR64     ACC:P,T               ; [CPU_ALU] |360| 
    2906 0000000b 2B41          MOV       *-SP[1],#0            ; [CPU_FPU] |360| 
    2907 0000000c 9000          ANDB      AL,#0                 ; [CPU_ALU] |360| 
    2908 0000000d 9100          ANDB      AH,#0                 ; [CPU_ALU] |360| 
    2909 0000000e 18AB          AND       PL,#2047              ; [CPU_ALU] |360| 
         0000000f 07FF 
    2910 00000010 18AA          AND       PH,#0                 ; [CPU_ALU] |360| 
         00000011 0000 
    2911              $C$DW$192       .dwtag  DW_TAG_TI_branch
    2912                      .dwattr $C$DW$192, DW_AT_low_pc(0x00)
    2913                      .dwattr $C$DW$192, DW_AT_name("__c28xabi_cmpull")
    2914                      .dwattr $C$DW$192, DW_AT_TI_call
    2915              
    2916 00000012 7640!         LCR       #||__c28xabi_cmpull|| ; [CPU_ALU] |360| 
         00000013 0000 
    2917                      ; call occurs [#||__c28xabi_cmpull||] ; [] |360| 
    2918 00000014 BE00          MOVB      XAR6,#0               ; [CPU_ALU] |360| 
TMS320C2000 Assembler PC v20.2.4 Tue Mar  2 07:24:45 2021

Copyright (c) 1996-2018 Texas Instruments Incorporated
bts.asm                                                              PAGE   60

    2919 00000015 5200          CMPB      AL,#0                 ; [CPU_ALU] |360| 
    2920 00000016 610F          B         ||$C$L15||,EQ         ; [CPU_ALU] |360| 
    2921                      ; branchcc occurs ; [] |360| 
    2922 00000017 A0AB          MOVL      P,XAR5                ; [CPU_ALU] |360| 
    2923 00000018 A8A9          MOVL      ACC,XAR4              ; [CPU_ALU] |360| 
    2924 00000019 28AC          MOV       T,#48                 ; [CPU_ALU] |360| 
         0000001a 0030 
    2925 0000001b 565B          LSR64     ACC:P,T               ; [CPU_ALU] |360| 
    2926 0000001c 18AB          AND       PL,#0x7ff0            ; [CPU_ALU] |360| 
         0000001d 7FF0 
    2927 0000001e 80AB          MOVZ      AR7,PL                ; [CPU_ALU] |360| 
    2928 0000001f 8F00          MOVL      XAR4,#32752           ; [CPU_ARAU] |360| 
         00000020 7FF0 
    2929 00000021 A8A9          MOVL      ACC,XAR4              ; [CPU_ALU] |360| 
    2930 00000022 0FA7          CMPL      ACC,XAR7              ; [CPU_ALU] |360| 
    2931 00000023 56B0          MOVB      XAR6,#1,NEQ           ; [CPU_ALU] |360| 
         00000024 01A6 
    2932 00000025       ||$C$L15||:    
    2933 00000025 FE84          SUBB      SP,#4                 ; [CPU_ARAU] 
    2934                      .dwcfi  cfa_offset, -2
    2935 00000026 92A6          MOV       AL,AR6                ; [CPU_ALU] |360| 
    2936              $C$DW$193       .dwtag  DW_TAG_TI_branch
    2937                      .dwattr $C$DW$193, DW_AT_low_pc(0x00)
    2938                      .dwattr $C$DW$193, DW_AT_TI_return
    2939              
    2940 00000027 0006          LRETR     ; [CPU_ALU] 
    2941                      ; return occurs ; [] 
    2942                      .dwattr $C$DW$189, DW_AT_TI_end_file("C:/ti/ccs1011/ccs/tools/compiler/ti-cgt-c2000_20.2.4.LTS/includ
    2943                      .dwattr $C$DW$189, DW_AT_TI_end_line(0x169)
    2944                      .dwattr $C$DW$189, DW_AT_TI_end_column(0x31)
    2945                      .dwendentry
    2946                      .dwendtag $C$DW$189
    2947              
    2948 00000000               .sect   ".text:__isnormalf"
    2949                      .clink
    2950                      .global ||__isnormalf||
    2951              
    2952              $C$DW$194       .dwtag  DW_TAG_subprogram
    2953                      .dwattr $C$DW$194, DW_AT_name("__isnormalf")
    2954                      .dwattr $C$DW$194, DW_AT_low_pc(||__isnormalf||)
    2955                      .dwattr $C$DW$194, DW_AT_high_pc(0x00)
    2956                      .dwattr $C$DW$194, DW_AT_linkage_name("__isnormalf")
    2957                      .dwattr $C$DW$194, DW_AT_external
    2958                      .dwattr $C$DW$194, DW_AT_type(*$C$DW$T$10)
    2959                      .dwattr $C$DW$194, DW_AT_decl_file("C:/ti/ccs1011/ccs/tools/compiler/ti-cgt-c2000_20.2.4.LTS/include/
    2960                      .dwattr $C$DW$194, DW_AT_decl_line(0x163)
    2961                      .dwattr $C$DW$194, DW_AT_decl_column(0x25)
    2962                      .dwattr $C$DW$194, DW_AT_TI_max_frame_size(-2)
    2963                      .dwpsn  file "C:/ti/ccs1011/ccs/tools/compiler/ti-cgt-c2000_20.2.4.LTS/include/_defs.h",line 356,colu
    2964              
    2965                      .dwfde $C$DW$CIE, ||__isnormalf||
    2966              $C$DW$195       .dwtag  DW_TAG_formal_parameter
    2967                      .dwattr $C$DW$195, DW_AT_name("f")
    2968                      .dwattr $C$DW$195, DW_AT_type(*$C$DW$T$16)
    2969                      .dwattr $C$DW$195, DW_AT_location[DW_OP_regx 0x2b]
TMS320C2000 Assembler PC v20.2.4 Tue Mar  2 07:24:45 2021

Copyright (c) 1996-2018 Texas Instruments Incorporated
bts.asm                                                              PAGE   61

    2970              
    2971              
    2972              ;***************************************************************
    2973              ;* FNAME: __isnormalf                   FR SIZE:   0           *
    2974              ;*                                                             *
    2975              ;* FUNCTION ENVIRONMENT                                        *
    2976              ;*                                                             *
    2977              ;* FUNCTION PROPERTIES                                         *
    2978              ;*                            0 Parameter,  0 Auto,  0 SOE     *
    2979              ;***************************************************************
    2980              
    2981              ||__isnormalf||:
    2982              ;* PL    assigned to $O$K3
    2983              ;* AR6   assigned to $O$S1
    2984              ;* R0    assigned to f
    2985              $C$DW$196       .dwtag  DW_TAG_variable
    2986                      .dwattr $C$DW$196, DW_AT_name("f")
    2987                      .dwattr $C$DW$196, DW_AT_type(*$C$DW$T$120)
    2988                      .dwattr $C$DW$196, DW_AT_location[DW_OP_regx 0x2b]
    2989              
    2990                      .dwcfi  cfa_offset, -2
    2991                      .dwcfi  save_reg_to_mem, 26, 0
    2992                      .dwpsn  file "C:/ti/ccs1011/ccs/tools/compiler/ti-cgt-c2000_20.2.4.LTS/include/_defs.h",line 356,colu
    2993 00000000 BFAB          MOV32     P,R0H                 ; [CPU_FPU] |356| 
         00000001 0F12 
    2994 00000002 28AC          MOV       T,#23                 ; [CPU_ALU] |356| 
         00000003 0017 
    2995 00000004 A9A9          MOVL      ACC,P                 ; [CPU_ALU] |356| 
    2996 00000005 BE00          MOVB      XAR6,#0               ; [CPU_ALU] |356| 
    2997 00000006 5622          LSRL      ACC,T                 ; [CPU_ALU] |356| 
    2998 00000007 90FF          ANDB      AL,#0xff              ; [CPU_ALU] |356| 
    2999 00000008 610A          B         ||$C$L16||,EQ         ; [CPU_ALU] |356| 
    3000                      ; branchcc occurs ; [] |356| 
    3001 00000009 CCAA          AND       AL,PH,#0x7f80         ; [CPU_ALU] |356| 
         0000000a 7F80 
    3002 0000000b 80A9          MOVZ      AR7,AL                ; [CPU_ALU] |356| 
    3003 0000000c 8F00          MOVL      XAR4,#32640           ; [CPU_ARAU] |356| 
         0000000d 7F80 
    3004 0000000e A8A9          MOVL      ACC,XAR4              ; [CPU_ALU] |356| 
    3005 0000000f 0FA7          CMPL      ACC,XAR7              ; [CPU_ALU] |356| 
    3006 00000010 56B0          MOVB      XAR6,#1,NEQ           ; [CPU_ALU] |356| 
         00000011 01A6 
    3007 00000012       ||$C$L16||:    
    3008 00000012 92A6          MOV       AL,AR6                ; [CPU_ALU] |356| 
    3009              $C$DW$197       .dwtag  DW_TAG_TI_branch
    3010                      .dwattr $C$DW$197, DW_AT_low_pc(0x00)
    3011                      .dwattr $C$DW$197, DW_AT_TI_return
    3012              
    3013 00000013 0006          LRETR     ; [CPU_ALU] 
    3014                      ; return occurs ; [] 
    3015                      .dwattr $C$DW$194, DW_AT_TI_end_file("C:/ti/ccs1011/ccs/tools/compiler/ti-cgt-c2000_20.2.4.LTS/includ
    3016                      .dwattr $C$DW$194, DW_AT_TI_end_line(0x165)
    3017                      .dwattr $C$DW$194, DW_AT_TI_end_column(0x2f)
    3018                      .dwendentry
    3019                      .dwendtag $C$DW$194
TMS320C2000 Assembler PC v20.2.4 Tue Mar  2 07:24:45 2021

Copyright (c) 1996-2018 Texas Instruments Incorporated
bts.asm                                                              PAGE   62

    3020              
    3021 00000000               .sect   ".text:__isnormal"
    3022                      .clink
    3023                      .global ||__isnormal||
    3024              
    3025              $C$DW$198       .dwtag  DW_TAG_subprogram
    3026                      .dwattr $C$DW$198, DW_AT_name("__isnormal")
    3027                      .dwattr $C$DW$198, DW_AT_low_pc(||__isnormal||)
    3028                      .dwattr $C$DW$198, DW_AT_high_pc(0x00)
    3029                      .dwattr $C$DW$198, DW_AT_linkage_name("__isnormal")
    3030                      .dwattr $C$DW$198, DW_AT_external
    3031                      .dwattr $C$DW$198, DW_AT_type(*$C$DW$T$10)
    3032                      .dwattr $C$DW$198, DW_AT_decl_file("C:/ti/ccs1011/ccs/tools/compiler/ti-cgt-c2000_20.2.4.LTS/include/
    3033                      .dwattr $C$DW$198, DW_AT_decl_line(0x15f)
    3034                      .dwattr $C$DW$198, DW_AT_decl_column(0x25)
    3035                      .dwattr $C$DW$198, DW_AT_TI_max_frame_size(-6)
    3036                      .dwpsn  file "C:/ti/ccs1011/ccs/tools/compiler/ti-cgt-c2000_20.2.4.LTS/include/_defs.h",line 352,colu
    3037              
    3038                      .dwfde $C$DW$CIE, ||__isnormal||
    3039              $C$DW$199       .dwtag  DW_TAG_formal_parameter
    3040                      .dwattr $C$DW$199, DW_AT_name("d")
    3041                      .dwattr $C$DW$199, DW_AT_type(*$C$DW$T$122)
    3042                      .dwattr $C$DW$199, DW_AT_location[DW_OP_reg12]
    3043              
    3044              
    3045              ;***************************************************************
    3046              ;* FNAME: __isnormal                    FR SIZE:   4           *
    3047              ;*                                                             *
    3048              ;* FUNCTION ENVIRONMENT                                        *
    3049              ;*                                                             *
    3050              ;* FUNCTION PROPERTIES                                         *
    3051              ;*                            4 Parameter,  0 Auto,  0 SOE     *
    3052              ;***************************************************************
    3053              
    3054              ||__isnormal||:
    3055              ;* AR5   assigned to $O$C2
    3056              ;* AR6   assigned to $O$S1
    3057              ;* AR4   assigned to d
    3058              $C$DW$200       .dwtag  DW_TAG_variable
    3059                      .dwattr $C$DW$200, DW_AT_name("d")
    3060                      .dwattr $C$DW$200, DW_AT_type(*$C$DW$T$123)
    3061                      .dwattr $C$DW$200, DW_AT_location[DW_OP_reg12]
    3062              
    3063                      .dwcfi  cfa_offset, -2
    3064                      .dwcfi  save_reg_to_mem, 26, 0
    3065 00000000 FE04          ADDB      SP,#4                 ; [CPU_ARAU] 
    3066                      .dwcfi  cfa_offset, -6
    3067                      .dwpsn  file "C:/ti/ccs1011/ccs/tools/compiler/ti-cgt-c2000_20.2.4.LTS/include/_defs.h",line 352,colu
    3068 00000001 83C4          MOVL      XAR5,*+XAR4[0]        ; [CPU_ALU] |352| 
    3069 00000002 8AD4          MOVL      XAR4,*+XAR4[2]        ; [CPU_ALU] |352| 
    3070 00000003 BE00          MOVB      XAR6,#0               ; [CPU_ALU] |352| 
    3071 00000004 28AC          MOV       T,#52                 ; [CPU_ALU] |352| 
         00000005 0034 
    3072 00000006 A0AB          MOVL      P,XAR5                ; [CPU_ALU] |352| 
    3073 00000007 A8A9          MOVL      ACC,XAR4              ; [CPU_ALU] |352| 
TMS320C2000 Assembler PC v20.2.4 Tue Mar  2 07:24:45 2021

Copyright (c) 1996-2018 Texas Instruments Incorporated
bts.asm                                                              PAGE   63

    3074 00000008 C244          MOVL      *-SP[4],XAR6          ; [CPU_ALU] |352| 
    3075 00000009 2B42          MOV       *-SP[2],#0            ; [CPU_ALU] |352| 
    3076 0000000a 565B          LSR64     ACC:P,T               ; [CPU_ALU] |352| 
    3077 0000000b 2B41          MOV       *-SP[1],#0            ; [CPU_FPU] |352| 
    3078 0000000c 9000          ANDB      AL,#0                 ; [CPU_ALU] |352| 
    3079 0000000d 9100          ANDB      AH,#0                 ; [CPU_ALU] |352| 
    3080 0000000e 18AB          AND       PL,#2047              ; [CPU_ALU] |352| 
         0000000f 07FF 
    3081 00000010 18AA          AND       PH,#0                 ; [CPU_ALU] |352| 
         00000011 0000 
    3082              $C$DW$201       .dwtag  DW_TAG_TI_branch
    3083                      .dwattr $C$DW$201, DW_AT_low_pc(0x00)
    3084                      .dwattr $C$DW$201, DW_AT_name("__c28xabi_cmpull")
    3085                      .dwattr $C$DW$201, DW_AT_TI_call
    3086              
    3087 00000012 7640!         LCR       #||__c28xabi_cmpull|| ; [CPU_ALU] |352| 
         00000013 0000 
    3088                      ; call occurs [#||__c28xabi_cmpull||] ; [] |352| 
    3089 00000014 BE00          MOVB      XAR6,#0               ; [CPU_ALU] |352| 
    3090 00000015 5200          CMPB      AL,#0                 ; [CPU_ALU] |352| 
    3091 00000016 610F          B         ||$C$L17||,EQ         ; [CPU_ALU] |352| 
    3092                      ; branchcc occurs ; [] |352| 
    3093 00000017 A0AB          MOVL      P,XAR5                ; [CPU_ALU] |352| 
    3094 00000018 A8A9          MOVL      ACC,XAR4              ; [CPU_ALU] |352| 
    3095 00000019 28AC          MOV       T,#48                 ; [CPU_ALU] |352| 
         0000001a 0030 
    3096 0000001b 565B          LSR64     ACC:P,T               ; [CPU_ALU] |352| 
    3097 0000001c 18AB          AND       PL,#0x7ff0            ; [CPU_ALU] |352| 
         0000001d 7FF0 
    3098 0000001e 80AB          MOVZ      AR7,PL                ; [CPU_ALU] |352| 
    3099 0000001f 8F00          MOVL      XAR4,#32752           ; [CPU_ARAU] |352| 
         00000020 7FF0 
    3100 00000021 A8A9          MOVL      ACC,XAR4              ; [CPU_ALU] |352| 
    3101 00000022 0FA7          CMPL      ACC,XAR7              ; [CPU_ALU] |352| 
    3102 00000023 56B0          MOVB      XAR6,#1,NEQ           ; [CPU_ALU] |352| 
         00000024 01A6 
    3103 00000025       ||$C$L17||:    
    3104 00000025 FE84          SUBB      SP,#4                 ; [CPU_ARAU] 
    3105                      .dwcfi  cfa_offset, -2
    3106 00000026 92A6          MOV       AL,AR6                ; [CPU_ALU] |352| 
    3107              $C$DW$202       .dwtag  DW_TAG_TI_branch
    3108                      .dwattr $C$DW$202, DW_AT_low_pc(0x00)
    3109                      .dwattr $C$DW$202, DW_AT_TI_return
    3110              
    3111 00000027 0006          LRETR     ; [CPU_ALU] 
    3112                      ; return occurs ; [] 
    3113                      .dwattr $C$DW$198, DW_AT_TI_end_file("C:/ti/ccs1011/ccs/tools/compiler/ti-cgt-c2000_20.2.4.LTS/includ
    3114                      .dwattr $C$DW$198, DW_AT_TI_end_line(0x161)
    3115                      .dwattr $C$DW$198, DW_AT_TI_end_column(0x30)
    3116                      .dwendentry
    3117                      .dwendtag $C$DW$198
    3118              
    3119 00000000               .sect   ".text:__isnanl"
    3120                      .clink
    3121                      .global ||__isnanl||
TMS320C2000 Assembler PC v20.2.4 Tue Mar  2 07:24:45 2021

Copyright (c) 1996-2018 Texas Instruments Incorporated
bts.asm                                                              PAGE   64

    3122              
    3123              $C$DW$203       .dwtag  DW_TAG_subprogram
    3124                      .dwattr $C$DW$203, DW_AT_name("__isnanl")
    3125                      .dwattr $C$DW$203, DW_AT_low_pc(||__isnanl||)
    3126                      .dwattr $C$DW$203, DW_AT_high_pc(0x00)
    3127                      .dwattr $C$DW$203, DW_AT_linkage_name("__isnanl")
    3128                      .dwattr $C$DW$203, DW_AT_external
    3129                      .dwattr $C$DW$203, DW_AT_type(*$C$DW$T$10)
    3130                      .dwattr $C$DW$203, DW_AT_decl_file("C:/ti/ccs1011/ccs/tools/compiler/ti-cgt-c2000_20.2.4.LTS/include/
    3131                      .dwattr $C$DW$203, DW_AT_decl_line(0x15b)
    3132                      .dwattr $C$DW$203, DW_AT_decl_column(0x25)
    3133                      .dwattr $C$DW$203, DW_AT_TI_max_frame_size(-6)
    3134                      .dwpsn  file "C:/ti/ccs1011/ccs/tools/compiler/ti-cgt-c2000_20.2.4.LTS/include/_defs.h",line 348,colu
    3135              
    3136                      .dwfde $C$DW$CIE, ||__isnanl||
    3137              $C$DW$204       .dwtag  DW_TAG_formal_parameter
    3138                      .dwattr $C$DW$204, DW_AT_name("e")
    3139                      .dwattr $C$DW$204, DW_AT_type(*$C$DW$T$125)
    3140                      .dwattr $C$DW$204, DW_AT_location[DW_OP_reg12]
    3141              
    3142              
    3143              ;***************************************************************
    3144              ;* FNAME: __isnanl                      FR SIZE:   4           *
    3145              ;*                                                             *
    3146              ;* FUNCTION ENVIRONMENT                                        *
    3147              ;*                                                             *
    3148              ;* FUNCTION PROPERTIES                                         *
    3149              ;*                            4 Parameter,  0 Auto,  0 SOE     *
    3150              ;***************************************************************
    3151              
    3152              ||__isnanl||:
    3153              ;* AR7   assigned to $O$C2
    3154              ;* AR4   assigned to $O$S1
    3155              ;* AR4   assigned to e
    3156              $C$DW$205       .dwtag  DW_TAG_variable
    3157                      .dwattr $C$DW$205, DW_AT_name("e")
    3158                      .dwattr $C$DW$205, DW_AT_type(*$C$DW$T$126)
    3159                      .dwattr $C$DW$205, DW_AT_location[DW_OP_reg12]
    3160              
    3161                      .dwcfi  cfa_offset, -2
    3162                      .dwcfi  save_reg_to_mem, 26, 0
    3163 00000000 FE04          ADDB      SP,#4                 ; [CPU_ARAU] 
    3164                      .dwcfi  cfa_offset, -6
    3165                      .dwpsn  file "C:/ti/ccs1011/ccs/tools/compiler/ti-cgt-c2000_20.2.4.LTS/include/_defs.h",line 348,colu
    3166 00000001 06D4          MOVL      ACC,*+XAR4[2]         ; [CPU_ALU] |348| 
    3167 00000002 C5C4          MOVL      XAR7,*+XAR4[0]        ; [CPU_ALU] |348| 
    3168 00000003 28AC          MOV       T,#48                 ; [CPU_ALU] |348| 
         00000004 0030 
    3169 00000005 8F40          MOVL      XAR5,#32752           ; [CPU_ARAU] |348| 
         00000006 7FF0 
    3170 00000007 1EA6          MOVL      XAR6,ACC              ; [CPU_ALU] |348| 
    3171 00000008 A3A7          MOVL      P,XAR7                ; [CPU_ALU] |348| 
    3172 00000009 D400          MOVB      XAR4,#0               ; [CPU_ALU] |348| 
    3173 0000000a 565B          LSR64     ACC:P,T               ; [CPU_ALU] |348| 
    3174 0000000b 2BAA          MOV       PH,#0                 ; [CPU_ALU] |348| 
TMS320C2000 Assembler PC v20.2.4 Tue Mar  2 07:24:45 2021

Copyright (c) 1996-2018 Texas Instruments Incorporated
bts.asm                                                              PAGE   65

    3175 0000000c 18AB          AND       PL,#0x7ff0            ; [CPU_ALU] |348| 
         0000000d 7FF0 
    3176 0000000e A0A9          MOVL      ACC,XAR5              ; [CPU_ALU] |348| 
    3177 0000000f 0FAB          CMPL      ACC,P                 ; [CPU_ALU] |348| 
    3178 00000010 6013          B         ||$C$L18||,NEQ        ; [CPU_ALU] |348| 
    3179                      ; branchcc occurs ; [] |348| 
    3180 00000011 06A6          MOVL      ACC,XAR6              ; [CPU_ALU] |348| 
    3181 00000012 A3A7          MOVL      P,XAR7                ; [CPU_ALU] |348| 
    3182 00000013 BE00          MOVB      XAR6,#0               ; [CPU_ALU] |348| 
    3183 00000014 18A9          AND       AL,#65535             ; [CPU_ALU] |348| 
         00000015 FFFF 
    3184 00000016 910F          ANDB      AH,#15                ; [CPU_ALU] |348| 
    3185 00000017 18AB          AND       PL,#65535             ; [CPU_ALU] |348| 
         00000018 FFFF 
    3186 00000019 18AA          AND       PH,#65535             ; [CPU_ALU] |348| 
         0000001a FFFF 
    3187 0000001b C244          MOVL      *-SP[4],XAR6          ; [CPU_FPU] |348| 
    3188 0000001c 2B42          MOV       *-SP[2],#0            ; [CPU_FPU] |348| 
    3189 0000001d 2B41          MOV       *-SP[1],#0            ; [CPU_FPU] |348| 
    3190              $C$DW$206       .dwtag  DW_TAG_TI_branch
    3191                      .dwattr $C$DW$206, DW_AT_low_pc(0x00)
    3192                      .dwattr $C$DW$206, DW_AT_name("__c28xabi_cmpull")
    3193                      .dwattr $C$DW$206, DW_AT_TI_call
    3194              
    3195 0000001e 7640!         LCR       #||__c28xabi_cmpull|| ; [CPU_ALU] |348| 
         0000001f 0000 
    3196                      ; call occurs [#||__c28xabi_cmpull||] ; [] |348| 
    3197 00000020 5200          CMPB      AL,#0                 ; [CPU_ALU] |348| 
    3198 00000021 56B0          MOVB      XAR4,#1,NEQ           ; [CPU_ALU] |348| 
         00000022 01A4 
    3199 00000023       ||$C$L18||:    
    3200 00000023 FE84          SUBB      SP,#4                 ; [CPU_ARAU] 
    3201                      .dwcfi  cfa_offset, -2
    3202 00000024 92A4          MOV       AL,AR4                ; [CPU_ALU] |348| 
    3203              $C$DW$207       .dwtag  DW_TAG_TI_branch
    3204                      .dwattr $C$DW$207, DW_AT_low_pc(0x00)
    3205                      .dwattr $C$DW$207, DW_AT_TI_return
    3206              
    3207 00000025 0006          LRETR     ; [CPU_ALU] 
    3208                      ; return occurs ; [] 
    3209                      .dwattr $C$DW$203, DW_AT_TI_end_file("C:/ti/ccs1011/ccs/tools/compiler/ti-cgt-c2000_20.2.4.LTS/includ
    3210                      .dwattr $C$DW$203, DW_AT_TI_end_line(0x15d)
    3211                      .dwattr $C$DW$203, DW_AT_TI_end_column(0x30)
    3212                      .dwendentry
    3213                      .dwendtag $C$DW$203
    3214              
    3215 00000000               .sect   ".text:__isnanf"
    3216                      .clink
    3217                      .global ||__isnanf||
    3218              
    3219              $C$DW$208       .dwtag  DW_TAG_subprogram
    3220                      .dwattr $C$DW$208, DW_AT_name("__isnanf")
    3221                      .dwattr $C$DW$208, DW_AT_low_pc(||__isnanf||)
    3222                      .dwattr $C$DW$208, DW_AT_high_pc(0x00)
    3223                      .dwattr $C$DW$208, DW_AT_linkage_name("__isnanf")
TMS320C2000 Assembler PC v20.2.4 Tue Mar  2 07:24:45 2021

Copyright (c) 1996-2018 Texas Instruments Incorporated
bts.asm                                                              PAGE   66

    3224                      .dwattr $C$DW$208, DW_AT_external
    3225                      .dwattr $C$DW$208, DW_AT_type(*$C$DW$T$10)
    3226                      .dwattr $C$DW$208, DW_AT_decl_file("C:/ti/ccs1011/ccs/tools/compiler/ti-cgt-c2000_20.2.4.LTS/include/
    3227                      .dwattr $C$DW$208, DW_AT_decl_line(0x158)
    3228                      .dwattr $C$DW$208, DW_AT_decl_column(0x25)
    3229                      .dwattr $C$DW$208, DW_AT_TI_max_frame_size(-2)
    3230                      .dwpsn  file "C:/ti/ccs1011/ccs/tools/compiler/ti-cgt-c2000_20.2.4.LTS/include/_defs.h",line 345,colu
    3231              
    3232                      .dwfde $C$DW$CIE, ||__isnanf||
    3233              $C$DW$209       .dwtag  DW_TAG_formal_parameter
    3234                      .dwattr $C$DW$209, DW_AT_name("f")
    3235                      .dwattr $C$DW$209, DW_AT_type(*$C$DW$T$16)
    3236                      .dwattr $C$DW$209, DW_AT_location[DW_OP_regx 0x2b]
    3237              
    3238              
    3239              ;***************************************************************
    3240              ;* FNAME: __isnanf                      FR SIZE:   0           *
    3241              ;*                                                             *
    3242              ;* FUNCTION ENVIRONMENT                                        *
    3243              ;*                                                             *
    3244              ;* FUNCTION PROPERTIES                                         *
    3245              ;*                            0 Parameter,  0 Auto,  0 SOE     *
    3246              ;***************************************************************
    3247              
    3248              ||__isnanf||:
    3249              ;* PL    assigned to $O$K3
    3250              ;* AR6   assigned to $O$S1
    3251              ;* R0    assigned to f
    3252              $C$DW$210       .dwtag  DW_TAG_variable
    3253                      .dwattr $C$DW$210, DW_AT_name("f")
    3254                      .dwattr $C$DW$210, DW_AT_type(*$C$DW$T$120)
    3255                      .dwattr $C$DW$210, DW_AT_location[DW_OP_regx 0x2b]
    3256              
    3257                      .dwcfi  cfa_offset, -2
    3258                      .dwcfi  save_reg_to_mem, 26, 0
    3259                      .dwpsn  file "C:/ti/ccs1011/ccs/tools/compiler/ti-cgt-c2000_20.2.4.LTS/include/_defs.h",line 345,colu
    3260 00000000 BFAB          MOV32     P,R0H                 ; [CPU_FPU] |345| 
         00000001 0F12 
    3261 00000002 CCAA          AND       AL,PH,#0x7f80         ; [CPU_ALU] |345| 
         00000003 7F80 
    3262 00000004 80A9          MOVZ      AR7,AL                ; [CPU_ALU] |345| 
    3263 00000005 8F00          MOVL      XAR4,#32640           ; [CPU_ARAU] |345| 
         00000006 7F80 
    3264 00000007 BE00          MOVB      XAR6,#0               ; [CPU_ALU] |345| 
    3265 00000008 A8A9          MOVL      ACC,XAR4              ; [CPU_ALU] |345| 
    3266 00000009 0FA7          CMPL      ACC,XAR7              ; [CPU_ALU] |345| 
    3267 0000000a 6006          B         ||$C$L19||,NEQ        ; [CPU_ALU] |345| 
    3268                      ; branchcc occurs ; [] |345| 
    3269 0000000b A9A9          MOVL      ACC,P                 ; [CPU_ALU] |345| 
    3270 0000000c 917F          ANDB      AH,#127               ; [CPU_ALU] |345| 
    3271 0000000d FF58          TEST      ACC                   ; [CPU_ALU] |345| 
    3272 0000000e 56B0          MOVB      XAR6,#1,NEQ           ; [CPU_ALU] |345| 
         0000000f 01A6 
    3273 00000010       ||$C$L19||:    
    3274 00000010 92A6          MOV       AL,AR6                ; [CPU_ALU] |345| 
TMS320C2000 Assembler PC v20.2.4 Tue Mar  2 07:24:45 2021

Copyright (c) 1996-2018 Texas Instruments Incorporated
bts.asm                                                              PAGE   67

    3275              $C$DW$211       .dwtag  DW_TAG_TI_branch
    3276                      .dwattr $C$DW$211, DW_AT_low_pc(0x00)
    3277                      .dwattr $C$DW$211, DW_AT_TI_return
    3278              
    3279 00000011 0006          LRETR     ; [CPU_ALU] 
    3280                      ; return occurs ; [] 
    3281                      .dwattr $C$DW$208, DW_AT_TI_end_file("C:/ti/ccs1011/ccs/tools/compiler/ti-cgt-c2000_20.2.4.LTS/includ
    3282                      .dwattr $C$DW$208, DW_AT_TI_end_line(0x15a)
    3283                      .dwattr $C$DW$208, DW_AT_TI_end_column(0x2e)
    3284                      .dwendentry
    3285                      .dwendtag $C$DW$208
    3286              
    3287 00000000               .sect   ".text:__isnan"
    3288                      .clink
    3289                      .global ||__isnan||
    3290              
    3291              $C$DW$212       .dwtag  DW_TAG_subprogram
    3292                      .dwattr $C$DW$212, DW_AT_name("__isnan")
    3293                      .dwattr $C$DW$212, DW_AT_low_pc(||__isnan||)
    3294                      .dwattr $C$DW$212, DW_AT_high_pc(0x00)
    3295                      .dwattr $C$DW$212, DW_AT_linkage_name("__isnan")
    3296                      .dwattr $C$DW$212, DW_AT_external
    3297                      .dwattr $C$DW$212, DW_AT_type(*$C$DW$T$10)
    3298                      .dwattr $C$DW$212, DW_AT_decl_file("C:/ti/ccs1011/ccs/tools/compiler/ti-cgt-c2000_20.2.4.LTS/include/
    3299                      .dwattr $C$DW$212, DW_AT_decl_line(0x155)
    3300                      .dwattr $C$DW$212, DW_AT_decl_column(0x25)
    3301                      .dwattr $C$DW$212, DW_AT_TI_max_frame_size(-6)
    3302                      .dwpsn  file "C:/ti/ccs1011/ccs/tools/compiler/ti-cgt-c2000_20.2.4.LTS/include/_defs.h",line 342,colu
    3303              
    3304                      .dwfde $C$DW$CIE, ||__isnan||
    3305              $C$DW$213       .dwtag  DW_TAG_formal_parameter
    3306                      .dwattr $C$DW$213, DW_AT_name("d")
    3307                      .dwattr $C$DW$213, DW_AT_type(*$C$DW$T$122)
    3308                      .dwattr $C$DW$213, DW_AT_location[DW_OP_reg12]
    3309              
    3310              
    3311              ;***************************************************************
    3312              ;* FNAME: __isnan                       FR SIZE:   4           *
    3313              ;*                                                             *
    3314              ;* FUNCTION ENVIRONMENT                                        *
    3315              ;*                                                             *
    3316              ;* FUNCTION PROPERTIES                                         *
    3317              ;*                            4 Parameter,  0 Auto,  0 SOE     *
    3318              ;***************************************************************
    3319              
    3320              ||__isnan||:
    3321              ;* AR7   assigned to $O$C2
    3322              ;* AR4   assigned to $O$S1
    3323              ;* AR4   assigned to d
    3324              $C$DW$214       .dwtag  DW_TAG_variable
    3325                      .dwattr $C$DW$214, DW_AT_name("d")
    3326                      .dwattr $C$DW$214, DW_AT_type(*$C$DW$T$123)
    3327                      .dwattr $C$DW$214, DW_AT_location[DW_OP_reg12]
    3328              
    3329                      .dwcfi  cfa_offset, -2
TMS320C2000 Assembler PC v20.2.4 Tue Mar  2 07:24:45 2021

Copyright (c) 1996-2018 Texas Instruments Incorporated
bts.asm                                                              PAGE   68

    3330                      .dwcfi  save_reg_to_mem, 26, 0
    3331 00000000 FE04          ADDB      SP,#4                 ; [CPU_ARAU] 
    3332                      .dwcfi  cfa_offset, -6
    3333                      .dwpsn  file "C:/ti/ccs1011/ccs/tools/compiler/ti-cgt-c2000_20.2.4.LTS/include/_defs.h",line 342,colu
    3334 00000001 06D4          MOVL      ACC,*+XAR4[2]         ; [CPU_ALU] |342| 
    3335 00000002 C5C4          MOVL      XAR7,*+XAR4[0]        ; [CPU_ALU] |342| 
    3336 00000003 28AC          MOV       T,#48                 ; [CPU_ALU] |342| 
         00000004 0030 
    3337 00000005 8F40          MOVL      XAR5,#32752           ; [CPU_ARAU] |342| 
         00000006 7FF0 
    3338 00000007 1EA6          MOVL      XAR6,ACC              ; [CPU_ALU] |342| 
    3339 00000008 A3A7          MOVL      P,XAR7                ; [CPU_ALU] |342| 
    3340 00000009 D400          MOVB      XAR4,#0               ; [CPU_ALU] |342| 
    3341 0000000a 565B          LSR64     ACC:P,T               ; [CPU_ALU] |342| 
    3342 0000000b 2BAA          MOV       PH,#0                 ; [CPU_ALU] |342| 
    3343 0000000c 18AB          AND       PL,#0x7ff0            ; [CPU_ALU] |342| 
         0000000d 7FF0 
    3344 0000000e A0A9          MOVL      ACC,XAR5              ; [CPU_ALU] |342| 
    3345 0000000f 0FAB          CMPL      ACC,P                 ; [CPU_ALU] |342| 
    3346 00000010 6013          B         ||$C$L20||,NEQ        ; [CPU_ALU] |342| 
    3347                      ; branchcc occurs ; [] |342| 
    3348 00000011 06A6          MOVL      ACC,XAR6              ; [CPU_ALU] |342| 
    3349 00000012 A3A7          MOVL      P,XAR7                ; [CPU_ALU] |342| 
    3350 00000013 BE00          MOVB      XAR6,#0               ; [CPU_ALU] |342| 
    3351 00000014 18A9          AND       AL,#65535             ; [CPU_ALU] |342| 
         00000015 FFFF 
    3352 00000016 910F          ANDB      AH,#15                ; [CPU_ALU] |342| 
    3353 00000017 18AB          AND       PL,#65535             ; [CPU_ALU] |342| 
         00000018 FFFF 
    3354 00000019 18AA          AND       PH,#65535             ; [CPU_ALU] |342| 
         0000001a FFFF 
    3355 0000001b C244          MOVL      *-SP[4],XAR6          ; [CPU_FPU] |342| 
    3356 0000001c 2B42          MOV       *-SP[2],#0            ; [CPU_FPU] |342| 
    3357 0000001d 2B41          MOV       *-SP[1],#0            ; [CPU_FPU] |342| 
    3358              $C$DW$215       .dwtag  DW_TAG_TI_branch
    3359                      .dwattr $C$DW$215, DW_AT_low_pc(0x00)
    3360                      .dwattr $C$DW$215, DW_AT_name("__c28xabi_cmpull")
    3361                      .dwattr $C$DW$215, DW_AT_TI_call
    3362              
    3363 0000001e 7640!         LCR       #||__c28xabi_cmpull|| ; [CPU_ALU] |342| 
         0000001f 0000 
    3364                      ; call occurs [#||__c28xabi_cmpull||] ; [] |342| 
    3365 00000020 5200          CMPB      AL,#0                 ; [CPU_ALU] |342| 
    3366 00000021 56B0          MOVB      XAR4,#1,NEQ           ; [CPU_ALU] |342| 
         00000022 01A4 
    3367 00000023       ||$C$L20||:    
    3368 00000023 FE84          SUBB      SP,#4                 ; [CPU_ARAU] 
    3369                      .dwcfi  cfa_offset, -2
    3370 00000024 92A4          MOV       AL,AR4                ; [CPU_ALU] |342| 
    3371              $C$DW$216       .dwtag  DW_TAG_TI_branch
    3372                      .dwattr $C$DW$216, DW_AT_low_pc(0x00)
    3373                      .dwattr $C$DW$216, DW_AT_TI_return
    3374              
    3375 00000025 0006          LRETR     ; [CPU_ALU] 
    3376                      ; return occurs ; [] 
TMS320C2000 Assembler PC v20.2.4 Tue Mar  2 07:24:45 2021

Copyright (c) 1996-2018 Texas Instruments Incorporated
bts.asm                                                              PAGE   69

    3377                      .dwattr $C$DW$212, DW_AT_TI_end_file("C:/ti/ccs1011/ccs/tools/compiler/ti-cgt-c2000_20.2.4.LTS/includ
    3378                      .dwattr $C$DW$212, DW_AT_TI_end_line(0x157)
    3379                      .dwattr $C$DW$212, DW_AT_TI_end_column(0x2f)
    3380                      .dwendentry
    3381                      .dwendtag $C$DW$212
    3382              
    3383 00000000               .sect   ".text:__isinfl"
    3384                      .clink
    3385                      .global ||__isinfl||
    3386              
    3387              $C$DW$217       .dwtag  DW_TAG_subprogram
    3388                      .dwattr $C$DW$217, DW_AT_name("__isinfl")
    3389                      .dwattr $C$DW$217, DW_AT_low_pc(||__isinfl||)
    3390                      .dwattr $C$DW$217, DW_AT_high_pc(0x00)
    3391                      .dwattr $C$DW$217, DW_AT_linkage_name("__isinfl")
    3392                      .dwattr $C$DW$217, DW_AT_external
    3393                      .dwattr $C$DW$217, DW_AT_type(*$C$DW$T$10)
    3394                      .dwattr $C$DW$217, DW_AT_decl_file("C:/ti/ccs1011/ccs/tools/compiler/ti-cgt-c2000_20.2.4.LTS/include/
    3395                      .dwattr $C$DW$217, DW_AT_decl_line(0x17a)
    3396                      .dwattr $C$DW$217, DW_AT_decl_column(0x25)
    3397                      .dwattr $C$DW$217, DW_AT_TI_max_frame_size(-6)
    3398                      .dwpsn  file "C:/ti/ccs1011/ccs/tools/compiler/ti-cgt-c2000_20.2.4.LTS/include/_defs.h",line 379,colu
    3399              
    3400                      .dwfde $C$DW$CIE, ||__isinfl||
    3401              $C$DW$218       .dwtag  DW_TAG_formal_parameter
    3402                      .dwattr $C$DW$218, DW_AT_name("e")
    3403                      .dwattr $C$DW$218, DW_AT_type(*$C$DW$T$125)
    3404                      .dwattr $C$DW$218, DW_AT_location[DW_OP_reg12]
    3405              
    3406              
    3407              ;***************************************************************
    3408              ;* FNAME: __isinfl                      FR SIZE:   4           *
    3409              ;*                                                             *
    3410              ;* FUNCTION ENVIRONMENT                                        *
    3411              ;*                                                             *
    3412              ;* FUNCTION PROPERTIES                                         *
    3413              ;*                            4 Parameter,  0 Auto,  0 SOE     *
    3414              ;***************************************************************
    3415              
    3416              ||__isinfl||:
    3417              ;* AR7   assigned to $O$C2
    3418              ;* AR4   assigned to $O$S1
    3419              ;* AR4   assigned to e
    3420              $C$DW$219       .dwtag  DW_TAG_variable
    3421                      .dwattr $C$DW$219, DW_AT_name("e")
    3422                      .dwattr $C$DW$219, DW_AT_type(*$C$DW$T$126)
    3423                      .dwattr $C$DW$219, DW_AT_location[DW_OP_reg12]
    3424              
    3425                      .dwcfi  cfa_offset, -2
    3426                      .dwcfi  save_reg_to_mem, 26, 0
    3427 00000000 FE04          ADDB      SP,#4                 ; [CPU_ARAU] 
    3428                      .dwcfi  cfa_offset, -6
    3429                      .dwpsn  file "C:/ti/ccs1011/ccs/tools/compiler/ti-cgt-c2000_20.2.4.LTS/include/_defs.h",line 379,colu
    3430 00000001 06D4          MOVL      ACC,*+XAR4[2]         ; [CPU_ALU] |379| 
    3431 00000002 C5C4          MOVL      XAR7,*+XAR4[0]        ; [CPU_ALU] |379| 
TMS320C2000 Assembler PC v20.2.4 Tue Mar  2 07:24:45 2021

Copyright (c) 1996-2018 Texas Instruments Incorporated
bts.asm                                                              PAGE   70

    3432 00000003 28AC          MOV       T,#48                 ; [CPU_ALU] |379| 
         00000004 0030 
    3433 00000005 8F40          MOVL      XAR5,#32752           ; [CPU_ARAU] |379| 
         00000006 7FF0 
    3434 00000007 1EA6          MOVL      XAR6,ACC              ; [CPU_ALU] |379| 
    3435 00000008 A3A7          MOVL      P,XAR7                ; [CPU_ALU] |379| 
    3436 00000009 D400          MOVB      XAR4,#0               ; [CPU_ALU] |379| 
    3437 0000000a 565B          LSR64     ACC:P,T               ; [CPU_ALU] |379| 
    3438 0000000b 2BAA          MOV       PH,#0                 ; [CPU_ALU] |379| 
    3439 0000000c 18AB          AND       PL,#0x7ff0            ; [CPU_ALU] |379| 
         0000000d 7FF0 
    3440 0000000e A0A9          MOVL      ACC,XAR5              ; [CPU_ALU] |379| 
    3441 0000000f 0FAB          CMPL      ACC,P                 ; [CPU_ALU] |379| 
    3442 00000010 6013          B         ||$C$L21||,NEQ        ; [CPU_ALU] |379| 
    3443                      ; branchcc occurs ; [] |379| 
    3444 00000011 06A6          MOVL      ACC,XAR6              ; [CPU_ALU] |379| 
    3445 00000012 A3A7          MOVL      P,XAR7                ; [CPU_ALU] |379| 
    3446 00000013 BE00          MOVB      XAR6,#0               ; [CPU_ALU] |379| 
    3447 00000014 18A9          AND       AL,#65535             ; [CPU_ALU] |379| 
         00000015 FFFF 
    3448 00000016 910F          ANDB      AH,#15                ; [CPU_ALU] |379| 
    3449 00000017 18AB          AND       PL,#65535             ; [CPU_ALU] |379| 
         00000018 FFFF 
    3450 00000019 18AA          AND       PH,#65535             ; [CPU_ALU] |379| 
         0000001a FFFF 
    3451 0000001b C244          MOVL      *-SP[4],XAR6          ; [CPU_FPU] |379| 
    3452 0000001c 2B42          MOV       *-SP[2],#0            ; [CPU_FPU] |379| 
    3453 0000001d 2B41          MOV       *-SP[1],#0            ; [CPU_FPU] |379| 
    3454              $C$DW$220       .dwtag  DW_TAG_TI_branch
    3455                      .dwattr $C$DW$220, DW_AT_low_pc(0x00)
    3456                      .dwattr $C$DW$220, DW_AT_name("__c28xabi_cmpull")
    3457                      .dwattr $C$DW$220, DW_AT_TI_call
    3458              
    3459 0000001e 7640!         LCR       #||__c28xabi_cmpull|| ; [CPU_ALU] |379| 
         0000001f 0000 
    3460                      ; call occurs [#||__c28xabi_cmpull||] ; [] |379| 
    3461 00000020 5200          CMPB      AL,#0                 ; [CPU_ALU] |379| 
    3462 00000021 56B1          MOVB      XAR4,#1,EQ            ; [CPU_ALU] |379| 
         00000022 01A4 
    3463 00000023       ||$C$L21||:    
    3464 00000023 FE84          SUBB      SP,#4                 ; [CPU_ARAU] 
    3465                      .dwcfi  cfa_offset, -2
    3466 00000024 92A4          MOV       AL,AR4                ; [CPU_ALU] |379| 
    3467              $C$DW$221       .dwtag  DW_TAG_TI_branch
    3468                      .dwattr $C$DW$221, DW_AT_low_pc(0x00)
    3469                      .dwattr $C$DW$221, DW_AT_TI_return
    3470              
    3471 00000025 0006          LRETR     ; [CPU_ALU] 
    3472                      ; return occurs ; [] 
    3473                      .dwattr $C$DW$217, DW_AT_TI_end_file("C:/ti/ccs1011/ccs/tools/compiler/ti-cgt-c2000_20.2.4.LTS/includ
    3474                      .dwattr $C$DW$217, DW_AT_TI_end_line(0x17b)
    3475                      .dwattr $C$DW$217, DW_AT_TI_end_column(0x4c)
    3476                      .dwendentry
    3477                      .dwendtag $C$DW$217
    3478              
TMS320C2000 Assembler PC v20.2.4 Tue Mar  2 07:24:45 2021

Copyright (c) 1996-2018 Texas Instruments Incorporated
bts.asm                                                              PAGE   71

    3479 00000000               .sect   ".text:__isinff"
    3480                      .clink
    3481                      .global ||__isinff||
    3482              
    3483              $C$DW$222       .dwtag  DW_TAG_subprogram
    3484                      .dwattr $C$DW$222, DW_AT_name("__isinff")
    3485                      .dwattr $C$DW$222, DW_AT_low_pc(||__isinff||)
    3486                      .dwattr $C$DW$222, DW_AT_high_pc(0x00)
    3487                      .dwattr $C$DW$222, DW_AT_linkage_name("__isinff")
    3488                      .dwattr $C$DW$222, DW_AT_external
    3489                      .dwattr $C$DW$222, DW_AT_type(*$C$DW$T$10)
    3490                      .dwattr $C$DW$222, DW_AT_decl_file("C:/ti/ccs1011/ccs/tools/compiler/ti-cgt-c2000_20.2.4.LTS/include/
    3491                      .dwattr $C$DW$222, DW_AT_decl_line(0x176)
    3492                      .dwattr $C$DW$222, DW_AT_decl_column(0x25)
    3493                      .dwattr $C$DW$222, DW_AT_TI_max_frame_size(-2)
    3494                      .dwpsn  file "C:/ti/ccs1011/ccs/tools/compiler/ti-cgt-c2000_20.2.4.LTS/include/_defs.h",line 375,colu
    3495              
    3496                      .dwfde $C$DW$CIE, ||__isinff||
    3497              $C$DW$223       .dwtag  DW_TAG_formal_parameter
    3498                      .dwattr $C$DW$223, DW_AT_name("f")
    3499                      .dwattr $C$DW$223, DW_AT_type(*$C$DW$T$16)
    3500                      .dwattr $C$DW$223, DW_AT_location[DW_OP_regx 0x2b]
    3501              
    3502              
    3503              ;***************************************************************
    3504              ;* FNAME: __isinff                      FR SIZE:   0           *
    3505              ;*                                                             *
    3506              ;* FUNCTION ENVIRONMENT                                        *
    3507              ;*                                                             *
    3508              ;* FUNCTION PROPERTIES                                         *
    3509              ;*                            0 Parameter,  0 Auto,  0 SOE     *
    3510              ;***************************************************************
    3511              
    3512              ||__isinff||:
    3513              ;* PL    assigned to $O$K3
    3514              ;* AR6   assigned to $O$S1
    3515              ;* R0    assigned to f
    3516              $C$DW$224       .dwtag  DW_TAG_variable
    3517                      .dwattr $C$DW$224, DW_AT_name("f")
    3518                      .dwattr $C$DW$224, DW_AT_type(*$C$DW$T$120)
    3519                      .dwattr $C$DW$224, DW_AT_location[DW_OP_regx 0x2b]
    3520              
    3521                      .dwcfi  cfa_offset, -2
    3522                      .dwcfi  save_reg_to_mem, 26, 0
    3523                      .dwpsn  file "C:/ti/ccs1011/ccs/tools/compiler/ti-cgt-c2000_20.2.4.LTS/include/_defs.h",line 375,colu
    3524 00000000 BFAB          MOV32     P,R0H                 ; [CPU_FPU] |375| 
         00000001 0F12 
    3525 00000002 CCAA          AND       AL,PH,#0x7f80         ; [CPU_ALU] |375| 
         00000003 7F80 
    3526 00000004 80A9          MOVZ      AR7,AL                ; [CPU_ALU] |375| 
    3527 00000005 8F00          MOVL      XAR4,#32640           ; [CPU_ARAU] |375| 
         00000006 7F80 
    3528 00000007 BE00          MOVB      XAR6,#0               ; [CPU_ALU] |375| 
    3529 00000008 A8A9          MOVL      ACC,XAR4              ; [CPU_ALU] |375| 
    3530 00000009 0FA7          CMPL      ACC,XAR7              ; [CPU_ALU] |375| 
TMS320C2000 Assembler PC v20.2.4 Tue Mar  2 07:24:45 2021

Copyright (c) 1996-2018 Texas Instruments Incorporated
bts.asm                                                              PAGE   72

    3531 0000000a 6006          B         ||$C$L22||,NEQ        ; [CPU_ALU] |375| 
    3532                      ; branchcc occurs ; [] |375| 
    3533 0000000b A9A9          MOVL      ACC,P                 ; [CPU_ALU] |375| 
    3534 0000000c 917F          ANDB      AH,#127               ; [CPU_ALU] |375| 
    3535 0000000d FF58          TEST      ACC                   ; [CPU_ALU] |375| 
    3536 0000000e 56B1          MOVB      XAR6,#1,EQ            ; [CPU_ALU] |375| 
         0000000f 01A6 
    3537 00000010       ||$C$L22||:    
    3538 00000010 92A6          MOV       AL,AR6                ; [CPU_ALU] |375| 
    3539              $C$DW$225       .dwtag  DW_TAG_TI_branch
    3540                      .dwattr $C$DW$225, DW_AT_low_pc(0x00)
    3541                      .dwattr $C$DW$225, DW_AT_TI_return
    3542              
    3543 00000011 0006          LRETR     ; [CPU_ALU] 
    3544                      ; return occurs ; [] 
    3545                      .dwattr $C$DW$222, DW_AT_TI_end_file("C:/ti/ccs1011/ccs/tools/compiler/ti-cgt-c2000_20.2.4.LTS/includ
    3546                      .dwattr $C$DW$222, DW_AT_TI_end_line(0x177)
    3547                      .dwattr $C$DW$222, DW_AT_TI_end_column(0x48)
    3548                      .dwendentry
    3549                      .dwendtag $C$DW$222
    3550              
    3551 00000000               .sect   ".text:__isinf"
    3552                      .clink
    3553                      .global ||__isinf||
    3554              
    3555              $C$DW$226       .dwtag  DW_TAG_subprogram
    3556                      .dwattr $C$DW$226, DW_AT_name("__isinf")
    3557                      .dwattr $C$DW$226, DW_AT_low_pc(||__isinf||)
    3558                      .dwattr $C$DW$226, DW_AT_high_pc(0x00)
    3559                      .dwattr $C$DW$226, DW_AT_linkage_name("__isinf")
    3560                      .dwattr $C$DW$226, DW_AT_external
    3561                      .dwattr $C$DW$226, DW_AT_type(*$C$DW$T$10)
    3562                      .dwattr $C$DW$226, DW_AT_decl_file("C:/ti/ccs1011/ccs/tools/compiler/ti-cgt-c2000_20.2.4.LTS/include/
    3563                      .dwattr $C$DW$226, DW_AT_decl_line(0x178)
    3564                      .dwattr $C$DW$226, DW_AT_decl_column(0x25)
    3565                      .dwattr $C$DW$226, DW_AT_TI_max_frame_size(-6)
    3566                      .dwpsn  file "C:/ti/ccs1011/ccs/tools/compiler/ti-cgt-c2000_20.2.4.LTS/include/_defs.h",line 377,colu
    3567              
    3568                      .dwfde $C$DW$CIE, ||__isinf||
    3569              $C$DW$227       .dwtag  DW_TAG_formal_parameter
    3570                      .dwattr $C$DW$227, DW_AT_name("d")
    3571                      .dwattr $C$DW$227, DW_AT_type(*$C$DW$T$122)
    3572                      .dwattr $C$DW$227, DW_AT_location[DW_OP_reg12]
    3573              
    3574              
    3575              ;***************************************************************
    3576              ;* FNAME: __isinf                       FR SIZE:   4           *
    3577              ;*                                                             *
    3578              ;* FUNCTION ENVIRONMENT                                        *
    3579              ;*                                                             *
    3580              ;* FUNCTION PROPERTIES                                         *
    3581              ;*                            4 Parameter,  0 Auto,  0 SOE     *
    3582              ;***************************************************************
    3583              
    3584              ||__isinf||:
TMS320C2000 Assembler PC v20.2.4 Tue Mar  2 07:24:45 2021

Copyright (c) 1996-2018 Texas Instruments Incorporated
bts.asm                                                              PAGE   73

    3585              ;* AR7   assigned to $O$C2
    3586              ;* AR4   assigned to $O$S1
    3587              ;* AR4   assigned to d
    3588              $C$DW$228       .dwtag  DW_TAG_variable
    3589                      .dwattr $C$DW$228, DW_AT_name("d")
    3590                      .dwattr $C$DW$228, DW_AT_type(*$C$DW$T$123)
    3591                      .dwattr $C$DW$228, DW_AT_location[DW_OP_reg12]
    3592              
    3593                      .dwcfi  cfa_offset, -2
    3594                      .dwcfi  save_reg_to_mem, 26, 0
    3595 00000000 FE04          ADDB      SP,#4                 ; [CPU_ARAU] 
    3596                      .dwcfi  cfa_offset, -6
    3597                      .dwpsn  file "C:/ti/ccs1011/ccs/tools/compiler/ti-cgt-c2000_20.2.4.LTS/include/_defs.h",line 377,colu
    3598 00000001 06D4          MOVL      ACC,*+XAR4[2]         ; [CPU_ALU] |377| 
    3599 00000002 C5C4          MOVL      XAR7,*+XAR4[0]        ; [CPU_ALU] |377| 
    3600 00000003 28AC          MOV       T,#48                 ; [CPU_ALU] |377| 
         00000004 0030 
    3601 00000005 8F40          MOVL      XAR5,#32752           ; [CPU_ARAU] |377| 
         00000006 7FF0 
    3602 00000007 1EA6          MOVL      XAR6,ACC              ; [CPU_ALU] |377| 
    3603 00000008 A3A7          MOVL      P,XAR7                ; [CPU_ALU] |377| 
    3604 00000009 D400          MOVB      XAR4,#0               ; [CPU_ALU] |377| 
    3605 0000000a 565B          LSR64     ACC:P,T               ; [CPU_ALU] |377| 
    3606 0000000b 2BAA          MOV       PH,#0                 ; [CPU_ALU] |377| 
    3607 0000000c 18AB          AND       PL,#0x7ff0            ; [CPU_ALU] |377| 
         0000000d 7FF0 
    3608 0000000e A0A9          MOVL      ACC,XAR5              ; [CPU_ALU] |377| 
    3609 0000000f 0FAB          CMPL      ACC,P                 ; [CPU_ALU] |377| 
    3610 00000010 6013          B         ||$C$L23||,NEQ        ; [CPU_ALU] |377| 
    3611                      ; branchcc occurs ; [] |377| 
    3612 00000011 06A6          MOVL      ACC,XAR6              ; [CPU_ALU] |377| 
    3613 00000012 A3A7          MOVL      P,XAR7                ; [CPU_ALU] |377| 
    3614 00000013 BE00          MOVB      XAR6,#0               ; [CPU_ALU] |377| 
    3615 00000014 18A9          AND       AL,#65535             ; [CPU_ALU] |377| 
         00000015 FFFF 
    3616 00000016 910F          ANDB      AH,#15                ; [CPU_ALU] |377| 
    3617 00000017 18AB          AND       PL,#65535             ; [CPU_ALU] |377| 
         00000018 FFFF 
    3618 00000019 18AA          AND       PH,#65535             ; [CPU_ALU] |377| 
         0000001a FFFF 
    3619 0000001b C244          MOVL      *-SP[4],XAR6          ; [CPU_FPU] |377| 
    3620 0000001c 2B42          MOV       *-SP[2],#0            ; [CPU_FPU] |377| 
    3621 0000001d 2B41          MOV       *-SP[1],#0            ; [CPU_FPU] |377| 
    3622              $C$DW$229       .dwtag  DW_TAG_TI_branch
    3623                      .dwattr $C$DW$229, DW_AT_low_pc(0x00)
    3624                      .dwattr $C$DW$229, DW_AT_name("__c28xabi_cmpull")
    3625                      .dwattr $C$DW$229, DW_AT_TI_call
    3626              
    3627 0000001e 7640!         LCR       #||__c28xabi_cmpull|| ; [CPU_ALU] |377| 
         0000001f 0000 
    3628                      ; call occurs [#||__c28xabi_cmpull||] ; [] |377| 
    3629 00000020 5200          CMPB      AL,#0                 ; [CPU_ALU] |377| 
    3630 00000021 56B1          MOVB      XAR4,#1,EQ            ; [CPU_ALU] |377| 
         00000022 01A4 
    3631 00000023       ||$C$L23||:    
TMS320C2000 Assembler PC v20.2.4 Tue Mar  2 07:24:45 2021

Copyright (c) 1996-2018 Texas Instruments Incorporated
bts.asm                                                              PAGE   74

    3632 00000023 FE84          SUBB      SP,#4                 ; [CPU_ARAU] 
    3633                      .dwcfi  cfa_offset, -2
    3634 00000024 92A4          MOV       AL,AR4                ; [CPU_ALU] |377| 
    3635              $C$DW$230       .dwtag  DW_TAG_TI_branch
    3636                      .dwattr $C$DW$230, DW_AT_low_pc(0x00)
    3637                      .dwattr $C$DW$230, DW_AT_TI_return
    3638              
    3639 00000025 0006          LRETR     ; [CPU_ALU] 
    3640                      ; return occurs ; [] 
    3641                      .dwattr $C$DW$226, DW_AT_TI_end_file("C:/ti/ccs1011/ccs/tools/compiler/ti-cgt-c2000_20.2.4.LTS/includ
    3642                      .dwattr $C$DW$226, DW_AT_TI_end_line(0x179)
    3643                      .dwattr $C$DW$226, DW_AT_TI_end_column(0x4a)
    3644                      .dwendentry
    3645                      .dwendtag $C$DW$226
    3646              
    3647 00000000               .sect   ".text:__isfinitel"
    3648                      .clink
    3649                      .global ||__isfinitel||
    3650              
    3651              $C$DW$231       .dwtag  DW_TAG_subprogram
    3652                      .dwattr $C$DW$231, DW_AT_name("__isfinitel")
    3653                      .dwattr $C$DW$231, DW_AT_low_pc(||__isfinitel||)
    3654                      .dwattr $C$DW$231, DW_AT_high_pc(0x00)
    3655                      .dwattr $C$DW$231, DW_AT_linkage_name("__isfinitel")
    3656                      .dwattr $C$DW$231, DW_AT_external
    3657                      .dwattr $C$DW$231, DW_AT_type(*$C$DW$T$10)
    3658                      .dwattr $C$DW$231, DW_AT_decl_file("C:/ti/ccs1011/ccs/tools/compiler/ti-cgt-c2000_20.2.4.LTS/include/
    3659                      .dwattr $C$DW$231, DW_AT_decl_line(0x152)
    3660                      .dwattr $C$DW$231, DW_AT_decl_column(0x25)
    3661                      .dwattr $C$DW$231, DW_AT_TI_max_frame_size(-2)
    3662                      .dwpsn  file "C:/ti/ccs1011/ccs/tools/compiler/ti-cgt-c2000_20.2.4.LTS/include/_defs.h",line 339,colu
    3663              
    3664                      .dwfde $C$DW$CIE, ||__isfinitel||
    3665              $C$DW$232       .dwtag  DW_TAG_formal_parameter
    3666                      .dwattr $C$DW$232, DW_AT_name("e")
    3667                      .dwattr $C$DW$232, DW_AT_type(*$C$DW$T$125)
    3668                      .dwattr $C$DW$232, DW_AT_location[DW_OP_reg12]
    3669              
    3670              
    3671              ;***************************************************************
    3672              ;* FNAME: __isfinitel                   FR SIZE:   0           *
    3673              ;*                                                             *
    3674              ;* FUNCTION ENVIRONMENT                                        *
    3675              ;*                                                             *
    3676              ;* FUNCTION PROPERTIES                                         *
    3677              ;*                            0 Parameter,  0 Auto,  0 SOE     *
    3678              ;***************************************************************
    3679              
    3680              ||__isfinitel||:
    3681              ;* AR4   assigned to e
    3682              $C$DW$233       .dwtag  DW_TAG_variable
    3683                      .dwattr $C$DW$233, DW_AT_name("e")
    3684                      .dwattr $C$DW$233, DW_AT_type(*$C$DW$T$126)
    3685                      .dwattr $C$DW$233, DW_AT_location[DW_OP_reg12]
    3686              
TMS320C2000 Assembler PC v20.2.4 Tue Mar  2 07:24:45 2021

Copyright (c) 1996-2018 Texas Instruments Incorporated
bts.asm                                                              PAGE   75

    3687                      .dwcfi  cfa_offset, -2
    3688                      .dwcfi  save_reg_to_mem, 26, 0
    3689                      .dwpsn  file "C:/ti/ccs1011/ccs/tools/compiler/ti-cgt-c2000_20.2.4.LTS/include/_defs.h",line 339,colu
    3690 00000000 A3C4          MOVL      P,*+XAR4[0]           ; [CPU_ALU] |339| 
    3691 00000001 06D4          MOVL      ACC,*+XAR4[2]         ; [CPU_ALU] |339| 
    3692 00000002 28AC          MOV       T,#48                 ; [CPU_ALU] |339| 
         00000003 0030 
    3693 00000004 565B          LSR64     ACC:P,T               ; [CPU_ALU] |339| 
    3694 00000005 18AB          AND       PL,#0x7ff0            ; [CPU_ALU] |339| 
         00000006 7FF0 
    3695 00000007 80AB          MOVZ      AR7,PL                ; [CPU_ALU] |339| 
    3696 00000008 8F00          MOVL      XAR4,#32752           ; [CPU_ARAU] |339| 
         00000009 7FF0 
    3697 0000000a BE00          MOVB      XAR6,#0               ; [CPU_ALU] |339| 
    3698 0000000b A8A9          MOVL      ACC,XAR4              ; [CPU_ALU] |339| 
    3699 0000000c 0FA7          CMPL      ACC,XAR7              ; [CPU_ALU] |339| 
    3700 0000000d 56B0          MOVB      XAR6,#1,NEQ           ; [CPU_ALU] |339| 
         0000000e 01A6 
    3701 0000000f 92A6          MOV       AL,AR6                ; [CPU_ALU] |339| 
    3702              $C$DW$234       .dwtag  DW_TAG_TI_branch
    3703                      .dwattr $C$DW$234, DW_AT_low_pc(0x00)
    3704                      .dwattr $C$DW$234, DW_AT_TI_return
    3705              
    3706 00000010 0006          LRETR     ; [CPU_ALU] 
    3707                      ; return occurs ; [] 
    3708                      .dwattr $C$DW$231, DW_AT_TI_end_file("C:/ti/ccs1011/ccs/tools/compiler/ti-cgt-c2000_20.2.4.LTS/includ
    3709                      .dwattr $C$DW$231, DW_AT_TI_end_line(0x153)
    3710                      .dwattr $C$DW$231, DW_AT_TI_end_column(0x2f)
    3711                      .dwendentry
    3712                      .dwendtag $C$DW$231
    3713              
    3714 00000000               .sect   ".text:__isfinitef"
    3715                      .clink
    3716                      .global ||__isfinitef||
    3717              
    3718              $C$DW$235       .dwtag  DW_TAG_subprogram
    3719                      .dwattr $C$DW$235, DW_AT_name("__isfinitef")
    3720                      .dwattr $C$DW$235, DW_AT_low_pc(||__isfinitef||)
    3721                      .dwattr $C$DW$235, DW_AT_high_pc(0x00)
    3722                      .dwattr $C$DW$235, DW_AT_linkage_name("__isfinitef")
    3723                      .dwattr $C$DW$235, DW_AT_external
    3724                      .dwattr $C$DW$235, DW_AT_type(*$C$DW$T$10)
    3725                      .dwattr $C$DW$235, DW_AT_decl_file("C:/ti/ccs1011/ccs/tools/compiler/ti-cgt-c2000_20.2.4.LTS/include/
    3726                      .dwattr $C$DW$235, DW_AT_decl_line(0x150)
    3727                      .dwattr $C$DW$235, DW_AT_decl_column(0x25)
    3728                      .dwattr $C$DW$235, DW_AT_TI_max_frame_size(-2)
    3729                      .dwpsn  file "C:/ti/ccs1011/ccs/tools/compiler/ti-cgt-c2000_20.2.4.LTS/include/_defs.h",line 337,colu
    3730              
    3731                      .dwfde $C$DW$CIE, ||__isfinitef||
    3732              $C$DW$236       .dwtag  DW_TAG_formal_parameter
    3733                      .dwattr $C$DW$236, DW_AT_name("f")
    3734                      .dwattr $C$DW$236, DW_AT_type(*$C$DW$T$16)
    3735                      .dwattr $C$DW$236, DW_AT_location[DW_OP_regx 0x2b]
    3736              
    3737              
TMS320C2000 Assembler PC v20.2.4 Tue Mar  2 07:24:45 2021

Copyright (c) 1996-2018 Texas Instruments Incorporated
bts.asm                                                              PAGE   76

    3738              ;***************************************************************
    3739              ;* FNAME: __isfinitef                   FR SIZE:   0           *
    3740              ;*                                                             *
    3741              ;* FUNCTION ENVIRONMENT                                        *
    3742              ;*                                                             *
    3743              ;* FUNCTION PROPERTIES                                         *
    3744              ;*                            0 Parameter,  0 Auto,  0 SOE     *
    3745              ;***************************************************************
    3746              
    3747              ||__isfinitef||:
    3748              ;* R0    assigned to f
    3749              $C$DW$237       .dwtag  DW_TAG_variable
    3750                      .dwattr $C$DW$237, DW_AT_name("f")
    3751                      .dwattr $C$DW$237, DW_AT_type(*$C$DW$T$120)
    3752                      .dwattr $C$DW$237, DW_AT_location[DW_OP_regx 0x2b]
    3753              
    3754                      .dwcfi  cfa_offset, -2
    3755                      .dwcfi  save_reg_to_mem, 26, 0
    3756                      .dwpsn  file "C:/ti/ccs1011/ccs/tools/compiler/ti-cgt-c2000_20.2.4.LTS/include/_defs.h",line 337,colu
    3757 00000000 BFA9          MOV32     ACC,R0H               ; [CPU_FPU] |337| 
         00000001 0F12 
    3758 00000002 18A8          AND       AH,#0x7f80            ; [CPU_ALU] |337| 
         00000003 7F80 
    3759 00000004 80A8          MOVZ      AR7,AH                ; [CPU_ALU] |337| 
    3760 00000005 8F00          MOVL      XAR4,#32640           ; [CPU_ARAU] |337| 
         00000006 7F80 
    3761 00000007 BE00          MOVB      XAR6,#0               ; [CPU_ALU] |337| 
    3762 00000008 A8A9          MOVL      ACC,XAR4              ; [CPU_ALU] |337| 
    3763 00000009 0FA7          CMPL      ACC,XAR7              ; [CPU_ALU] |337| 
    3764 0000000a 56B0          MOVB      XAR6,#1,NEQ           ; [CPU_ALU] |337| 
         0000000b 01A6 
    3765 0000000c 92A6          MOV       AL,AR6                ; [CPU_ALU] |337| 
    3766              $C$DW$238       .dwtag  DW_TAG_TI_branch
    3767                      .dwattr $C$DW$238, DW_AT_low_pc(0x00)
    3768                      .dwattr $C$DW$238, DW_AT_TI_return
    3769              
    3770 0000000d 0006          LRETR     ; [CPU_ALU] 
    3771                      ; return occurs ; [] 
    3772                      .dwattr $C$DW$235, DW_AT_TI_end_file("C:/ti/ccs1011/ccs/tools/compiler/ti-cgt-c2000_20.2.4.LTS/includ
    3773                      .dwattr $C$DW$235, DW_AT_TI_end_line(0x151)
    3774                      .dwattr $C$DW$235, DW_AT_TI_end_column(0x2d)
    3775                      .dwendentry
    3776                      .dwendtag $C$DW$235
    3777              
    3778 00000000               .sect   ".text:__isfinite"
    3779                      .clink
    3780                      .global ||__isfinite||
    3781              
    3782              $C$DW$239       .dwtag  DW_TAG_subprogram
    3783                      .dwattr $C$DW$239, DW_AT_name("__isfinite")
    3784                      .dwattr $C$DW$239, DW_AT_low_pc(||__isfinite||)
    3785                      .dwattr $C$DW$239, DW_AT_high_pc(0x00)
    3786                      .dwattr $C$DW$239, DW_AT_linkage_name("__isfinite")
    3787                      .dwattr $C$DW$239, DW_AT_external
    3788                      .dwattr $C$DW$239, DW_AT_type(*$C$DW$T$10)
TMS320C2000 Assembler PC v20.2.4 Tue Mar  2 07:24:45 2021

Copyright (c) 1996-2018 Texas Instruments Incorporated
bts.asm                                                              PAGE   77

    3789                      .dwattr $C$DW$239, DW_AT_decl_file("C:/ti/ccs1011/ccs/tools/compiler/ti-cgt-c2000_20.2.4.LTS/include/
    3790                      .dwattr $C$DW$239, DW_AT_decl_line(0x14e)
    3791                      .dwattr $C$DW$239, DW_AT_decl_column(0x25)
    3792                      .dwattr $C$DW$239, DW_AT_TI_max_frame_size(-2)
    3793                      .dwpsn  file "C:/ti/ccs1011/ccs/tools/compiler/ti-cgt-c2000_20.2.4.LTS/include/_defs.h",line 335,colu
    3794              
    3795                      .dwfde $C$DW$CIE, ||__isfinite||
    3796              $C$DW$240       .dwtag  DW_TAG_formal_parameter
    3797                      .dwattr $C$DW$240, DW_AT_name("d")
    3798                      .dwattr $C$DW$240, DW_AT_type(*$C$DW$T$122)
    3799                      .dwattr $C$DW$240, DW_AT_location[DW_OP_reg12]
    3800              
    3801              
    3802              ;***************************************************************
    3803              ;* FNAME: __isfinite                    FR SIZE:   0           *
    3804              ;*                                                             *
    3805              ;* FUNCTION ENVIRONMENT                                        *
    3806              ;*                                                             *
    3807              ;* FUNCTION PROPERTIES                                         *
    3808              ;*                            0 Parameter,  0 Auto,  0 SOE     *
    3809              ;***************************************************************
    3810              
    3811              ||__isfinite||:
    3812              ;* AR4   assigned to d
    3813              $C$DW$241       .dwtag  DW_TAG_variable
    3814                      .dwattr $C$DW$241, DW_AT_name("d")
    3815                      .dwattr $C$DW$241, DW_AT_type(*$C$DW$T$123)
    3816                      .dwattr $C$DW$241, DW_AT_location[DW_OP_reg12]
    3817              
    3818                      .dwcfi  cfa_offset, -2
    3819                      .dwcfi  save_reg_to_mem, 26, 0
    3820                      .dwpsn  file "C:/ti/ccs1011/ccs/tools/compiler/ti-cgt-c2000_20.2.4.LTS/include/_defs.h",line 335,colu
    3821 00000000 A3C4          MOVL      P,*+XAR4[0]           ; [CPU_ALU] |335| 
    3822 00000001 06D4          MOVL      ACC,*+XAR4[2]         ; [CPU_ALU] |335| 
    3823 00000002 28AC          MOV       T,#48                 ; [CPU_ALU] |335| 
         00000003 0030 
    3824 00000004 565B          LSR64     ACC:P,T               ; [CPU_ALU] |335| 
    3825 00000005 18AB          AND       PL,#0x7ff0            ; [CPU_ALU] |335| 
         00000006 7FF0 
    3826 00000007 80AB          MOVZ      AR7,PL                ; [CPU_ALU] |335| 
    3827 00000008 8F00          MOVL      XAR4,#32752           ; [CPU_ARAU] |335| 
         00000009 7FF0 
    3828 0000000a BE00          MOVB      XAR6,#0               ; [CPU_ALU] |335| 
    3829 0000000b A8A9          MOVL      ACC,XAR4              ; [CPU_ALU] |335| 
    3830 0000000c 0FA7          CMPL      ACC,XAR7              ; [CPU_ALU] |335| 
    3831 0000000d 56B0          MOVB      XAR6,#1,NEQ           ; [CPU_ALU] |335| 
         0000000e 01A6 
    3832 0000000f 92A6          MOV       AL,AR6                ; [CPU_ALU] |335| 
    3833              $C$DW$242       .dwtag  DW_TAG_TI_branch
    3834                      .dwattr $C$DW$242, DW_AT_low_pc(0x00)
    3835                      .dwattr $C$DW$242, DW_AT_TI_return
    3836              
    3837 00000010 0006          LRETR     ; [CPU_ALU] 
    3838                      ; return occurs ; [] 
    3839                      .dwattr $C$DW$239, DW_AT_TI_end_file("C:/ti/ccs1011/ccs/tools/compiler/ti-cgt-c2000_20.2.4.LTS/includ
TMS320C2000 Assembler PC v20.2.4 Tue Mar  2 07:24:45 2021

Copyright (c) 1996-2018 Texas Instruments Incorporated
bts.asm                                                              PAGE   78

    3840                      .dwattr $C$DW$239, DW_AT_TI_end_line(0x14f)
    3841                      .dwattr $C$DW$239, DW_AT_TI_end_column(0x2e)
    3842                      .dwendentry
    3843                      .dwendtag $C$DW$239
    3844              
    3845 00000000               .sect   ".text:__fpclassifyl"
    3846                      .clink
    3847                      .global ||__fpclassifyl||
    3848              
    3849              $C$DW$243       .dwtag  DW_TAG_subprogram
    3850                      .dwattr $C$DW$243, DW_AT_name("__fpclassifyl")
    3851                      .dwattr $C$DW$243, DW_AT_low_pc(||__fpclassifyl||)
    3852                      .dwattr $C$DW$243, DW_AT_high_pc(0x00)
    3853                      .dwattr $C$DW$243, DW_AT_linkage_name("__fpclassifyl")
    3854                      .dwattr $C$DW$243, DW_AT_external
    3855                      .dwattr $C$DW$243, DW_AT_type(*$C$DW$T$10)
    3856                      .dwattr $C$DW$243, DW_AT_decl_file("C:/ti/ccs1011/ccs/tools/compiler/ti-cgt-c2000_20.2.4.LTS/include/
    3857                      .dwattr $C$DW$243, DW_AT_decl_line(0x1ae)
    3858                      .dwattr $C$DW$243, DW_AT_decl_column(0x25)
    3859                      .dwattr $C$DW$243, DW_AT_TI_max_frame_size(-10)
    3860                      .dwpsn  file "C:/ti/ccs1011/ccs/tools/compiler/ti-cgt-c2000_20.2.4.LTS/include/_defs.h",line 431,colu
    3861              
    3862                      .dwfde $C$DW$CIE, ||__fpclassifyl||
    3863              $C$DW$244       .dwtag  DW_TAG_formal_parameter
    3864                      .dwattr $C$DW$244, DW_AT_name("e")
    3865                      .dwattr $C$DW$244, DW_AT_type(*$C$DW$T$125)
    3866                      .dwattr $C$DW$244, DW_AT_location[DW_OP_reg12]
    3867              
    3868              
    3869              ;***************************************************************
    3870              ;* FNAME: __fpclassifyl                 FR SIZE:   8           *
    3871              ;*                                                             *
    3872              ;* FUNCTION ENVIRONMENT                                        *
    3873              ;*                                                             *
    3874              ;* FUNCTION PROPERTIES                                         *
    3875              ;*                            4 Parameter,  4 Auto,  0 SOE     *
    3876              ;***************************************************************
    3877              
    3878              ||__fpclassifyl||:
    3879              $C$DW$245       .dwtag  DW_TAG_variable
    3880                      .dwattr $C$DW$245, DW_AT_name("e")
    3881                      .dwattr $C$DW$245, DW_AT_type(*$C$DW$T$18)
    3882                      .dwattr $C$DW$245, DW_AT_location[DW_OP_breg20 -8]
    3883              
    3884              ;* AR5   assigned to $O$C1
    3885              ;* AR4   assigned to e
    3886              $C$DW$246       .dwtag  DW_TAG_variable
    3887                      .dwattr $C$DW$246, DW_AT_name("e")
    3888                      .dwattr $C$DW$246, DW_AT_type(*$C$DW$T$126)
    3889                      .dwattr $C$DW$246, DW_AT_location[DW_OP_reg12]
    3890              
    3891                      .dwcfi  cfa_offset, -2
    3892                      .dwcfi  save_reg_to_mem, 26, 0
    3893 00000000 FE08          ADDB      SP,#8                 ; [CPU_ARAU] 
    3894                      .dwcfi  cfa_offset, -10
TMS320C2000 Assembler PC v20.2.4 Tue Mar  2 07:24:45 2021

Copyright (c) 1996-2018 Texas Instruments Incorporated
bts.asm                                                              PAGE   79

    3895 00000001 C4D4          MOVL      XAR6,*+XAR4[2]        ; [CPU_ALU] |431| 
    3896 00000002 06C4          MOVL      ACC,*+XAR4[0]         ; [CPU_ALU] |431| 
    3897 00000003 1E48          MOVL      *-SP[8],ACC           ; [CPU_ALU] |431| 
    3898 00000004 C246          MOVL      *-SP[6],XAR6          ; [CPU_ALU] |431| 
    3899                      .dwpsn  file "C:/ti/ccs1011/ccs/tools/compiler/ti-cgt-c2000_20.2.4.LTS/include/_defs.h",line 432,colu
    3900 00000005 8348          MOVL      XAR5,*-SP[8]          ; [CPU_ALU] |432| 
    3901 00000006 8A46          MOVL      XAR4,*-SP[6]          ; [CPU_ALU] |432| 
    3902                      .dwpsn  file "C:/ti/ccs1011/ccs/tools/compiler/ti-cgt-c2000_20.2.4.LTS/include/_defs.h",line 436,colu
    3903 00000007 28AC          MOV       T,#48                 ; [CPU_ALU] |436| 
         00000008 0030 
    3904 00000009 A0AB          MOVL      P,XAR5                ; [CPU_ALU] |436| 
    3905 0000000a A8A9          MOVL      ACC,XAR4              ; [CPU_ALU] |436| 
    3906 0000000b 565B          LSR64     ACC:P,T               ; [CPU_ALU] |436| 
    3907 0000000c 18AB          AND       PL,#0x7ff0            ; [CPU_ALU] |436| 
         0000000d 7FF0 
    3908 0000000e 80AB          MOVZ      AR7,PL                ; [CPU_ALU] |436| 
    3909 0000000f 7680          MOVL      XAR6,#32752           ; [CPU_ARAU] |436| 
         00000010 7FF0 
    3910 00000011 06A6          MOVL      ACC,XAR6              ; [CPU_ALU] |436| 
    3911 00000012 0FA7          CMPL      ACC,XAR7              ; [CPU_ALU] |436| 
    3912 00000013 6016          B         ||$C$L25||,NEQ        ; [CPU_ALU] |436| 
    3913                      ; branchcc occurs ; [] |436| 
    3914 00000014 0200          MOVB      ACC,#0                ; [CPU_ALU] |436| 
    3915 00000015 1E44          MOVL      *-SP[4],ACC           ; [CPU_ALU] |436| 
    3916 00000016 2B42          MOV       *-SP[2],#0            ; [CPU_ALU] |436| 
    3917 00000017 2B41          MOV       *-SP[1],#0            ; [CPU_ALU] |436| 
    3918 00000018 A348          MOVL      P,*-SP[8]             ; [CPU_ALU] |436| 
    3919 00000019 0646          MOVL      ACC,*-SP[6]           ; [CPU_ALU] |436| 
    3920 0000001a 18AB          AND       PL,#65535             ; [CPU_ALU] |436| 
         0000001b FFFF 
    3921 0000001c 18AA          AND       PH,#65535             ; [CPU_ALU] |436| 
         0000001d FFFF 
    3922 0000001e 18A9          AND       AL,#65535             ; [CPU_ALU] |436| 
         0000001f FFFF 
    3923 00000020 910F          ANDB      AH,#15                ; [CPU_ALU] |436| 
    3924              $C$DW$247       .dwtag  DW_TAG_TI_branch
    3925                      .dwattr $C$DW$247, DW_AT_low_pc(0x00)
    3926                      .dwattr $C$DW$247, DW_AT_name("__c28xabi_cmpull")
    3927                      .dwattr $C$DW$247, DW_AT_TI_call
    3928              
    3929 00000021 7640!         LCR       #||__c28xabi_cmpull|| ; [CPU_ALU] |436| 
         00000022 0000 
    3930                      ; call occurs [#||__c28xabi_cmpull||] ; [] |436| 
    3931 00000023 5200          CMPB      AL,#0                 ; [CPU_ALU] |436| 
    3932 00000024 6103          B         ||$C$L24||,EQ         ; [CPU_ALU] |436| 
    3933                      ; branchcc occurs ; [] |436| 
    3934 00000025 9A02          MOVB      AL,#2                 ; [CPU_ALU] |436| 
    3935 00000026 6F2D          B         ||$C$L28||,UNC        ; [CPU_ALU] |436| 
    3936                      ; branch occurs ; [] |436| 
    3937 00000027       ||$C$L24||:    
    3938 00000027 9A01          MOVB      AL,#1                 ; [CPU_ALU] |436| 
    3939 00000028 6F2B          B         ||$C$L28||,UNC        ; [CPU_ALU] |436| 
    3940                      ; branch occurs ; [] |436| 
    3941 00000029       ||$C$L25||:    
    3942 00000029 BE00          MOVB      XAR6,#0               ; [CPU_ALU] |436| 
TMS320C2000 Assembler PC v20.2.4 Tue Mar  2 07:24:45 2021

Copyright (c) 1996-2018 Texas Instruments Incorporated
bts.asm                                                              PAGE   80

    3943 0000002a A0AB          MOVL      P,XAR5                ; [CPU_ALU] |436| 
    3944 0000002b A8A9          MOVL      ACC,XAR4              ; [CPU_ALU] |436| 
    3945 0000002c 28AC          MOV       T,#52                 ; [CPU_ALU] |436| 
         0000002d 0034 
    3946 0000002e C244          MOVL      *-SP[4],XAR6          ; [CPU_ALU] |436| 
    3947 0000002f 2B42          MOV       *-SP[2],#0            ; [CPU_ALU] |436| 
    3948 00000030 565B          LSR64     ACC:P,T               ; [CPU_ALU] |436| 
    3949 00000031 2B41          MOV       *-SP[1],#0            ; [CPU_FPU] |436| 
    3950 00000032 9000          ANDB      AL,#0                 ; [CPU_ALU] |436| 
    3951 00000033 9100          ANDB      AH,#0                 ; [CPU_ALU] |436| 
    3952 00000034 18AB          AND       PL,#2047              ; [CPU_ALU] |436| 
         00000035 07FF 
    3953 00000036 18AA          AND       PH,#0                 ; [CPU_ALU] |436| 
         00000037 0000 
    3954              $C$DW$248       .dwtag  DW_TAG_TI_branch
    3955                      .dwattr $C$DW$248, DW_AT_low_pc(0x00)
    3956                      .dwattr $C$DW$248, DW_AT_name("__c28xabi_cmpull")
    3957                      .dwattr $C$DW$248, DW_AT_TI_call
    3958              
    3959 00000038 7640!         LCR       #||__c28xabi_cmpull|| ; [CPU_ALU] |436| 
         00000039 0000 
    3960                      ; call occurs [#||__c28xabi_cmpull||] ; [] |436| 
    3961 0000003a 5200          CMPB      AL,#0                 ; [CPU_ALU] |436| 
    3962 0000003b 6104          B         ||$C$L26||,EQ         ; [CPU_ALU] |436| 
    3963                      ; branchcc occurs ; [] |436| 
    3964 0000003c 28A9          MOV       AL,#-1                ; [CPU_ALU] |436| 
         0000003d FFFF 
    3965 0000003e 6F15          B         ||$C$L28||,UNC        ; [CPU_ALU] |436| 
    3966                      ; branch occurs ; [] |436| 
    3967 0000003f       ||$C$L26||:    
    3968 0000003f C244          MOVL      *-SP[4],XAR6          ; [CPU_ALU] |436| 
    3969 00000040 A8A9          MOVL      ACC,XAR4              ; [CPU_ALU] |436| 
    3970 00000041 A0AB          MOVL      P,XAR5                ; [CPU_ALU] |436| 
    3971 00000042 2B42          MOV       *-SP[2],#0            ; [CPU_ALU] |436| 
    3972 00000043 18A9          AND       AL,#65535             ; [CPU_ALU] |436| 
         00000044 FFFF 
    3973 00000045 910F          ANDB      AH,#15                ; [CPU_ALU] |436| 
    3974 00000046 18AB          AND       PL,#65535             ; [CPU_ALU] |436| 
         00000047 FFFF 
    3975 00000048 18AA          AND       PH,#65535             ; [CPU_ALU] |436| 
         00000049 FFFF 
    3976 0000004a 2B41          MOV       *-SP[1],#0            ; [CPU_FPU] |436| 
    3977              $C$DW$249       .dwtag  DW_TAG_TI_branch
    3978                      .dwattr $C$DW$249, DW_AT_low_pc(0x00)
    3979                      .dwattr $C$DW$249, DW_AT_name("__c28xabi_cmpull")
    3980                      .dwattr $C$DW$249, DW_AT_TI_call
    3981              
    3982 0000004b 7640!         LCR       #||__c28xabi_cmpull|| ; [CPU_ALU] |436| 
         0000004c 0000 
    3983                      ; call occurs [#||__c28xabi_cmpull||] ; [] |436| 
    3984 0000004d 5200          CMPB      AL,#0                 ; [CPU_ALU] |436| 
    3985 0000004e 6104          B         ||$C$L27||,EQ         ; [CPU_ALU] |436| 
    3986                      ; branchcc occurs ; [] |436| 
    3987 0000004f 28A9          MOV       AL,#-2                ; [CPU_ALU] |436| 
         00000050 FFFE 
TMS320C2000 Assembler PC v20.2.4 Tue Mar  2 07:24:45 2021

Copyright (c) 1996-2018 Texas Instruments Incorporated
bts.asm                                                              PAGE   81

    3988 00000051 6F02          B         ||$C$L28||,UNC        ; [CPU_ALU] |436| 
    3989                      ; branch occurs ; [] |436| 
    3990 00000052       ||$C$L27||:    
    3991 00000052 9A00          MOVB      AL,#0                 ; [CPU_ALU] |436| 
    3992 00000053       ||$C$L28||:    
    3993 00000053 FE88          SUBB      SP,#8                 ; [CPU_ARAU] 
    3994                      .dwcfi  cfa_offset, -2
    3995              $C$DW$250       .dwtag  DW_TAG_TI_branch
    3996                      .dwattr $C$DW$250, DW_AT_low_pc(0x00)
    3997                      .dwattr $C$DW$250, DW_AT_TI_return
    3998              
    3999 00000054 0006          LRETR     ; [CPU_ALU] 
    4000                      ; return occurs ; [] 
    4001                      .dwattr $C$DW$243, DW_AT_TI_end_file("C:/ti/ccs1011/ccs/tools/compiler/ti-cgt-c2000_20.2.4.LTS/includ
    4002                      .dwattr $C$DW$243, DW_AT_TI_end_line(0x1bd)
    4003                      .dwattr $C$DW$243, DW_AT_TI_end_column(0x01)
    4004                      .dwendentry
    4005                      .dwendtag $C$DW$243
    4006              
    4007 00000000               .sect   ".text:__fpclassifyf"
    4008                      .clink
    4009                      .global ||__fpclassifyf||
    4010              
    4011              $C$DW$251       .dwtag  DW_TAG_subprogram
    4012                      .dwattr $C$DW$251, DW_AT_name("__fpclassifyf")
    4013                      .dwattr $C$DW$251, DW_AT_low_pc(||__fpclassifyf||)
    4014                      .dwattr $C$DW$251, DW_AT_high_pc(0x00)
    4015                      .dwattr $C$DW$251, DW_AT_linkage_name("__fpclassifyf")
    4016                      .dwattr $C$DW$251, DW_AT_external
    4017                      .dwattr $C$DW$251, DW_AT_type(*$C$DW$T$10)
    4018                      .dwattr $C$DW$251, DW_AT_decl_file("C:/ti/ccs1011/ccs/tools/compiler/ti-cgt-c2000_20.2.4.LTS/include/
    4019                      .dwattr $C$DW$251, DW_AT_decl_line(0x18c)
    4020                      .dwattr $C$DW$251, DW_AT_decl_column(0x25)
    4021                      .dwattr $C$DW$251, DW_AT_TI_max_frame_size(-2)
    4022                      .dwpsn  file "C:/ti/ccs1011/ccs/tools/compiler/ti-cgt-c2000_20.2.4.LTS/include/_defs.h",line 397,colu
    4023              
    4024                      .dwfde $C$DW$CIE, ||__fpclassifyf||
    4025              $C$DW$252       .dwtag  DW_TAG_formal_parameter
    4026                      .dwattr $C$DW$252, DW_AT_name("f")
    4027                      .dwattr $C$DW$252, DW_AT_type(*$C$DW$T$16)
    4028                      .dwattr $C$DW$252, DW_AT_location[DW_OP_regx 0x2b]
    4029              
    4030              
    4031              ;***************************************************************
    4032              ;* FNAME: __fpclassifyf                 FR SIZE:   0           *
    4033              ;*                                                             *
    4034              ;* FUNCTION ENVIRONMENT                                        *
    4035              ;*                                                             *
    4036              ;* FUNCTION PROPERTIES                                         *
    4037              ;*                            0 Parameter,  0 Auto,  0 SOE     *
    4038              ;***************************************************************
    4039              
    4040              ||__fpclassifyf||:
    4041              ;* PL    assigned to $O$K1
    4042              ;* R0    assigned to f
TMS320C2000 Assembler PC v20.2.4 Tue Mar  2 07:24:45 2021

Copyright (c) 1996-2018 Texas Instruments Incorporated
bts.asm                                                              PAGE   82

    4043              $C$DW$253       .dwtag  DW_TAG_variable
    4044                      .dwattr $C$DW$253, DW_AT_name("f")
    4045                      .dwattr $C$DW$253, DW_AT_type(*$C$DW$T$120)
    4046                      .dwattr $C$DW$253, DW_AT_location[DW_OP_regx 0x2b]
    4047              
    4048                      .dwcfi  cfa_offset, -2
    4049                      .dwcfi  save_reg_to_mem, 26, 0
    4050                      .dwpsn  file "C:/ti/ccs1011/ccs/tools/compiler/ti-cgt-c2000_20.2.4.LTS/include/_defs.h",line 398,colu
    4051 00000000 BFAB          MOV32     P,R0H                 ; [CPU_FPU] |398| 
         00000001 0F12 
    4052                      .dwpsn  file "C:/ti/ccs1011/ccs/tools/compiler/ti-cgt-c2000_20.2.4.LTS/include/_defs.h",line 402,colu
    4053 00000002 CCAA          AND       AL,PH,#0x7f80         ; [CPU_ALU] |402| 
         00000003 7F80 
    4054 00000004 88A9          MOVZ      AR6,AL                ; [CPU_ALU] |402| 
    4055 00000005 8F00          MOVL      XAR4,#32640           ; [CPU_ARAU] |402| 
         00000006 7F80 
    4056 00000007 A8A9          MOVL      ACC,XAR4              ; [CPU_ALU] |402| 
    4057 00000008 0FA6          CMPL      ACC,XAR6              ; [CPU_ALU] |402| 
    4058 00000009 6009          B         ||$C$L30||,NEQ        ; [CPU_ALU] |402| 
    4059                      ; branchcc occurs ; [] |402| 
    4060 0000000a A9A9          MOVL      ACC,P                 ; [CPU_ALU] |402| 
    4061 0000000b 917F          ANDB      AH,#127               ; [CPU_ALU] |402| 
    4062 0000000c FF58          TEST      ACC                   ; [CPU_ALU] |402| 
    4063 0000000d 6103          B         ||$C$L29||,EQ         ; [CPU_ALU] |402| 
    4064                      ; branchcc occurs ; [] |402| 
    4065                      .dwcfi  remember_state
    4066 0000000e 9A02          MOVB      AL,#2                 ; [CPU_ALU] |402| 
    4067              $C$DW$254       .dwtag  DW_TAG_TI_branch
    4068                      .dwattr $C$DW$254, DW_AT_low_pc(0x00)
    4069                      .dwattr $C$DW$254, DW_AT_TI_return
    4070              
    4071 0000000f 0006          LRETR     ; [CPU_ALU] 
    4072                      ; return occurs ; [] 
    4073                      .dwcfi  restore_state
    4074 00000010       ||$C$L29||:    
    4075                      .dwcfi  remember_state
    4076 00000010 9A01          MOVB      AL,#1                 ; [CPU_ALU] |402| 
    4077              $C$DW$255       .dwtag  DW_TAG_TI_branch
    4078                      .dwattr $C$DW$255, DW_AT_low_pc(0x00)
    4079                      .dwattr $C$DW$255, DW_AT_TI_return
    4080              
    4081 00000011 0006          LRETR     ; [CPU_ALU] 
    4082                      ; return occurs ; [] 
    4083                      .dwcfi  restore_state
    4084 00000012       ||$C$L30||:    
    4085 00000012 A9A9          MOVL      ACC,P                 ; [CPU_ALU] |402| 
    4086 00000013 28AC          MOV       T,#23                 ; [CPU_ALU] |402| 
         00000014 0017 
    4087 00000015 5622          LSRL      ACC,T                 ; [CPU_ALU] |402| 
    4088 00000016 90FF          ANDB      AL,#0xff              ; [CPU_ALU] |402| 
    4089 00000017 6104          B         ||$C$L31||,EQ         ; [CPU_ALU] |402| 
    4090                      ; branchcc occurs ; [] |402| 
    4091                      .dwcfi  remember_state
    4092 00000018 28A9          MOV       AL,#-1                ; [CPU_ALU] |402| 
         00000019 FFFF 
TMS320C2000 Assembler PC v20.2.4 Tue Mar  2 07:24:45 2021

Copyright (c) 1996-2018 Texas Instruments Incorporated
bts.asm                                                              PAGE   83

    4093              $C$DW$256       .dwtag  DW_TAG_TI_branch
    4094                      .dwattr $C$DW$256, DW_AT_low_pc(0x00)
    4095                      .dwattr $C$DW$256, DW_AT_TI_return
    4096              
    4097 0000001a 0006          LRETR     ; [CPU_ALU] 
    4098                      ; return occurs ; [] 
    4099                      .dwcfi  restore_state
    4100 0000001b       ||$C$L31||:    
    4101 0000001b A9A9          MOVL      ACC,P                 ; [CPU_ALU] |402| 
    4102 0000001c 917F          ANDB      AH,#127               ; [CPU_ALU] |402| 
    4103 0000001d FF58          TEST      ACC                   ; [CPU_ALU] |402| 
    4104 0000001e 6104          B         ||$C$L32||,EQ         ; [CPU_ALU] |402| 
    4105                      ; branchcc occurs ; [] |402| 
    4106                      .dwcfi  remember_state
    4107 0000001f 28A9          MOV       AL,#-2                ; [CPU_ALU] |402| 
         00000020 FFFE 
    4108              $C$DW$257       .dwtag  DW_TAG_TI_branch
    4109                      .dwattr $C$DW$257, DW_AT_low_pc(0x00)
    4110                      .dwattr $C$DW$257, DW_AT_TI_return
    4111              
    4112 00000021 0006          LRETR     ; [CPU_ALU] 
    4113                      ; return occurs ; [] 
    4114                      .dwcfi  restore_state
    4115 00000022       ||$C$L32||:    
    4116 00000022 9A00          MOVB      AL,#0                 ; [CPU_ALU] |402| 
    4117              $C$DW$258       .dwtag  DW_TAG_TI_branch
    4118                      .dwattr $C$DW$258, DW_AT_low_pc(0x00)
    4119                      .dwattr $C$DW$258, DW_AT_TI_return
    4120              
    4121 00000023 0006          LRETR     ; [CPU_ALU] 
    4122                      ; return occurs ; [] 
    4123                      .dwattr $C$DW$251, DW_AT_TI_end_file("C:/ti/ccs1011/ccs/tools/compiler/ti-cgt-c2000_20.2.4.LTS/includ
    4124                      .dwattr $C$DW$251, DW_AT_TI_end_line(0x19b)
    4125                      .dwattr $C$DW$251, DW_AT_TI_end_column(0x01)
    4126                      .dwendentry
    4127                      .dwendtag $C$DW$251
    4128              
    4129 00000000               .sect   ".text:__fpclassify"
    4130                      .clink
    4131                      .global ||__fpclassify||
    4132              
    4133              $C$DW$259       .dwtag  DW_TAG_subprogram
    4134                      .dwattr $C$DW$259, DW_AT_name("__fpclassify")
    4135                      .dwattr $C$DW$259, DW_AT_low_pc(||__fpclassify||)
    4136                      .dwattr $C$DW$259, DW_AT_high_pc(0x00)
    4137                      .dwattr $C$DW$259, DW_AT_linkage_name("__fpclassify")
    4138                      .dwattr $C$DW$259, DW_AT_external
    4139                      .dwattr $C$DW$259, DW_AT_type(*$C$DW$T$10)
    4140                      .dwattr $C$DW$259, DW_AT_decl_file("C:/ti/ccs1011/ccs/tools/compiler/ti-cgt-c2000_20.2.4.LTS/include/
    4141                      .dwattr $C$DW$259, DW_AT_decl_line(0x19d)
    4142                      .dwattr $C$DW$259, DW_AT_decl_column(0x25)
    4143                      .dwattr $C$DW$259, DW_AT_TI_max_frame_size(-10)
    4144                      .dwpsn  file "C:/ti/ccs1011/ccs/tools/compiler/ti-cgt-c2000_20.2.4.LTS/include/_defs.h",line 414,colu
    4145              
    4146                      .dwfde $C$DW$CIE, ||__fpclassify||
TMS320C2000 Assembler PC v20.2.4 Tue Mar  2 07:24:45 2021

Copyright (c) 1996-2018 Texas Instruments Incorporated
bts.asm                                                              PAGE   84

    4147              $C$DW$260       .dwtag  DW_TAG_formal_parameter
    4148                      .dwattr $C$DW$260, DW_AT_name("d")
    4149                      .dwattr $C$DW$260, DW_AT_type(*$C$DW$T$122)
    4150                      .dwattr $C$DW$260, DW_AT_location[DW_OP_reg12]
    4151              
    4152              
    4153              ;***************************************************************
    4154              ;* FNAME: __fpclassify                  FR SIZE:   8           *
    4155              ;*                                                             *
    4156              ;* FUNCTION ENVIRONMENT                                        *
    4157              ;*                                                             *
    4158              ;* FUNCTION PROPERTIES                                         *
    4159              ;*                            4 Parameter,  4 Auto,  0 SOE     *
    4160              ;***************************************************************
    4161              
    4162              ||__fpclassify||:
    4163              $C$DW$261       .dwtag  DW_TAG_variable
    4164                      .dwattr $C$DW$261, DW_AT_name("d")
    4165                      .dwattr $C$DW$261, DW_AT_type(*$C$DW$T$17)
    4166                      .dwattr $C$DW$261, DW_AT_location[DW_OP_breg20 -8]
    4167              
    4168              ;* AR5   assigned to $O$C1
    4169              ;* AR4   assigned to d
    4170              $C$DW$262       .dwtag  DW_TAG_variable
    4171                      .dwattr $C$DW$262, DW_AT_name("d")
    4172                      .dwattr $C$DW$262, DW_AT_type(*$C$DW$T$123)
    4173                      .dwattr $C$DW$262, DW_AT_location[DW_OP_reg12]
    4174              
    4175                      .dwcfi  cfa_offset, -2
    4176                      .dwcfi  save_reg_to_mem, 26, 0
    4177 00000000 FE08          ADDB      SP,#8                 ; [CPU_ARAU] 
    4178                      .dwcfi  cfa_offset, -10
    4179 00000001 C4D4          MOVL      XAR6,*+XAR4[2]        ; [CPU_ALU] |414| 
    4180 00000002 06C4          MOVL      ACC,*+XAR4[0]         ; [CPU_ALU] |414| 
    4181 00000003 1E48          MOVL      *-SP[8],ACC           ; [CPU_ALU] |414| 
    4182 00000004 C246          MOVL      *-SP[6],XAR6          ; [CPU_ALU] |414| 
    4183                      .dwpsn  file "C:/ti/ccs1011/ccs/tools/compiler/ti-cgt-c2000_20.2.4.LTS/include/_defs.h",line 415,colu
    4184 00000005 8348          MOVL      XAR5,*-SP[8]          ; [CPU_ALU] |415| 
    4185 00000006 8A46          MOVL      XAR4,*-SP[6]          ; [CPU_ALU] |415| 
    4186                      .dwpsn  file "C:/ti/ccs1011/ccs/tools/compiler/ti-cgt-c2000_20.2.4.LTS/include/_defs.h",line 419,colu
    4187 00000007 28AC          MOV       T,#48                 ; [CPU_ALU] |419| 
         00000008 0030 
    4188 00000009 A0AB          MOVL      P,XAR5                ; [CPU_ALU] |419| 
    4189 0000000a A8A9          MOVL      ACC,XAR4              ; [CPU_ALU] |419| 
    4190 0000000b 565B          LSR64     ACC:P,T               ; [CPU_ALU] |419| 
    4191 0000000c 18AB          AND       PL,#0x7ff0            ; [CPU_ALU] |419| 
         0000000d 7FF0 
    4192 0000000e 80AB          MOVZ      AR7,PL                ; [CPU_ALU] |419| 
    4193 0000000f 7680          MOVL      XAR6,#32752           ; [CPU_ARAU] |419| 
         00000010 7FF0 
    4194 00000011 06A6          MOVL      ACC,XAR6              ; [CPU_ALU] |419| 
    4195 00000012 0FA7          CMPL      ACC,XAR7              ; [CPU_ALU] |419| 
    4196 00000013 6016          B         ||$C$L34||,NEQ        ; [CPU_ALU] |419| 
    4197                      ; branchcc occurs ; [] |419| 
    4198 00000014 0200          MOVB      ACC,#0                ; [CPU_ALU] |419| 
TMS320C2000 Assembler PC v20.2.4 Tue Mar  2 07:24:45 2021

Copyright (c) 1996-2018 Texas Instruments Incorporated
bts.asm                                                              PAGE   85

    4199 00000015 1E44          MOVL      *-SP[4],ACC           ; [CPU_ALU] |419| 
    4200 00000016 2B42          MOV       *-SP[2],#0            ; [CPU_ALU] |419| 
    4201 00000017 2B41          MOV       *-SP[1],#0            ; [CPU_ALU] |419| 
    4202 00000018 A348          MOVL      P,*-SP[8]             ; [CPU_ALU] |419| 
    4203 00000019 0646          MOVL      ACC,*-SP[6]           ; [CPU_ALU] |419| 
    4204 0000001a 18AB          AND       PL,#65535             ; [CPU_ALU] |419| 
         0000001b FFFF 
    4205 0000001c 18AA          AND       PH,#65535             ; [CPU_ALU] |419| 
         0000001d FFFF 
    4206 0000001e 18A9          AND       AL,#65535             ; [CPU_ALU] |419| 
         0000001f FFFF 
    4207 00000020 910F          ANDB      AH,#15                ; [CPU_ALU] |419| 
    4208              $C$DW$263       .dwtag  DW_TAG_TI_branch
    4209                      .dwattr $C$DW$263, DW_AT_low_pc(0x00)
    4210                      .dwattr $C$DW$263, DW_AT_name("__c28xabi_cmpull")
    4211                      .dwattr $C$DW$263, DW_AT_TI_call
    4212              
    4213 00000021 7640!         LCR       #||__c28xabi_cmpull|| ; [CPU_ALU] |419| 
         00000022 0000 
    4214                      ; call occurs [#||__c28xabi_cmpull||] ; [] |419| 
    4215 00000023 5200          CMPB      AL,#0                 ; [CPU_ALU] |419| 
    4216 00000024 6103          B         ||$C$L33||,EQ         ; [CPU_ALU] |419| 
    4217                      ; branchcc occurs ; [] |419| 
    4218 00000025 9A02          MOVB      AL,#2                 ; [CPU_ALU] |419| 
    4219 00000026 6F2D          B         ||$C$L37||,UNC        ; [CPU_ALU] |419| 
    4220                      ; branch occurs ; [] |419| 
    4221 00000027       ||$C$L33||:    
    4222 00000027 9A01          MOVB      AL,#1                 ; [CPU_ALU] |419| 
    4223 00000028 6F2B          B         ||$C$L37||,UNC        ; [CPU_ALU] |419| 
    4224                      ; branch occurs ; [] |419| 
    4225 00000029       ||$C$L34||:    
    4226 00000029 BE00          MOVB      XAR6,#0               ; [CPU_ALU] |419| 
    4227 0000002a A0AB          MOVL      P,XAR5                ; [CPU_ALU] |419| 
    4228 0000002b A8A9          MOVL      ACC,XAR4              ; [CPU_ALU] |419| 
    4229 0000002c 28AC          MOV       T,#52                 ; [CPU_ALU] |419| 
         0000002d 0034 
    4230 0000002e C244          MOVL      *-SP[4],XAR6          ; [CPU_ALU] |419| 
    4231 0000002f 2B42          MOV       *-SP[2],#0            ; [CPU_ALU] |419| 
    4232 00000030 565B          LSR64     ACC:P,T               ; [CPU_ALU] |419| 
    4233 00000031 2B41          MOV       *-SP[1],#0            ; [CPU_FPU] |419| 
    4234 00000032 9000          ANDB      AL,#0                 ; [CPU_ALU] |419| 
    4235 00000033 9100          ANDB      AH,#0                 ; [CPU_ALU] |419| 
    4236 00000034 18AB          AND       PL,#2047              ; [CPU_ALU] |419| 
         00000035 07FF 
    4237 00000036 18AA          AND       PH,#0                 ; [CPU_ALU] |419| 
         00000037 0000 
    4238              $C$DW$264       .dwtag  DW_TAG_TI_branch
    4239                      .dwattr $C$DW$264, DW_AT_low_pc(0x00)
    4240                      .dwattr $C$DW$264, DW_AT_name("__c28xabi_cmpull")
    4241                      .dwattr $C$DW$264, DW_AT_TI_call
    4242              
    4243 00000038 7640!         LCR       #||__c28xabi_cmpull|| ; [CPU_ALU] |419| 
         00000039 0000 
    4244                      ; call occurs [#||__c28xabi_cmpull||] ; [] |419| 
    4245 0000003a 5200          CMPB      AL,#0                 ; [CPU_ALU] |419| 
TMS320C2000 Assembler PC v20.2.4 Tue Mar  2 07:24:45 2021

Copyright (c) 1996-2018 Texas Instruments Incorporated
bts.asm                                                              PAGE   86

    4246 0000003b 6104          B         ||$C$L35||,EQ         ; [CPU_ALU] |419| 
    4247                      ; branchcc occurs ; [] |419| 
    4248 0000003c 28A9          MOV       AL,#-1                ; [CPU_ALU] |419| 
         0000003d FFFF 
    4249 0000003e 6F15          B         ||$C$L37||,UNC        ; [CPU_ALU] |419| 
    4250                      ; branch occurs ; [] |419| 
    4251 0000003f       ||$C$L35||:    
    4252 0000003f C244          MOVL      *-SP[4],XAR6          ; [CPU_ALU] |419| 
    4253 00000040 A8A9          MOVL      ACC,XAR4              ; [CPU_ALU] |419| 
    4254 00000041 A0AB          MOVL      P,XAR5                ; [CPU_ALU] |419| 
    4255 00000042 2B42          MOV       *-SP[2],#0            ; [CPU_ALU] |419| 
    4256 00000043 18A9          AND       AL,#65535             ; [CPU_ALU] |419| 
         00000044 FFFF 
    4257 00000045 910F          ANDB      AH,#15                ; [CPU_ALU] |419| 
    4258 00000046 18AB          AND       PL,#65535             ; [CPU_ALU] |419| 
         00000047 FFFF 
    4259 00000048 18AA          AND       PH,#65535             ; [CPU_ALU] |419| 
         00000049 FFFF 
    4260 0000004a 2B41          MOV       *-SP[1],#0            ; [CPU_FPU] |419| 
    4261              $C$DW$265       .dwtag  DW_TAG_TI_branch
    4262                      .dwattr $C$DW$265, DW_AT_low_pc(0x00)
    4263                      .dwattr $C$DW$265, DW_AT_name("__c28xabi_cmpull")
    4264                      .dwattr $C$DW$265, DW_AT_TI_call
    4265              
    4266 0000004b 7640!         LCR       #||__c28xabi_cmpull|| ; [CPU_ALU] |419| 
         0000004c 0000 
    4267                      ; call occurs [#||__c28xabi_cmpull||] ; [] |419| 
    4268 0000004d 5200          CMPB      AL,#0                 ; [CPU_ALU] |419| 
    4269 0000004e 6104          B         ||$C$L36||,EQ         ; [CPU_ALU] |419| 
    4270                      ; branchcc occurs ; [] |419| 
    4271 0000004f 28A9          MOV       AL,#-2                ; [CPU_ALU] |419| 
         00000050 FFFE 
    4272 00000051 6F02          B         ||$C$L37||,UNC        ; [CPU_ALU] |419| 
    4273                      ; branch occurs ; [] |419| 
    4274 00000052       ||$C$L36||:    
    4275 00000052 9A00          MOVB      AL,#0                 ; [CPU_ALU] |419| 
    4276 00000053       ||$C$L37||:    
    4277 00000053 FE88          SUBB      SP,#8                 ; [CPU_ARAU] 
    4278                      .dwcfi  cfa_offset, -2
    4279              $C$DW$266       .dwtag  DW_TAG_TI_branch
    4280                      .dwattr $C$DW$266, DW_AT_low_pc(0x00)
    4281                      .dwattr $C$DW$266, DW_AT_TI_return
    4282              
    4283 00000054 0006          LRETR     ; [CPU_ALU] 
    4284                      ; return occurs ; [] 
    4285                      .dwattr $C$DW$259, DW_AT_TI_end_file("C:/ti/ccs1011/ccs/tools/compiler/ti-cgt-c2000_20.2.4.LTS/includ
    4286                      .dwattr $C$DW$259, DW_AT_TI_end_line(0x1ac)
    4287                      .dwattr $C$DW$259, DW_AT_TI_end_column(0x01)
    4288                      .dwendentry
    4289                      .dwendtag $C$DW$259
    4290              
    4291 00000000               .sect   "ramfuncs"
    4292                      .clink
    4293                      .global ||BTS_updateReference||
    4294              
TMS320C2000 Assembler PC v20.2.4 Tue Mar  2 07:24:45 2021

Copyright (c) 1996-2018 Texas Instruments Incorporated
bts.asm                                                              PAGE   87

    4295              $C$DW$267       .dwtag  DW_TAG_subprogram
    4296                      .dwattr $C$DW$267, DW_AT_name("BTS_updateReference")
    4297                      .dwattr $C$DW$267, DW_AT_low_pc(||BTS_updateReference||)
    4298                      .dwattr $C$DW$267, DW_AT_high_pc(0x00)
    4299                      .dwattr $C$DW$267, DW_AT_linkage_name("BTS_updateReference")
    4300                      .dwattr $C$DW$267, DW_AT_external
    4301                      .dwattr $C$DW$267, DW_AT_decl_file("../bts.c")
    4302                      .dwattr $C$DW$267, DW_AT_decl_line(0x2ff)
    4303                      .dwattr $C$DW$267, DW_AT_decl_column(0x06)
    4304                      .dwattr $C$DW$267, DW_AT_TI_max_frame_size(-4)
    4305                      .dwpsn  file "../bts.c",line 768,column 1,is_stmt,address ||BTS_updateReference||,isa 0
    4306              
    4307                      .dwfde $C$DW$CIE, ||BTS_updateReference||
    4308              $C$DW$268       .dwtag  DW_TAG_formal_parameter
    4309                      .dwattr $C$DW$268, DW_AT_name("userInput")
    4310                      .dwattr $C$DW$268, DW_AT_type(*$C$DW$T$61)
    4311                      .dwattr $C$DW$268, DW_AT_location[DW_OP_reg12]
    4312              
    4313              $C$DW$269       .dwtag  DW_TAG_formal_parameter
    4314                      .dwattr $C$DW$269, DW_AT_name("ctrlLoopVariable")
    4315                      .dwattr $C$DW$269, DW_AT_type(*$C$DW$T$66)
    4316                      .dwattr $C$DW$269, DW_AT_location[DW_OP_reg14]
    4317              
    4318              
    4319              ;***************************************************************
    4320              ;* FNAME: BTS_updateReference           FR SIZE:   2           *
    4321              ;*                                                             *
    4322              ;* FUNCTION ENVIRONMENT                                        *
    4323              ;*                                                             *
    4324              ;* FUNCTION PROPERTIES                                         *
    4325              ;*                            0 Parameter,  0 Auto,  2 SOE     *
    4326              ;***************************************************************
    4327              
    4328              ||BTS_updateReference||:
    4329              ;* AR4   assigned to userInput
    4330              $C$DW$270       .dwtag  DW_TAG_variable
    4331                      .dwattr $C$DW$270, DW_AT_name("userInput")
    4332                      .dwattr $C$DW$270, DW_AT_type(*$C$DW$T$62)
    4333                      .dwattr $C$DW$270, DW_AT_location[DW_OP_reg12]
    4334              
    4335              ;* AR5   assigned to ctrlLoopVariable
    4336              $C$DW$271       .dwtag  DW_TAG_variable
    4337                      .dwattr $C$DW$271, DW_AT_name("ctrlLoopVariable")
    4338                      .dwattr $C$DW$271, DW_AT_type(*$C$DW$T$67)
    4339                      .dwattr $C$DW$271, DW_AT_location[DW_OP_reg14]
    4340              
    4341                      .dwcfi  cfa_offset, -2
    4342                      .dwcfi  save_reg_to_mem, 26, 0
    4343 00000000 B2BD          MOVL      *SP++,XAR1            ; [CPU_ALU] 
    4344                      .dwcfi  save_reg_to_mem, 7, 2
    4345                      .dwcfi  cfa_offset, -4
    4346                      .dwpsn  file "../bts.c",line 770,column 5,is_stmt,isa 0
    4347 00000001 92FC          MOV       AL,*+XAR4[7]          ; [CPU_ALU] |770| 
    4348                      .dwpsn  file "../bts.c",line 774,column 9,is_stmt,isa 0
    4349 00000002 56B1          MOVB      XAR0,#34,EQ           ; [CPU_ALU] |774| 
TMS320C2000 Assembler PC v20.2.4 Tue Mar  2 07:24:45 2021

Copyright (c) 1996-2018 Texas Instruments Incorporated
bts.asm                                                              PAGE   88

         00000003 22A0 
    4350 00000004 56B1          MOVB      *+XAR5[AR0],#1,EQ     ; [CPU_ALU] |774| 
         00000005 0195 
    4351 00000006 6103          B         ||$C$L38||,EQ         ; [CPU_ALU] |774| 
    4352                      ; branchcc occurs ; [] |774| 
    4353                      .dwpsn  file "../bts.c",line 771,column 9,is_stmt,isa 0
    4354 00000007 D022          MOVB      XAR0,#34              ; [CPU_ALU] |771| 
    4355 00000008 2B95          MOV       *+XAR5[AR0],#0        ; [CPU_ALU] |771| 
    4356 00000009       ||$C$L38||:    
    4357                      .dwpsn  file "../bts.c",line 779,column 5,is_stmt,isa 0
    4358 00000009 D00E          MOVB      XAR0,#14              ; [CPU_ALU] |779| 
    4359 0000000a E2AF          MOV32     R0H,*+XAR4[0]         ; [CPU_FPU] |779| 
         0000000b 00C4 
    4360 0000000c D110          MOVB      XAR1,#16              ; [CPU_ALU] |779| 
    4361 0000000d E2AF          MOV32     R1H,*+XAR4[AR0]       ; [CPU_FPU] |779| 
         0000000e 0194 
    4362 0000000f E700          MPYF32    R0H,R1H,R0H           ; [CPU_FPU] |779| 
         00000010 0008 
    4363 00000011 E2AF          MOV32     R3H,*+XAR4[AR1]       ; [CPU_FPU] |779| 
         00000012 039C 
    4364 00000013 E710          ADDF32    R0H,R0H,R3H           ; [CPU_FPU] |779| 
         00000014 00C0 
    4365                      .dwpsn  file "../bts.c",line 781,column 5,is_stmt,isa 0
    4366 00000015 D008          MOVB      XAR0,#8               ; [CPU_ALU] |781| 
    4367                      .dwpsn  file "../bts.c",line 779,column 5,is_stmt,isa 0
    4368 00000016 E203          MOV32     *+XAR5[4],R0H         ; [CPU_FPU] |779| 
         00000017 00E5 
    4369                      .dwpsn  file "../bts.c",line 781,column 5,is_stmt,isa 0
    4370 00000018 0694          MOVL      ACC,*+XAR4[AR0]       ; [CPU_ALU] |781| 
    4371 00000019 1ED5          MOVL      *+XAR5[2],ACC         ; [CPU_ALU] |781| 
    4372                      .dwpsn  file "../bts.c",line 783,column 5,is_stmt,isa 0
    4373 0000001a 92F4          MOV       AL,*+XAR4[6]          ; [CPU_ALU] |783| 
    4374 0000001b 5201          CMPB      AL,#1                 ; [CPU_ALU] |783| 
    4375 0000001c 610B          B         ||$C$L39||,EQ         ; [CPU_ALU] |783| 
    4376                      ; branchcc occurs ; [] |783| 
    4377                      .dwpsn  file "../bts.c",line 790,column 9,is_stmt,isa 0
    4378 0000001d D01F          MOVB      XAR0,#31              ; [CPU_ALU] |790| 
    4379                      .dwpsn  file "../bts.c",line 789,column 9,is_stmt,isa 0
    4380 0000001e E805          MOVIZ     R0H,#49024            ; [CPU_FPU] |789| 
         0000001f FC00 
    4381                      .dwpsn  file "../bts.c",line 790,column 9,is_stmt,isa 0
    4382 00000020 2B95          MOV       *+XAR5[AR0],#0        ; [CPU_ALU] |790| 
    4383                      .dwpsn  file "../bts.c",line 789,column 9,is_stmt,isa 0
    4384 00000021 D018          MOVB      XAR0,#24              ; [CPU_ALU] |789| 
    4385 00000022 E203          MOV32     *+XAR5[AR0],R0H       ; [CPU_FPU] |789| 
         00000023 0095 
    4386                      .dwpsn  file "../bts.c",line 791,column 9,is_stmt,isa 0
    4387 00000024 E2AF          MOV32     R0H,*+XAR4[4]         ; [CPU_FPU] |791| 
         00000025 00E4 
    4388 00000026 6F0B          B         ||$C$L40||,UNC        ; [CPU_ALU] |791| 
    4389                      ; branch occurs ; [] |791| 
    4390 00000027       ||$C$L39||:    
    4391                      .dwpsn  file "../bts.c",line 785,column 9,is_stmt,isa 0
    4392 00000027 D01F          MOVB      XAR0,#31              ; [CPU_ALU] |785| 
    4393                      .dwpsn  file "../bts.c",line 784,column 9,is_stmt,isa 0
TMS320C2000 Assembler PC v20.2.4 Tue Mar  2 07:24:45 2021

Copyright (c) 1996-2018 Texas Instruments Incorporated
bts.asm                                                              PAGE   89

    4394 00000028 E801          MOVIZ     R0H,#16256            ; [CPU_FPU] |784| 
         00000029 FC00 
    4395                      .dwpsn  file "../bts.c",line 785,column 9,is_stmt,isa 0
    4396 0000002a 56BF          MOVB      *+XAR5[AR0],#1,UNC    ; [CPU_ALU] |785| 
         0000002b 0195 
    4397                      .dwpsn  file "../bts.c",line 784,column 9,is_stmt,isa 0
    4398 0000002c D018          MOVB      XAR0,#24              ; [CPU_ALU] |784| 
    4399 0000002d E203          MOV32     *+XAR5[AR0],R0H       ; [CPU_FPU] |784| 
         0000002e 0095 
    4400                      .dwpsn  file "../bts.c",line 786,column 9,is_stmt,isa 0
    4401 0000002f E2AF          MOV32     R0H,*+XAR4[2]         ; [CPU_FPU] |786| 
         00000030 00D4 
    4402 00000031       ||$C$L40||:    
    4403 00000031 D116          MOVB      XAR1,#22              ; [CPU_ALU] |786| 
    4404 00000032 D018          MOVB      XAR0,#24              ; [CPU_ALU] |786| 
    4405 00000033 E2AF          MOV32     R1H,*+XAR4[AR1]       ; [CPU_FPU] |786| 
         00000034 019C 
    4406 00000035 E700          MPYF32    R0H,R1H,R0H           ; [CPU_FPU] |786| 
         00000036 0008 
    4407 00000037 E2AF          MOV32     R3H,*+XAR4[AR0]       ; [CPU_FPU] |786| 
         00000038 0394 
    4408 00000039 E710          ADDF32    R0H,R0H,R3H           ; [CPU_FPU] |786| 
         0000003a 00C0 
    4409 0000003b D00A          MOVB      XAR0,#10              ; [CPU_ALU] |786| 
    4410 0000003c E203          MOV32     *+XAR5[AR0],R0H       ; [CPU_FPU] |786| 
         0000003d 0095 
    4411 0000003e 8BBE          MOVL      XAR1,*--SP            ; [CPU_ALU] 
    4412                      .dwcfi  cfa_offset, -2
    4413                      .dwcfi  restore_reg, 7
    4414              $C$DW$272       .dwtag  DW_TAG_TI_branch
    4415                      .dwattr $C$DW$272, DW_AT_low_pc(0x00)
    4416                      .dwattr $C$DW$272, DW_AT_TI_return
    4417              
    4418 0000003f 0006          LRETR     ; [CPU_ALU] 
    4419                      ; return occurs ; [] 
    4420                      .dwattr $C$DW$267, DW_AT_TI_end_file("../bts.c")
    4421                      .dwattr $C$DW$267, DW_AT_TI_end_line(0x32e)
    4422                      .dwattr $C$DW$267, DW_AT_TI_end_column(0x01)
    4423                      .dwendentry
    4424                      .dwendtag $C$DW$267
    4425              
    4426 00000000               .sect   ".text"
    4427                      .clink
    4428                      .global ||BTS_setupSfraGui||
    4429              
    4430              $C$DW$273       .dwtag  DW_TAG_subprogram
    4431                      .dwattr $C$DW$273, DW_AT_name("BTS_setupSfraGui")
    4432                      .dwattr $C$DW$273, DW_AT_low_pc(||BTS_setupSfraGui||)
    4433                      .dwattr $C$DW$273, DW_AT_high_pc(0x00)
    4434                      .dwattr $C$DW$273, DW_AT_linkage_name("BTS_setupSfraGui")
    4435                      .dwattr $C$DW$273, DW_AT_external
    4436                      .dwattr $C$DW$273, DW_AT_decl_file("../bts.c")
    4437                      .dwattr $C$DW$273, DW_AT_decl_line(0x210)
    4438                      .dwattr $C$DW$273, DW_AT_decl_column(0x06)
    4439                      .dwattr $C$DW$273, DW_AT_TI_max_frame_size(-18)
TMS320C2000 Assembler PC v20.2.4 Tue Mar  2 07:24:45 2021

Copyright (c) 1996-2018 Texas Instruments Incorporated
bts.asm                                                              PAGE   90

    4440                      .dwpsn  file "../bts.c",line 529,column 1,is_stmt,address ||BTS_setupSfraGui||,isa 0
    4441              
    4442                      .dwfde $C$DW$CIE, ||BTS_setupSfraGui||
    4443              
    4444              ;***************************************************************
    4445              ;* FNAME: BTS_setupSfraGui              FR SIZE:  16           *
    4446              ;*                                                             *
    4447              ;* FUNCTION ENVIRONMENT                                        *
    4448              ;*                                                             *
    4449              ;* FUNCTION PROPERTIES                                         *
    4450              ;*                           15 Parameter,  0 Auto,  0 SOE     *
    4451              ;***************************************************************
    4452              
    4453 00000000       ||BTS_setupSfraGui||:
    4454              ;* AL    assigned to $O$R1
    4455                      .dwcfi  cfa_offset, -2
    4456                      .dwcfi  save_reg_to_mem, 26, 0
    4457 00000000 FE10          ADDB      SP,#16                ; [CPU_ARAU] 
    4458                      .dwcfi  cfa_offset, -18
    4459                      .dwpsn  file "C:\sandbox\github\Lion-IRVT\Hardware\source\tida-010086\bts_F2837xD_8ch\bts_hal.h",line
    4460 00000001 28A9          MOV       AL,#11520             ; [CPU_ALU] |238| 
         00000002 2D00 
    4461 00000003 28A8          MOV       AH,#305               ; [CPU_ALU] |238| 
         00000004 0131 
    4462              $C$DW$274       .dwtag  DW_TAG_TI_branch
    4463                      .dwattr $C$DW$274, DW_AT_low_pc(0x00)
    4464                      .dwattr $C$DW$274, DW_AT_name("SysCtl_getLowSpeedClock")
    4465                      .dwattr $C$DW$274, DW_AT_TI_call
    4466              
    4467 00000005 7640!         LCR       #||SysCtl_getLowSpeedClock|| ; [CPU_ALU] |238| 
         00000006 0000 
    4468                      ; call occurs [#||SysCtl_getLowSpeedClock||] ; [] |238| 
    4469                      .dwpsn  file "../bts.c",line 531,column 9,is_stmt,isa 0
    4470 00000007 8F00          MOVL      XAR4,#57600           ; [CPU_ARAU] |531| 
         00000008 E100 
    4471 00000009 8F48          MOVL      XAR5,#530433          ; [CPU_ARAU] |531| 
         0000000a 1801 
    4472 0000000b 1E42          MOVL      *-SP[2],ACC           ; [CPU_ALU] |531| 
    4473 0000000c A844          MOVL      *-SP[4],XAR4          ; [CPU_ALU] |531| 
    4474 0000000d FF29          MOV       ACC,#8975 << 9        ; [CPU_ALU] |531| 
         0000000e 230F 
    4475 0000000f 8F08          MOVL      XAR4,#530945          ; [CPU_ARAU] |531| 
         00000010 1A01 
    4476 00000011 A046          MOVL      *-SP[6],XAR5          ; [CPU_ALU] |531| 
    4477 00000012 56BF          MOVB      *-SP[7],#29,UNC       ; [CPU_ALU] |531| 
         00000013 1D47 
    4478 00000014 D51C          MOVB      XAR5,#28              ; [CPU_ALU] |531| 
    4479 00000015 A84A          MOVL      *-SP[10],XAR4         ; [CPU_ALU] |531| 
    4480 00000016 8F00          MOVL      XAR4,#29184           ; [CPU_ARAU] |531| 
         00000017 7200 
    4481 00000018 56BF          MOVB      *-SP[11],#1,UNC       ; [CPU_ALU] |531| 
         00000019 014B 
    4482 0000001a 56BF          MOVB      *-SP[12],#47,UNC      ; [CPU_ALU] |531| 
         0000001b 2F4C 
    4483 0000001c 1E4E          MOVL      *-SP[14],ACC          ; [CPU_ALU] |531| 
TMS320C2000 Assembler PC v20.2.4 Tue Mar  2 07:24:45 2021

Copyright (c) 1996-2018 Texas Instruments Incorporated
bts.asm                                                              PAGE   91

    4484 0000001d A8A9          MOVL      ACC,XAR4              ; [CPU_ALU] |531| 
    4485 0000001e 8F00!         MOVL      XAR4,#||BTS_sfra||    ; [CPU_ARAU] |531| 
         0000001f 0000 
    4486 00000020 56BF          MOVB      *-SP[15],#1,UNC       ; [CPU_ALU] |531| 
         00000021 014F 
    4487              $C$DW$275       .dwtag  DW_TAG_TI_branch
    4488                      .dwattr $C$DW$275, DW_AT_low_pc(0x00)
    4489                      .dwattr $C$DW$275, DW_AT_name("SFRA_GUI_config")
    4490                      .dwattr $C$DW$275, DW_AT_TI_call
    4491              
    4492 00000022 7640!         LCR       #||SFRA_GUI_config||  ; [CPU_ALU] |531| 
         00000023 0000 
    4493                      ; call occurs [#||SFRA_GUI_config||] ; [] |531| 
    4494 00000024 FE90          SUBB      SP,#16                ; [CPU_ARAU] 
    4495                      .dwcfi  cfa_offset, -2
    4496              $C$DW$276       .dwtag  DW_TAG_TI_branch
    4497                      .dwattr $C$DW$276, DW_AT_low_pc(0x00)
    4498                      .dwattr $C$DW$276, DW_AT_TI_return
    4499              
    4500 00000025 0006          LRETR     ; [CPU_ALU] 
    4501                      ; return occurs ; [] 
    4502                      .dwattr $C$DW$273, DW_AT_TI_end_file("../bts.c")
    4503                      .dwattr $C$DW$273, DW_AT_TI_end_line(0x220)
    4504                      .dwattr $C$DW$273, DW_AT_TI_end_column(0x01)
    4505                      .dwendentry
    4506                      .dwendtag $C$DW$273
    4507              
    4508 00000026               .sect   ".text"
    4509                      .clink
    4510                      .global ||BTS_setupSfra||
    4511              
    4512              $C$DW$277       .dwtag  DW_TAG_subprogram
    4513                      .dwattr $C$DW$277, DW_AT_name("BTS_setupSfra")
    4514                      .dwattr $C$DW$277, DW_AT_low_pc(||BTS_setupSfra||)
    4515                      .dwattr $C$DW$277, DW_AT_high_pc(0x00)
    4516                      .dwattr $C$DW$277, DW_AT_linkage_name("BTS_setupSfra")
    4517                      .dwattr $C$DW$277, DW_AT_external
    4518                      .dwattr $C$DW$277, DW_AT_decl_file("../bts.c")
    4519                      .dwattr $C$DW$277, DW_AT_decl_line(0x1f7)
    4520                      .dwattr $C$DW$277, DW_AT_decl_column(0x06)
    4521                      .dwattr $C$DW$277, DW_AT_TI_max_frame_size(-16)
    4522                      .dwpsn  file "../bts.c",line 504,column 1,is_stmt,address ||BTS_setupSfra||,isa 0
    4523              
    4524                      .dwfde $C$DW$CIE, ||BTS_setupSfra||
    4525              
    4526              ;***************************************************************
    4527              ;* FNAME: BTS_setupSfra                 FR SIZE:  14           *
    4528              ;*                                                             *
    4529              ;* FUNCTION ENVIRONMENT                                        *
    4530              ;*                                                             *
    4531              ;* FUNCTION PROPERTIES                                         *
    4532              ;*                           12 Parameter,  0 Auto,  2 SOE     *
    4533              ;***************************************************************
    4534              
    4535 00000026       ||BTS_setupSfra||:
TMS320C2000 Assembler PC v20.2.4 Tue Mar  2 07:24:45 2021

Copyright (c) 1996-2018 Texas Instruments Incorporated
bts.asm                                                              PAGE   92

    4536              ;* AR1   assigned to $O$C1
    4537              ;* AR5   assigned to $O$C2
    4538                      .dwcfi  cfa_offset, -2
    4539                      .dwcfi  save_reg_to_mem, 26, 0
    4540 00000026 B2BD          MOVL      *SP++,XAR1            ; [CPU_ALU] 
    4541                      .dwcfi  save_reg_to_mem, 7, 2
    4542                      .dwcfi  cfa_offset, -4
    4543 00000027 FE0C          ADDB      SP,#12                ; [CPU_ARAU] 
    4544                      .dwcfi  cfa_offset, -16
    4545                      .dwpsn  file "../bts.c",line 506,column 9,is_stmt,isa 0
    4546 00000028 8D40!         MOVL      XAR1,#||BTS_sfra||    ; [CPU_ARAU] |506| 
         00000029 0000 
    4547 0000002a 8AA1          MOVL      XAR4,XAR1             ; [CPU_ALU] |506| 
    4548              $C$DW$278       .dwtag  DW_TAG_TI_branch
    4549                      .dwattr $C$DW$278, DW_AT_low_pc(0x00)
    4550                      .dwattr $C$DW$278, DW_AT_name("SFRA_F32_reset")
    4551                      .dwattr $C$DW$278, DW_AT_TI_call
    4552              
    4553 0000002b 7640!         LCR       #||SFRA_F32_reset||   ; [CPU_ALU] |506| 
         0000002c 0000 
    4554                      ; call occurs [#||SFRA_F32_reset||] ; [] |506| 
    4555                      .dwpsn  file "../bts.c",line 507,column 9,is_stmt,isa 0
    4556 0000002d 8F40!         MOVL      XAR5,#||BTS_sfraData|| ; [CPU_ARAU] |507| 
         0000002e 0000 
    4557 0000002f E802          MOVIZ     R0H,#18164            ; [CPU_FPU] |507| 
         00000030 37A0 
    4558 00000031 E801          MOVIZ     R1H,#15820            ; [CPU_FPU] |507| 
         00000032 EE61 
    4559 00000033 E801          MOVIZ     R3H,#16265            ; [CPU_FPU] |507| 
         00000034 FC4B 
    4560 00000035 A0A9          MOVL      ACC,XAR5              ; [CPU_ALU] |507| 
    4561 00000036 B600          MOVB      XAR7,#0               ; [CPU_ALU] |507| 
    4562 00000037 BE00          MOVB      XAR6,#0               ; [CPU_ALU] |507| 
    4563 00000038 E802          MOVIZ     R2H,#16672            ; [CPU_FPU] |507| 
         00000039 0902 
    4564 0000003a 09CE          ADDB      ACC,#206              ; [CPU_ALU] |507| 
    4565 0000003b 8AA1          MOVL      XAR4,XAR1             ; [CPU_ALU] |507| 
    4566 0000003c E809          MOVXI     R0H,#9216             ; [CPU_FPU] |507| 
         0000003d 2000 
    4567 0000003e E80E          MOVXI     R1H,#52429            ; [CPU_FPU] |507| 
         0000003f 6669 
    4568 00000040 E80C          MOVXI     R3H,#36032            ; [CPU_FPU] |507| 
         00000041 6603 
    4569 00000042 1E42          MOVL      *-SP[2],ACC           ; [CPU_ALU] |507| 
    4570 00000043 A0A9          MOVL      ACC,XAR5              ; [CPU_ALU] |507| 
    4571 00000044 FF12          ADD       ACC,#103 << 2         ; [CPU_ALU] |507| 
         00000045 0067 
    4572 00000046 1E44          MOVL      *-SP[4],ACC           ; [CPU_ALU] |507| 
    4573 00000047 A0A9          MOVL      ACC,XAR5              ; [CPU_ALU] |507| 
    4574 00000048 FF11          ADD       ACC,#309 << 1         ; [CPU_ALU] |507| 
         00000049 0135 
    4575 0000004a 1E46          MOVL      *-SP[6],ACC           ; [CPU_ALU] |507| 
    4576 0000004b A0A9          MOVL      ACC,XAR5              ; [CPU_ALU] |507| 
    4577 0000004c C348          MOVL      *-SP[8],XAR7          ; [CPU_ALU] |507| 
    4578 0000004d FF13          ADD       ACC,#103 << 3         ; [CPU_ALU] |507| 
TMS320C2000 Assembler PC v20.2.4 Tue Mar  2 07:24:45 2021

Copyright (c) 1996-2018 Texas Instruments Incorporated
bts.asm                                                              PAGE   93

         0000004e 0067 
    4579 0000004f C24A          MOVL      *-SP[10],XAR6         ; [CPU_ALU] |507| 
    4580 00000050 1E4C          MOVL      *-SP[12],ACC          ; [CPU_ALU] |507| 
    4581 00000051 9A67          MOVB      AL,#103               ; [CPU_ALU] |507| 
    4582 00000052 9B03          MOVB      AH,#3                 ; [CPU_ALU] |507| 
    4583              $C$DW$279       .dwtag  DW_TAG_TI_branch
    4584                      .dwattr $C$DW$279, DW_AT_low_pc(0x00)
    4585                      .dwattr $C$DW$279, DW_AT_name("SFRA_F32_config")
    4586                      .dwattr $C$DW$279, DW_AT_TI_call
    4587              
    4588 00000053 7640!         LCR       #||SFRA_F32_config||  ; [CPU_ALU] |507| 
         00000054 0000 
    4589                      ; call occurs [#||SFRA_F32_config||] ; [] |507| 
    4590                      .dwpsn  file "../bts.c",line 521,column 9,is_stmt,isa 0
    4591 00000055 8AA1          MOVL      XAR4,XAR1             ; [CPU_ALU] |521| 
    4592              $C$DW$280       .dwtag  DW_TAG_TI_branch
    4593                      .dwattr $C$DW$280, DW_AT_low_pc(0x00)
    4594                      .dwattr $C$DW$280, DW_AT_name("SFRA_F32_resetFreqRespArray")
    4595                      .dwattr $C$DW$280, DW_AT_TI_call
    4596              
    4597 00000056 7640!         LCR       #||SFRA_F32_resetFreqRespArray|| ; [CPU_ALU] |521| 
         00000057 0000 
    4598                      ; call occurs [#||SFRA_F32_resetFreqRespArray||] ; [] |521| 
    4599                      .dwpsn  file "../bts.c",line 522,column 9,is_stmt,isa 0
    4600 00000058 E801          MOVIZ     R1H,#16265            ; [CPU_FPU] |522| 
         00000059 FC49 
    4601 0000005a E802          MOVIZ     R0H,#16672            ; [CPU_FPU] |522| 
         0000005b 0900 
    4602 0000005c 8AA1          MOVL      XAR4,XAR1             ; [CPU_ALU] |522| 
    4603 0000005d E80C          MOVXI     R1H,#36032            ; [CPU_FPU] |522| 
         0000005e 6601 
    4604              $C$DW$281       .dwtag  DW_TAG_TI_branch
    4605                      .dwattr $C$DW$281, DW_AT_low_pc(0x00)
    4606                      .dwattr $C$DW$281, DW_AT_name("SFRA_F32_initFreqArrayWithLogSteps")
    4607                      .dwattr $C$DW$281, DW_AT_TI_call
    4608              
    4609 0000005f 7640!         LCR       #||SFRA_F32_initFreqArrayWithLogSteps|| ; [CPU_ALU] |522| 
         00000060 0000 
    4610                      ; call occurs [#||SFRA_F32_initFreqArrayWithLogSteps||] ; [] |522| 
    4611 00000061 FE8C          SUBB      SP,#12                ; [CPU_ARAU] 
    4612                      .dwcfi  cfa_offset, -4
    4613 00000062 8BBE          MOVL      XAR1,*--SP            ; [CPU_ALU] 
    4614                      .dwcfi  cfa_offset, -2
    4615                      .dwcfi  restore_reg, 7
    4616              $C$DW$282       .dwtag  DW_TAG_TI_branch
    4617                      .dwattr $C$DW$282, DW_AT_low_pc(0x00)
    4618                      .dwattr $C$DW$282, DW_AT_TI_return
    4619              
    4620 00000063 0006          LRETR     ; [CPU_ALU] 
    4621                      ; return occurs ; [] 
    4622                      .dwattr $C$DW$277, DW_AT_TI_end_file("../bts.c")
    4623                      .dwattr $C$DW$277, DW_AT_TI_end_line(0x20e)
    4624                      .dwattr $C$DW$277, DW_AT_TI_end_column(0x01)
    4625                      .dwendentry
    4626                      .dwendtag $C$DW$277
TMS320C2000 Assembler PC v20.2.4 Tue Mar  2 07:24:45 2021

Copyright (c) 1996-2018 Texas Instruments Incorporated
bts.asm                                                              PAGE   94

    4627              
    4628 00000064               .sect   ".text"
    4629                      .clink
    4630                      .global ||BTS_setupHrpwmMepScaleFactor||
    4631              
    4632              $C$DW$283       .dwtag  DW_TAG_subprogram
    4633                      .dwattr $C$DW$283, DW_AT_name("BTS_setupHrpwmMepScaleFactor")
    4634                      .dwattr $C$DW$283, DW_AT_low_pc(||BTS_setupHrpwmMepScaleFactor||)
    4635                      .dwattr $C$DW$283, DW_AT_high_pc(0x00)
    4636                      .dwattr $C$DW$283, DW_AT_linkage_name("BTS_setupHrpwmMepScaleFactor")
    4637                      .dwattr $C$DW$283, DW_AT_external
    4638                      .dwattr $C$DW$283, DW_AT_decl_file("../bts.c")
    4639                      .dwattr $C$DW$283, DW_AT_decl_line(0x1e9)
    4640                      .dwattr $C$DW$283, DW_AT_decl_column(0x06)
    4641                      .dwattr $C$DW$283, DW_AT_TI_max_frame_size(-2)
    4642                      .dwpsn  file "../bts.c",line 490,column 1,is_stmt,address ||BTS_setupHrpwmMepScaleFactor||,isa 0
    4643              
    4644                      .dwfde $C$DW$CIE, ||BTS_setupHrpwmMepScaleFactor||
    4645              
    4646              ;***************************************************************
    4647              ;* FNAME: BTS_setupHrpwmMepScaleFactor  FR SIZE:   0           *
    4648              ;*                                                             *
    4649              ;* FUNCTION ENVIRONMENT                                        *
    4650              ;*                                                             *
    4651              ;* FUNCTION PROPERTIES                                         *
    4652              ;*                            0 Parameter,  0 Auto,  0 SOE     *
    4653              ;***************************************************************
    4654              
    4655 00000064       ||BTS_setupHrpwmMepScaleFactor||:
    4656                      .dwcfi  cfa_offset, -2
    4657                      .dwcfi  save_reg_to_mem, 26, 0
    4658 00000064       ||$C$L41||:    
    4659                      .dwpsn  file "../bts.c",line 496,column 13,is_stmt,isa 0
    4660              $C$DW$284       .dwtag  DW_TAG_TI_branch
    4661                      .dwattr $C$DW$284, DW_AT_low_pc(0x00)
    4662                      .dwattr $C$DW$284, DW_AT_name("SFO")
    4663                      .dwattr $C$DW$284, DW_AT_TI_call
    4664              
    4665 00000064 7640!         LCR       #||SFO||              ; [CPU_ALU] |496| 
         00000065 0000 
    4666                      ; call occurs [#||SFO||] ; [] |496| 
    4667 00000066 761F!         MOVW      DP,#||BTS_sfoStatus|| ; [CPU_ARAU] 
         00000067 0000 
    4668 00000068 5200          CMPB      AL,#0                 ; [CPU_ALU] |496| 
    4669 00000069 9600!         MOV       @||BTS_sfoStatus||,AL ; [CPU_FPU] |496| 
    4670 0000006a 61FA          B         ||$C$L41||,EQ         ; [CPU_ALU] |496| 
    4671                      ; branchcc occurs ; [] |496| 
    4672              $C$DW$285       .dwtag  DW_TAG_TI_branch
    4673                      .dwattr $C$DW$285, DW_AT_low_pc(0x00)
    4674                      .dwattr $C$DW$285, DW_AT_TI_return
    4675              
    4676 0000006b 0006          LRETR     ; [CPU_ALU] 
    4677                      ; return occurs ; [] 
    4678                      .dwattr $C$DW$283, DW_AT_TI_end_file("../bts.c")
    4679                      .dwattr $C$DW$283, DW_AT_TI_end_line(0x1f3)
TMS320C2000 Assembler PC v20.2.4 Tue Mar  2 07:24:45 2021

Copyright (c) 1996-2018 Texas Instruments Incorporated
bts.asm                                                              PAGE   95

    4680                      .dwattr $C$DW$283, DW_AT_TI_end_column(0x01)
    4681                      .dwendentry
    4682                      .dwendtag $C$DW$283
    4683              
    4684 00000040               .sect   "ramfuncs"
    4685                      .clink
    4686                      .global ||BTS_monitor_Iout_Vout||
    4687              
    4688              $C$DW$286       .dwtag  DW_TAG_subprogram
    4689                      .dwattr $C$DW$286, DW_AT_name("BTS_monitor_Iout_Vout")
    4690                      .dwattr $C$DW$286, DW_AT_low_pc(||BTS_monitor_Iout_Vout||)
    4691                      .dwattr $C$DW$286, DW_AT_high_pc(0x00)
    4692                      .dwattr $C$DW$286, DW_AT_linkage_name("BTS_monitor_Iout_Vout")
    4693                      .dwattr $C$DW$286, DW_AT_external
    4694                      .dwattr $C$DW$286, DW_AT_decl_file("../bts.c")
    4695                      .dwattr $C$DW$286, DW_AT_decl_line(0x332)
    4696                      .dwattr $C$DW$286, DW_AT_decl_column(0x06)
    4697                      .dwattr $C$DW$286, DW_AT_TI_max_frame_size(-8)
    4698                      .dwpsn  file "../bts.c",line 819,column 1,is_stmt,address ||BTS_monitor_Iout_Vout||,isa 0
    4699              
    4700                      .dwfde $C$DW$CIE, ||BTS_monitor_Iout_Vout||
    4701              $C$DW$287       .dwtag  DW_TAG_formal_parameter
    4702                      .dwattr $C$DW$287, DW_AT_name("measValues")
    4703                      .dwattr $C$DW$287, DW_AT_type(*$C$DW$T$71)
    4704                      .dwattr $C$DW$287, DW_AT_location[DW_OP_reg12]
    4705              
    4706              
    4707              ;***************************************************************
    4708              ;* FNAME: BTS_monitor_Iout_Vout         FR SIZE:   6           *
    4709              ;*                                                             *
    4710              ;* FUNCTION ENVIRONMENT                                        *
    4711              ;*                                                             *
    4712              ;* FUNCTION PROPERTIES                                         *
    4713              ;*                            0 Parameter,  0 Auto,  6 SOE     *
    4714              ;***************************************************************
    4715              
    4716              ||BTS_monitor_Iout_Vout||:
    4717              ;* AR5   assigned to $O$U9
    4718              ;* PL    assigned to $O$V0
    4719              ;* AR7   assigned to $O$V1
    4720              ;* AR4   assigned to measValues
    4721              $C$DW$288       .dwtag  DW_TAG_variable
    4722                      .dwattr $C$DW$288, DW_AT_name("measValues")
    4723                      .dwattr $C$DW$288, DW_AT_type(*$C$DW$T$72)
    4724                      .dwattr $C$DW$288, DW_AT_location[DW_OP_reg12]
    4725              
    4726                      .dwcfi  cfa_offset, -2
    4727                      .dwcfi  save_reg_to_mem, 26, 0
    4728 00000040 B2BD          MOVL      *SP++,XAR1            ; [CPU_ALU] 
    4729                      .dwcfi  save_reg_to_mem, 7, 2
    4730                      .dwcfi  cfa_offset, -4
    4731                      .dwpsn  file "../bts.c",line 820,column 5,is_stmt,isa 0
    4732 00000041 D044          MOVB      XAR0,#68              ; [CPU_ALU] |820| 
    4733 00000042 83A4          MOVL      XAR5,XAR4             ; [CPU_ALU] 
    4734 00000043 D144          MOVB      XAR1,#68              ; [CPU_ALU] 
TMS320C2000 Assembler PC v20.2.4 Tue Mar  2 07:24:45 2021

Copyright (c) 1996-2018 Texas Instruments Incorporated
bts.asm                                                              PAGE   96

    4735 00000044 BE00          MOVB      XAR6,#0               ; [CPU_ALU] |820| 
    4736                      .dwpsn  file "../bts.c",line 821,column 5,is_stmt,isa 0
    4737 00000045 0200          MOVB      ACC,#0                ; [CPU_ALU] |821| 
    4738 00000046 E203          MOV32     *SP++,R4H             ; [CPU_FPU] 
         00000047 04BD 
    4739                      .dwcfi  save_reg_to_mem, 59, 4
    4740                      .dwcfi  cfa_offset, -6
    4741 00000048 3B01          SETC      SXM                   ; [CPU_ALU] 
    4742 00000049 3100          MOV       P,#0                  ; [CPU_ALU] 
    4743 0000004a E203          MOV32     *SP++,R5H             ; [CPU_FPU] 
         0000004b 05BD 
    4744                      .dwcfi  save_reg_to_mem, 63, 6
    4745                      .dwcfi  cfa_offset, -8
    4746 0000004c DD04          ADDB      XAR5,#4               ; [CPU_ALU] 
    4747                      .dwpsn  file "../bts.c",line 820,column 5,is_stmt,isa 0
    4748 0000004d C294          MOVL      *+XAR4[AR0],XAR6      ; [CPU_ALU] |820| 
    4749                      .dwpsn  file "../bts.c",line 821,column 5,is_stmt,isa 0
    4750 0000004e D046          MOVB      XAR0,#70              ; [CPU_ALU] |821| 
    4751 0000004f BE03          MOVB      XAR6,#3               ; [CPU_ALU] 
    4752 00000050 C59C          MOVL      XAR7,*+XAR4[AR1]      ; [CPU_ALU] 
    4753 00000051 1E94          MOVL      *+XAR4[AR0],ACC       ; [CPU_ALU] |821| 
    4754                      .dwpsn  file "../bts.c",line 824,column 19,is_stmt,isa 0
    4755 00000052 B560          RPTB      ||$C$L43||,AR6        ; [CPU_ALU] |824| 
         00000053 00A6 
    4756                      ; repeat block starts ; [] 
    4757 00000054       ||$C$L42||:    
    4758 00000054 06A7          MOVL      ACC,XAR7              ; [CPU_ALU] 
    4759                      .dwpsn  file "../bts.c",line 825,column 9,is_stmt,isa 0
    4760 00000055 D144          MOVB      XAR1,#68              ; [CPU_ALU] |825| 
    4761                      .dwpsn  file "../bts.c",line 826,column 9,is_stmt,isa 0
    4762 00000056 D020          MOVB      XAR0,#32              ; [CPU_ALU] |826| 
    4763                      .dwpsn  file "../bts.c",line 825,column 9,is_stmt,isa 0
    4764 00000057 81C5          ADD       ACC,*+XAR5[0]         ; [CPU_ALU] |825| 
    4765 00000058 1EA7          MOVL      XAR7,ACC              ; [CPU_ALU] |825| 
    4766 00000059 1E9C          MOVL      *+XAR4[AR1],ACC       ; [CPU_ALU] |825| 
    4767 0000005a A9A9          MOVL      ACC,P                 ; [CPU_ALU] |825| 
    4768 0000005b D144          MOVB      XAR1,#68              ; [CPU_ALU] |825| 
    4769                      .dwpsn  file "../bts.c",line 826,column 9,is_stmt,isa 0
    4770 0000005c 8195          ADD       ACC,*+XAR5[AR0]       ; [CPU_ALU] |826| 
    4771 0000005d D046          MOVB      XAR0,#70              ; [CPU_ALU] |826| 
    4772                      .dwpsn  file "../bts.c",line 825,column 9,is_stmt,isa 0
    4773 0000005e DD01          ADDB      XAR5,#1               ; [CPU_ALU] |825| 
    4774                      .dwpsn  file "../bts.c",line 826,column 9,is_stmt,isa 0
    4775 0000005f FF5A          MOVL      P,ACC                 ; [CPU_ALU] |826| 
    4776 00000060 1E94          MOVL      *+XAR4[AR0],ACC       ; [CPU_ALU] |826| 
    4777 00000061 D020          MOVB      XAR0,#32              ; [CPU_ALU] |826| 
    4778 00000062 06A7          MOVL      ACC,XAR7              ; [CPU_ALU] |826| 
    4779                      .dwpsn  file "../bts.c",line 825,column 9,is_stmt,isa 0
    4780 00000063 81C5          ADD       ACC,*+XAR5[0]         ; [CPU_ALU] |825| 
    4781 00000064 1EA7          MOVL      XAR7,ACC              ; [CPU_ALU] |825| 
    4782 00000065 1E9C          MOVL      *+XAR4[AR1],ACC       ; [CPU_ALU] |825| 
    4783 00000066 A9A9          MOVL      ACC,P                 ; [CPU_ALU] |825| 
    4784 00000067 D144          MOVB      XAR1,#68              ; [CPU_ALU] |825| 
    4785                      .dwpsn  file "../bts.c",line 826,column 9,is_stmt,isa 0
    4786 00000068 8195          ADD       ACC,*+XAR5[AR0]       ; [CPU_ALU] |826| 
TMS320C2000 Assembler PC v20.2.4 Tue Mar  2 07:24:45 2021

Copyright (c) 1996-2018 Texas Instruments Incorporated
bts.asm                                                              PAGE   97

    4787 00000069 D046          MOVB      XAR0,#70              ; [CPU_ALU] |826| 
    4788 0000006a FF5A          MOVL      P,ACC                 ; [CPU_ALU] |826| 
    4789                      .dwpsn  file "../bts.c",line 825,column 9,is_stmt,isa 0
    4790 0000006b DD01          ADDB      XAR5,#1               ; [CPU_ALU] |825| 
    4791                      .dwpsn  file "../bts.c",line 826,column 9,is_stmt,isa 0
    4792 0000006c 1E94          MOVL      *+XAR4[AR0],ACC       ; [CPU_ALU] |826| 
    4793 0000006d D020          MOVB      XAR0,#32              ; [CPU_ALU] |826| 
    4794 0000006e 06A7          MOVL      ACC,XAR7              ; [CPU_ALU] |826| 
    4795                      .dwpsn  file "../bts.c",line 825,column 9,is_stmt,isa 0
    4796 0000006f 81C5          ADD       ACC,*+XAR5[0]         ; [CPU_ALU] |825| 
    4797 00000070 1EA7          MOVL      XAR7,ACC              ; [CPU_ALU] |825| 
    4798 00000071 1E9C          MOVL      *+XAR4[AR1],ACC       ; [CPU_ALU] |825| 
    4799 00000072 A9A9          MOVL      ACC,P                 ; [CPU_ALU] |825| 
    4800 00000073 D144          MOVB      XAR1,#68              ; [CPU_ALU] |825| 
    4801                      .dwpsn  file "../bts.c",line 826,column 9,is_stmt,isa 0
    4802 00000074 8195          ADD       ACC,*+XAR5[AR0]       ; [CPU_ALU] |826| 
    4803 00000075 D046          MOVB      XAR0,#70              ; [CPU_ALU] |826| 
    4804 00000076 FF5A          MOVL      P,ACC                 ; [CPU_ALU] |826| 
    4805                      .dwpsn  file "../bts.c",line 825,column 9,is_stmt,isa 0
    4806 00000077 DD01          ADDB      XAR5,#1               ; [CPU_ALU] |825| 
    4807                      .dwpsn  file "../bts.c",line 826,column 9,is_stmt,isa 0
    4808 00000078 1E94          MOVL      *+XAR4[AR0],ACC       ; [CPU_ALU] |826| 
    4809 00000079 D020          MOVB      XAR0,#32              ; [CPU_ALU] |826| 
    4810 0000007a 06A7          MOVL      ACC,XAR7              ; [CPU_ALU] |826| 
    4811                      .dwpsn  file "../bts.c",line 825,column 9,is_stmt,isa 0
    4812 0000007b 81C5          ADD       ACC,*+XAR5[0]         ; [CPU_ALU] |825| 
    4813 0000007c 1EA7          MOVL      XAR7,ACC              ; [CPU_ALU] |825| 
    4814 0000007d 1E9C          MOVL      *+XAR4[AR1],ACC       ; [CPU_ALU] |825| 
    4815 0000007e A9A9          MOVL      ACC,P                 ; [CPU_ALU] |825| 
    4816 0000007f D144          MOVB      XAR1,#68              ; [CPU_ALU] |825| 
    4817                      .dwpsn  file "../bts.c",line 826,column 9,is_stmt,isa 0
    4818 00000080 8195          ADD       ACC,*+XAR5[AR0]       ; [CPU_ALU] |826| 
    4819 00000081 D046          MOVB      XAR0,#70              ; [CPU_ALU] |826| 
    4820 00000082 FF5A          MOVL      P,ACC                 ; [CPU_ALU] |826| 
    4821                      .dwpsn  file "../bts.c",line 825,column 9,is_stmt,isa 0
    4822 00000083 DD01          ADDB      XAR5,#1               ; [CPU_ALU] |825| 
    4823                      .dwpsn  file "../bts.c",line 826,column 9,is_stmt,isa 0
    4824 00000084 1E94          MOVL      *+XAR4[AR0],ACC       ; [CPU_ALU] |826| 
    4825 00000085 D020          MOVB      XAR0,#32              ; [CPU_ALU] |826| 
    4826 00000086 06A7          MOVL      ACC,XAR7              ; [CPU_ALU] |826| 
    4827                      .dwpsn  file "../bts.c",line 825,column 9,is_stmt,isa 0
    4828 00000087 81C5          ADD       ACC,*+XAR5[0]         ; [CPU_ALU] |825| 
    4829 00000088 1EA7          MOVL      XAR7,ACC              ; [CPU_ALU] |825| 
    4830 00000089 1E9C          MOVL      *+XAR4[AR1],ACC       ; [CPU_ALU] |825| 
    4831 0000008a A9A9          MOVL      ACC,P                 ; [CPU_ALU] |825| 
    4832 0000008b D144          MOVB      XAR1,#68              ; [CPU_ALU] |825| 
    4833                      .dwpsn  file "../bts.c",line 826,column 9,is_stmt,isa 0
    4834 0000008c 8195          ADD       ACC,*+XAR5[AR0]       ; [CPU_ALU] |826| 
    4835 0000008d D046          MOVB      XAR0,#70              ; [CPU_ALU] |826| 
    4836 0000008e FF5A          MOVL      P,ACC                 ; [CPU_ALU] |826| 
    4837                      .dwpsn  file "../bts.c",line 825,column 9,is_stmt,isa 0
    4838 0000008f DD01          ADDB      XAR5,#1               ; [CPU_ALU] |825| 
    4839                      .dwpsn  file "../bts.c",line 826,column 9,is_stmt,isa 0
    4840 00000090 1E94          MOVL      *+XAR4[AR0],ACC       ; [CPU_ALU] |826| 
    4841 00000091 D020          MOVB      XAR0,#32              ; [CPU_ALU] |826| 
TMS320C2000 Assembler PC v20.2.4 Tue Mar  2 07:24:45 2021

Copyright (c) 1996-2018 Texas Instruments Incorporated
bts.asm                                                              PAGE   98

    4842 00000092 06A7          MOVL      ACC,XAR7              ; [CPU_ALU] |826| 
    4843                      .dwpsn  file "../bts.c",line 825,column 9,is_stmt,isa 0
    4844 00000093 81C5          ADD       ACC,*+XAR5[0]         ; [CPU_ALU] |825| 
    4845 00000094 1EA7          MOVL      XAR7,ACC              ; [CPU_ALU] |825| 
    4846 00000095 1E9C          MOVL      *+XAR4[AR1],ACC       ; [CPU_ALU] |825| 
    4847 00000096 A9A9          MOVL      ACC,P                 ; [CPU_ALU] |825| 
    4848 00000097 D144          MOVB      XAR1,#68              ; [CPU_ALU] |825| 
    4849                      .dwpsn  file "../bts.c",line 826,column 9,is_stmt,isa 0
    4850 00000098 8195          ADD       ACC,*+XAR5[AR0]       ; [CPU_ALU] |826| 
    4851 00000099 D046          MOVB      XAR0,#70              ; [CPU_ALU] |826| 
    4852 0000009a FF5A          MOVL      P,ACC                 ; [CPU_ALU] |826| 
    4853                      .dwpsn  file "../bts.c",line 825,column 9,is_stmt,isa 0
    4854 0000009b DD01          ADDB      XAR5,#1               ; [CPU_ALU] |825| 
    4855                      .dwpsn  file "../bts.c",line 826,column 9,is_stmt,isa 0
    4856 0000009c 1E94          MOVL      *+XAR4[AR0],ACC       ; [CPU_ALU] |826| 
    4857 0000009d D020          MOVB      XAR0,#32              ; [CPU_ALU] |826| 
    4858 0000009e 06A7          MOVL      ACC,XAR7              ; [CPU_ALU] |826| 
    4859                      .dwpsn  file "../bts.c",line 825,column 9,is_stmt,isa 0
    4860 0000009f 81C5          ADD       ACC,*+XAR5[0]         ; [CPU_ALU] |825| 
    4861 000000a0 1EA7          MOVL      XAR7,ACC              ; [CPU_ALU] |825| 
    4862 000000a1 1E9C          MOVL      *+XAR4[AR1],ACC       ; [CPU_ALU] |825| 
    4863 000000a2 A9A9          MOVL      ACC,P                 ; [CPU_ALU] |825| 
    4864                      .dwpsn  file "../bts.c",line 826,column 9,is_stmt,isa 0
    4865 000000a3 D146          MOVB      XAR1,#70              ; [CPU_ALU] |826| 
    4866 000000a4 8195          ADD       ACC,*+XAR5[AR0]       ; [CPU_ALU] |826| 
    4867 000000a5 D046          MOVB      XAR0,#70              ; [CPU_ALU] |826| 
    4868 000000a6 FF5A          MOVL      P,ACC                 ; [CPU_ALU] |826| 
    4869                      .dwpsn  file "../bts.c",line 825,column 9,is_stmt,isa 0
    4870 000000a7 DD01          ADDB      XAR5,#1               ; [CPU_ALU] |825| 
    4871                      .dwpsn  file "../bts.c",line 826,column 9,is_stmt,isa 0
    4872 000000a8 1E94          MOVL      *+XAR4[AR0],ACC       ; [CPU_ALU] |826| 
    4873                      .dwpsn  file "../bts.c",line 825,column 9,is_stmt,isa 0
    4874 000000a9 D044          MOVB      XAR0,#68              ; [CPU_ALU] |825| 
    4875                      .dwpsn  file "../bts.c",line 826,column 9,is_stmt,isa 0
    4876 000000aa 06A7          MOVL      ACC,XAR7              ; [CPU_ALU] |826| 
    4877                      .dwpsn  file "../bts.c",line 825,column 9,is_stmt,isa 0
    4878 000000ab 81C5          ADD       ACC,*+XAR5[0]         ; [CPU_ALU] |825| 
    4879 000000ac 1EA7          MOVL      XAR7,ACC              ; [CPU_ALU] |825| 
    4880 000000ad 1E94          MOVL      *+XAR4[AR0],ACC       ; [CPU_ALU] |825| 
    4881                      .dwpsn  file "../bts.c",line 826,column 9,is_stmt,isa 0
    4882 000000ae D020          MOVB      XAR0,#32              ; [CPU_ALU] |826| 
    4883                      .dwpsn  file "../bts.c",line 825,column 9,is_stmt,isa 0
    4884 000000af A9A9          MOVL      ACC,P                 ; [CPU_ALU] |825| 
    4885                      .dwpsn  file "../bts.c",line 826,column 9,is_stmt,isa 0
    4886 000000b0 8195          ADD       ACC,*+XAR5[AR0]       ; [CPU_ALU] |826| 
    4887 000000b1 FF5A          MOVL      P,ACC                 ; [CPU_ALU] |826| 
    4888                      .dwpsn  file "../bts.c",line 824,column 19,is_stmt,isa 0
    4889 000000b2 DD01          ADDB      XAR5,#1               ; [CPU_ALU] |824| 
    4890                      .dwpsn  file "../bts.c",line 826,column 9,is_stmt,isa 0
    4891 000000b3 1E9C          MOVL      *+XAR4[AR1],ACC       ; [CPU_ALU] |826| 
    4892                      ; repeat block ends ; [] 
    4893 000000b4       ||$C$L43||:    
    4894                      .dwpsn  file "../bts.c",line 829,column 5,is_stmt,isa 0
    4895 000000b4 D044          MOVB      XAR0,#68              ; [CPU_ALU] |829| 
    4896 000000b5 E288          I32TOF32  R1H,*+XAR4[AR0]       ; [CPU_FPU] |829| 
TMS320C2000 Assembler PC v20.2.4 Tue Mar  2 07:24:45 2021

Copyright (c) 1996-2018 Texas Instruments Incorporated
bts.asm                                                              PAGE   99

         000000b6 0194 
    4897                      .dwpsn  file "../bts.c",line 831,column 5,is_stmt,isa 0
    4898 000000b7 D046          MOVB      XAR0,#70              ; [CPU_ALU] |831| 
    4899 000000b8 D14E          MOVB      XAR1,#78              ; [CPU_ALU] |831| 
    4900 000000b9 E288          I32TOF32  R0H,*+XAR4[AR0]       ; [CPU_FPU] |831| 
         000000ba 0094 
    4901                      .dwpsn  file "../bts.c",line 829,column 5,is_stmt,isa 0
    4902 000000bb D04A          MOVB      XAR0,#74              ; [CPU_ALU] |829| 
    4903 000000bc E84D          MPYF32    R4H,R1H,#13696        ; [CPU_FPU] |829| 
         000000bd 600C 
    4904 000000be E2AF          MOV32     R3H,*+XAR4[AR0]       ; [CPU_FPU] |829| 
         000000bf 0394 
    4905 000000c0 D04C          MOVB      XAR0,#76              ; [CPU_ALU] |829| 
    4906 000000c1 E2AF          MOV32     R5H,*+XAR4[AR0]       ; [CPU_FPU] |829| 
         000000c2 0594 
    4907                      .dwpsn  file "../bts.c",line 831,column 5,is_stmt,isa 0
    4908 000000c3 E84D          MPYF32    R1H,R0H,#13696        ; [CPU_FPU] |831| 
         000000c4 6001 
    4909 000000c5 D050          MOVB      XAR0,#80              ; [CPU_ALU] |831| 
    4910                      .dwpsn  file "../bts.c",line 829,column 5,is_stmt,isa 0
    4911              
    4912 000000c6 E307          MPYF32    R3H,R4H,R3H           ; [CPU_FPU] |829| 
         000000c7 1A9C 
    4913              ||      MOV32     R2H,*+XAR4[AR1]       ; [CPU_FPU] |831| 
    4914              
    4915                      .dwpsn  file "../bts.c",line 831,column 5,is_stmt,isa 0
    4916 000000c8 E700          MPYF32    R0H,R1H,R2H           ; [CPU_FPU] |831| 
         000000c9 0088 
    4917                      .dwpsn  file "../bts.c",line 829,column 5,is_stmt,isa 0
    4918              
    4919 000000ca E317          ADDF32    R1H,R5H,R3H           ; [CPU_FPU] |829| 
         000000cb 4A94 
    4920              ||      MOV32     R2H,*+XAR4[AR0]       ; [CPU_FPU] |831| 
    4921              
    4922                      .dwpsn  file "../bts.c",line 831,column 5,is_stmt,isa 0
    4923 000000cc E710          ADDF32    R0H,R0H,R2H           ; [CPU_FPU] |831| 
         000000cd 0080 
    4924                      .dwpsn  file "../bts.c",line 829,column 5,is_stmt,isa 0
    4925 000000ce E203          MOV32     *+XAR4[0],R1H         ; [CPU_FPU] |829| 
         000000cf 01C4 
    4926                      .dwpsn  file "../bts.c",line 831,column 5,is_stmt,isa 0
    4927 000000d0 E203          MOV32     *+XAR4[2],R0H         ; [CPU_FPU] |831| 
         000000d1 00D4 
    4928 000000d2 E2AF          MOV32     R5H,*--SP             ; [CPU_FPU] 
         000000d3 05BE 
    4929                      .dwcfi  cfa_offset, -6
    4930                      .dwcfi  restore_reg, 63
    4931 000000d4 E2AF          MOV32     R4H,*--SP             ; [CPU_FPU] 
         000000d5 04BE 
    4932                      .dwcfi  cfa_offset, -4
    4933                      .dwcfi  restore_reg, 59
    4934 000000d6 8BBE          MOVL      XAR1,*--SP            ; [CPU_ALU] 
    4935                      .dwcfi  cfa_offset, -2
    4936                      .dwcfi  restore_reg, 7
    4937              $C$DW$289       .dwtag  DW_TAG_TI_branch
TMS320C2000 Assembler PC v20.2.4 Tue Mar  2 07:24:45 2021

Copyright (c) 1996-2018 Texas Instruments Incorporated
bts.asm                                                              PAGE  100

    4938                      .dwattr $C$DW$289, DW_AT_low_pc(0x00)
    4939                      .dwattr $C$DW$289, DW_AT_TI_return
    4940              
    4941 000000d7 0006          LRETR     ; [CPU_ALU] 
    4942                      ; return occurs ; [] 
    4943                      .dwattr $C$DW$286, DW_AT_TI_end_file("../bts.c")
    4944                      .dwattr $C$DW$286, DW_AT_TI_end_line(0x341)
    4945                      .dwattr $C$DW$286, DW_AT_TI_end_column(0x01)
    4946                      .dwendentry
    4947                      .dwendtag $C$DW$286
    4948              
    4949 0000006c               .sect   ".text"
    4950                      .clink
    4951                      .global ||BTS_initUserVariables||
    4952              
    4953              $C$DW$290       .dwtag  DW_TAG_subprogram
    4954                      .dwattr $C$DW$290, DW_AT_name("BTS_initUserVariables")
    4955                      .dwattr $C$DW$290, DW_AT_low_pc(||BTS_initUserVariables||)
    4956                      .dwattr $C$DW$290, DW_AT_high_pc(0x00)
    4957                      .dwattr $C$DW$290, DW_AT_linkage_name("BTS_initUserVariables")
    4958                      .dwattr $C$DW$290, DW_AT_external
    4959                      .dwattr $C$DW$290, DW_AT_decl_file("../bts.c")
    4960                      .dwattr $C$DW$290, DW_AT_decl_line(0x99)
    4961                      .dwattr $C$DW$290, DW_AT_decl_column(0x06)
    4962                      .dwattr $C$DW$290, DW_AT_TI_max_frame_size(-130)
    4963                      .dwpsn  file "../bts.c",line 154,column 1,is_stmt,address ||BTS_initUserVariables||,isa 0
    4964              
    4965                      .dwfde $C$DW$CIE, ||BTS_initUserVariables||
    4966              
    4967              ;***************************************************************
    4968              ;* FNAME: BTS_initUserVariables         FR SIZE: 128           *
    4969              ;*                                                             *
    4970              ;* FUNCTION ENVIRONMENT                                        *
    4971              ;*                                                             *
    4972              ;* FUNCTION PROPERTIES                                         *
    4973              ;*                            0 Parameter, 118 Auto, 10 SOE     *
    4974              ;***************************************************************
    4975              
    4976 0000006c       ||BTS_initUserVariables||:
    4977                      .dwcfi  cfa_offset, -2
    4978                      .dwcfi  save_reg_to_mem, 26, 0
    4979 0000006c AABD          MOVL      *SP++,XAR2            ; [CPU_ALU] 
    4980                      .dwcfi  save_reg_to_mem, 9, 2
    4981                      .dwcfi  cfa_offset, -4
    4982 0000006d E203          MOV32     *SP++,R4H             ; [CPU_FPU] 
         0000006e 04BD 
    4983                      .dwcfi  save_reg_to_mem, 59, 4
    4984                      .dwcfi  cfa_offset, -6
    4985 0000006f E203          MOV32     *SP++,R5H             ; [CPU_FPU] 
         00000070 05BD 
    4986                      .dwcfi  save_reg_to_mem, 63, 6
    4987                      .dwcfi  cfa_offset, -8
    4988 00000071 E203          MOV32     *SP++,R6H             ; [CPU_FPU] 
         00000072 06BD 
    4989                      .dwcfi  save_reg_to_mem, 67, 8
TMS320C2000 Assembler PC v20.2.4 Tue Mar  2 07:24:45 2021

Copyright (c) 1996-2018 Texas Instruments Incorporated
bts.asm                                                              PAGE  101

    4990                      .dwcfi  cfa_offset, -10
    4991 00000073 E203          MOV32     *SP++,R7H             ; [CPU_FPU] 
         00000074 07BD 
    4992                      .dwcfi  save_reg_to_mem, 71, 10
    4993                      .dwcfi  cfa_offset, -12
    4994 00000075 5AAD          MOVZ      AR2,SP                ; [CPU_ALU] 
    4995 00000076 DA8C          SUBB      FP,#12                ; [CPU_ARAU] 
    4996 00000077 FE76          ADDB      SP,#118               ; [CPU_ARAU] 
    4997                      .dwcfi  cfa_offset, -130
    4998 00000078 761F!         MOVW      DP,#||BTS_userInput_ch1||+6 ; [CPU_ARAU] 
         00000079 0000 
    4999                      .dwpsn  file "../bts.c",line 159,column 5,is_stmt,isa 0
    5000 0000007a E802          MOVIZ     R0H,#16492            ; [CPU_FPU] |159| 
         0000007b 0360 
    5001                      .dwpsn  file "../bts.c",line 157,column 5,is_stmt,isa 0
    5002 0000007c E593          ZERO      R3H                   ; [CPU_FPU] |157| 
    5003                      .dwpsn  file "../bts.c",line 158,column 5,is_stmt,isa 0
    5004 0000007d E801          MOVIZ     R2H,#16256            ; [CPU_FPU] |158| 
         0000007e FC02 
    5005                      .dwpsn  file "../bts.c",line 155,column 5,is_stmt,isa 0
    5006 0000007f 56BF!         MOVB      @$BLOCKED(||BTS_userInput_ch1||)+6,#1,UNC ; [CPU_ALU] |155| 
         00000080 0106 
    5007                      .dwpsn  file "../bts.c",line 160,column 5,is_stmt,isa 0
    5008 00000081 E801          MOVIZ     R1H,#16128            ; [CPU_FPU] |160| 
         00000082 F801 
    5009                      .dwpsn  file "../bts.c",line 156,column 5,is_stmt,isa 0
    5010 00000083 2B07!         MOV       @$BLOCKED(||BTS_userInput_ch1||)+7,#0 ; [CPU_ALU] |156| 
    5011                      .dwpsn  file "../bts.c",line 159,column 5,is_stmt,isa 0
    5012 00000084 E80E          MOVXI     R0H,#52429            ; [CPU_FPU] |159| 
         00000085 6668 
    5013                      .dwpsn  file "../bts.c",line 157,column 5,is_stmt,isa 0
    5014 00000086 E203!         MOV32     @$BLOCKED(||BTS_userInput_ch1||)+8,R3H ; [CPU_FPU] |157| 
         00000087 0308 
    5015                      .dwpsn  file "../bts.c",line 158,column 5,is_stmt,isa 0
    5016 00000088 E203!         MOV32     @$BLOCKED(||BTS_userInput_ch1||),R2H ; [CPU_FPU] |158| 
         00000089 0200 
    5017                      .dwpsn  file "../bts.c",line 175,column 5,is_stmt,isa 0
    5018 0000008a E801          MOVIZ     R2H,#16256            ; [CPU_FPU] |175| 
         0000008b FC02 
    5019                      .dwpsn  file "../bts.c",line 159,column 5,is_stmt,isa 0
    5020 0000008c E203!         MOV32     @$BLOCKED(||BTS_userInput_ch1||)+2,R0H ; [CPU_FPU] |159| 
         0000008d 0002 
    5021                      .dwpsn  file "../bts.c",line 176,column 5,is_stmt,isa 0
    5022 0000008e E802          MOVIZ     R0H,#16492            ; [CPU_FPU] |176| 
         0000008f 0360 
    5023                      .dwpsn  file "../bts.c",line 160,column 5,is_stmt,isa 0
    5024 00000090 E203!         MOV32     @$BLOCKED(||BTS_userInput_ch1||)+4,R1H ; [CPU_FPU] |160| 
         00000091 0104 
    5025                      .dwpsn  file "../bts.c",line 176,column 5,is_stmt,isa 0
    5026 00000092 E80E          MOVXI     R0H,#52429            ; [CPU_FPU] |176| 
         00000093 6668 
    5027                      .dwpsn  file "../bts.c",line 177,column 5,is_stmt,isa 0
    5028 00000094 E801          MOVIZ     R1H,#16128            ; [CPU_FPU] |177| 
         00000095 F801 
    5029                      .dwpsn  file "../bts.c",line 172,column 5,is_stmt,isa 0
TMS320C2000 Assembler PC v20.2.4 Tue Mar  2 07:24:45 2021

Copyright (c) 1996-2018 Texas Instruments Incorporated
bts.asm                                                              PAGE  102

    5030 00000096 56BF!         MOVB      @$BLOCKED(||BTS_userInput_ch2||)+6,#1,UNC ; [CPU_ALU] |172| 
         00000097 0106 
    5031                      .dwpsn  file "../bts.c",line 173,column 5,is_stmt,isa 0
    5032 00000098 2B07!         MOV       @$BLOCKED(||BTS_userInput_ch2||)+7,#0 ; [CPU_ALU] |173| 
    5033                      .dwpsn  file "../bts.c",line 221,column 5,is_stmt,isa 0
    5034 00000099 D042          MOVL      XAR0,#66              ; [CPU_ALU] |221| 
    5035                      .dwpsn  file "../bts.c",line 174,column 5,is_stmt,isa 0
    5036 0000009a E203!         MOV32     @$BLOCKED(||BTS_userInput_ch2||)+8,R3H ; [CPU_FPU] |174| 
         0000009b 0308 
    5037                      .dwpsn  file "../bts.c",line 175,column 5,is_stmt,isa 0
    5038 0000009c E203!         MOV32     @$BLOCKED(||BTS_userInput_ch2||),R2H ; [CPU_FPU] |175| 
         0000009d 0200 
    5039                      .dwpsn  file "../bts.c",line 192,column 5,is_stmt,isa 0
    5040 0000009e E801          MOVIZ     R2H,#16256            ; [CPU_FPU] |192| 
         0000009f FC02 
    5041                      .dwpsn  file "../bts.c",line 176,column 5,is_stmt,isa 0
    5042 000000a0 E203!         MOV32     @$BLOCKED(||BTS_userInput_ch2||)+2,R0H ; [CPU_FPU] |176| 
         000000a1 0002 
    5043                      .dwpsn  file "../bts.c",line 193,column 5,is_stmt,isa 0
    5044 000000a2 E802          MOVIZ     R0H,#16492            ; [CPU_FPU] |193| 
         000000a3 0360 
    5045 000000a4 E80E          MOVXI     R0H,#52429            ; [CPU_FPU] |193| 
         000000a5 6668 
    5046                      .dwpsn  file "../bts.c",line 177,column 5,is_stmt,isa 0
    5047 000000a6 E203!         MOV32     @$BLOCKED(||BTS_userInput_ch2||)+4,R1H ; [CPU_FPU] |177| 
         000000a7 0104 
    5048 000000a8 761F!         MOVW      DP,#||BTS_userInput_ch3||+6 ; [CPU_ARAU] 
         000000a9 0000 
    5049                      .dwpsn  file "../bts.c",line 194,column 5,is_stmt,isa 0
    5050 000000aa E801          MOVIZ     R1H,#16128            ; [CPU_FPU] |194| 
         000000ab F801 
    5051                      .dwpsn  file "../bts.c",line 189,column 5,is_stmt,isa 0
    5052 000000ac 56BF!         MOVB      @$BLOCKED(||BTS_userInput_ch3||)+6,#1,UNC ; [CPU_ALU] |189| 
         000000ad 0106 
    5053                      .dwpsn  file "../bts.c",line 281,column 5,is_stmt,isa 0
    5054 000000ae E801          MOVIZ     R6H,#15820            ; [CPU_FPU] |281| 
         000000af EE66 
    5055                      .dwpsn  file "../bts.c",line 283,column 5,is_stmt,isa 0
    5056 000000b0 E802          MOVIZ     R5H,#16672            ; [CPU_FPU] |283| 
         000000b1 0905 
    5057                      .dwpsn  file "../bts.c",line 284,column 5,is_stmt,isa 0
    5058 000000b2 E805          MOVIZ     R4H,#45856            ; [CPU_FPU] |284| 
         000000b3 9904 
    5059                      .dwpsn  file "../bts.c",line 278,column 5,is_stmt,isa 0
    5060 000000b4 E802          MOVIZ     R7H,#16492            ; [CPU_FPU] |278| 
         000000b5 0367 
    5061                      .dwpsn  file "../bts.c",line 190,column 5,is_stmt,isa 0
    5062 000000b6 2B07!         MOV       @$BLOCKED(||BTS_userInput_ch3||)+7,#0 ; [CPU_ALU] |190| 
    5063                      .dwpsn  file "../bts.c",line 191,column 5,is_stmt,isa 0
    5064 000000b7 E203!         MOV32     @$BLOCKED(||BTS_userInput_ch3||)+8,R3H ; [CPU_FPU] |191| 
         000000b8 0308 
    5065                      .dwpsn  file "../bts.c",line 192,column 5,is_stmt,isa 0
    5066 000000b9 E203!         MOV32     @$BLOCKED(||BTS_userInput_ch3||),R2H ; [CPU_FPU] |192| 
         000000ba 0200 
    5067                      .dwpsn  file "../bts.c",line 209,column 5,is_stmt,isa 0
TMS320C2000 Assembler PC v20.2.4 Tue Mar  2 07:24:45 2021

Copyright (c) 1996-2018 Texas Instruments Incorporated
bts.asm                                                              PAGE  103

    5068 000000bb E801          MOVIZ     R2H,#16256            ; [CPU_FPU] |209| 
         000000bc FC02 
    5069                      .dwpsn  file "../bts.c",line 193,column 5,is_stmt,isa 0
    5070 000000bd E203!         MOV32     @$BLOCKED(||BTS_userInput_ch3||)+2,R0H ; [CPU_FPU] |193| 
         000000be 0002 
    5071                      .dwpsn  file "../bts.c",line 210,column 5,is_stmt,isa 0
    5072 000000bf E802          MOVIZ     R0H,#16492            ; [CPU_FPU] |210| 
         000000c0 0360 
    5073 000000c1 E80E          MOVXI     R0H,#52429            ; [CPU_FPU] |210| 
         000000c2 6668 
    5074                      .dwpsn  file "../bts.c",line 194,column 5,is_stmt,isa 0
    5075 000000c3 E203!         MOV32     @$BLOCKED(||BTS_userInput_ch3||)+4,R1H ; [CPU_FPU] |194| 
         000000c4 0104 
    5076                      .dwpsn  file "../bts.c",line 211,column 5,is_stmt,isa 0
    5077 000000c5 E801          MOVIZ     R1H,#16128            ; [CPU_FPU] |211| 
         000000c6 F801 
    5078                      .dwpsn  file "../bts.c",line 206,column 5,is_stmt,isa 0
    5079 000000c7 56BF!         MOVB      @$BLOCKED(||BTS_userInput_ch4||)+6,#1,UNC ; [CPU_ALU] |206| 
         000000c8 0106 
    5080                      .dwpsn  file "../bts.c",line 207,column 5,is_stmt,isa 0
    5081 000000c9 2B07!         MOV       @$BLOCKED(||BTS_userInput_ch4||)+7,#0 ; [CPU_ALU] |207| 
    5082                      .dwpsn  file "../bts.c",line 208,column 5,is_stmt,isa 0
    5083 000000ca E203!         MOV32     @$BLOCKED(||BTS_userInput_ch4||)+8,R3H ; [CPU_FPU] |208| 
         000000cb 0308 
    5084                      .dwpsn  file "../bts.c",line 209,column 5,is_stmt,isa 0
    5085 000000cc E203!         MOV32     @$BLOCKED(||BTS_userInput_ch4||),R2H ; [CPU_FPU] |209| 
         000000cd 0200 
    5086                      .dwpsn  file "../bts.c",line 226,column 5,is_stmt,isa 0
    5087 000000ce E801          MOVIZ     R2H,#16256            ; [CPU_FPU] |226| 
         000000cf FC02 
    5088                      .dwpsn  file "../bts.c",line 210,column 5,is_stmt,isa 0
    5089 000000d0 E203!         MOV32     @$BLOCKED(||BTS_userInput_ch4||)+2,R0H ; [CPU_FPU] |210| 
         000000d1 0002 
    5090                      .dwpsn  file "../bts.c",line 227,column 5,is_stmt,isa 0
    5091 000000d2 E802          MOVIZ     R0H,#16492            ; [CPU_FPU] |227| 
         000000d3 0360 
    5092 000000d4 E80E          MOVXI     R0H,#52429            ; [CPU_FPU] |227| 
         000000d5 6668 
    5093                      .dwpsn  file "../bts.c",line 211,column 5,is_stmt,isa 0
    5094 000000d6 E203!         MOV32     @$BLOCKED(||BTS_userInput_ch4||)+4,R1H ; [CPU_FPU] |211| 
         000000d7 0104 
    5095                      .dwpsn  file "../bts.c",line 228,column 5,is_stmt,isa 0
    5096 000000d8 E801          MOVIZ     R1H,#16128            ; [CPU_FPU] |228| 
         000000d9 F801 
    5097 000000da 761F!         MOVW      DP,#||BTS_userInput_ch5||+6 ; [CPU_ARAU] 
         000000db 0000 
    5098                      .dwpsn  file "../bts.c",line 223,column 5,is_stmt,isa 0
    5099 000000dc 56BF!         MOVB      @$BLOCKED(||BTS_userInput_ch5||)+6,#1,UNC ; [CPU_ALU] |223| 
         000000dd 0106 
    5100                      .dwpsn  file "../bts.c",line 224,column 5,is_stmt,isa 0
    5101 000000de 2B07!         MOV       @$BLOCKED(||BTS_userInput_ch5||)+7,#0 ; [CPU_ALU] |224| 
    5102                      .dwpsn  file "../bts.c",line 225,column 5,is_stmt,isa 0
    5103 000000df E203!         MOV32     @$BLOCKED(||BTS_userInput_ch5||)+8,R3H ; [CPU_FPU] |225| 
         000000e0 0308 
    5104                      .dwpsn  file "../bts.c",line 226,column 5,is_stmt,isa 0
TMS320C2000 Assembler PC v20.2.4 Tue Mar  2 07:24:45 2021

Copyright (c) 1996-2018 Texas Instruments Incorporated
bts.asm                                                              PAGE  104

    5105 000000e1 E203!         MOV32     @$BLOCKED(||BTS_userInput_ch5||),R2H ; [CPU_FPU] |226| 
         000000e2 0200 
    5106                      .dwpsn  file "../bts.c",line 243,column 5,is_stmt,isa 0
    5107 000000e3 E801          MOVIZ     R2H,#16256            ; [CPU_FPU] |243| 
         000000e4 FC02 
    5108                      .dwpsn  file "../bts.c",line 227,column 5,is_stmt,isa 0
    5109 000000e5 E203!         MOV32     @$BLOCKED(||BTS_userInput_ch5||)+2,R0H ; [CPU_FPU] |227| 
         000000e6 0002 
    5110                      .dwpsn  file "../bts.c",line 244,column 5,is_stmt,isa 0
    5111 000000e7 E802          MOVIZ     R0H,#16492            ; [CPU_FPU] |244| 
         000000e8 0360 
    5112 000000e9 E80E          MOVXI     R0H,#52429            ; [CPU_FPU] |244| 
         000000ea 6668 
    5113                      .dwpsn  file "../bts.c",line 228,column 5,is_stmt,isa 0
    5114 000000eb E203!         MOV32     @$BLOCKED(||BTS_userInput_ch5||)+4,R1H ; [CPU_FPU] |228| 
         000000ec 0104 
    5115                      .dwpsn  file "../bts.c",line 245,column 5,is_stmt,isa 0
    5116 000000ed E801          MOVIZ     R1H,#16128            ; [CPU_FPU] |245| 
         000000ee F801 
    5117                      .dwpsn  file "../bts.c",line 240,column 5,is_stmt,isa 0
    5118 000000ef 56BF!         MOVB      @$BLOCKED(||BTS_userInput_ch6||)+6,#1,UNC ; [CPU_ALU] |240| 
         000000f0 0106 
    5119                      .dwpsn  file "../bts.c",line 241,column 5,is_stmt,isa 0
    5120 000000f1 2B07!         MOV       @$BLOCKED(||BTS_userInput_ch6||)+7,#0 ; [CPU_ALU] |241| 
    5121                      .dwpsn  file "../bts.c",line 242,column 5,is_stmt,isa 0
    5122 000000f2 E203!         MOV32     @$BLOCKED(||BTS_userInput_ch6||)+8,R3H ; [CPU_FPU] |242| 
         000000f3 0308 
    5123                      .dwpsn  file "../bts.c",line 243,column 5,is_stmt,isa 0
    5124 000000f4 E203!         MOV32     @$BLOCKED(||BTS_userInput_ch6||),R2H ; [CPU_FPU] |243| 
         000000f5 0200 
    5125                      .dwpsn  file "../bts.c",line 260,column 5,is_stmt,isa 0
    5126 000000f6 E801          MOVIZ     R2H,#16256            ; [CPU_FPU] |260| 
         000000f7 FC02 
    5127                      .dwpsn  file "../bts.c",line 244,column 5,is_stmt,isa 0
    5128 000000f8 E203!         MOV32     @$BLOCKED(||BTS_userInput_ch6||)+2,R0H ; [CPU_FPU] |244| 
         000000f9 0002 
    5129                      .dwpsn  file "../bts.c",line 261,column 5,is_stmt,isa 0
    5130 000000fa E802          MOVIZ     R0H,#16492            ; [CPU_FPU] |261| 
         000000fb 0360 
    5131 000000fc E80E          MOVXI     R0H,#52429            ; [CPU_FPU] |261| 
         000000fd 6668 
    5132                      .dwpsn  file "../bts.c",line 245,column 5,is_stmt,isa 0
    5133 000000fe E203!         MOV32     @$BLOCKED(||BTS_userInput_ch6||)+4,R1H ; [CPU_FPU] |245| 
         000000ff 0104 
    5134 00000100 761F!         MOVW      DP,#||BTS_userInput_ch7||+6 ; [CPU_ARAU] 
         00000101 0000 
    5135                      .dwpsn  file "../bts.c",line 262,column 5,is_stmt,isa 0
    5136 00000102 E801          MOVIZ     R1H,#16128            ; [CPU_FPU] |262| 
         00000103 F801 
    5137                      .dwpsn  file "../bts.c",line 257,column 5,is_stmt,isa 0
    5138 00000104 56BF!         MOVB      @$BLOCKED(||BTS_userInput_ch7||)+6,#1,UNC ; [CPU_ALU] |257| 
         00000105 0106 
    5139                      .dwpsn  file "../bts.c",line 258,column 5,is_stmt,isa 0
    5140 00000106 2B07!         MOV       @$BLOCKED(||BTS_userInput_ch7||)+7,#0 ; [CPU_ALU] |258| 
    5141                      .dwpsn  file "../bts.c",line 259,column 5,is_stmt,isa 0
TMS320C2000 Assembler PC v20.2.4 Tue Mar  2 07:24:45 2021

Copyright (c) 1996-2018 Texas Instruments Incorporated
bts.asm                                                              PAGE  105

    5142 00000107 E203!         MOV32     @$BLOCKED(||BTS_userInput_ch7||)+8,R3H ; [CPU_FPU] |259| 
         00000108 0308 
    5143                      .dwpsn  file "../bts.c",line 260,column 5,is_stmt,isa 0
    5144 00000109 E203!         MOV32     @$BLOCKED(||BTS_userInput_ch7||),R2H ; [CPU_FPU] |260| 
         0000010a 0200 
    5145                      .dwpsn  file "../bts.c",line 261,column 5,is_stmt,isa 0
    5146 0000010b E203!         MOV32     @$BLOCKED(||BTS_userInput_ch7||)+2,R0H ; [CPU_FPU] |261| 
         0000010c 0002 
    5147                      .dwpsn  file "../bts.c",line 162,column 5,is_stmt,isa 0
    5148 0000010d E801          MOVIZ     R0H,#15821            ; [CPU_FPU] |162| 
         0000010e EE68 
    5149 0000010f E203          MOV32     *-SP[2],R0H           ; [CPU_FPU] |162| 
         00000110 0042 
    5150                      .dwpsn  file "../bts.c",line 163,column 5,is_stmt,isa 0
    5151 00000111 E801          MOVIZ     R0H,#14724            ; [CPU_FPU] |163| 
         00000112 CC20 
    5152 00000113 E203          MOV32     *-SP[4],R0H           ; [CPU_FPU] |163| 
         00000114 0044 
    5153                      .dwpsn  file "../bts.c",line 164,column 5,is_stmt,isa 0
    5154 00000115 E802          MOVIZ     R0H,#16671            ; [CPU_FPU] |164| 
         00000116 08F8 
    5155                      .dwpsn  file "../bts.c",line 286,column 5,is_stmt,isa 0
    5156 00000117 E801          MOVIZ     R3H,#15951            ; [CPU_FPU] |286| 
         00000118 F27B 
    5157                      .dwpsn  file "../bts.c",line 164,column 5,is_stmt,isa 0
    5158 00000119 E203          MOV32     *-SP[6],R0H           ; [CPU_FPU] |164| 
         0000011a 0046 
    5159                      .dwpsn  file "../bts.c",line 165,column 5,is_stmt,isa 0
    5160 0000011b E805          MOVIZ     R0H,#47909            ; [CPU_FPU] |165| 
         0000011c D928 
    5161                      .dwpsn  file "../bts.c",line 262,column 5,is_stmt,isa 0
    5162 0000011d E203!         MOV32     @$BLOCKED(||BTS_userInput_ch7||)+4,R1H ; [CPU_FPU] |262| 
         0000011e 0104 
    5163                      .dwpsn  file "../bts.c",line 165,column 5,is_stmt,isa 0
    5164 0000011f E203          MOV32     *-SP[8],R0H           ; [CPU_FPU] |165| 
         00000120 0048 
    5165                      .dwpsn  file "../bts.c",line 167,column 5,is_stmt,isa 0
    5166 00000121 E801          MOVIZ     R0H,#15951            ; [CPU_FPU] |167| 
         00000122 F278 
    5167 00000123 E203          MOV32     *-SP[10],R0H          ; [CPU_FPU] |167| 
         00000124 004A 
    5168                      .dwpsn  file "../bts.c",line 168,column 5,is_stmt,isa 0
    5169 00000125 E805          MOVIZ     R0H,#47658            ; [CPU_FPU] |168| 
         00000126 D150 
    5170                      .dwpsn  file "../bts.c",line 288,column 5,is_stmt,isa 0
    5171 00000127 E802          MOVIZ     R2H,#16542            ; [CPU_FPU] |288| 
         00000128 04F2 
    5172                      .dwpsn  file "../bts.c",line 168,column 5,is_stmt,isa 0
    5173 00000129 E203          MOV32     *-SP[12],R0H          ; [CPU_FPU] |168| 
         0000012a 004C 
    5174                      .dwpsn  file "../bts.c",line 169,column 5,is_stmt,isa 0
    5175 0000012b E802          MOVIZ     R0H,#16541            ; [CPU_FPU] |169| 
         0000012c 04E8 
    5176 0000012d E203          MOV32     *-SP[14],R0H          ; [CPU_FPU] |169| 
         0000012e 004E 
TMS320C2000 Assembler PC v20.2.4 Tue Mar  2 07:24:45 2021

Copyright (c) 1996-2018 Texas Instruments Incorporated
bts.asm                                                              PAGE  106

    5177                      .dwpsn  file "../bts.c",line 170,column 5,is_stmt,isa 0
    5178 0000012f E801          MOVIZ     R0H,#15186            ; [CPU_FPU] |170| 
         00000130 DA90 
    5179                      .dwpsn  file "../bts.c",line 274,column 5,is_stmt,isa 0
    5180 00000131 56BF!         MOVB      @$BLOCKED(||BTS_userInput_ch8||)+6,#1,UNC ; [CPU_ALU] |274| 
         00000132 0106 
    5181                      .dwpsn  file "../bts.c",line 170,column 5,is_stmt,isa 0
    5182 00000133 E203          MOV32     *-SP[16],R0H          ; [CPU_FPU] |170| 
         00000134 0050 
    5183                      .dwpsn  file "../bts.c",line 179,column 5,is_stmt,isa 0
    5184 00000135 E801          MOVIZ     R0H,#15820            ; [CPU_FPU] |179| 
         00000136 EE60 
    5185 00000137 E203          MOV32     *-SP[18],R0H          ; [CPU_FPU] |179| 
         00000138 0052 
    5186                      .dwpsn  file "../bts.c",line 181,column 5,is_stmt,isa 0
    5187 00000139 E802          MOVIZ     R0H,#16672            ; [CPU_FPU] |181| 
         0000013a 0900 
    5188 0000013b E203          MOV32     *-SP[22],R0H          ; [CPU_FPU] |181| 
         0000013c 0056 
    5189                      .dwpsn  file "../bts.c",line 182,column 5,is_stmt,isa 0
    5190 0000013d E805          MOVIZ     R0H,#45856            ; [CPU_FPU] |182| 
         0000013e 9900 
    5191 0000013f E203          MOV32     *-SP[24],R0H          ; [CPU_FPU] |182| 
         00000140 0058 
    5192                      .dwpsn  file "../bts.c",line 184,column 5,is_stmt,isa 0
    5193 00000141 E801          MOVIZ     R0H,#15951            ; [CPU_FPU] |184| 
         00000142 F278 
    5194 00000143 E203          MOV32     *-SP[26],R0H          ; [CPU_FPU] |184| 
         00000144 005A 
    5195                      .dwpsn  file "../bts.c",line 289,column 5,is_stmt,isa 0
    5196 00000145 E801          MOVIZ     R1H,#13214            ; [CPU_FPU] |289| 
         00000146 9CF1 
    5197                      .dwpsn  file "../bts.c",line 186,column 5,is_stmt,isa 0
    5198 00000147 E802          MOVIZ     R0H,#16542            ; [CPU_FPU] |186| 
         00000148 04F0 
    5199 00000149 E203          MOV32     *-SP[30],R0H          ; [CPU_FPU] |186| 
         0000014a 005E 
    5200                      .dwpsn  file "../bts.c",line 187,column 5,is_stmt,isa 0
    5201 0000014b E801          MOVIZ     R0H,#13214            ; [CPU_FPU] |187| 
         0000014c 9CF0 
    5202 0000014d E203          MOV32     *-SP[32],R0H          ; [CPU_FPU] |187| 
         0000014e 0060 
    5203                      .dwpsn  file "../bts.c",line 275,column 5,is_stmt,isa 0
    5204 0000014f 2B07!         MOV       @$BLOCKED(||BTS_userInput_ch8||)+7,#0 ; [CPU_ALU] |275| 
    5205                      .dwpsn  file "../bts.c",line 196,column 5,is_stmt,isa 0
    5206 00000150 E801          MOVIZ     R0H,#15820            ; [CPU_FPU] |196| 
         00000151 EE60 
    5207 00000152 E203          MOV32     *-SP[34],R0H          ; [CPU_FPU] |196| 
         00000153 0062 
    5208                      .dwpsn  file "../bts.c",line 198,column 5,is_stmt,isa 0
    5209 00000154 E802          MOVIZ     R0H,#16672            ; [CPU_FPU] |198| 
         00000155 0900 
    5210 00000156 E203          MOV32     *-SP[38],R0H          ; [CPU_FPU] |198| 
         00000157 0066 
    5211                      .dwpsn  file "../bts.c",line 199,column 5,is_stmt,isa 0
TMS320C2000 Assembler PC v20.2.4 Tue Mar  2 07:24:45 2021

Copyright (c) 1996-2018 Texas Instruments Incorporated
bts.asm                                                              PAGE  107

    5212 00000158 E805          MOVIZ     R0H,#45856            ; [CPU_FPU] |199| 
         00000159 9900 
    5213 0000015a E203          MOV32     *-SP[40],R0H          ; [CPU_FPU] |199| 
         0000015b 0068 
    5214                      .dwpsn  file "../bts.c",line 201,column 5,is_stmt,isa 0
    5215 0000015c E801          MOVIZ     R0H,#15951            ; [CPU_FPU] |201| 
         0000015d F278 
    5216 0000015e E203          MOV32     *-SP[42],R0H          ; [CPU_FPU] |201| 
         0000015f 006A 
    5217                      .dwpsn  file "../bts.c",line 203,column 5,is_stmt,isa 0
    5218 00000160 E802          MOVIZ     R0H,#16542            ; [CPU_FPU] |203| 
         00000161 04F0 
    5219 00000162 E203          MOV32     *-SP[46],R0H          ; [CPU_FPU] |203| 
         00000163 006E 
    5220                      .dwpsn  file "../bts.c",line 204,column 5,is_stmt,isa 0
    5221 00000164 E801          MOVIZ     R0H,#13214            ; [CPU_FPU] |204| 
         00000165 9CF0 
    5222 00000166 E203          MOV32     *-SP[48],R0H          ; [CPU_FPU] |204| 
         00000167 0070 
    5223                      .dwpsn  file "../bts.c",line 213,column 5,is_stmt,isa 0
    5224 00000168 E801          MOVIZ     R0H,#15820            ; [CPU_FPU] |213| 
         00000169 EE60 
    5225 0000016a E203          MOV32     *-SP[50],R0H          ; [CPU_FPU] |213| 
         0000016b 0072 
    5226                      .dwpsn  file "../bts.c",line 215,column 5,is_stmt,isa 0
    5227 0000016c E802          MOVIZ     R0H,#16672            ; [CPU_FPU] |215| 
         0000016d 0900 
    5228 0000016e E203          MOV32     *-SP[54],R0H          ; [CPU_FPU] |215| 
         0000016f 0076 
    5229                      .dwpsn  file "../bts.c",line 216,column 5,is_stmt,isa 0
    5230 00000170 E805          MOVIZ     R0H,#45856            ; [CPU_FPU] |216| 
         00000171 9900 
    5231 00000172 E203          MOV32     *-SP[56],R0H          ; [CPU_FPU] |216| 
         00000173 0078 
    5232                      .dwpsn  file "../bts.c",line 218,column 5,is_stmt,isa 0
    5233 00000174 E801          MOVIZ     R0H,#15951            ; [CPU_FPU] |218| 
         00000175 F278 
    5234 00000176 E203          MOV32     *-SP[58],R0H          ; [CPU_FPU] |218| 
         00000177 007A 
    5235                      .dwpsn  file "../bts.c",line 220,column 5,is_stmt,isa 0
    5236 00000178 E802          MOVIZ     R0H,#16542            ; [CPU_FPU] |220| 
         00000179 04F0 
    5237 0000017a E203          MOV32     *-SP[62],R0H          ; [CPU_FPU] |220| 
         0000017b 007E 
    5238                      .dwpsn  file "../bts.c",line 221,column 5,is_stmt,isa 0
    5239 0000017c E801          MOVIZ     R0H,#13214            ; [CPU_FPU] |221| 
         0000017d 9CF0 
    5240 0000017e E203          MOV32     *+FP[AR0],R0H         ; [CPU_FPU] |221| 
         0000017f 0092 
    5241                      .dwpsn  file "../bts.c",line 230,column 5,is_stmt,isa 0
    5242 00000180 E801          MOVIZ     R0H,#15820            ; [CPU_FPU] |230| 
         00000181 EE60 
    5243 00000182 D040          MOVL      XAR0,#64              ; [CPU_ALU] |230| 
    5244 00000183 E203          MOV32     *+FP[AR0],R0H         ; [CPU_FPU] |230| 
         00000184 0092 
TMS320C2000 Assembler PC v20.2.4 Tue Mar  2 07:24:45 2021

Copyright (c) 1996-2018 Texas Instruments Incorporated
bts.asm                                                              PAGE  108

    5245                      .dwpsn  file "../bts.c",line 232,column 5,is_stmt,isa 0
    5246 00000185 E802          MOVIZ     R0H,#16672            ; [CPU_FPU] |232| 
         00000186 0900 
    5247 00000187 D03C          MOVL      XAR0,#60              ; [CPU_ALU] |232| 
    5248 00000188 E203          MOV32     *+FP[AR0],R0H         ; [CPU_FPU] |232| 
         00000189 0092 
    5249                      .dwpsn  file "../bts.c",line 233,column 5,is_stmt,isa 0
    5250 0000018a E805          MOVIZ     R0H,#45856            ; [CPU_FPU] |233| 
         0000018b 9900 
    5251 0000018c D03A          MOVL      XAR0,#58              ; [CPU_ALU] |233| 
    5252 0000018d E203          MOV32     *+FP[AR0],R0H         ; [CPU_FPU] |233| 
         0000018e 0092 
    5253                      .dwpsn  file "../bts.c",line 235,column 5,is_stmt,isa 0
    5254 0000018f E801          MOVIZ     R0H,#15951            ; [CPU_FPU] |235| 
         00000190 F278 
    5255 00000191 D038          MOVL      XAR0,#56              ; [CPU_ALU] |235| 
    5256 00000192 E203          MOV32     *+FP[AR0],R0H         ; [CPU_FPU] |235| 
         00000193 0092 
    5257                      .dwpsn  file "../bts.c",line 237,column 5,is_stmt,isa 0
    5258 00000194 E802          MOVIZ     R0H,#16542            ; [CPU_FPU] |237| 
         00000195 04F0 
    5259 00000196 D034          MOVL      XAR0,#52              ; [CPU_ALU] |237| 
    5260 00000197 E203          MOV32     *+FP[AR0],R0H         ; [CPU_FPU] |237| 
         00000198 0092 
    5261                      .dwpsn  file "../bts.c",line 238,column 5,is_stmt,isa 0
    5262 00000199 E801          MOVIZ     R0H,#13214            ; [CPU_FPU] |238| 
         0000019a 9CF0 
    5263 0000019b D032          MOVL      XAR0,#50              ; [CPU_ALU] |238| 
    5264 0000019c E203          MOV32     *+FP[AR0],R0H         ; [CPU_FPU] |238| 
         0000019d 0092 
    5265                      .dwpsn  file "../bts.c",line 247,column 5,is_stmt,isa 0
    5266 0000019e E801          MOVIZ     R0H,#15820            ; [CPU_FPU] |247| 
         0000019f EE60 
    5267 000001a0 D030          MOVL      XAR0,#48              ; [CPU_ALU] |247| 
    5268 000001a1 E203          MOV32     *+FP[AR0],R0H         ; [CPU_FPU] |247| 
         000001a2 0092 
    5269                      .dwpsn  file "../bts.c",line 249,column 5,is_stmt,isa 0
    5270 000001a3 E802          MOVIZ     R0H,#16672            ; [CPU_FPU] |249| 
         000001a4 0900 
    5271 000001a5 D02C          MOVL      XAR0,#44              ; [CPU_ALU] |249| 
    5272 000001a6 E203          MOV32     *+FP[AR0],R0H         ; [CPU_FPU] |249| 
         000001a7 0092 
    5273                      .dwpsn  file "../bts.c",line 250,column 5,is_stmt,isa 0
    5274 000001a8 E805          MOVIZ     R0H,#45856            ; [CPU_FPU] |250| 
         000001a9 9900 
    5275 000001aa D02A          MOVL      XAR0,#42              ; [CPU_ALU] |250| 
    5276 000001ab E203          MOV32     *+FP[AR0],R0H         ; [CPU_FPU] |250| 
         000001ac 0092 
    5277                      .dwpsn  file "../bts.c",line 252,column 5,is_stmt,isa 0
    5278 000001ad E801          MOVIZ     R0H,#15951            ; [CPU_FPU] |252| 
         000001ae F278 
    5279 000001af D028          MOVL      XAR0,#40              ; [CPU_ALU] |252| 
    5280 000001b0 E203          MOV32     *+FP[AR0],R0H         ; [CPU_FPU] |252| 
         000001b1 0092 
    5281                      .dwpsn  file "../bts.c",line 254,column 5,is_stmt,isa 0
TMS320C2000 Assembler PC v20.2.4 Tue Mar  2 07:24:45 2021

Copyright (c) 1996-2018 Texas Instruments Incorporated
bts.asm                                                              PAGE  109

    5282 000001b2 E802          MOVIZ     R0H,#16542            ; [CPU_FPU] |254| 
         000001b3 04F0 
    5283 000001b4 D024          MOVL      XAR0,#36              ; [CPU_ALU] |254| 
    5284 000001b5 E203          MOV32     *+FP[AR0],R0H         ; [CPU_FPU] |254| 
         000001b6 0092 
    5285                      .dwpsn  file "../bts.c",line 255,column 5,is_stmt,isa 0
    5286 000001b7 E801          MOVIZ     R0H,#13214            ; [CPU_FPU] |255| 
         000001b8 9CF0 
    5287 000001b9 D022          MOVL      XAR0,#34              ; [CPU_ALU] |255| 
    5288 000001ba E203          MOV32     *+FP[AR0],R0H         ; [CPU_FPU] |255| 
         000001bb 0092 
    5289                      .dwpsn  file "../bts.c",line 264,column 5,is_stmt,isa 0
    5290 000001bc E801          MOVIZ     R0H,#15820            ; [CPU_FPU] |264| 
         000001bd EE60 
    5291 000001be D020          MOVL      XAR0,#32              ; [CPU_ALU] |264| 
    5292 000001bf E203          MOV32     *+FP[AR0],R0H         ; [CPU_FPU] |264| 
         000001c0 0092 
    5293                      .dwpsn  file "../bts.c",line 266,column 5,is_stmt,isa 0
    5294 000001c1 E802          MOVIZ     R0H,#16672            ; [CPU_FPU] |266| 
         000001c2 0900 
    5295 000001c3 D01C          MOVL      XAR0,#28              ; [CPU_ALU] |266| 
    5296 000001c4 E203          MOV32     *+FP[AR0],R0H         ; [CPU_FPU] |266| 
         000001c5 0092 
    5297                      .dwpsn  file "../bts.c",line 267,column 5,is_stmt,isa 0
    5298 000001c6 E805          MOVIZ     R0H,#45856            ; [CPU_FPU] |267| 
         000001c7 9900 
    5299 000001c8 D01A          MOVL      XAR0,#26              ; [CPU_ALU] |267| 
    5300 000001c9 E203          MOV32     *+FP[AR0],R0H         ; [CPU_FPU] |267| 
         000001ca 0092 
    5301                      .dwpsn  file "../bts.c",line 269,column 5,is_stmt,isa 0
    5302 000001cb E801          MOVIZ     R0H,#15951            ; [CPU_FPU] |269| 
         000001cc F278 
    5303 000001cd D018          MOVL      XAR0,#24              ; [CPU_ALU] |269| 
    5304 000001ce E203          MOV32     *+FP[AR0],R0H         ; [CPU_FPU] |269| 
         000001cf 0092 
    5305                      .dwpsn  file "../bts.c",line 271,column 5,is_stmt,isa 0
    5306 000001d0 E802          MOVIZ     R0H,#16542            ; [CPU_FPU] |271| 
         000001d1 04F0 
    5307 000001d2 D014          MOVL      XAR0,#20              ; [CPU_ALU] |271| 
    5308 000001d3 E203          MOV32     *+FP[AR0],R0H         ; [CPU_FPU] |271| 
         000001d4 0092 
    5309                      .dwpsn  file "../bts.c",line 272,column 5,is_stmt,isa 0
    5310 000001d5 E801          MOVIZ     R0H,#13214            ; [CPU_FPU] |272| 
         000001d6 9CF0 
    5311 000001d7 D012          MOVL      XAR0,#18              ; [CPU_ALU] |272| 
    5312 000001d8 E203          MOV32     *+FP[AR0],R0H         ; [CPU_FPU] |272| 
         000001d9 0092 
    5313                      .dwpsn  file "../bts.c",line 277,column 5,is_stmt,isa 0
    5314 000001da E801          MOVIZ     R0H,#16256            ; [CPU_FPU] |277| 
         000001db FC00 
    5315 000001dc D010          MOVL      XAR0,#16              ; [CPU_ALU] |277| 
    5316 000001dd E203          MOV32     *+FP[AR0],R0H         ; [CPU_FPU] |277| 
         000001de 0092 
    5317                      .dwpsn  file "../bts.c",line 276,column 5,is_stmt,isa 0
    5318 000001df E590          ZERO      R0H                   ; [CPU_FPU] |276| 
TMS320C2000 Assembler PC v20.2.4 Tue Mar  2 07:24:45 2021

Copyright (c) 1996-2018 Texas Instruments Incorporated
bts.asm                                                              PAGE  110

    5319                      .dwpsn  file "../bts.c",line 231,column 5,is_stmt,isa 0
    5320 000001e0 D03E          MOVL      XAR0,#62              ; [CPU_ALU] |231| 
    5321                      .dwpsn  file "../bts.c",line 276,column 5,is_stmt,isa 0
    5322 000001e1 E203!         MOV32     @$BLOCKED(||BTS_userInput_ch8||)+8,R0H ; [CPU_FPU] |276| 
         000001e2 0008 
    5323                      .dwpsn  file "../bts.c",line 180,column 5,is_stmt,isa 0
    5324 000001e3 E801          MOVIZ     R0H,#12672            ; [CPU_FPU] |180| 
         000001e4 8C00 
    5325 000001e5 E203          MOV32     *-SP[20],R0H          ; [CPU_FPU] |180| 
         000001e6 0054 
    5326                      .dwpsn  file "../bts.c",line 185,column 5,is_stmt,isa 0
    5327 000001e7 E805          MOVIZ     R0H,#45696            ; [CPU_FPU] |185| 
         000001e8 9400 
    5328 000001e9 E203          MOV32     *-SP[28],R0H          ; [CPU_FPU] |185| 
         000001ea 005C 
    5329                      .dwpsn  file "../bts.c",line 197,column 5,is_stmt,isa 0
    5330 000001eb E801          MOVIZ     R0H,#12672            ; [CPU_FPU] |197| 
         000001ec 8C00 
    5331 000001ed E203          MOV32     *-SP[36],R0H          ; [CPU_FPU] |197| 
         000001ee 0064 
    5332                      .dwpsn  file "../bts.c",line 202,column 5,is_stmt,isa 0
    5333 000001ef E805          MOVIZ     R0H,#45696            ; [CPU_FPU] |202| 
         000001f0 9400 
    5334 000001f1 E203          MOV32     *-SP[44],R0H          ; [CPU_FPU] |202| 
         000001f2 006C 
    5335                      .dwpsn  file "../bts.c",line 214,column 5,is_stmt,isa 0
    5336 000001f3 E801          MOVIZ     R0H,#12672            ; [CPU_FPU] |214| 
         000001f4 8C00 
    5337 000001f5 E203          MOV32     *-SP[52],R0H          ; [CPU_FPU] |214| 
         000001f6 0074 
    5338                      .dwpsn  file "../bts.c",line 219,column 5,is_stmt,isa 0
    5339 000001f7 E805          MOVIZ     R0H,#45696            ; [CPU_FPU] |219| 
         000001f8 9400 
    5340 000001f9 E203          MOV32     *-SP[60],R0H          ; [CPU_FPU] |219| 
         000001fa 007C 
    5341                      .dwpsn  file "../bts.c",line 231,column 5,is_stmt,isa 0
    5342 000001fb E801          MOVIZ     R0H,#12672            ; [CPU_FPU] |231| 
         000001fc 8C00 
    5343 000001fd E203          MOV32     *+FP[AR0],R0H         ; [CPU_FPU] |231| 
         000001fe 0092 
    5344                      .dwpsn  file "../bts.c",line 236,column 5,is_stmt,isa 0
    5345 000001ff E805          MOVIZ     R0H,#45696            ; [CPU_FPU] |236| 
         00000200 9400 
    5346 00000201 D036          MOVL      XAR0,#54              ; [CPU_ALU] |236| 
    5347 00000202 E203          MOV32     *+FP[AR0],R0H         ; [CPU_FPU] |236| 
         00000203 0092 
    5348                      .dwpsn  file "../bts.c",line 248,column 5,is_stmt,isa 0
    5349 00000204 E801          MOVIZ     R0H,#12672            ; [CPU_FPU] |248| 
         00000205 8C00 
    5350 00000206 D02E          MOVL      XAR0,#46              ; [CPU_ALU] |248| 
    5351 00000207 E203          MOV32     *+FP[AR0],R0H         ; [CPU_FPU] |248| 
         00000208 0092 
    5352                      .dwpsn  file "../bts.c",line 253,column 5,is_stmt,isa 0
    5353 00000209 E805          MOVIZ     R0H,#45696            ; [CPU_FPU] |253| 
         0000020a 9400 
TMS320C2000 Assembler PC v20.2.4 Tue Mar  2 07:24:45 2021

Copyright (c) 1996-2018 Texas Instruments Incorporated
bts.asm                                                              PAGE  111

    5354 0000020b D026          MOVL      XAR0,#38              ; [CPU_ALU] |253| 
    5355 0000020c E203          MOV32     *+FP[AR0],R0H         ; [CPU_FPU] |253| 
         0000020d 0092 
    5356                      .dwpsn  file "../bts.c",line 265,column 5,is_stmt,isa 0
    5357 0000020e E801          MOVIZ     R0H,#12672            ; [CPU_FPU] |265| 
         0000020f 8C00 
    5358 00000210 D01E          MOVL      XAR0,#30              ; [CPU_ALU] |265| 
    5359 00000211 E203          MOV32     *+FP[AR0],R0H         ; [CPU_FPU] |265| 
         00000212 0092 
    5360                      .dwpsn  file "../bts.c",line 270,column 5,is_stmt,isa 0
    5361 00000213 E805          MOVIZ     R0H,#45696            ; [CPU_FPU] |270| 
         00000214 9400 
    5362 00000215 D016          MOVL      XAR0,#22              ; [CPU_ALU] |270| 
    5363 00000216 E203          MOV32     *+FP[AR0],R0H         ; [CPU_FPU] |270| 
         00000217 0092 
    5364                      .dwpsn  file "../bts.c",line 282,column 5,is_stmt,isa 0
    5365 00000218 E801          MOVIZ     R0H,#12672            ; [CPU_FPU] |282| 
         00000219 8C00 
    5366 0000021a D00E          MOVL      XAR0,#14              ; [CPU_ALU] |282| 
    5367 0000021b E203          MOV32     *+FP[AR0],R0H         ; [CPU_FPU] |282| 
         0000021c 0092 
    5368                      .dwpsn  file "../bts.c",line 287,column 5,is_stmt,isa 0
    5369 0000021d E805          MOVIZ     R0H,#45696            ; [CPU_FPU] |287| 
         0000021e 9400 
    5370 0000021f D00C          MOVL      XAR0,#12              ; [CPU_ALU] |287| 
    5371 00000220 E203          MOV32     *+FP[AR0],R0H         ; [CPU_FPU] |287| 
         00000221 0092 
    5372 00000222 E2AF          MOV32     R0H,*-SP[2]           ; [CPU_FPU] |287| 
         00000223 0042 
    5373                      .dwpsn  file "../bts.c",line 162,column 5,is_stmt,isa 0
    5374 00000224 E80B          MOVXI     R0H,#29226            ; [CPU_FPU] |162| 
         00000225 9150 
    5375 00000226 E203          MOV32     *-SP[2],R0H           ; [CPU_FPU] |162| 
         00000227 0042 
    5376 00000228 E2AF          MOV32     R0H,*-SP[4]           ; [CPU_FPU] |162| 
         00000229 0044 
    5377                      .dwpsn  file "../bts.c",line 220,column 5,is_stmt,isa 0
    5378 0000022a D042          MOVL      XAR0,#66              ; [CPU_ALU] |220| 
    5379                      .dwpsn  file "../bts.c",line 163,column 5,is_stmt,isa 0
    5380 0000022b E80B          MOVXI     R0H,#28160            ; [CPU_FPU] |163| 
         0000022c 7000 
    5381 0000022d E203          MOV32     *-SP[4],R0H           ; [CPU_FPU] |163| 
         0000022e 0044 
    5382 0000022f E2AF          MOV32     R0H,*-SP[6]           ; [CPU_FPU] |163| 
         00000230 0046 
    5383                      .dwpsn  file "../bts.c",line 164,column 5,is_stmt,isa 0
    5384 00000231 E80B          MOVXI     R0H,#32567            ; [CPU_FPU] |164| 
         00000232 F9B8 
    5385 00000233 E203          MOV32     *-SP[6],R0H           ; [CPU_FPU] |164| 
         00000234 0046 
    5386 00000235 E2AF          MOV32     R0H,*-SP[8]           ; [CPU_FPU] |164| 
         00000236 0048 
    5387                      .dwpsn  file "../bts.c",line 165,column 5,is_stmt,isa 0
    5388 00000237 E808          MOVXI     R0H,#1090             ; [CPU_FPU] |165| 
         00000238 2210 
TMS320C2000 Assembler PC v20.2.4 Tue Mar  2 07:24:45 2021

Copyright (c) 1996-2018 Texas Instruments Incorporated
bts.asm                                                              PAGE  112

    5389 00000239 E203          MOV32     *-SP[8],R0H           ; [CPU_FPU] |165| 
         0000023a 0048 
    5390 0000023b E2AF          MOV32     R0H,*-SP[10]          ; [CPU_FPU] |165| 
         0000023c 004A 
    5391                      .dwpsn  file "../bts.c",line 167,column 5,is_stmt,isa 0
    5392 0000023d E80F          MOVXI     R0H,#63120            ; [CPU_FPU] |167| 
         0000023e B480 
    5393 0000023f E203          MOV32     *-SP[10],R0H          ; [CPU_FPU] |167| 
         00000240 004A 
    5394 00000241 E2AF          MOV32     R0H,*-SP[12]          ; [CPU_FPU] |167| 
         00000242 004C 
    5395                      .dwpsn  file "../bts.c",line 168,column 5,is_stmt,isa 0
    5396 00000243 E80D          MOVXI     R0H,#44544            ; [CPU_FPU] |168| 
         00000244 7000 
    5397 00000245 E203          MOV32     *-SP[12],R0H          ; [CPU_FPU] |168| 
         00000246 004C 
    5398 00000247 E2AF          MOV32     R0H,*-SP[14]          ; [CPU_FPU] |168| 
         00000248 004E 
    5399                      .dwpsn  file "../bts.c",line 169,column 5,is_stmt,isa 0
    5400 00000249 E80C          MOVXI     R0H,#37119            ; [CPU_FPU] |169| 
         0000024a 87F8 
    5401 0000024b E203          MOV32     *-SP[14],R0H          ; [CPU_FPU] |169| 
         0000024c 004E 
    5402 0000024d E2AF          MOV32     R0H,*-SP[16]          ; [CPU_FPU] |169| 
         0000024e 0050 
    5403                      .dwpsn  file "../bts.c",line 170,column 5,is_stmt,isa 0
    5404 0000024f E808          MOVXI     R0H,#6852             ; [CPU_FPU] |170| 
         00000250 D620 
    5405 00000251 E203          MOV32     *-SP[16],R0H          ; [CPU_FPU] |170| 
         00000252 0050 
    5406 00000253 E2AF          MOV32     R0H,*-SP[18]          ; [CPU_FPU] |170| 
         00000254 0052 
    5407                      .dwpsn  file "../bts.c",line 179,column 5,is_stmt,isa 0
    5408 00000255 E80A          MOVXI     R0H,#16513            ; [CPU_FPU] |179| 
         00000256 0408 
    5409 00000257 E203          MOV32     *-SP[18],R0H          ; [CPU_FPU] |179| 
         00000258 0052 
    5410 00000259 E2AF          MOV32     R0H,*-SP[22]          ; [CPU_FPU] |179| 
         0000025a 0056 
    5411                      .dwpsn  file "../bts.c",line 181,column 5,is_stmt,isa 0
    5412 0000025b E80B          MOVXI     R0H,#28135            ; [CPU_FPU] |181| 
         0000025c 6F38 
    5413 0000025d E203          MOV32     *-SP[22],R0H          ; [CPU_FPU] |181| 
         0000025e 0056 
    5414 0000025f E2AF          MOV32     R0H,*-SP[24]          ; [CPU_FPU] |181| 
         00000260 0058 
    5415                      .dwpsn  file "../bts.c",line 182,column 5,is_stmt,isa 0
    5416 00000261 E80B          MOVXI     R0H,#28135            ; [CPU_FPU] |182| 
         00000262 6F38 
    5417 00000263 E203          MOV32     *-SP[24],R0H          ; [CPU_FPU] |182| 
         00000264 0058 
    5418 00000265 E2AF          MOV32     R0H,*-SP[26]          ; [CPU_FPU] |182| 
         00000266 005A 
    5419                      .dwpsn  file "../bts.c",line 184,column 5,is_stmt,isa 0
    5420 00000267 E809          MOVXI     R0H,#11968            ; [CPU_FPU] |184| 
TMS320C2000 Assembler PC v20.2.4 Tue Mar  2 07:24:45 2021

Copyright (c) 1996-2018 Texas Instruments Incorporated
bts.asm                                                              PAGE  113

         00000268 7600 
    5421 00000269 E203          MOV32     *-SP[26],R0H          ; [CPU_FPU] |184| 
         0000026a 005A 
    5422 0000026b E2AF          MOV32     R0H,*-SP[30]          ; [CPU_FPU] |184| 
         0000026c 005E 
    5423                      .dwpsn  file "../bts.c",line 186,column 5,is_stmt,isa 0
    5424 0000026d E809          MOVXI     R0H,#10485            ; [CPU_FPU] |186| 
         0000026e 47A8 
    5425 0000026f E203          MOV32     *-SP[30],R0H          ; [CPU_FPU] |186| 
         00000270 005E 
    5426 00000271 E2AF          MOV32     R0H,*-SP[32]          ; [CPU_FPU] |186| 
         00000272 0060 
    5427                      .dwpsn  file "../bts.c",line 187,column 5,is_stmt,isa 0
    5428 00000273 E809          MOVXI     R0H,#10485            ; [CPU_FPU] |187| 
         00000274 47A8 
    5429 00000275 E203          MOV32     *-SP[32],R0H          ; [CPU_FPU] |187| 
         00000276 0060 
    5430 00000277 E2AF          MOV32     R0H,*-SP[34]          ; [CPU_FPU] |187| 
         00000278 0062 
    5431                      .dwpsn  file "../bts.c",line 196,column 5,is_stmt,isa 0
    5432 00000279 E80A          MOVXI     R0H,#16513            ; [CPU_FPU] |196| 
         0000027a 0408 
    5433 0000027b E203          MOV32     *-SP[34],R0H          ; [CPU_FPU] |196| 
         0000027c 0062 
    5434 0000027d E2AF          MOV32     R0H,*-SP[38]          ; [CPU_FPU] |196| 
         0000027e 0066 
    5435                      .dwpsn  file "../bts.c",line 198,column 5,is_stmt,isa 0
    5436 0000027f E80B          MOVXI     R0H,#28135            ; [CPU_FPU] |198| 
         00000280 6F38 
    5437 00000281 E203          MOV32     *-SP[38],R0H          ; [CPU_FPU] |198| 
         00000282 0066 
    5438 00000283 E2AF          MOV32     R0H,*-SP[40]          ; [CPU_FPU] |198| 
         00000284 0068 
    5439                      .dwpsn  file "../bts.c",line 199,column 5,is_stmt,isa 0
    5440 00000285 E80B          MOVXI     R0H,#28135            ; [CPU_FPU] |199| 
         00000286 6F38 
    5441 00000287 E203          MOV32     *-SP[40],R0H          ; [CPU_FPU] |199| 
         00000288 0068 
    5442 00000289 E2AF          MOV32     R0H,*-SP[42]          ; [CPU_FPU] |199| 
         0000028a 006A 
    5443                      .dwpsn  file "../bts.c",line 201,column 5,is_stmt,isa 0
    5444 0000028b E809          MOVXI     R0H,#11968            ; [CPU_FPU] |201| 
         0000028c 7600 
    5445 0000028d E203          MOV32     *-SP[42],R0H          ; [CPU_FPU] |201| 
         0000028e 006A 
    5446 0000028f E2AF          MOV32     R0H,*-SP[46]          ; [CPU_FPU] |201| 
         00000290 006E 
    5447                      .dwpsn  file "../bts.c",line 203,column 5,is_stmt,isa 0
    5448 00000291 E809          MOVXI     R0H,#10485            ; [CPU_FPU] |203| 
         00000292 47A8 
    5449 00000293 E203          MOV32     *-SP[46],R0H          ; [CPU_FPU] |203| 
         00000294 006E 
    5450 00000295 E2AF          MOV32     R0H,*-SP[48]          ; [CPU_FPU] |203| 
         00000296 0070 
    5451                      .dwpsn  file "../bts.c",line 204,column 5,is_stmt,isa 0
TMS320C2000 Assembler PC v20.2.4 Tue Mar  2 07:24:45 2021

Copyright (c) 1996-2018 Texas Instruments Incorporated
bts.asm                                                              PAGE  114

    5452 00000297 E809          MOVXI     R0H,#10485            ; [CPU_FPU] |204| 
         00000298 47A8 
    5453 00000299 E203          MOV32     *-SP[48],R0H          ; [CPU_FPU] |204| 
         0000029a 0070 
    5454 0000029b E2AF          MOV32     R0H,*-SP[50]          ; [CPU_FPU] |204| 
         0000029c 0072 
    5455                      .dwpsn  file "../bts.c",line 213,column 5,is_stmt,isa 0
    5456 0000029d E80A          MOVXI     R0H,#16513            ; [CPU_FPU] |213| 
         0000029e 0408 
    5457 0000029f E203          MOV32     *-SP[50],R0H          ; [CPU_FPU] |213| 
         000002a0 0072 
    5458 000002a1 E2AF          MOV32     R0H,*-SP[54]          ; [CPU_FPU] |213| 
         000002a2 0076 
    5459                      .dwpsn  file "../bts.c",line 215,column 5,is_stmt,isa 0
    5460 000002a3 E80B          MOVXI     R0H,#28135            ; [CPU_FPU] |215| 
         000002a4 6F38 
    5461 000002a5 E203          MOV32     *-SP[54],R0H          ; [CPU_FPU] |215| 
         000002a6 0076 
    5462 000002a7 E2AF          MOV32     R0H,*-SP[56]          ; [CPU_FPU] |215| 
         000002a8 0078 
    5463                      .dwpsn  file "../bts.c",line 216,column 5,is_stmt,isa 0
    5464 000002a9 E80B          MOVXI     R0H,#28135            ; [CPU_FPU] |216| 
         000002aa 6F38 
    5465 000002ab E203          MOV32     *-SP[56],R0H          ; [CPU_FPU] |216| 
         000002ac 0078 
    5466 000002ad E2AF          MOV32     R0H,*-SP[58]          ; [CPU_FPU] |216| 
         000002ae 007A 
    5467                      .dwpsn  file "../bts.c",line 218,column 5,is_stmt,isa 0
    5468 000002af E809          MOVXI     R0H,#11968            ; [CPU_FPU] |218| 
         000002b0 7600 
    5469 000002b1 E203          MOV32     *-SP[58],R0H          ; [CPU_FPU] |218| 
         000002b2 007A 
    5470 000002b3 E2AF          MOV32     R0H,*-SP[62]          ; [CPU_FPU] |218| 
         000002b4 007E 
    5471                      .dwpsn  file "../bts.c",line 220,column 5,is_stmt,isa 0
    5472 000002b5 E809          MOVXI     R0H,#10485            ; [CPU_FPU] |220| 
         000002b6 47A8 
    5473 000002b7 E203          MOV32     *-SP[62],R0H          ; [CPU_FPU] |220| 
         000002b8 007E 
    5474 000002b9 E2AF          MOV32     R0H,*+FP[AR0]         ; [CPU_FPU] |220| 
         000002ba 0092 
    5475                      .dwpsn  file "../bts.c",line 221,column 5,is_stmt,isa 0
    5476 000002bb D042          MOVL      XAR0,#66              ; [CPU_ALU] |221| 
    5477 000002bc E809          MOVXI     R0H,#10485            ; [CPU_FPU] |221| 
         000002bd 47A8 
    5478 000002be E203          MOV32     *+FP[AR0],R0H         ; [CPU_FPU] |221| 
         000002bf 0092 
    5479 000002c0 D040          MOVL      XAR0,#64              ; [CPU_ALU] |221| 
    5480 000002c1 E2AF          MOV32     R0H,*+FP[AR0]         ; [CPU_FPU] |221| 
         000002c2 0092 
    5481                      .dwpsn  file "../bts.c",line 230,column 5,is_stmt,isa 0
    5482 000002c3 D040          MOVL      XAR0,#64              ; [CPU_ALU] |230| 
    5483 000002c4 E80A          MOVXI     R0H,#16513            ; [CPU_FPU] |230| 
         000002c5 0408 
    5484 000002c6 E203          MOV32     *+FP[AR0],R0H         ; [CPU_FPU] |230| 
TMS320C2000 Assembler PC v20.2.4 Tue Mar  2 07:24:45 2021

Copyright (c) 1996-2018 Texas Instruments Incorporated
bts.asm                                                              PAGE  115

         000002c7 0092 
    5485 000002c8 D03C          MOVL      XAR0,#60              ; [CPU_ALU] |230| 
    5486 000002c9 E2AF          MOV32     R0H,*+FP[AR0]         ; [CPU_FPU] |230| 
         000002ca 0092 
    5487                      .dwpsn  file "../bts.c",line 232,column 5,is_stmt,isa 0
    5488 000002cb D03C          MOVL      XAR0,#60              ; [CPU_ALU] |232| 
    5489 000002cc E80B          MOVXI     R0H,#28135            ; [CPU_FPU] |232| 
         000002cd 6F38 
    5490 000002ce E203          MOV32     *+FP[AR0],R0H         ; [CPU_FPU] |232| 
         000002cf 0092 
    5491 000002d0 D03A          MOVL      XAR0,#58              ; [CPU_ALU] |232| 
    5492 000002d1 E2AF          MOV32     R0H,*+FP[AR0]         ; [CPU_FPU] |232| 
         000002d2 0092 
    5493                      .dwpsn  file "../bts.c",line 233,column 5,is_stmt,isa 0
    5494 000002d3 D03A          MOVL      XAR0,#58              ; [CPU_ALU] |233| 
    5495 000002d4 E80B          MOVXI     R0H,#28135            ; [CPU_FPU] |233| 
         000002d5 6F38 
    5496 000002d6 E203          MOV32     *+FP[AR0],R0H         ; [CPU_FPU] |233| 
         000002d7 0092 
    5497 000002d8 D038          MOVL      XAR0,#56              ; [CPU_ALU] |233| 
    5498 000002d9 E2AF          MOV32     R0H,*+FP[AR0]         ; [CPU_FPU] |233| 
         000002da 0092 
    5499                      .dwpsn  file "../bts.c",line 235,column 5,is_stmt,isa 0
    5500 000002db D038          MOVL      XAR0,#56              ; [CPU_ALU] |235| 
    5501 000002dc E809          MOVXI     R0H,#11968            ; [CPU_FPU] |235| 
         000002dd 7600 
    5502 000002de E203          MOV32     *+FP[AR0],R0H         ; [CPU_FPU] |235| 
         000002df 0092 
    5503 000002e0 D034          MOVL      XAR0,#52              ; [CPU_ALU] |235| 
    5504 000002e1 E2AF          MOV32     R0H,*+FP[AR0]         ; [CPU_FPU] |235| 
         000002e2 0092 
    5505                      .dwpsn  file "../bts.c",line 237,column 5,is_stmt,isa 0
    5506 000002e3 D034          MOVL      XAR0,#52              ; [CPU_ALU] |237| 
    5507 000002e4 E809          MOVXI     R0H,#10485            ; [CPU_FPU] |237| 
         000002e5 47A8 
    5508 000002e6 E203          MOV32     *+FP[AR0],R0H         ; [CPU_FPU] |237| 
         000002e7 0092 
    5509 000002e8 D032          MOVL      XAR0,#50              ; [CPU_ALU] |237| 
    5510 000002e9 E2AF          MOV32     R0H,*+FP[AR0]         ; [CPU_FPU] |237| 
         000002ea 0092 
    5511                      .dwpsn  file "../bts.c",line 238,column 5,is_stmt,isa 0
    5512 000002eb D032          MOVL      XAR0,#50              ; [CPU_ALU] |238| 
    5513 000002ec E809          MOVXI     R0H,#10485            ; [CPU_FPU] |238| 
         000002ed 47A8 
    5514 000002ee E203          MOV32     *+FP[AR0],R0H         ; [CPU_FPU] |238| 
         000002ef 0092 
    5515 000002f0 D030          MOVL      XAR0,#48              ; [CPU_ALU] |238| 
    5516 000002f1 E2AF          MOV32     R0H,*+FP[AR0]         ; [CPU_FPU] |238| 
         000002f2 0092 
    5517                      .dwpsn  file "../bts.c",line 247,column 5,is_stmt,isa 0
    5518 000002f3 D030          MOVL      XAR0,#48              ; [CPU_ALU] |247| 
    5519 000002f4 E80A          MOVXI     R0H,#16513            ; [CPU_FPU] |247| 
         000002f5 0408 
    5520 000002f6 E203          MOV32     *+FP[AR0],R0H         ; [CPU_FPU] |247| 
         000002f7 0092 
TMS320C2000 Assembler PC v20.2.4 Tue Mar  2 07:24:45 2021

Copyright (c) 1996-2018 Texas Instruments Incorporated
bts.asm                                                              PAGE  116

    5521 000002f8 D02C          MOVL      XAR0,#44              ; [CPU_ALU] |247| 
    5522 000002f9 E2AF          MOV32     R0H,*+FP[AR0]         ; [CPU_FPU] |247| 
         000002fa 0092 
    5523                      .dwpsn  file "../bts.c",line 249,column 5,is_stmt,isa 0
    5524 000002fb D02C          MOVL      XAR0,#44              ; [CPU_ALU] |249| 
    5525 000002fc E80B          MOVXI     R0H,#28135            ; [CPU_FPU] |249| 
         000002fd 6F38 
    5526 000002fe E203          MOV32     *+FP[AR0],R0H         ; [CPU_FPU] |249| 
         000002ff 0092 
    5527 00000300 D02A          MOVL      XAR0,#42              ; [CPU_ALU] |249| 
    5528 00000301 E2AF          MOV32     R0H,*+FP[AR0]         ; [CPU_FPU] |249| 
         00000302 0092 
    5529                      .dwpsn  file "../bts.c",line 250,column 5,is_stmt,isa 0
    5530 00000303 D02A          MOVL      XAR0,#42              ; [CPU_ALU] |250| 
    5531 00000304 E80B          MOVXI     R0H,#28135            ; [CPU_FPU] |250| 
         00000305 6F38 
    5532 00000306 E203          MOV32     *+FP[AR0],R0H         ; [CPU_FPU] |250| 
         00000307 0092 
    5533                      .dwpsn  file "../bts.c",line 278,column 5,is_stmt,isa 0
    5534 00000308 E80E          MOVXI     R7H,#52429            ; [CPU_FPU] |278| 
         00000309 666F 
    5535                      .dwpsn  file "../bts.c",line 281,column 5,is_stmt,isa 0
    5536 0000030a E80A          MOVXI     R6H,#16513            ; [CPU_FPU] |281| 
         0000030b 040E 
    5537                      .dwpsn  file "../bts.c",line 283,column 5,is_stmt,isa 0
    5538 0000030c E80B          MOVXI     R5H,#28135            ; [CPU_FPU] |283| 
         0000030d 6F3D 
    5539                      .dwpsn  file "../bts.c",line 284,column 5,is_stmt,isa 0
    5540 0000030e E80B          MOVXI     R4H,#28135            ; [CPU_FPU] |284| 
         0000030f 6F3C 
    5541                      .dwpsn  file "../bts.c",line 286,column 5,is_stmt,isa 0
    5542 00000310 E809          MOVXI     R3H,#11968            ; [CPU_FPU] |286| 
         00000311 7603 
    5543                      .dwpsn  file "../bts.c",line 250,column 5,is_stmt,isa 0
    5544 00000312 D028          MOVL      XAR0,#40              ; [CPU_ALU] |250| 
    5545                      .dwpsn  file "../bts.c",line 288,column 5,is_stmt,isa 0
    5546 00000313 E809          MOVXI     R2H,#10485            ; [CPU_FPU] |288| 
         00000314 47AA 
    5547                      .dwpsn  file "../bts.c",line 289,column 5,is_stmt,isa 0
    5548 00000315 E809          MOVXI     R1H,#10485            ; [CPU_FPU] |289| 
         00000316 47A9 
    5549                      .dwpsn  file "../bts.c",line 250,column 5,is_stmt,isa 0
    5550 00000317 E2AF          MOV32     R0H,*+FP[AR0]         ; [CPU_FPU] |250| 
         00000318 0092 
    5551                      .dwpsn  file "../bts.c",line 252,column 5,is_stmt,isa 0
    5552 00000319 D028          MOVL      XAR0,#40              ; [CPU_ALU] |252| 
    5553 0000031a E809          MOVXI     R0H,#11968            ; [CPU_FPU] |252| 
         0000031b 7600 
    5554 0000031c E203          MOV32     *+FP[AR0],R0H         ; [CPU_FPU] |252| 
         0000031d 0092 
    5555 0000031e D024          MOVL      XAR0,#36              ; [CPU_ALU] |252| 
    5556 0000031f E2AF          MOV32     R0H,*+FP[AR0]         ; [CPU_FPU] |252| 
         00000320 0092 
    5557                      .dwpsn  file "../bts.c",line 254,column 5,is_stmt,isa 0
    5558 00000321 D024          MOVL      XAR0,#36              ; [CPU_ALU] |254| 
TMS320C2000 Assembler PC v20.2.4 Tue Mar  2 07:24:45 2021

Copyright (c) 1996-2018 Texas Instruments Incorporated
bts.asm                                                              PAGE  117

    5559 00000322 E809          MOVXI     R0H,#10485            ; [CPU_FPU] |254| 
         00000323 47A8 
    5560 00000324 E203          MOV32     *+FP[AR0],R0H         ; [CPU_FPU] |254| 
         00000325 0092 
    5561 00000326 D022          MOVL      XAR0,#34              ; [CPU_ALU] |254| 
    5562 00000327 E2AF          MOV32     R0H,*+FP[AR0]         ; [CPU_FPU] |254| 
         00000328 0092 
    5563                      .dwpsn  file "../bts.c",line 255,column 5,is_stmt,isa 0
    5564 00000329 D022          MOVL      XAR0,#34              ; [CPU_ALU] |255| 
    5565 0000032a E809          MOVXI     R0H,#10485            ; [CPU_FPU] |255| 
         0000032b 47A8 
    5566 0000032c E203          MOV32     *+FP[AR0],R0H         ; [CPU_FPU] |255| 
         0000032d 0092 
    5567 0000032e D020          MOVL      XAR0,#32              ; [CPU_ALU] |255| 
    5568 0000032f E2AF          MOV32     R0H,*+FP[AR0]         ; [CPU_FPU] |255| 
         00000330 0092 
    5569                      .dwpsn  file "../bts.c",line 264,column 5,is_stmt,isa 0
    5570 00000331 D020          MOVL      XAR0,#32              ; [CPU_ALU] |264| 
    5571 00000332 E80A          MOVXI     R0H,#16513            ; [CPU_FPU] |264| 
         00000333 0408 
    5572 00000334 E203          MOV32     *+FP[AR0],R0H         ; [CPU_FPU] |264| 
         00000335 0092 
    5573 00000336 D01C          MOVL      XAR0,#28              ; [CPU_ALU] |264| 
    5574 00000337 E2AF          MOV32     R0H,*+FP[AR0]         ; [CPU_FPU] |264| 
         00000338 0092 
    5575                      .dwpsn  file "../bts.c",line 266,column 5,is_stmt,isa 0
    5576 00000339 D01C          MOVL      XAR0,#28              ; [CPU_ALU] |266| 
    5577 0000033a E80B          MOVXI     R0H,#28135            ; [CPU_FPU] |266| 
         0000033b 6F38 
    5578 0000033c E203          MOV32     *+FP[AR0],R0H         ; [CPU_FPU] |266| 
         0000033d 0092 
    5579 0000033e D01A          MOVL      XAR0,#26              ; [CPU_ALU] |266| 
    5580 0000033f E2AF          MOV32     R0H,*+FP[AR0]         ; [CPU_FPU] |266| 
         00000340 0092 
    5581                      .dwpsn  file "../bts.c",line 267,column 5,is_stmt,isa 0
    5582 00000341 D01A          MOVL      XAR0,#26              ; [CPU_ALU] |267| 
    5583 00000342 E80B          MOVXI     R0H,#28135            ; [CPU_FPU] |267| 
         00000343 6F38 
    5584 00000344 E203          MOV32     *+FP[AR0],R0H         ; [CPU_FPU] |267| 
         00000345 0092 
    5585 00000346 D018          MOVL      XAR0,#24              ; [CPU_ALU] |267| 
    5586 00000347 E2AF          MOV32     R0H,*+FP[AR0]         ; [CPU_FPU] |267| 
         00000348 0092 
    5587                      .dwpsn  file "../bts.c",line 269,column 5,is_stmt,isa 0
    5588 00000349 D018          MOVL      XAR0,#24              ; [CPU_ALU] |269| 
    5589 0000034a E809          MOVXI     R0H,#11968            ; [CPU_FPU] |269| 
         0000034b 7600 
    5590 0000034c E203          MOV32     *+FP[AR0],R0H         ; [CPU_FPU] |269| 
         0000034d 0092 
    5591 0000034e D014          MOVL      XAR0,#20              ; [CPU_ALU] |269| 
    5592 0000034f E2AF          MOV32     R0H,*+FP[AR0]         ; [CPU_FPU] |269| 
         00000350 0092 
    5593                      .dwpsn  file "../bts.c",line 271,column 5,is_stmt,isa 0
    5594 00000351 D014          MOVL      XAR0,#20              ; [CPU_ALU] |271| 
    5595 00000352 E809          MOVXI     R0H,#10485            ; [CPU_FPU] |271| 
TMS320C2000 Assembler PC v20.2.4 Tue Mar  2 07:24:45 2021

Copyright (c) 1996-2018 Texas Instruments Incorporated
bts.asm                                                              PAGE  118

         00000353 47A8 
    5596 00000354 E203          MOV32     *+FP[AR0],R0H         ; [CPU_FPU] |271| 
         00000355 0092 
    5597 00000356 D012          MOVL      XAR0,#18              ; [CPU_ALU] |271| 
    5598 00000357 E2AF          MOV32     R0H,*+FP[AR0]         ; [CPU_FPU] |271| 
         00000358 0092 
    5599                      .dwpsn  file "../bts.c",line 272,column 5,is_stmt,isa 0
    5600 00000359 D012          MOVL      XAR0,#18              ; [CPU_ALU] |272| 
    5601 0000035a E809          MOVXI     R0H,#10485            ; [CPU_FPU] |272| 
         0000035b 47A8 
    5602 0000035c E203          MOV32     *+FP[AR0],R0H         ; [CPU_FPU] |272| 
         0000035d 0092 
    5603                      .dwpsn  file "../bts.c",line 278,column 5,is_stmt,isa 0
    5604 0000035e D010          MOVL      XAR0,#16              ; [CPU_ALU] |278| 
    5605 0000035f E2AF          MOV32     R0H,*+FP[AR0]         ; [CPU_FPU] |278| 
         00000360 0092 
    5606                      .dwpsn  file "../bts.c",line 277,column 5,is_stmt,isa 0
    5607 00000361 E203!         MOV32     @$BLOCKED(||BTS_userInput_ch8||),R0H ; [CPU_FPU] |277| 
         00000362 0000 
    5608                      .dwpsn  file "../bts.c",line 279,column 5,is_stmt,isa 0
    5609 00000363 D010          MOVL      XAR0,#16              ; [CPU_ALU] |279| 
    5610 00000364 761F!         MOVW      DP,#||BTS_userInput_ch2||+16 ; [CPU_ARAU] 
         00000365 0000 
    5611 00000366 E801          MOVIZ     R0H,#16128            ; [CPU_FPU] |279| 
         00000367 F800 
    5612 00000368 E203          MOV32     *+FP[AR0],R0H         ; [CPU_FPU] |279| 
         00000369 0092 
    5613 0000036a E2AF          MOV32     R0H,*-SP[20]          ; [CPU_FPU] |279| 
         0000036b 0054 
    5614                      .dwpsn  file "../bts.c",line 180,column 5,is_stmt,isa 0
    5615 0000036c E203!         MOV32     @$BLOCKED(||BTS_userInput_ch2||)+16,R0H ; [CPU_FPU] |180| 
         0000036d 0010 
    5616                      .dwpsn  file "../bts.c",line 219,column 5,is_stmt,isa 0
    5617 0000036e D03E          MOVL      XAR0,#62              ; [CPU_ALU] |219| 
    5618                      .dwpsn  file "../bts.c",line 180,column 5,is_stmt,isa 0
    5619 0000036f E2AF          MOV32     R0H,*-SP[28]          ; [CPU_FPU] |180| 
         00000370 005C 
    5620                      .dwpsn  file "../bts.c",line 185,column 5,is_stmt,isa 0
    5621 00000371 E203!         MOV32     @$BLOCKED(||BTS_userInput_ch2||)+24,R0H ; [CPU_FPU] |185| 
         00000372 0018 
    5622 00000373 761F!         MOVW      DP,#||BTS_userInput_ch3||+16 ; [CPU_ARAU] 
         00000374 0000 
    5623 00000375 E2AF          MOV32     R0H,*-SP[36]          ; [CPU_FPU] |185| 
         00000376 0064 
    5624                      .dwpsn  file "../bts.c",line 197,column 5,is_stmt,isa 0
    5625 00000377 E203!         MOV32     @$BLOCKED(||BTS_userInput_ch3||)+16,R0H ; [CPU_FPU] |197| 
         00000378 0010 
    5626 00000379 E2AF          MOV32     R0H,*-SP[44]          ; [CPU_FPU] |197| 
         0000037a 006C 
    5627                      .dwpsn  file "../bts.c",line 202,column 5,is_stmt,isa 0
    5628 0000037b E203!         MOV32     @$BLOCKED(||BTS_userInput_ch3||)+24,R0H ; [CPU_FPU] |202| 
         0000037c 0018 
    5629 0000037d E2AF          MOV32     R0H,*-SP[52]          ; [CPU_FPU] |202| 
         0000037e 0074 
    5630                      .dwpsn  file "../bts.c",line 214,column 5,is_stmt,isa 0
TMS320C2000 Assembler PC v20.2.4 Tue Mar  2 07:24:45 2021

Copyright (c) 1996-2018 Texas Instruments Incorporated
bts.asm                                                              PAGE  119

    5631 0000037f E203!         MOV32     @$BLOCKED(||BTS_userInput_ch4||)+16,R0H ; [CPU_FPU] |214| 
         00000380 0010 
    5632 00000381 E2AF          MOV32     R0H,*-SP[60]          ; [CPU_FPU] |214| 
         00000382 007C 
    5633                      .dwpsn  file "../bts.c",line 219,column 5,is_stmt,isa 0
    5634 00000383 E203!         MOV32     @$BLOCKED(||BTS_userInput_ch4||)+24,R0H ; [CPU_FPU] |219| 
         00000384 0018 
    5635 00000385 E2AF          MOV32     R0H,*+FP[AR0]         ; [CPU_FPU] |219| 
         00000386 0092 
    5636 00000387 761F!         MOVW      DP,#||BTS_userInput_ch5||+16 ; [CPU_ARAU] 
         00000388 0000 
    5637                      .dwpsn  file "../bts.c",line 231,column 5,is_stmt,isa 0
    5638 00000389 D036          MOVL      XAR0,#54              ; [CPU_ALU] |231| 
    5639 0000038a E203!         MOV32     @$BLOCKED(||BTS_userInput_ch5||)+16,R0H ; [CPU_FPU] |231| 
         0000038b 0010 
    5640 0000038c E2AF          MOV32     R0H,*+FP[AR0]         ; [CPU_FPU] |231| 
         0000038d 0092 
    5641                      .dwpsn  file "../bts.c",line 236,column 5,is_stmt,isa 0
    5642 0000038e D02E          MOVL      XAR0,#46              ; [CPU_ALU] |236| 
    5643 0000038f E203!         MOV32     @$BLOCKED(||BTS_userInput_ch5||)+24,R0H ; [CPU_FPU] |236| 
         00000390 0018 
    5644 00000391 E2AF          MOV32     R0H,*+FP[AR0]         ; [CPU_FPU] |236| 
         00000392 0092 
    5645                      .dwpsn  file "../bts.c",line 248,column 5,is_stmt,isa 0
    5646 00000393 D026          MOVL      XAR0,#38              ; [CPU_ALU] |248| 
    5647 00000394 E203!         MOV32     @$BLOCKED(||BTS_userInput_ch6||)+16,R0H ; [CPU_FPU] |248| 
         00000395 0010 
    5648 00000396 E2AF          MOV32     R0H,*+FP[AR0]         ; [CPU_FPU] |248| 
         00000397 0092 
    5649                      .dwpsn  file "../bts.c",line 253,column 5,is_stmt,isa 0
    5650 00000398 D01E          MOVL      XAR0,#30              ; [CPU_ALU] |253| 
    5651 00000399 E203!         MOV32     @$BLOCKED(||BTS_userInput_ch6||)+24,R0H ; [CPU_FPU] |253| 
         0000039a 0018 
    5652 0000039b E2AF          MOV32     R0H,*+FP[AR0]         ; [CPU_FPU] |253| 
         0000039c 0092 
    5653 0000039d 761F!         MOVW      DP,#||BTS_userInput_ch7||+16 ; [CPU_ARAU] 
         0000039e 0000 
    5654                      .dwpsn  file "../bts.c",line 265,column 5,is_stmt,isa 0
    5655 0000039f D016          MOVL      XAR0,#22              ; [CPU_ALU] |265| 
    5656 000003a0 E203!         MOV32     @$BLOCKED(||BTS_userInput_ch7||)+16,R0H ; [CPU_FPU] |265| 
         000003a1 0010 
    5657 000003a2 E2AF          MOV32     R0H,*+FP[AR0]         ; [CPU_FPU] |265| 
         000003a3 0092 
    5658                      .dwpsn  file "../bts.c",line 270,column 5,is_stmt,isa 0
    5659 000003a4 D00E          MOVL      XAR0,#14              ; [CPU_ALU] |270| 
    5660 000003a5 E203!         MOV32     @$BLOCKED(||BTS_userInput_ch7||)+24,R0H ; [CPU_FPU] |270| 
         000003a6 0018 
    5661 000003a7 E2AF          MOV32     R0H,*+FP[AR0]         ; [CPU_FPU] |270| 
         000003a8 0092 
    5662                      .dwpsn  file "../bts.c",line 282,column 5,is_stmt,isa 0
    5663 000003a9 D00C          MOVL      XAR0,#12              ; [CPU_ALU] |282| 
    5664 000003aa E203!         MOV32     @$BLOCKED(||BTS_userInput_ch8||)+16,R0H ; [CPU_FPU] |282| 
         000003ab 0010 
    5665 000003ac E2AF          MOV32     R0H,*+FP[AR0]         ; [CPU_FPU] |282| 
         000003ad 0092 
TMS320C2000 Assembler PC v20.2.4 Tue Mar  2 07:24:45 2021

Copyright (c) 1996-2018 Texas Instruments Incorporated
bts.asm                                                              PAGE  120

    5666                      .dwpsn  file "../bts.c",line 287,column 5,is_stmt,isa 0
    5667 000003ae E203!         MOV32     @$BLOCKED(||BTS_userInput_ch8||)+24,R0H ; [CPU_FPU] |287| 
         000003af 0018 
    5668 000003b0 E2AF          MOV32     R0H,*-SP[2]           ; [CPU_FPU] |287| 
         000003b1 0042 
    5669 000003b2 761F!         MOVW      DP,#||BTS_userInput_ch1||+14 ; [CPU_ARAU] 
         000003b3 0000 
    5670                      .dwpsn  file "../bts.c",line 162,column 5,is_stmt,isa 0
    5671 000003b4 E203!         MOV32     @$BLOCKED(||BTS_userInput_ch1||)+14,R0H ; [CPU_FPU] |162| 
         000003b5 000E 
    5672 000003b6 E2AF          MOV32     R0H,*-SP[4]           ; [CPU_FPU] |162| 
         000003b7 0044 
    5673                      .dwpsn  file "../bts.c",line 163,column 5,is_stmt,isa 0
    5674 000003b8 E203!         MOV32     @$BLOCKED(||BTS_userInput_ch1||)+16,R0H ; [CPU_FPU] |163| 
         000003b9 0010 
    5675 000003ba E2AF          MOV32     R0H,*-SP[6]           ; [CPU_FPU] |163| 
         000003bb 0046 
    5676                      .dwpsn  file "../bts.c",line 164,column 5,is_stmt,isa 0
    5677 000003bc E203!         MOV32     @$BLOCKED(||BTS_userInput_ch1||)+18,R0H ; [CPU_FPU] |164| 
         000003bd 0012 
    5678 000003be E2AF          MOV32     R0H,*-SP[8]           ; [CPU_FPU] |164| 
         000003bf 0048 
    5679                      .dwpsn  file "../bts.c",line 220,column 5,is_stmt,isa 0
    5680 000003c0 D042          MOVL      XAR0,#66              ; [CPU_ALU] |220| 
    5681                      .dwpsn  file "../bts.c",line 165,column 5,is_stmt,isa 0
    5682 000003c1 E203!         MOV32     @$BLOCKED(||BTS_userInput_ch1||)+20,R0H ; [CPU_FPU] |165| 
         000003c2 0014 
    5683 000003c3 E2AF          MOV32     R0H,*-SP[10]          ; [CPU_FPU] |165| 
         000003c4 004A 
    5684                      .dwpsn  file "../bts.c",line 167,column 5,is_stmt,isa 0
    5685 000003c5 E203!         MOV32     @$BLOCKED(||BTS_userInput_ch1||)+22,R0H ; [CPU_FPU] |167| 
         000003c6 0016 
    5686 000003c7 E2AF          MOV32     R0H,*-SP[12]          ; [CPU_FPU] |167| 
         000003c8 004C 
    5687                      .dwpsn  file "../bts.c",line 168,column 5,is_stmt,isa 0
    5688 000003c9 E203!         MOV32     @$BLOCKED(||BTS_userInput_ch1||)+24,R0H ; [CPU_FPU] |168| 
         000003ca 0018 
    5689 000003cb E2AF          MOV32     R0H,*-SP[14]          ; [CPU_FPU] |168| 
         000003cc 004E 
    5690                      .dwpsn  file "../bts.c",line 169,column 5,is_stmt,isa 0
    5691 000003cd E203!         MOV32     @$BLOCKED(||BTS_userInput_ch1||)+26,R0H ; [CPU_FPU] |169| 
         000003ce 001A 
    5692 000003cf E2AF          MOV32     R0H,*-SP[16]          ; [CPU_FPU] |169| 
         000003d0 0050 
    5693                      .dwpsn  file "../bts.c",line 170,column 5,is_stmt,isa 0
    5694 000003d1 E203!         MOV32     @$BLOCKED(||BTS_userInput_ch1||)+28,R0H ; [CPU_FPU] |170| 
         000003d2 001C 
    5695 000003d3 E2AF          MOV32     R0H,*-SP[18]          ; [CPU_FPU] |170| 
         000003d4 0052 
    5696                      .dwpsn  file "../bts.c",line 179,column 5,is_stmt,isa 0
    5697 000003d5 E203!         MOV32     @$BLOCKED(||BTS_userInput_ch2||)+14,R0H ; [CPU_FPU] |179| 
         000003d6 000E 
    5698 000003d7 E2AF          MOV32     R0H,*-SP[22]          ; [CPU_FPU] |179| 
         000003d8 0056 
    5699                      .dwpsn  file "../bts.c",line 181,column 5,is_stmt,isa 0
TMS320C2000 Assembler PC v20.2.4 Tue Mar  2 07:24:45 2021

Copyright (c) 1996-2018 Texas Instruments Incorporated
bts.asm                                                              PAGE  121

    5700 000003d9 E203!         MOV32     @$BLOCKED(||BTS_userInput_ch2||)+18,R0H ; [CPU_FPU] |181| 
         000003da 0012 
    5701 000003db E2AF          MOV32     R0H,*-SP[24]          ; [CPU_FPU] |181| 
         000003dc 0058 
    5702                      .dwpsn  file "../bts.c",line 182,column 5,is_stmt,isa 0
    5703 000003dd E203!         MOV32     @$BLOCKED(||BTS_userInput_ch2||)+20,R0H ; [CPU_FPU] |182| 
         000003de 0014 
    5704 000003df E2AF          MOV32     R0H,*-SP[26]          ; [CPU_FPU] |182| 
         000003e0 005A 
    5705                      .dwpsn  file "../bts.c",line 184,column 5,is_stmt,isa 0
    5706 000003e1 E203!         MOV32     @$BLOCKED(||BTS_userInput_ch2||)+22,R0H ; [CPU_FPU] |184| 
         000003e2 0016 
    5707 000003e3 E2AF          MOV32     R0H,*-SP[30]          ; [CPU_FPU] |184| 
         000003e4 005E 
    5708                      .dwpsn  file "../bts.c",line 186,column 5,is_stmt,isa 0
    5709 000003e5 E203!         MOV32     @$BLOCKED(||BTS_userInput_ch2||)+26,R0H ; [CPU_FPU] |186| 
         000003e6 001A 
    5710 000003e7 E2AF          MOV32     R0H,*-SP[32]          ; [CPU_FPU] |186| 
         000003e8 0060 
    5711                      .dwpsn  file "../bts.c",line 187,column 5,is_stmt,isa 0
    5712 000003e9 E203!         MOV32     @$BLOCKED(||BTS_userInput_ch2||)+28,R0H ; [CPU_FPU] |187| 
         000003ea 001C 
    5713 000003eb E2AF          MOV32     R0H,*-SP[34]          ; [CPU_FPU] |187| 
         000003ec 0062 
    5714 000003ed 761F!         MOVW      DP,#||BTS_userInput_ch3||+14 ; [CPU_ARAU] 
         000003ee 0000 
    5715                      .dwpsn  file "../bts.c",line 196,column 5,is_stmt,isa 0
    5716 000003ef E203!         MOV32     @$BLOCKED(||BTS_userInput_ch3||)+14,R0H ; [CPU_FPU] |196| 
         000003f0 000E 
    5717 000003f1 E2AF          MOV32     R0H,*-SP[38]          ; [CPU_FPU] |196| 
         000003f2 0066 
    5718                      .dwpsn  file "../bts.c",line 198,column 5,is_stmt,isa 0
    5719 000003f3 E203!         MOV32     @$BLOCKED(||BTS_userInput_ch3||)+18,R0H ; [CPU_FPU] |198| 
         000003f4 0012 
    5720 000003f5 E2AF          MOV32     R0H,*-SP[40]          ; [CPU_FPU] |198| 
         000003f6 0068 
    5721                      .dwpsn  file "../bts.c",line 199,column 5,is_stmt,isa 0
    5722 000003f7 E203!         MOV32     @$BLOCKED(||BTS_userInput_ch3||)+20,R0H ; [CPU_FPU] |199| 
         000003f8 0014 
    5723 000003f9 E2AF          MOV32     R0H,*-SP[42]          ; [CPU_FPU] |199| 
         000003fa 006A 
    5724                      .dwpsn  file "../bts.c",line 201,column 5,is_stmt,isa 0
    5725 000003fb E203!         MOV32     @$BLOCKED(||BTS_userInput_ch3||)+22,R0H ; [CPU_FPU] |201| 
         000003fc 0016 
    5726 000003fd E2AF          MOV32     R0H,*-SP[46]          ; [CPU_FPU] |201| 
         000003fe 006E 
    5727                      .dwpsn  file "../bts.c",line 203,column 5,is_stmt,isa 0
    5728 000003ff E203!         MOV32     @$BLOCKED(||BTS_userInput_ch3||)+26,R0H ; [CPU_FPU] |203| 
         00000400 001A 
    5729 00000401 E2AF          MOV32     R0H,*-SP[48]          ; [CPU_FPU] |203| 
         00000402 0070 
    5730                      .dwpsn  file "../bts.c",line 204,column 5,is_stmt,isa 0
    5731 00000403 E203!         MOV32     @$BLOCKED(||BTS_userInput_ch3||)+28,R0H ; [CPU_FPU] |204| 
         00000404 001C 
    5732 00000405 E2AF          MOV32     R0H,*-SP[50]          ; [CPU_FPU] |204| 
TMS320C2000 Assembler PC v20.2.4 Tue Mar  2 07:24:45 2021

Copyright (c) 1996-2018 Texas Instruments Incorporated
bts.asm                                                              PAGE  122

         00000406 0072 
    5733                      .dwpsn  file "../bts.c",line 213,column 5,is_stmt,isa 0
    5734 00000407 E203!         MOV32     @$BLOCKED(||BTS_userInput_ch4||)+14,R0H ; [CPU_FPU] |213| 
         00000408 000E 
    5735 00000409 E2AF          MOV32     R0H,*-SP[54]          ; [CPU_FPU] |213| 
         0000040a 0076 
    5736                      .dwpsn  file "../bts.c",line 215,column 5,is_stmt,isa 0
    5737 0000040b E203!         MOV32     @$BLOCKED(||BTS_userInput_ch4||)+18,R0H ; [CPU_FPU] |215| 
         0000040c 0012 
    5738 0000040d E2AF          MOV32     R0H,*-SP[56]          ; [CPU_FPU] |215| 
         0000040e 0078 
    5739                      .dwpsn  file "../bts.c",line 216,column 5,is_stmt,isa 0
    5740 0000040f E203!         MOV32     @$BLOCKED(||BTS_userInput_ch4||)+20,R0H ; [CPU_FPU] |216| 
         00000410 0014 
    5741 00000411 E2AF          MOV32     R0H,*-SP[58]          ; [CPU_FPU] |216| 
         00000412 007A 
    5742                      .dwpsn  file "../bts.c",line 218,column 5,is_stmt,isa 0
    5743 00000413 E203!         MOV32     @$BLOCKED(||BTS_userInput_ch4||)+22,R0H ; [CPU_FPU] |218| 
         00000414 0016 
    5744 00000415 E2AF          MOV32     R0H,*-SP[62]          ; [CPU_FPU] |218| 
         00000416 007E 
    5745                      .dwpsn  file "../bts.c",line 220,column 5,is_stmt,isa 0
    5746 00000417 E203!         MOV32     @$BLOCKED(||BTS_userInput_ch4||)+26,R0H ; [CPU_FPU] |220| 
         00000418 001A 
    5747 00000419 E2AF          MOV32     R0H,*+FP[AR0]         ; [CPU_FPU] |220| 
         0000041a 0092 
    5748                      .dwpsn  file "../bts.c",line 221,column 5,is_stmt,isa 0
    5749 0000041b D040          MOVL      XAR0,#64              ; [CPU_ALU] |221| 
    5750 0000041c E203!         MOV32     @$BLOCKED(||BTS_userInput_ch4||)+28,R0H ; [CPU_FPU] |221| 
         0000041d 001C 
    5751 0000041e E2AF          MOV32     R0H,*+FP[AR0]         ; [CPU_FPU] |221| 
         0000041f 0092 
    5752                      .dwpsn  file "../bts.c",line 230,column 5,is_stmt,isa 0
    5753 00000420 D03C          MOVL      XAR0,#60              ; [CPU_ALU] |230| 
    5754 00000421 761F!         MOVW      DP,#||BTS_userInput_ch5||+14 ; [CPU_ARAU] 
         00000422 0000 
    5755 00000423 E203!         MOV32     @$BLOCKED(||BTS_userInput_ch5||)+14,R0H ; [CPU_FPU] |230| 
         00000424 000E 
    5756 00000425 E2AF          MOV32     R0H,*+FP[AR0]         ; [CPU_FPU] |230| 
         00000426 0092 
    5757                      .dwpsn  file "../bts.c",line 232,column 5,is_stmt,isa 0
    5758 00000427 D03A          MOVL      XAR0,#58              ; [CPU_ALU] |232| 
    5759 00000428 E203!         MOV32     @$BLOCKED(||BTS_userInput_ch5||)+18,R0H ; [CPU_FPU] |232| 
         00000429 0012 
    5760 0000042a E2AF          MOV32     R0H,*+FP[AR0]         ; [CPU_FPU] |232| 
         0000042b 0092 
    5761                      .dwpsn  file "../bts.c",line 233,column 5,is_stmt,isa 0
    5762 0000042c D038          MOVL      XAR0,#56              ; [CPU_ALU] |233| 
    5763 0000042d E203!         MOV32     @$BLOCKED(||BTS_userInput_ch5||)+20,R0H ; [CPU_FPU] |233| 
         0000042e 0014 
    5764 0000042f E2AF          MOV32     R0H,*+FP[AR0]         ; [CPU_FPU] |233| 
         00000430 0092 
    5765                      .dwpsn  file "../bts.c",line 235,column 5,is_stmt,isa 0
    5766 00000431 D034          MOVL      XAR0,#52              ; [CPU_ALU] |235| 
    5767 00000432 E203!         MOV32     @$BLOCKED(||BTS_userInput_ch5||)+22,R0H ; [CPU_FPU] |235| 
TMS320C2000 Assembler PC v20.2.4 Tue Mar  2 07:24:45 2021

Copyright (c) 1996-2018 Texas Instruments Incorporated
bts.asm                                                              PAGE  123

         00000433 0016 
    5768 00000434 E2AF          MOV32     R0H,*+FP[AR0]         ; [CPU_FPU] |235| 
         00000435 0092 
    5769                      .dwpsn  file "../bts.c",line 237,column 5,is_stmt,isa 0
    5770 00000436 D032          MOVL      XAR0,#50              ; [CPU_ALU] |237| 
    5771 00000437 E203!         MOV32     @$BLOCKED(||BTS_userInput_ch5||)+26,R0H ; [CPU_FPU] |237| 
         00000438 001A 
    5772 00000439 E2AF          MOV32     R0H,*+FP[AR0]         ; [CPU_FPU] |237| 
         0000043a 0092 
    5773                      .dwpsn  file "../bts.c",line 238,column 5,is_stmt,isa 0
    5774 0000043b D030          MOVL      XAR0,#48              ; [CPU_ALU] |238| 
    5775 0000043c E203!         MOV32     @$BLOCKED(||BTS_userInput_ch5||)+28,R0H ; [CPU_FPU] |238| 
         0000043d 001C 
    5776 0000043e E2AF          MOV32     R0H,*+FP[AR0]         ; [CPU_FPU] |238| 
         0000043f 0092 
    5777                      .dwpsn  file "../bts.c",line 247,column 5,is_stmt,isa 0
    5778 00000440 D02C          MOVL      XAR0,#44              ; [CPU_ALU] |247| 
    5779 00000441 E203!         MOV32     @$BLOCKED(||BTS_userInput_ch6||)+14,R0H ; [CPU_FPU] |247| 
         00000442 000E 
    5780 00000443 E2AF          MOV32     R0H,*+FP[AR0]         ; [CPU_FPU] |247| 
         00000444 0092 
    5781                      .dwpsn  file "../bts.c",line 249,column 5,is_stmt,isa 0
    5782 00000445 D02A          MOVL      XAR0,#42              ; [CPU_ALU] |249| 
    5783 00000446 E203!         MOV32     @$BLOCKED(||BTS_userInput_ch6||)+18,R0H ; [CPU_FPU] |249| 
         00000447 0012 
    5784 00000448 E2AF          MOV32     R0H,*+FP[AR0]         ; [CPU_FPU] |249| 
         00000449 0092 
    5785                      .dwpsn  file "../bts.c",line 250,column 5,is_stmt,isa 0
    5786 0000044a D028          MOVL      XAR0,#40              ; [CPU_ALU] |250| 
    5787 0000044b E203!         MOV32     @$BLOCKED(||BTS_userInput_ch6||)+20,R0H ; [CPU_FPU] |250| 
         0000044c 0014 
    5788 0000044d E2AF          MOV32     R0H,*+FP[AR0]         ; [CPU_FPU] |250| 
         0000044e 0092 
    5789                      .dwpsn  file "../bts.c",line 252,column 5,is_stmt,isa 0
    5790 0000044f D024          MOVL      XAR0,#36              ; [CPU_ALU] |252| 
    5791 00000450 E203!         MOV32     @$BLOCKED(||BTS_userInput_ch6||)+22,R0H ; [CPU_FPU] |252| 
         00000451 0016 
    5792 00000452 E2AF          MOV32     R0H,*+FP[AR0]         ; [CPU_FPU] |252| 
         00000453 0092 
    5793                      .dwpsn  file "../bts.c",line 254,column 5,is_stmt,isa 0
    5794 00000454 D022          MOVL      XAR0,#34              ; [CPU_ALU] |254| 
    5795 00000455 E203!         MOV32     @$BLOCKED(||BTS_userInput_ch6||)+26,R0H ; [CPU_FPU] |254| 
         00000456 001A 
    5796 00000457 E2AF          MOV32     R0H,*+FP[AR0]         ; [CPU_FPU] |254| 
         00000458 0092 
    5797                      .dwpsn  file "../bts.c",line 255,column 5,is_stmt,isa 0
    5798 00000459 D020          MOVL      XAR0,#32              ; [CPU_ALU] |255| 
    5799 0000045a E203!         MOV32     @$BLOCKED(||BTS_userInput_ch6||)+28,R0H ; [CPU_FPU] |255| 
         0000045b 001C 
    5800 0000045c E2AF          MOV32     R0H,*+FP[AR0]         ; [CPU_FPU] |255| 
         0000045d 0092 
    5801                      .dwpsn  file "../bts.c",line 264,column 5,is_stmt,isa 0
    5802 0000045e D01C          MOVL      XAR0,#28              ; [CPU_ALU] |264| 
    5803 0000045f 761F!         MOVW      DP,#||BTS_userInput_ch7||+14 ; [CPU_ARAU] 
         00000460 0000 
TMS320C2000 Assembler PC v20.2.4 Tue Mar  2 07:24:45 2021

Copyright (c) 1996-2018 Texas Instruments Incorporated
bts.asm                                                              PAGE  124

    5804 00000461 E203!         MOV32     @$BLOCKED(||BTS_userInput_ch7||)+14,R0H ; [CPU_FPU] |264| 
         00000462 000E 
    5805 00000463 E2AF          MOV32     R0H,*+FP[AR0]         ; [CPU_FPU] |264| 
         00000464 0092 
    5806                      .dwpsn  file "../bts.c",line 266,column 5,is_stmt,isa 0
    5807 00000465 D01A          MOVL      XAR0,#26              ; [CPU_ALU] |266| 
    5808 00000466 E203!         MOV32     @$BLOCKED(||BTS_userInput_ch7||)+18,R0H ; [CPU_FPU] |266| 
         00000467 0012 
    5809                      .dwpsn  file "../bts.c",line 278,column 5,is_stmt,isa 0
    5810 00000468 E203!         MOV32     @$BLOCKED(||BTS_userInput_ch8||)+2,R7H ; [CPU_FPU] |278| 
         00000469 0702 
    5811                      .dwpsn  file "../bts.c",line 281,column 5,is_stmt,isa 0
    5812 0000046a E203!         MOV32     @$BLOCKED(||BTS_userInput_ch8||)+14,R6H ; [CPU_FPU] |281| 
         0000046b 060E 
    5813                      .dwpsn  file "../bts.c",line 283,column 5,is_stmt,isa 0
    5814 0000046c E203!         MOV32     @$BLOCKED(||BTS_userInput_ch8||)+18,R5H ; [CPU_FPU] |283| 
         0000046d 0512 
    5815                      .dwpsn  file "../bts.c",line 284,column 5,is_stmt,isa 0
    5816 0000046e E203!         MOV32     @$BLOCKED(||BTS_userInput_ch8||)+20,R4H ; [CPU_FPU] |284| 
         0000046f 0414 
    5817                      .dwpsn  file "../bts.c",line 286,column 5,is_stmt,isa 0
    5818 00000470 E203!         MOV32     @$BLOCKED(||BTS_userInput_ch8||)+22,R3H ; [CPU_FPU] |286| 
         00000471 0316 
    5819                      .dwpsn  file "../bts.c",line 288,column 5,is_stmt,isa 0
    5820 00000472 E203!         MOV32     @$BLOCKED(||BTS_userInput_ch8||)+26,R2H ; [CPU_FPU] |288| 
         00000473 021A 
    5821                      .dwpsn  file "../bts.c",line 289,column 5,is_stmt,isa 0
    5822 00000474 E203!         MOV32     @$BLOCKED(||BTS_userInput_ch8||)+28,R1H ; [CPU_FPU] |289| 
         00000475 011C 
    5823                      .dwpsn  file "../bts.c",line 266,column 5,is_stmt,isa 0
    5824 00000476 E2AF          MOV32     R0H,*+FP[AR0]         ; [CPU_FPU] |266| 
         00000477 0092 
    5825                      .dwpsn  file "../bts.c",line 267,column 5,is_stmt,isa 0
    5826 00000478 D018          MOVL      XAR0,#24              ; [CPU_ALU] |267| 
    5827 00000479 E203!         MOV32     @$BLOCKED(||BTS_userInput_ch7||)+20,R0H ; [CPU_FPU] |267| 
         0000047a 0014 
    5828 0000047b E2AF          MOV32     R0H,*+FP[AR0]         ; [CPU_FPU] |267| 
         0000047c 0092 
    5829                      .dwpsn  file "../bts.c",line 269,column 5,is_stmt,isa 0
    5830 0000047d D014          MOVL      XAR0,#20              ; [CPU_ALU] |269| 
    5831 0000047e E203!         MOV32     @$BLOCKED(||BTS_userInput_ch7||)+22,R0H ; [CPU_FPU] |269| 
         0000047f 0016 
    5832 00000480 E2AF          MOV32     R0H,*+FP[AR0]         ; [CPU_FPU] |269| 
         00000481 0092 
    5833                      .dwpsn  file "../bts.c",line 271,column 5,is_stmt,isa 0
    5834 00000482 D012          MOVL      XAR0,#18              ; [CPU_ALU] |271| 
    5835 00000483 E203!         MOV32     @$BLOCKED(||BTS_userInput_ch7||)+26,R0H ; [CPU_FPU] |271| 
         00000484 001A 
    5836 00000485 E2AF          MOV32     R0H,*+FP[AR0]         ; [CPU_FPU] |271| 
         00000486 0092 
    5837                      .dwpsn  file "../bts.c",line 278,column 5,is_stmt,isa 0
    5838 00000487 D010          MOVL      XAR0,#16              ; [CPU_ALU] |278| 
    5839                      .dwpsn  file "../bts.c",line 272,column 5,is_stmt,isa 0
    5840 00000488 E203!         MOV32     @$BLOCKED(||BTS_userInput_ch7||)+28,R0H ; [CPU_FPU] |272| 
         00000489 001C 
TMS320C2000 Assembler PC v20.2.4 Tue Mar  2 07:24:45 2021

Copyright (c) 1996-2018 Texas Instruments Incorporated
bts.asm                                                              PAGE  125

    5841                      .dwpsn  file "../bts.c",line 278,column 5,is_stmt,isa 0
    5842 0000048a E2AF          MOV32     R0H,*+FP[AR0]         ; [CPU_FPU] |278| 
         0000048b 0092 
    5843                      .dwpsn  file "../bts.c",line 279,column 5,is_stmt,isa 0
    5844 0000048c E203!         MOV32     @$BLOCKED(||BTS_userInput_ch8||)+4,R0H ; [CPU_FPU] |279| 
         0000048d 0004 
    5845 0000048e FEF6          SUBB      SP,#118               ; [CPU_ARAU] 
    5846                      .dwcfi  cfa_offset, -12
    5847 0000048f E2AF          MOV32     R7H,*--SP             ; [CPU_FPU] 
         00000490 07BE 
    5848                      .dwcfi  cfa_offset, -10
    5849                      .dwcfi  restore_reg, 71
    5850 00000491 E2AF          MOV32     R6H,*--SP             ; [CPU_FPU] 
         00000492 06BE 
    5851                      .dwcfi  cfa_offset, -8
    5852                      .dwcfi  restore_reg, 67
    5853 00000493 E2AF          MOV32     R5H,*--SP             ; [CPU_FPU] 
         00000494 05BE 
    5854                      .dwcfi  cfa_offset, -6
    5855                      .dwcfi  restore_reg, 63
    5856 00000495 E2AF          MOV32     R4H,*--SP             ; [CPU_FPU] 
         00000496 04BE 
    5857                      .dwcfi  cfa_offset, -4
    5858                      .dwcfi  restore_reg, 59
    5859 00000497 86BE          MOVL      XAR2,*--SP            ; [CPU_ALU] 
    5860                      .dwcfi  cfa_offset, -2
    5861                      .dwcfi  restore_reg, 9
    5862              $C$DW$291       .dwtag  DW_TAG_TI_branch
    5863                      .dwattr $C$DW$291, DW_AT_low_pc(0x00)
    5864                      .dwattr $C$DW$291, DW_AT_TI_return
    5865              
    5866 00000498 0006          LRETR     ; [CPU_ALU] 
    5867                      ; return occurs ; [] 
    5868                      .dwattr $C$DW$290, DW_AT_TI_end_file("../bts.c")
    5869                      .dwattr $C$DW$290, DW_AT_TI_end_line(0x123)
    5870                      .dwattr $C$DW$290, DW_AT_TI_end_column(0x01)
    5871                      .dwendentry
    5872                      .dwendtag $C$DW$290
    5873              
    5874 00000499               .sect   ".text"
    5875                      .clink
    5876                      .global ||BTS_initProgramVariables||
    5877              
    5878              $C$DW$292       .dwtag  DW_TAG_subprogram
    5879                      .dwattr $C$DW$292, DW_AT_name("BTS_initProgramVariables")
    5880                      .dwattr $C$DW$292, DW_AT_low_pc(||BTS_initProgramVariables||)
    5881                      .dwattr $C$DW$292, DW_AT_high_pc(0x00)
    5882                      .dwattr $C$DW$292, DW_AT_linkage_name("BTS_initProgramVariables")
    5883                      .dwattr $C$DW$292, DW_AT_external
    5884                      .dwattr $C$DW$292, DW_AT_decl_file("../bts.c")
    5885                      .dwattr $C$DW$292, DW_AT_decl_line(0x125)
    5886                      .dwattr $C$DW$292, DW_AT_decl_column(0x06)
    5887                      .dwattr $C$DW$292, DW_AT_TI_max_frame_size(-60)
    5888                      .dwpsn  file "../bts.c",line 293,column 36,is_stmt,address ||BTS_initProgramVariables||,isa 0
    5889              
TMS320C2000 Assembler PC v20.2.4 Tue Mar  2 07:24:45 2021

Copyright (c) 1996-2018 Texas Instruments Incorporated
bts.asm                                                              PAGE  126

    5890                      .dwfde $C$DW$CIE, ||BTS_initProgramVariables||
    5891              
    5892              ;***************************************************************
    5893              ;* FNAME: BTS_initProgramVariables      FR SIZE:  58           *
    5894              ;*                                                             *
    5895              ;* FUNCTION ENVIRONMENT                                        *
    5896              ;*                                                             *
    5897              ;* FUNCTION PROPERTIES                                         *
    5898              ;*                            0 Parameter, 50 Auto,  8 SOE     *
    5899              ;***************************************************************
    5900              
    5901 00000499       ||BTS_initProgramVariables||:
    5902                      .dwcfi  cfa_offset, -2
    5903                      .dwcfi  save_reg_to_mem, 26, 0
    5904 00000499 E203          MOV32     *SP++,R4H             ; [CPU_FPU] 
         0000049a 04BD 
    5905                      .dwcfi  save_reg_to_mem, 59, 2
    5906                      .dwcfi  cfa_offset, -4
    5907 0000049b E203          MOV32     *SP++,R5H             ; [CPU_FPU] 
         0000049c 05BD 
    5908                      .dwcfi  save_reg_to_mem, 63, 4
    5909                      .dwcfi  cfa_offset, -6
    5910 0000049d E203          MOV32     *SP++,R6H             ; [CPU_FPU] 
         0000049e 06BD 
    5911                      .dwcfi  save_reg_to_mem, 67, 6
    5912                      .dwcfi  cfa_offset, -8
    5913 0000049f E203          MOV32     *SP++,R7H             ; [CPU_FPU] 
         000004a0 07BD 
    5914                      .dwcfi  save_reg_to_mem, 71, 8
    5915                      .dwcfi  cfa_offset, -10
    5916 000004a1 FE32          ADDB      SP,#50                ; [CPU_ARAU] 
    5917                      .dwcfi  cfa_offset, -60
    5918 000004a2 761F!         MOVW      DP,#||BTS_ctrlLoopVariable_ch1||+32 ; [CPU_ARAU] 
         000004a3 0000 
    5919                      .dwpsn  file "../bts.c",line 319,column 5,is_stmt,isa 0
    5920 000004a4 E802          MOVIZ     R0H,#16671            ; [CPU_FPU] |319| 
         000004a5 08F8 
    5921                      .dwpsn  file "../bts.c",line 295,column 5,is_stmt,isa 0
    5922 000004a6 2820!         MOV       @$BLOCKED(||BTS_ctrlLoopVariable_ch1||)+32,#26305 ; [CPU_ALU] |295| 
         000004a7 66C1 
    5923                      .dwpsn  file "../bts.c",line 296,column 5,is_stmt,isa 0
    5924 000004a8 2821!         MOV       @$BLOCKED(||BTS_ctrlLoopVariable_ch1||)+33,#-26305 ; [CPU_ALU] |296| 
         000004a9 993F 
    5925 000004aa 761F!         MOVW      DP,#||BTS_ctrlLoopVariable_ch2||+32 ; [CPU_ARAU] 
         000004ab 0000 
    5926                      .dwpsn  file "../bts.c",line 298,column 5,is_stmt,isa 0
    5927 000004ac 2820!         MOV       @$BLOCKED(||BTS_ctrlLoopVariable_ch2||)+32,#26305 ; [CPU_ALU] |298| 
         000004ad 66C1 
    5928                      .dwpsn  file "../bts.c",line 299,column 5,is_stmt,isa 0
    5929 000004ae 2821!         MOV       @$BLOCKED(||BTS_ctrlLoopVariable_ch2||)+33,#-26305 ; [CPU_ALU] |299| 
         000004af 993F 
    5930                      .dwpsn  file "../bts.c",line 319,column 5,is_stmt,isa 0
    5931 000004b0 E203          MOV32     *-SP[2],R0H           ; [CPU_FPU] |319| 
         000004b1 0042 
    5932 000004b2 761F!         MOVW      DP,#||BTS_ctrlLoopVariable_ch3||+32 ; [CPU_ARAU] 
TMS320C2000 Assembler PC v20.2.4 Tue Mar  2 07:24:45 2021

Copyright (c) 1996-2018 Texas Instruments Incorporated
bts.asm                                                              PAGE  127

         000004b3 0000 
    5933                      .dwpsn  file "../bts.c",line 301,column 5,is_stmt,isa 0
    5934 000004b4 2820!         MOV       @$BLOCKED(||BTS_ctrlLoopVariable_ch3||)+32,#26305 ; [CPU_ALU] |301| 
         000004b5 66C1 
    5935                      .dwpsn  file "../bts.c",line 302,column 5,is_stmt,isa 0
    5936 000004b6 2821!         MOV       @$BLOCKED(||BTS_ctrlLoopVariable_ch3||)+33,#-26305 ; [CPU_ALU] |302| 
         000004b7 993F 
    5937                      .dwpsn  file "../bts.c",line 320,column 5,is_stmt,isa 0
    5938 000004b8 E805          MOVIZ     R0H,#47909            ; [CPU_FPU] |320| 
         000004b9 D928 
    5939                      .dwpsn  file "../bts.c",line 350,column 5,is_stmt,isa 0
    5940 000004ba E805          MOVIZ     R7H,#45856            ; [CPU_FPU] |350| 
         000004bb 9907 
    5941                      .dwpsn  file "../bts.c",line 351,column 5,is_stmt,isa 0
    5942 000004bc E802          MOVIZ     R6H,#16542            ; [CPU_FPU] |351| 
         000004bd 04F6 
    5943                      .dwpsn  file "../bts.c",line 352,column 5,is_stmt,isa 0
    5944 000004be E801          MOVIZ     R5H,#13214            ; [CPU_FPU] |352| 
         000004bf 9CF5 
    5945 000004c0 761F!         MOVW      DP,#||BTS_ctrlLoopVariable_ch4||+32 ; [CPU_ARAU] 
         000004c1 0000 
    5946                      .dwpsn  file "../bts.c",line 354,column 5,is_stmt,isa 0
    5947 000004c2 E802          MOVIZ     R4H,#16672            ; [CPU_FPU] |354| 
         000004c3 0904 
    5948                      .dwpsn  file "../bts.c",line 355,column 5,is_stmt,isa 0
    5949 000004c4 E805          MOVIZ     R3H,#45856            ; [CPU_FPU] |355| 
         000004c5 9903 
    5950                      .dwpsn  file "../bts.c",line 356,column 5,is_stmt,isa 0
    5951 000004c6 E802          MOVIZ     R2H,#16542            ; [CPU_FPU] |356| 
         000004c7 04F2 
    5952                      .dwpsn  file "../bts.c",line 357,column 5,is_stmt,isa 0
    5953 000004c8 E801          MOVIZ     R1H,#13214            ; [CPU_FPU] |357| 
         000004c9 9CF1 
    5954                      .dwpsn  file "../bts.c",line 304,column 5,is_stmt,isa 0
    5955 000004ca 2820!         MOV       @$BLOCKED(||BTS_ctrlLoopVariable_ch4||)+32,#26305 ; [CPU_ALU] |304| 
         000004cb 66C1 
    5956                      .dwpsn  file "../bts.c",line 305,column 5,is_stmt,isa 0
    5957 000004cc 2821!         MOV       @$BLOCKED(||BTS_ctrlLoopVariable_ch4||)+33,#-26305 ; [CPU_ALU] |305| 
         000004cd 993F 
    5958 000004ce 761F!         MOVW      DP,#||BTS_ctrlLoopVariable_ch5||+32 ; [CPU_ARAU] 
         000004cf 0000 
    5959                      .dwpsn  file "../bts.c",line 320,column 5,is_stmt,isa 0
    5960 000004d0 E203          MOV32     *-SP[4],R0H           ; [CPU_FPU] |320| 
         000004d1 0044 
    5961                      .dwpsn  file "../bts.c",line 307,column 5,is_stmt,isa 0
    5962 000004d2 2820!         MOV       @$BLOCKED(||BTS_ctrlLoopVariable_ch5||)+32,#26305 ; [CPU_ALU] |307| 
         000004d3 66C1 
    5963                      .dwpsn  file "../bts.c",line 308,column 5,is_stmt,isa 0
    5964 000004d4 2821!         MOV       @$BLOCKED(||BTS_ctrlLoopVariable_ch5||)+33,#-26305 ; [CPU_ALU] |308| 
         000004d5 993F 
    5965                      .dwpsn  file "../bts.c",line 321,column 5,is_stmt,isa 0
    5966 000004d6 E802          MOVIZ     R0H,#16541            ; [CPU_FPU] |321| 
         000004d7 04E8 
    5967 000004d8 761F!         MOVW      DP,#||BTS_ctrlLoopVariable_ch6||+32 ; [CPU_ARAU] 
         000004d9 0000 
TMS320C2000 Assembler PC v20.2.4 Tue Mar  2 07:24:45 2021

Copyright (c) 1996-2018 Texas Instruments Incorporated
bts.asm                                                              PAGE  128

    5968                      .dwpsn  file "../bts.c",line 310,column 5,is_stmt,isa 0
    5969 000004da 2820!         MOV       @$BLOCKED(||BTS_ctrlLoopVariable_ch6||)+32,#26305 ; [CPU_ALU] |310| 
         000004db 66C1 
    5970                      .dwpsn  file "../bts.c",line 311,column 5,is_stmt,isa 0
    5971 000004dc 2821!         MOV       @$BLOCKED(||BTS_ctrlLoopVariable_ch6||)+33,#-26305 ; [CPU_ALU] |311| 
         000004dd 993F 
    5972 000004de 761F!         MOVW      DP,#||BTS_ctrlLoopVariable_ch7||+32 ; [CPU_ARAU] 
         000004df 0000 
    5973                      .dwpsn  file "../bts.c",line 321,column 5,is_stmt,isa 0
    5974 000004e0 E203          MOV32     *-SP[6],R0H           ; [CPU_FPU] |321| 
         000004e1 0046 
    5975                      .dwpsn  file "../bts.c",line 313,column 5,is_stmt,isa 0
    5976 000004e2 2820!         MOV       @$BLOCKED(||BTS_ctrlLoopVariable_ch7||)+32,#26305 ; [CPU_ALU] |313| 
         000004e3 66C1 
    5977                      .dwpsn  file "../bts.c",line 314,column 5,is_stmt,isa 0
    5978 000004e4 2821!         MOV       @$BLOCKED(||BTS_ctrlLoopVariable_ch7||)+33,#-26305 ; [CPU_ALU] |314| 
         000004e5 993F 
    5979                      .dwpsn  file "../bts.c",line 322,column 5,is_stmt,isa 0
    5980 000004e6 E801          MOVIZ     R0H,#15186            ; [CPU_FPU] |322| 
         000004e7 DA90 
    5981 000004e8 761F!         MOVW      DP,#||BTS_ctrlLoopVariable_ch8||+32 ; [CPU_ARAU] 
         000004e9 0000 
    5982 000004ea E203          MOV32     *-SP[8],R0H           ; [CPU_FPU] |322| 
         000004eb 0048 
    5983                      .dwpsn  file "../bts.c",line 316,column 5,is_stmt,isa 0
    5984 000004ec 2820!         MOV       @$BLOCKED(||BTS_ctrlLoopVariable_ch8||)+32,#26305 ; [CPU_ALU] |316| 
         000004ed 66C1 
    5985                      .dwpsn  file "../bts.c",line 317,column 5,is_stmt,isa 0
    5986 000004ee 2821!         MOV       @$BLOCKED(||BTS_ctrlLoopVariable_ch8||)+33,#-26305 ; [CPU_ALU] |317| 
         000004ef 993F 
    5987                      .dwpsn  file "../bts.c",line 324,column 5,is_stmt,isa 0
    5988 000004f0 E802          MOVIZ     R0H,#16672            ; [CPU_FPU] |324| 
         000004f1 0900 
    5989 000004f2 E203          MOV32     *-SP[10],R0H          ; [CPU_FPU] |324| 
         000004f3 004A 
    5990                      .dwpsn  file "../bts.c",line 325,column 5,is_stmt,isa 0
    5991 000004f4 E805          MOVIZ     R0H,#45856            ; [CPU_FPU] |325| 
         000004f5 9900 
    5992 000004f6 E203          MOV32     *-SP[12],R0H          ; [CPU_FPU] |325| 
         000004f7 004C 
    5993                      .dwpsn  file "../bts.c",line 326,column 5,is_stmt,isa 0
    5994 000004f8 E802          MOVIZ     R0H,#16542            ; [CPU_FPU] |326| 
         000004f9 04F0 
    5995 000004fa E203          MOV32     *-SP[14],R0H          ; [CPU_FPU] |326| 
         000004fb 004E 
    5996                      .dwpsn  file "../bts.c",line 327,column 5,is_stmt,isa 0
    5997 000004fc E801          MOVIZ     R0H,#13214            ; [CPU_FPU] |327| 
         000004fd 9CF0 
    5998                      .dwpsn  file "../bts.c",line 350,column 5,is_stmt,isa 0
    5999 000004fe E80B          MOVXI     R7H,#28135            ; [CPU_FPU] |350| 
         000004ff 6F3F 
    6000                      .dwpsn  file "../bts.c",line 351,column 5,is_stmt,isa 0
    6001 00000500 E809          MOVXI     R6H,#10485            ; [CPU_FPU] |351| 
         00000501 47AE 
    6002                      .dwpsn  file "../bts.c",line 327,column 5,is_stmt,isa 0
TMS320C2000 Assembler PC v20.2.4 Tue Mar  2 07:24:45 2021

Copyright (c) 1996-2018 Texas Instruments Incorporated
bts.asm                                                              PAGE  129

    6003 00000502 E203          MOV32     *-SP[16],R0H          ; [CPU_FPU] |327| 
         00000503 0050 
    6004                      .dwpsn  file "../bts.c",line 352,column 5,is_stmt,isa 0
    6005 00000504 E809          MOVXI     R5H,#10485            ; [CPU_FPU] |352| 
         00000505 47AD 
    6006                      .dwpsn  file "../bts.c",line 354,column 5,is_stmt,isa 0
    6007 00000506 E80B          MOVXI     R4H,#28135            ; [CPU_FPU] |354| 
         00000507 6F3C 
    6008                      .dwpsn  file "../bts.c",line 355,column 5,is_stmt,isa 0
    6009 00000508 E80B          MOVXI     R3H,#28135            ; [CPU_FPU] |355| 
         00000509 6F3B 
    6010                      .dwpsn  file "../bts.c",line 356,column 5,is_stmt,isa 0
    6011 0000050a E809          MOVXI     R2H,#10485            ; [CPU_FPU] |356| 
         0000050b 47AA 
    6012                      .dwpsn  file "../bts.c",line 357,column 5,is_stmt,isa 0
    6013 0000050c E809          MOVXI     R1H,#10485            ; [CPU_FPU] |357| 
         0000050d 47A9 
    6014                      .dwpsn  file "../bts.c",line 329,column 5,is_stmt,isa 0
    6015 0000050e E802          MOVIZ     R0H,#16672            ; [CPU_FPU] |329| 
         0000050f 0900 
    6016 00000510 761F!         MOVW      DP,#||BTS_measValues_ch1||+74 ; [CPU_ARAU] 
         00000511 0001 
    6017 00000512 E203          MOV32     *-SP[18],R0H          ; [CPU_FPU] |329| 
         00000513 0052 
    6018                      .dwpsn  file "../bts.c",line 330,column 5,is_stmt,isa 0
    6019 00000514 E805          MOVIZ     R0H,#45856            ; [CPU_FPU] |330| 
         00000515 9900 
    6020 00000516 E203          MOV32     *-SP[20],R0H          ; [CPU_FPU] |330| 
         00000517 0054 
    6021                      .dwpsn  file "../bts.c",line 331,column 5,is_stmt,isa 0
    6022 00000518 E802          MOVIZ     R0H,#16542            ; [CPU_FPU] |331| 
         00000519 04F0 
    6023 0000051a E203          MOV32     *-SP[22],R0H          ; [CPU_FPU] |331| 
         0000051b 0056 
    6024                      .dwpsn  file "../bts.c",line 332,column 5,is_stmt,isa 0
    6025 0000051c E801          MOVIZ     R0H,#13214            ; [CPU_FPU] |332| 
         0000051d 9CF0 
    6026 0000051e E203          MOV32     *-SP[24],R0H          ; [CPU_FPU] |332| 
         0000051f 0058 
    6027                      .dwpsn  file "../bts.c",line 334,column 5,is_stmt,isa 0
    6028 00000520 E802          MOVIZ     R0H,#16672            ; [CPU_FPU] |334| 
         00000521 0900 
    6029 00000522 E203          MOV32     *-SP[26],R0H          ; [CPU_FPU] |334| 
         00000523 005A 
    6030                      .dwpsn  file "../bts.c",line 335,column 5,is_stmt,isa 0
    6031 00000524 E805          MOVIZ     R0H,#45856            ; [CPU_FPU] |335| 
         00000525 9900 
    6032 00000526 E203          MOV32     *-SP[28],R0H          ; [CPU_FPU] |335| 
         00000527 005C 
    6033                      .dwpsn  file "../bts.c",line 336,column 5,is_stmt,isa 0
    6034 00000528 E802          MOVIZ     R0H,#16542            ; [CPU_FPU] |336| 
         00000529 04F0 
    6035 0000052a E203          MOV32     *-SP[30],R0H          ; [CPU_FPU] |336| 
         0000052b 005E 
    6036                      .dwpsn  file "../bts.c",line 337,column 5,is_stmt,isa 0
TMS320C2000 Assembler PC v20.2.4 Tue Mar  2 07:24:45 2021

Copyright (c) 1996-2018 Texas Instruments Incorporated
bts.asm                                                              PAGE  130

    6037 0000052c E801          MOVIZ     R0H,#13214            ; [CPU_FPU] |337| 
         0000052d 9CF0 
    6038 0000052e E203          MOV32     *-SP[32],R0H          ; [CPU_FPU] |337| 
         0000052f 0060 
    6039                      .dwpsn  file "../bts.c",line 339,column 5,is_stmt,isa 0
    6040 00000530 E802          MOVIZ     R0H,#16672            ; [CPU_FPU] |339| 
         00000531 0900 
    6041 00000532 E203          MOV32     *-SP[34],R0H          ; [CPU_FPU] |339| 
         00000533 0062 
    6042                      .dwpsn  file "../bts.c",line 340,column 5,is_stmt,isa 0
    6043 00000534 E805          MOVIZ     R0H,#45856            ; [CPU_FPU] |340| 
         00000535 9900 
    6044 00000536 E203          MOV32     *-SP[36],R0H          ; [CPU_FPU] |340| 
         00000537 0064 
    6045                      .dwpsn  file "../bts.c",line 341,column 5,is_stmt,isa 0
    6046 00000538 E802          MOVIZ     R0H,#16542            ; [CPU_FPU] |341| 
         00000539 04F0 
    6047 0000053a E203          MOV32     *-SP[38],R0H          ; [CPU_FPU] |341| 
         0000053b 0066 
    6048                      .dwpsn  file "../bts.c",line 342,column 5,is_stmt,isa 0
    6049 0000053c E801          MOVIZ     R0H,#13214            ; [CPU_FPU] |342| 
         0000053d 9CF0 
    6050 0000053e E203          MOV32     *-SP[40],R0H          ; [CPU_FPU] |342| 
         0000053f 0068 
    6051                      .dwpsn  file "../bts.c",line 344,column 5,is_stmt,isa 0
    6052 00000540 E802          MOVIZ     R0H,#16672            ; [CPU_FPU] |344| 
         00000541 0900 
    6053 00000542 E203          MOV32     *-SP[42],R0H          ; [CPU_FPU] |344| 
         00000543 006A 
    6054                      .dwpsn  file "../bts.c",line 345,column 5,is_stmt,isa 0
    6055 00000544 E805          MOVIZ     R0H,#45856            ; [CPU_FPU] |345| 
         00000545 9900 
    6056 00000546 E203          MOV32     *-SP[44],R0H          ; [CPU_FPU] |345| 
         00000547 006C 
    6057                      .dwpsn  file "../bts.c",line 346,column 5,is_stmt,isa 0
    6058 00000548 E802          MOVIZ     R0H,#16542            ; [CPU_FPU] |346| 
         00000549 04F0 
    6059 0000054a E203          MOV32     *-SP[46],R0H          ; [CPU_FPU] |346| 
         0000054b 006E 
    6060                      .dwpsn  file "../bts.c",line 347,column 5,is_stmt,isa 0
    6061 0000054c E801          MOVIZ     R0H,#13214            ; [CPU_FPU] |347| 
         0000054d 9CF0 
    6062 0000054e E203          MOV32     *-SP[48],R0H          ; [CPU_FPU] |347| 
         0000054f 0070 
    6063                      .dwpsn  file "../bts.c",line 349,column 5,is_stmt,isa 0
    6064 00000550 E802          MOVIZ     R0H,#16672            ; [CPU_FPU] |349| 
         00000551 0900 
    6065 00000552 E203          MOV32     *-SP[50],R0H          ; [CPU_FPU] |349| 
         00000553 0072 
    6066                      .dwpsn  file "../bts.c",line 357,column 5,is_stmt,isa 0
    6067 00000554 E2AF          MOV32     R0H,*-SP[2]           ; [CPU_FPU] |357| 
         00000555 0042 
    6068                      .dwpsn  file "../bts.c",line 319,column 5,is_stmt,isa 0
    6069 00000556 E80B          MOVXI     R0H,#32567            ; [CPU_FPU] |319| 
         00000557 F9B8 
TMS320C2000 Assembler PC v20.2.4 Tue Mar  2 07:24:45 2021

Copyright (c) 1996-2018 Texas Instruments Incorporated
bts.asm                                                              PAGE  131

    6070 00000558 E203          MOV32     *-SP[2],R0H           ; [CPU_FPU] |319| 
         00000559 0042 
    6071 0000055a E2AF          MOV32     R0H,*-SP[4]           ; [CPU_FPU] |319| 
         0000055b 0044 
    6072                      .dwpsn  file "../bts.c",line 320,column 5,is_stmt,isa 0
    6073 0000055c E808          MOVXI     R0H,#1090             ; [CPU_FPU] |320| 
         0000055d 2210 
    6074 0000055e E203          MOV32     *-SP[4],R0H           ; [CPU_FPU] |320| 
         0000055f 0044 
    6075 00000560 E2AF          MOV32     R0H,*-SP[6]           ; [CPU_FPU] |320| 
         00000561 0046 
    6076                      .dwpsn  file "../bts.c",line 321,column 5,is_stmt,isa 0
    6077 00000562 E80C          MOVXI     R0H,#37119            ; [CPU_FPU] |321| 
         00000563 87F8 
    6078 00000564 E203          MOV32     *-SP[6],R0H           ; [CPU_FPU] |321| 
         00000565 0046 
    6079 00000566 E2AF          MOV32     R0H,*-SP[8]           ; [CPU_FPU] |321| 
         00000567 0048 
    6080                      .dwpsn  file "../bts.c",line 322,column 5,is_stmt,isa 0
    6081 00000568 E808          MOVXI     R0H,#6852             ; [CPU_FPU] |322| 
         00000569 D620 
    6082 0000056a E203          MOV32     *-SP[8],R0H           ; [CPU_FPU] |322| 
         0000056b 0048 
    6083 0000056c E2AF          MOV32     R0H,*-SP[10]          ; [CPU_FPU] |322| 
         0000056d 004A 
    6084                      .dwpsn  file "../bts.c",line 324,column 5,is_stmt,isa 0
    6085 0000056e E80B          MOVXI     R0H,#28135            ; [CPU_FPU] |324| 
         0000056f 6F38 
    6086 00000570 E203          MOV32     *-SP[10],R0H          ; [CPU_FPU] |324| 
         00000571 004A 
    6087 00000572 E2AF          MOV32     R0H,*-SP[12]          ; [CPU_FPU] |324| 
         00000573 004C 
    6088                      .dwpsn  file "../bts.c",line 325,column 5,is_stmt,isa 0
    6089 00000574 E80B          MOVXI     R0H,#28135            ; [CPU_FPU] |325| 
         00000575 6F38 
    6090 00000576 E203          MOV32     *-SP[12],R0H          ; [CPU_FPU] |325| 
         00000577 004C 
    6091 00000578 E2AF          MOV32     R0H,*-SP[14]          ; [CPU_FPU] |325| 
         00000579 004E 
    6092                      .dwpsn  file "../bts.c",line 326,column 5,is_stmt,isa 0
    6093 0000057a E809          MOVXI     R0H,#10485            ; [CPU_FPU] |326| 
         0000057b 47A8 
    6094 0000057c E203          MOV32     *-SP[14],R0H          ; [CPU_FPU] |326| 
         0000057d 004E 
    6095 0000057e E2AF          MOV32     R0H,*-SP[16]          ; [CPU_FPU] |326| 
         0000057f 0050 
    6096                      .dwpsn  file "../bts.c",line 327,column 5,is_stmt,isa 0
    6097 00000580 E809          MOVXI     R0H,#10485            ; [CPU_FPU] |327| 
         00000581 47A8 
    6098 00000582 E203          MOV32     *-SP[16],R0H          ; [CPU_FPU] |327| 
         00000583 0050 
    6099 00000584 E2AF          MOV32     R0H,*-SP[18]          ; [CPU_FPU] |327| 
         00000585 0052 
    6100                      .dwpsn  file "../bts.c",line 329,column 5,is_stmt,isa 0
    6101 00000586 E80B          MOVXI     R0H,#28135            ; [CPU_FPU] |329| 
TMS320C2000 Assembler PC v20.2.4 Tue Mar  2 07:24:45 2021

Copyright (c) 1996-2018 Texas Instruments Incorporated
bts.asm                                                              PAGE  132

         00000587 6F38 
    6102 00000588 E203          MOV32     *-SP[18],R0H          ; [CPU_FPU] |329| 
         00000589 0052 
    6103 0000058a E2AF          MOV32     R0H,*-SP[20]          ; [CPU_FPU] |329| 
         0000058b 0054 
    6104                      .dwpsn  file "../bts.c",line 330,column 5,is_stmt,isa 0
    6105 0000058c E80B          MOVXI     R0H,#28135            ; [CPU_FPU] |330| 
         0000058d 6F38 
    6106 0000058e E203          MOV32     *-SP[20],R0H          ; [CPU_FPU] |330| 
         0000058f 0054 
    6107 00000590 E2AF          MOV32     R0H,*-SP[22]          ; [CPU_FPU] |330| 
         00000591 0056 
    6108                      .dwpsn  file "../bts.c",line 331,column 5,is_stmt,isa 0
    6109 00000592 E809          MOVXI     R0H,#10485            ; [CPU_FPU] |331| 
         00000593 47A8 
    6110 00000594 E203          MOV32     *-SP[22],R0H          ; [CPU_FPU] |331| 
         00000595 0056 
    6111 00000596 E2AF          MOV32     R0H,*-SP[24]          ; [CPU_FPU] |331| 
         00000597 0058 
    6112                      .dwpsn  file "../bts.c",line 332,column 5,is_stmt,isa 0
    6113 00000598 E809          MOVXI     R0H,#10485            ; [CPU_FPU] |332| 
         00000599 47A8 
    6114 0000059a E203          MOV32     *-SP[24],R0H          ; [CPU_FPU] |332| 
         0000059b 0058 
    6115 0000059c E2AF          MOV32     R0H,*-SP[26]          ; [CPU_FPU] |332| 
         0000059d 005A 
    6116                      .dwpsn  file "../bts.c",line 334,column 5,is_stmt,isa 0
    6117 0000059e E80B          MOVXI     R0H,#28135            ; [CPU_FPU] |334| 
         0000059f 6F38 
    6118 000005a0 E203          MOV32     *-SP[26],R0H          ; [CPU_FPU] |334| 
         000005a1 005A 
    6119 000005a2 E2AF          MOV32     R0H,*-SP[28]          ; [CPU_FPU] |334| 
         000005a3 005C 
    6120                      .dwpsn  file "../bts.c",line 335,column 5,is_stmt,isa 0
    6121 000005a4 E80B          MOVXI     R0H,#28135            ; [CPU_FPU] |335| 
         000005a5 6F38 
    6122 000005a6 E203          MOV32     *-SP[28],R0H          ; [CPU_FPU] |335| 
         000005a7 005C 
    6123 000005a8 E2AF          MOV32     R0H,*-SP[30]          ; [CPU_FPU] |335| 
         000005a9 005E 
    6124                      .dwpsn  file "../bts.c",line 336,column 5,is_stmt,isa 0
    6125 000005aa E809          MOVXI     R0H,#10485            ; [CPU_FPU] |336| 
         000005ab 47A8 
    6126 000005ac E203          MOV32     *-SP[30],R0H          ; [CPU_FPU] |336| 
         000005ad 005E 
    6127 000005ae E2AF          MOV32     R0H,*-SP[32]          ; [CPU_FPU] |336| 
         000005af 0060 
    6128                      .dwpsn  file "../bts.c",line 337,column 5,is_stmt,isa 0
    6129 000005b0 E809          MOVXI     R0H,#10485            ; [CPU_FPU] |337| 
         000005b1 47A8 
    6130 000005b2 E203          MOV32     *-SP[32],R0H          ; [CPU_FPU] |337| 
         000005b3 0060 
    6131 000005b4 E2AF          MOV32     R0H,*-SP[34]          ; [CPU_FPU] |337| 
         000005b5 0062 
    6132                      .dwpsn  file "../bts.c",line 339,column 5,is_stmt,isa 0
TMS320C2000 Assembler PC v20.2.4 Tue Mar  2 07:24:45 2021

Copyright (c) 1996-2018 Texas Instruments Incorporated
bts.asm                                                              PAGE  133

    6133 000005b6 E80B          MOVXI     R0H,#28135            ; [CPU_FPU] |339| 
         000005b7 6F38 
    6134 000005b8 E203          MOV32     *-SP[34],R0H          ; [CPU_FPU] |339| 
         000005b9 0062 
    6135 000005ba E2AF          MOV32     R0H,*-SP[36]          ; [CPU_FPU] |339| 
         000005bb 0064 
    6136                      .dwpsn  file "../bts.c",line 340,column 5,is_stmt,isa 0
    6137 000005bc E80B          MOVXI     R0H,#28135            ; [CPU_FPU] |340| 
         000005bd 6F38 
    6138 000005be E203          MOV32     *-SP[36],R0H          ; [CPU_FPU] |340| 
         000005bf 0064 
    6139 000005c0 E2AF          MOV32     R0H,*-SP[38]          ; [CPU_FPU] |340| 
         000005c1 0066 
    6140                      .dwpsn  file "../bts.c",line 341,column 5,is_stmt,isa 0
    6141 000005c2 E809          MOVXI     R0H,#10485            ; [CPU_FPU] |341| 
         000005c3 47A8 
    6142 000005c4 E203          MOV32     *-SP[38],R0H          ; [CPU_FPU] |341| 
         000005c5 0066 
    6143 000005c6 E2AF          MOV32     R0H,*-SP[40]          ; [CPU_FPU] |341| 
         000005c7 0068 
    6144                      .dwpsn  file "../bts.c",line 342,column 5,is_stmt,isa 0
    6145 000005c8 E809          MOVXI     R0H,#10485            ; [CPU_FPU] |342| 
         000005c9 47A8 
    6146 000005ca E203          MOV32     *-SP[40],R0H          ; [CPU_FPU] |342| 
         000005cb 0068 
    6147 000005cc E2AF          MOV32     R0H,*-SP[42]          ; [CPU_FPU] |342| 
         000005cd 006A 
    6148                      .dwpsn  file "../bts.c",line 344,column 5,is_stmt,isa 0
    6149 000005ce E80B          MOVXI     R0H,#28135            ; [CPU_FPU] |344| 
         000005cf 6F38 
    6150 000005d0 E203          MOV32     *-SP[42],R0H          ; [CPU_FPU] |344| 
         000005d1 006A 
    6151 000005d2 E2AF          MOV32     R0H,*-SP[44]          ; [CPU_FPU] |344| 
         000005d3 006C 
    6152                      .dwpsn  file "../bts.c",line 345,column 5,is_stmt,isa 0
    6153 000005d4 E80B          MOVXI     R0H,#28135            ; [CPU_FPU] |345| 
         000005d5 6F38 
    6154 000005d6 E203          MOV32     *-SP[44],R0H          ; [CPU_FPU] |345| 
         000005d7 006C 
    6155 000005d8 E2AF          MOV32     R0H,*-SP[46]          ; [CPU_FPU] |345| 
         000005d9 006E 
    6156                      .dwpsn  file "../bts.c",line 346,column 5,is_stmt,isa 0
    6157 000005da E809          MOVXI     R0H,#10485            ; [CPU_FPU] |346| 
         000005db 47A8 
    6158 000005dc E203          MOV32     *-SP[46],R0H          ; [CPU_FPU] |346| 
         000005dd 006E 
    6159 000005de E2AF          MOV32     R0H,*-SP[48]          ; [CPU_FPU] |346| 
         000005df 0070 
    6160                      .dwpsn  file "../bts.c",line 347,column 5,is_stmt,isa 0
    6161 000005e0 E809          MOVXI     R0H,#10485            ; [CPU_FPU] |347| 
         000005e1 47A8 
    6162 000005e2 E203          MOV32     *-SP[48],R0H          ; [CPU_FPU] |347| 
         000005e3 0070 
    6163 000005e4 E2AF          MOV32     R0H,*-SP[50]          ; [CPU_FPU] |347| 
         000005e5 0072 
TMS320C2000 Assembler PC v20.2.4 Tue Mar  2 07:24:45 2021

Copyright (c) 1996-2018 Texas Instruments Incorporated
bts.asm                                                              PAGE  134

    6164                      .dwpsn  file "../bts.c",line 349,column 5,is_stmt,isa 0
    6165 000005e6 E80B          MOVXI     R0H,#28135            ; [CPU_FPU] |349| 
         000005e7 6F38 
    6166 000005e8 E203          MOV32     *-SP[50],R0H          ; [CPU_FPU] |349| 
         000005e9 0072 
    6167                      .dwpsn  file "../bts.c",line 317,column 5,is_stmt,isa 0
    6168 000005ea E2AF          MOV32     R0H,*-SP[2]           ; [CPU_FPU] |317| 
         000005eb 0042 
    6169                      .dwpsn  file "../bts.c",line 319,column 5,is_stmt,isa 0
    6170 000005ec E203!         MOV32     @$BLOCKED(||BTS_measValues_ch1||)+74,R0H ; [CPU_FPU] |319| 
         000005ed 000A 
    6171 000005ee E2AF          MOV32     R0H,*-SP[4]           ; [CPU_FPU] |319| 
         000005ef 0044 
    6172                      .dwpsn  file "../bts.c",line 320,column 5,is_stmt,isa 0
    6173 000005f0 E203!         MOV32     @$BLOCKED(||BTS_measValues_ch1||)+76,R0H ; [CPU_FPU] |320| 
         000005f1 000C 
    6174 000005f2 E2AF          MOV32     R0H,*-SP[6]           ; [CPU_FPU] |320| 
         000005f3 0046 
    6175                      .dwpsn  file "../bts.c",line 321,column 5,is_stmt,isa 0
    6176 000005f4 E203!         MOV32     @$BLOCKED(||BTS_measValues_ch1||)+78,R0H ; [CPU_FPU] |321| 
         000005f5 000E 
    6177 000005f6 E2AF          MOV32     R0H,*-SP[8]           ; [CPU_FPU] |321| 
         000005f7 0048 
    6178                      .dwpsn  file "../bts.c",line 322,column 5,is_stmt,isa 0
    6179 000005f8 E203!         MOV32     @$BLOCKED(||BTS_measValues_ch1||)+80,R0H ; [CPU_FPU] |322| 
         000005f9 0010 
    6180 000005fa 761F!         MOVW      DP,#||BTS_measValues_ch2||+74 ; [CPU_ARAU] 
         000005fb 0001 
    6181 000005fc E2AF          MOV32     R0H,*-SP[10]          ; [CPU_FPU] |322| 
         000005fd 004A 
    6182                      .dwpsn  file "../bts.c",line 324,column 5,is_stmt,isa 0
    6183 000005fe E203!         MOV32     @$BLOCKED(||BTS_measValues_ch2||)+74,R0H ; [CPU_FPU] |324| 
         000005ff 000A 
    6184 00000600 E2AF          MOV32     R0H,*-SP[12]          ; [CPU_FPU] |324| 
         00000601 004C 
    6185                      .dwpsn  file "../bts.c",line 325,column 5,is_stmt,isa 0
    6186 00000602 E203!         MOV32     @$BLOCKED(||BTS_measValues_ch2||)+76,R0H ; [CPU_FPU] |325| 
         00000603 000C 
    6187 00000604 E2AF          MOV32     R0H,*-SP[14]          ; [CPU_FPU] |325| 
         00000605 004E 
    6188                      .dwpsn  file "../bts.c",line 326,column 5,is_stmt,isa 0
    6189 00000606 E203!         MOV32     @$BLOCKED(||BTS_measValues_ch2||)+78,R0H ; [CPU_FPU] |326| 
         00000607 000E 
    6190 00000608 E2AF          MOV32     R0H,*-SP[16]          ; [CPU_FPU] |326| 
         00000609 0050 
    6191                      .dwpsn  file "../bts.c",line 327,column 5,is_stmt,isa 0
    6192 0000060a E203!         MOV32     @$BLOCKED(||BTS_measValues_ch2||)+80,R0H ; [CPU_FPU] |327| 
         0000060b 0010 
    6193 0000060c 761F!         MOVW      DP,#||BTS_measValues_ch3||+74 ; [CPU_ARAU] 
         0000060d 0001 
    6194 0000060e E2AF          MOV32     R0H,*-SP[18]          ; [CPU_FPU] |327| 
         0000060f 0052 
    6195                      .dwpsn  file "../bts.c",line 329,column 5,is_stmt,isa 0
    6196 00000610 E203!         MOV32     @$BLOCKED(||BTS_measValues_ch3||)+74,R0H ; [CPU_FPU] |329| 
         00000611 000A 
TMS320C2000 Assembler PC v20.2.4 Tue Mar  2 07:24:45 2021

Copyright (c) 1996-2018 Texas Instruments Incorporated
bts.asm                                                              PAGE  135

    6197 00000612 E2AF          MOV32     R0H,*-SP[20]          ; [CPU_FPU] |329| 
         00000613 0054 
    6198                      .dwpsn  file "../bts.c",line 330,column 5,is_stmt,isa 0
    6199 00000614 E203!         MOV32     @$BLOCKED(||BTS_measValues_ch3||)+76,R0H ; [CPU_FPU] |330| 
         00000615 000C 
    6200 00000616 E2AF          MOV32     R0H,*-SP[22]          ; [CPU_FPU] |330| 
         00000617 0056 
    6201                      .dwpsn  file "../bts.c",line 331,column 5,is_stmt,isa 0
    6202 00000618 E203!         MOV32     @$BLOCKED(||BTS_measValues_ch3||)+78,R0H ; [CPU_FPU] |331| 
         00000619 000E 
    6203 0000061a E2AF          MOV32     R0H,*-SP[24]          ; [CPU_FPU] |331| 
         0000061b 0058 
    6204                      .dwpsn  file "../bts.c",line 332,column 5,is_stmt,isa 0
    6205 0000061c E203!         MOV32     @$BLOCKED(||BTS_measValues_ch3||)+80,R0H ; [CPU_FPU] |332| 
         0000061d 0010 
    6206 0000061e 761F!         MOVW      DP,#||BTS_measValues_ch4||+74 ; [CPU_ARAU] 
         0000061f 0001 
    6207 00000620 E2AF          MOV32     R0H,*-SP[26]          ; [CPU_FPU] |332| 
         00000621 005A 
    6208                      .dwpsn  file "../bts.c",line 334,column 5,is_stmt,isa 0
    6209 00000622 E203!         MOV32     @$BLOCKED(||BTS_measValues_ch4||)+74,R0H ; [CPU_FPU] |334| 
         00000623 000A 
    6210 00000624 E2AF          MOV32     R0H,*-SP[28]          ; [CPU_FPU] |334| 
         00000625 005C 
    6211                      .dwpsn  file "../bts.c",line 335,column 5,is_stmt,isa 0
    6212 00000626 E203!         MOV32     @$BLOCKED(||BTS_measValues_ch4||)+76,R0H ; [CPU_FPU] |335| 
         00000627 000C 
    6213 00000628 E2AF          MOV32     R0H,*-SP[30]          ; [CPU_FPU] |335| 
         00000629 005E 
    6214                      .dwpsn  file "../bts.c",line 336,column 5,is_stmt,isa 0
    6215 0000062a E203!         MOV32     @$BLOCKED(||BTS_measValues_ch4||)+78,R0H ; [CPU_FPU] |336| 
         0000062b 000E 
    6216 0000062c E2AF          MOV32     R0H,*-SP[32]          ; [CPU_FPU] |336| 
         0000062d 0060 
    6217                      .dwpsn  file "../bts.c",line 337,column 5,is_stmt,isa 0
    6218 0000062e E203!         MOV32     @$BLOCKED(||BTS_measValues_ch4||)+80,R0H ; [CPU_FPU] |337| 
         0000062f 0010 
    6219 00000630 761F!         MOVW      DP,#||BTS_measValues_ch5||+74 ; [CPU_ARAU] 
         00000631 0001 
    6220 00000632 E2AF          MOV32     R0H,*-SP[34]          ; [CPU_FPU] |337| 
         00000633 0062 
    6221                      .dwpsn  file "../bts.c",line 339,column 5,is_stmt,isa 0
    6222 00000634 E203!         MOV32     @$BLOCKED(||BTS_measValues_ch5||)+74,R0H ; [CPU_FPU] |339| 
         00000635 000A 
    6223 00000636 E2AF          MOV32     R0H,*-SP[36]          ; [CPU_FPU] |339| 
         00000637 0064 
    6224                      .dwpsn  file "../bts.c",line 340,column 5,is_stmt,isa 0
    6225 00000638 E203!         MOV32     @$BLOCKED(||BTS_measValues_ch5||)+76,R0H ; [CPU_FPU] |340| 
         00000639 000C 
    6226 0000063a E2AF          MOV32     R0H,*-SP[38]          ; [CPU_FPU] |340| 
         0000063b 0066 
    6227                      .dwpsn  file "../bts.c",line 341,column 5,is_stmt,isa 0
    6228 0000063c E203!         MOV32     @$BLOCKED(||BTS_measValues_ch5||)+78,R0H ; [CPU_FPU] |341| 
         0000063d 000E 
    6229 0000063e E2AF          MOV32     R0H,*-SP[40]          ; [CPU_FPU] |341| 
TMS320C2000 Assembler PC v20.2.4 Tue Mar  2 07:24:45 2021

Copyright (c) 1996-2018 Texas Instruments Incorporated
bts.asm                                                              PAGE  136

         0000063f 0068 
    6230                      .dwpsn  file "../bts.c",line 342,column 5,is_stmt,isa 0
    6231 00000640 E203!         MOV32     @$BLOCKED(||BTS_measValues_ch5||)+80,R0H ; [CPU_FPU] |342| 
         00000641 0010 
    6232 00000642 761F!         MOVW      DP,#||BTS_measValues_ch6||+74 ; [CPU_ARAU] 
         00000643 0001 
    6233 00000644 E2AF          MOV32     R0H,*-SP[42]          ; [CPU_FPU] |342| 
         00000645 006A 
    6234                      .dwpsn  file "../bts.c",line 344,column 5,is_stmt,isa 0
    6235 00000646 E203!         MOV32     @$BLOCKED(||BTS_measValues_ch6||)+74,R0H ; [CPU_FPU] |344| 
         00000647 000A 
    6236 00000648 E2AF          MOV32     R0H,*-SP[44]          ; [CPU_FPU] |344| 
         00000649 006C 
    6237                      .dwpsn  file "../bts.c",line 345,column 5,is_stmt,isa 0
    6238 0000064a E203!         MOV32     @$BLOCKED(||BTS_measValues_ch6||)+76,R0H ; [CPU_FPU] |345| 
         0000064b 000C 
    6239 0000064c E2AF          MOV32     R0H,*-SP[46]          ; [CPU_FPU] |345| 
         0000064d 006E 
    6240                      .dwpsn  file "../bts.c",line 346,column 5,is_stmt,isa 0
    6241 0000064e E203!         MOV32     @$BLOCKED(||BTS_measValues_ch6||)+78,R0H ; [CPU_FPU] |346| 
         0000064f 000E 
    6242 00000650 E2AF          MOV32     R0H,*-SP[48]          ; [CPU_FPU] |346| 
         00000651 0070 
    6243                      .dwpsn  file "../bts.c",line 347,column 5,is_stmt,isa 0
    6244 00000652 E203!         MOV32     @$BLOCKED(||BTS_measValues_ch6||)+80,R0H ; [CPU_FPU] |347| 
         00000653 0010 
    6245 00000654 761F!         MOVW      DP,#||BTS_measValues_ch7||+74 ; [CPU_ARAU] 
         00000655 0001 
    6246                      .dwpsn  file "../bts.c",line 350,column 5,is_stmt,isa 0
    6247 00000656 E203!         MOV32     @$BLOCKED(||BTS_measValues_ch7||)+76,R7H ; [CPU_FPU] |350| 
         00000657 070C 
    6248                      .dwpsn  file "../bts.c",line 351,column 5,is_stmt,isa 0
    6249 00000658 E203!         MOV32     @$BLOCKED(||BTS_measValues_ch7||)+78,R6H ; [CPU_FPU] |351| 
         00000659 060E 
    6250                      .dwpsn  file "../bts.c",line 352,column 5,is_stmt,isa 0
    6251 0000065a E203!         MOV32     @$BLOCKED(||BTS_measValues_ch7||)+80,R5H ; [CPU_FPU] |352| 
         0000065b 0510 
    6252                      .dwpsn  file "../bts.c",line 347,column 5,is_stmt,isa 0
    6253 0000065c E2AF          MOV32     R0H,*-SP[50]          ; [CPU_FPU] |347| 
         0000065d 0072 
    6254                      .dwpsn  file "../bts.c",line 349,column 5,is_stmt,isa 0
    6255 0000065e E203!         MOV32     @$BLOCKED(||BTS_measValues_ch7||)+74,R0H ; [CPU_FPU] |349| 
         0000065f 000A 
    6256 00000660 761F!         MOVW      DP,#||BTS_measValues_ch8||+74 ; [CPU_ARAU] 
         00000661 0001 
    6257                      .dwpsn  file "../bts.c",line 354,column 5,is_stmt,isa 0
    6258 00000662 E203!         MOV32     @$BLOCKED(||BTS_measValues_ch8||)+74,R4H ; [CPU_FPU] |354| 
         00000663 040A 
    6259                      .dwpsn  file "../bts.c",line 355,column 5,is_stmt,isa 0
    6260 00000664 E203!         MOV32     @$BLOCKED(||BTS_measValues_ch8||)+76,R3H ; [CPU_FPU] |355| 
         00000665 030C 
    6261                      .dwpsn  file "../bts.c",line 356,column 5,is_stmt,isa 0
    6262 00000666 E203!         MOV32     @$BLOCKED(||BTS_measValues_ch8||)+78,R2H ; [CPU_FPU] |356| 
         00000667 020E 
    6263                      .dwpsn  file "../bts.c",line 357,column 5,is_stmt,isa 0
TMS320C2000 Assembler PC v20.2.4 Tue Mar  2 07:24:45 2021

Copyright (c) 1996-2018 Texas Instruments Incorporated
bts.asm                                                              PAGE  137

    6264 00000668 E203!         MOV32     @$BLOCKED(||BTS_measValues_ch8||)+80,R1H ; [CPU_FPU] |357| 
         00000669 0110 
    6265 0000066a FEB2          SUBB      SP,#50                ; [CPU_ARAU] 
    6266                      .dwcfi  cfa_offset, -10
    6267 0000066b E2AF          MOV32     R7H,*--SP             ; [CPU_FPU] 
         0000066c 07BE 
    6268                      .dwcfi  cfa_offset, -8
    6269                      .dwcfi  restore_reg, 71
    6270 0000066d E2AF          MOV32     R6H,*--SP             ; [CPU_FPU] 
         0000066e 06BE 
    6271                      .dwcfi  cfa_offset, -6
    6272                      .dwcfi  restore_reg, 67
    6273 0000066f E2AF          MOV32     R5H,*--SP             ; [CPU_FPU] 
         00000670 05BE 
    6274                      .dwcfi  cfa_offset, -4
    6275                      .dwcfi  restore_reg, 63
    6276 00000671 E2AF          MOV32     R4H,*--SP             ; [CPU_FPU] 
         00000672 04BE 
    6277                      .dwcfi  cfa_offset, -2
    6278                      .dwcfi  restore_reg, 59
    6279              $C$DW$293       .dwtag  DW_TAG_TI_branch
    6280                      .dwattr $C$DW$293, DW_AT_low_pc(0x00)
    6281                      .dwattr $C$DW$293, DW_AT_TI_return
    6282              
    6283 00000673 0006          LRETR     ; [CPU_ALU] 
    6284                      ; return occurs ; [] 
    6285                      .dwattr $C$DW$292, DW_AT_TI_end_file("../bts.c")
    6286                      .dwattr $C$DW$292, DW_AT_TI_end_line(0x166)
    6287                      .dwattr $C$DW$292, DW_AT_TI_end_column(0x01)
    6288                      .dwendentry
    6289                      .dwendtag $C$DW$292
    6290              
    6291 00000674               .sect   ".text"
    6292                      .clink
    6293                      .global ||BTS_initController||
    6294              
    6295              $C$DW$294       .dwtag  DW_TAG_subprogram
    6296                      .dwattr $C$DW$294, DW_AT_name("BTS_initController")
    6297                      .dwattr $C$DW$294, DW_AT_low_pc(||BTS_initController||)
    6298                      .dwattr $C$DW$294, DW_AT_high_pc(0x00)
    6299                      .dwattr $C$DW$294, DW_AT_linkage_name("BTS_initController")
    6300                      .dwattr $C$DW$294, DW_AT_external
    6301                      .dwattr $C$DW$294, DW_AT_decl_file("../bts.c")
    6302                      .dwattr $C$DW$294, DW_AT_decl_line(0x168)
    6303                      .dwattr $C$DW$294, DW_AT_decl_column(0x06)
    6304                      .dwattr $C$DW$294, DW_AT_TI_max_frame_size(-4)
    6305                      .dwpsn  file "../bts.c",line 361,column 1,is_stmt,address ||BTS_initController||,isa 0
    6306              
    6307                      .dwfde $C$DW$CIE, ||BTS_initController||
    6308              
    6309              ;***************************************************************
    6310              ;* FNAME: BTS_initController            FR SIZE:   2           *
    6311              ;*                                                             *
    6312              ;* FUNCTION ENVIRONMENT                                        *
    6313              ;*                                                             *
TMS320C2000 Assembler PC v20.2.4 Tue Mar  2 07:24:45 2021

Copyright (c) 1996-2018 Texas Instruments Incorporated
bts.asm                                                              PAGE  138

    6314              ;* FUNCTION PROPERTIES                                         *
    6315              ;*                            0 Parameter,  0 Auto,  2 SOE     *
    6316              ;***************************************************************
    6317              
    6318 00000674       ||BTS_initController||:
    6319                      .dwcfi  cfa_offset, -2
    6320                      .dwcfi  save_reg_to_mem, 26, 0
    6321                      .dwpsn  file "../bts.c",line 365,column 5,is_stmt,isa 0
    6322 00000674 E801          MOVIZ     R2H,#15623            ; [CPU_FPU] |365| 
         00000675 E83A 
    6323                      .dwpsn  file "../bts.c",line 366,column 5,is_stmt,isa 0
    6324 00000676 E805          MOVIZ     R1H,#48511            ; [CPU_FPU] |366| 
         00000677 EBF9 
    6325 00000678 761F!         MOVW      DP,#||BTS_ctrl_cc_ch1|| ; [CPU_ARAU] 
         00000679 0000 
    6326                      .dwpsn  file "../bts.c",line 367,column 5,is_stmt,isa 0
    6327 0000067a E801          MOVIZ     R0H,#15600            ; [CPU_FPU] |367| 
         0000067b E780 
    6328 0000067c E203          MOV32     *SP++,R4H             ; [CPU_FPU] 
         0000067d 04BD 
    6329                      .dwcfi  save_reg_to_mem, 59, 2
    6330                      .dwcfi  cfa_offset, -4
    6331                      .dwpsn  file "../bts.c",line 365,column 5,is_stmt,isa 0
    6332 0000067e E80C          MOVXI     R2H,#38256            ; [CPU_FPU] |365| 
         0000067f AB82 
    6333                      .dwpsn  file "../bts.c",line 366,column 5,is_stmt,isa 0
    6334 00000680 E80B          MOVXI     R1H,#32169            ; [CPU_FPU] |366| 
         00000681 ED49 
    6335                      .dwpsn  file "../bts.c",line 365,column 5,is_stmt,isa 0
    6336 00000682 E203!         MOV32     @$BLOCKED(||BTS_ctrl_cc_ch1||),R2H ; [CPU_FPU] |365| 
         00000683 0200 
    6337                      .dwpsn  file "../bts.c",line 367,column 5,is_stmt,isa 0
    6338 00000684 E80A          MOVXI     R0H,#21649            ; [CPU_FPU] |367| 
         00000685 A488 
    6339                      .dwpsn  file "../bts.c",line 368,column 5,is_stmt,isa 0
    6340 00000686 E805          MOVIZ     R2H,#49146            ; [CPU_FPU] |368| 
         00000687 FFD2 
    6341                      .dwpsn  file "../bts.c",line 366,column 5,is_stmt,isa 0
    6342 00000688 E203!         MOV32     @$BLOCKED(||BTS_ctrl_cc_ch1||)+2,R1H ; [CPU_FPU] |366| 
         00000689 0102 
    6343                      .dwpsn  file "../bts.c",line 369,column 5,is_stmt,isa 0
    6344 0000068a E801          MOVIZ     R1H,#16245            ; [CPU_FPU] |369| 
         0000068b FBA9 
    6345                      .dwpsn  file "../bts.c",line 368,column 5,is_stmt,isa 0
    6346 0000068c E80F          MOVXI     R2H,#62539            ; [CPU_FPU] |368| 
         0000068d A25A 
    6347                      .dwpsn  file "../bts.c",line 480,column 5,is_stmt,isa 0
    6348 0000068e E802          MOVIZ     R4H,#16640            ; [CPU_FPU] |480| 
         0000068f 0804 
    6349                      .dwpsn  file "../bts.c",line 481,column 5,is_stmt,isa 0
    6350 00000690 E806          MOVIZ     R3H,#49491            ; [CPU_FPU] |481| 
         00000691 0A9B 
    6351                      .dwpsn  file "../bts.c",line 367,column 5,is_stmt,isa 0
    6352 00000692 E203!         MOV32     @$BLOCKED(||BTS_ctrl_cc_ch1||)+4,R0H ; [CPU_FPU] |367| 
         00000693 0004 
TMS320C2000 Assembler PC v20.2.4 Tue Mar  2 07:24:45 2021

Copyright (c) 1996-2018 Texas Instruments Incorporated
bts.asm                                                              PAGE  139

    6353                      .dwpsn  file "../bts.c",line 369,column 5,is_stmt,isa 0
    6354 00000694 E80F          MOVXI     R1H,#59542            ; [CPU_FPU] |369| 
         00000695 44B1 
    6355                      .dwpsn  file "../bts.c",line 371,column 5,is_stmt,isa 0
    6356 00000696 E802          MOVIZ     R0H,#16640            ; [CPU_FPU] |371| 
         00000697 0800 
    6357                      .dwpsn  file "../bts.c",line 368,column 5,is_stmt,isa 0
    6358 00000698 E203!         MOV32     @$BLOCKED(||BTS_ctrl_cc_ch1||)+6,R2H ; [CPU_FPU] |368| 
         00000699 0206 
    6359                      .dwpsn  file "../bts.c",line 372,column 5,is_stmt,isa 0
    6360 0000069a E806          MOVIZ     R2H,#49491            ; [CPU_FPU] |372| 
         0000069b 0A9A 
    6361                      .dwpsn  file "../bts.c",line 371,column 5,is_stmt,isa 0
    6362 0000069c E80C          MOVXI     R0H,#39581            ; [CPU_FPU] |371| 
         0000069d D4E8 
    6363                      .dwpsn  file "../bts.c",line 369,column 5,is_stmt,isa 0
    6364 0000069e E203!         MOV32     @$BLOCKED(||BTS_ctrl_cc_ch1||)+8,R1H ; [CPU_FPU] |369| 
         0000069f 0108 
    6365                      .dwpsn  file "../bts.c",line 372,column 5,is_stmt,isa 0
    6366 000006a0 E80C          MOVXI     R2H,#38693            ; [CPU_FPU] |372| 
         000006a1 B92A 
    6367                      .dwpsn  file "../bts.c",line 373,column 5,is_stmt,isa 0
    6368 000006a2 E802          MOVIZ     R1H,#16551            ; [CPU_FPU] |373| 
         000006a3 0539 
    6369 000006a4 761F!         MOVW      DP,#||BTS_ctrl_cv_ch1|| ; [CPU_ARAU] 
         000006a5 0000 
    6370 000006a6 E80D          MOVXI     R1H,#45032            ; [CPU_FPU] |373| 
         000006a7 7F41 
    6371                      .dwpsn  file "../bts.c",line 371,column 5,is_stmt,isa 0
    6372 000006a8 E203!         MOV32     @$BLOCKED(||BTS_ctrl_cv_ch1||),R0H ; [CPU_FPU] |371| 
         000006a9 0000 
    6373                      .dwpsn  file "../bts.c",line 374,column 5,is_stmt,isa 0
    6374 000006aa E805          MOVIZ     R0H,#49109            ; [CPU_FPU] |374| 
         000006ab FEA8 
    6375                      .dwpsn  file "../bts.c",line 372,column 5,is_stmt,isa 0
    6376 000006ac E203!         MOV32     @$BLOCKED(||BTS_ctrl_cv_ch1||)+2,R2H ; [CPU_FPU] |372| 
         000006ad 0202 
    6377                      .dwpsn  file "../bts.c",line 374,column 5,is_stmt,isa 0
    6378 000006ae E809          MOVXI     R0H,#9484             ; [CPU_FPU] |374| 
         000006af 2860 
    6379                      .dwpsn  file "../bts.c",line 375,column 5,is_stmt,isa 0
    6380 000006b0 E801          MOVIZ     R2H,#16170            ; [CPU_FPU] |375| 
         000006b1 F952 
    6381 000006b2 E80A          MOVXI     R2H,#18968            ; [CPU_FPU] |375| 
         000006b3 50C2 
    6382                      .dwpsn  file "../bts.c",line 373,column 5,is_stmt,isa 0
    6383 000006b4 E203!         MOV32     @$BLOCKED(||BTS_ctrl_cv_ch1||)+4,R1H ; [CPU_FPU] |373| 
         000006b5 0104 
    6384                      .dwpsn  file "../bts.c",line 380,column 5,is_stmt,isa 0
    6385 000006b6 E801          MOVIZ     R1H,#15623            ; [CPU_FPU] |380| 
         000006b7 E839 
    6386 000006b8 E80C          MOVXI     R1H,#38256            ; [CPU_FPU] |380| 
         000006b9 AB81 
    6387                      .dwpsn  file "../bts.c",line 374,column 5,is_stmt,isa 0
    6388 000006ba E203!         MOV32     @$BLOCKED(||BTS_ctrl_cv_ch1||)+6,R0H ; [CPU_FPU] |374| 
TMS320C2000 Assembler PC v20.2.4 Tue Mar  2 07:24:45 2021

Copyright (c) 1996-2018 Texas Instruments Incorporated
bts.asm                                                              PAGE  140

         000006bb 0006 
    6389                      .dwpsn  file "../bts.c",line 381,column 5,is_stmt,isa 0
    6390 000006bc E805          MOVIZ     R0H,#48511            ; [CPU_FPU] |381| 
         000006bd EBF8 
    6391 000006be E80B          MOVXI     R0H,#32169            ; [CPU_FPU] |381| 
         000006bf ED48 
    6392                      .dwpsn  file "../bts.c",line 375,column 5,is_stmt,isa 0
    6393 000006c0 E203!         MOV32     @$BLOCKED(||BTS_ctrl_cv_ch1||)+8,R2H ; [CPU_FPU] |375| 
         000006c1 0208 
    6394                      .dwpsn  file "../bts.c",line 382,column 5,is_stmt,isa 0
    6395 000006c2 E801          MOVIZ     R2H,#15600            ; [CPU_FPU] |382| 
         000006c3 E782 
    6396 000006c4 761F!         MOVW      DP,#||BTS_ctrl_cc_ch2|| ; [CPU_ARAU] 
         000006c5 0000 
    6397 000006c6 E80A          MOVXI     R2H,#21649            ; [CPU_FPU] |382| 
         000006c7 A48A 
    6398                      .dwpsn  file "../bts.c",line 380,column 5,is_stmt,isa 0
    6399 000006c8 E203!         MOV32     @$BLOCKED(||BTS_ctrl_cc_ch2||),R1H ; [CPU_FPU] |380| 
         000006c9 0100 
    6400                      .dwpsn  file "../bts.c",line 383,column 5,is_stmt,isa 0
    6401 000006ca E805          MOVIZ     R1H,#49146            ; [CPU_FPU] |383| 
         000006cb FFD1 
    6402                      .dwpsn  file "../bts.c",line 480,column 5,is_stmt,isa 0
    6403 000006cc E80C          MOVXI     R4H,#39581            ; [CPU_FPU] |480| 
         000006cd D4EC 
    6404                      .dwpsn  file "../bts.c",line 481,column 5,is_stmt,isa 0
    6405 000006ce E80C          MOVXI     R3H,#38693            ; [CPU_FPU] |481| 
         000006cf B92B 
    6406                      .dwpsn  file "../bts.c",line 383,column 5,is_stmt,isa 0
    6407 000006d0 E80F          MOVXI     R1H,#62539            ; [CPU_FPU] |383| 
         000006d1 A259 
    6408                      .dwpsn  file "../bts.c",line 381,column 5,is_stmt,isa 0
    6409 000006d2 E203!         MOV32     @$BLOCKED(||BTS_ctrl_cc_ch2||)+2,R0H ; [CPU_FPU] |381| 
         000006d3 0002 
    6410                      .dwpsn  file "../bts.c",line 384,column 5,is_stmt,isa 0
    6411 000006d4 E801          MOVIZ     R0H,#16245            ; [CPU_FPU] |384| 
         000006d5 FBA8 
    6412 000006d6 E80F          MOVXI     R0H,#59542            ; [CPU_FPU] |384| 
         000006d7 44B0 
    6413                      .dwpsn  file "../bts.c",line 382,column 5,is_stmt,isa 0
    6414 000006d8 E203!         MOV32     @$BLOCKED(||BTS_ctrl_cc_ch2||)+4,R2H ; [CPU_FPU] |382| 
         000006d9 0204 
    6415                      .dwpsn  file "../bts.c",line 386,column 5,is_stmt,isa 0
    6416 000006da E802          MOVIZ     R2H,#16640            ; [CPU_FPU] |386| 
         000006db 0802 
    6417 000006dc E80C          MOVXI     R2H,#39581            ; [CPU_FPU] |386| 
         000006dd D4EA 
    6418                      .dwpsn  file "../bts.c",line 383,column 5,is_stmt,isa 0
    6419 000006de E203!         MOV32     @$BLOCKED(||BTS_ctrl_cc_ch2||)+6,R1H ; [CPU_FPU] |383| 
         000006df 0106 
    6420                      .dwpsn  file "../bts.c",line 387,column 5,is_stmt,isa 0
    6421 000006e0 E806          MOVIZ     R1H,#49491            ; [CPU_FPU] |387| 
         000006e1 0A99 
    6422 000006e2 E80C          MOVXI     R1H,#38693            ; [CPU_FPU] |387| 
         000006e3 B929 
TMS320C2000 Assembler PC v20.2.4 Tue Mar  2 07:24:45 2021

Copyright (c) 1996-2018 Texas Instruments Incorporated
bts.asm                                                              PAGE  141

    6423                      .dwpsn  file "../bts.c",line 384,column 5,is_stmt,isa 0
    6424 000006e4 E203!         MOV32     @$BLOCKED(||BTS_ctrl_cc_ch2||)+8,R0H ; [CPU_FPU] |384| 
         000006e5 0008 
    6425                      .dwpsn  file "../bts.c",line 388,column 5,is_stmt,isa 0
    6426 000006e6 E802          MOVIZ     R0H,#16551            ; [CPU_FPU] |388| 
         000006e7 0538 
    6427 000006e8 761F!         MOVW      DP,#||BTS_ctrl_cv_ch2|| ; [CPU_ARAU] 
         000006e9 0000 
    6428 000006ea E80D          MOVXI     R0H,#45032            ; [CPU_FPU] |388| 
         000006eb 7F40 
    6429                      .dwpsn  file "../bts.c",line 386,column 5,is_stmt,isa 0
    6430 000006ec E203!         MOV32     @$BLOCKED(||BTS_ctrl_cv_ch2||),R2H ; [CPU_FPU] |386| 
         000006ed 0200 
    6431                      .dwpsn  file "../bts.c",line 389,column 5,is_stmt,isa 0
    6432 000006ee E805          MOVIZ     R2H,#49109            ; [CPU_FPU] |389| 
         000006ef FEAA 
    6433 000006f0 E809          MOVXI     R2H,#9484             ; [CPU_FPU] |389| 
         000006f1 2862 
    6434                      .dwpsn  file "../bts.c",line 387,column 5,is_stmt,isa 0
    6435 000006f2 E203!         MOV32     @$BLOCKED(||BTS_ctrl_cv_ch2||)+2,R1H ; [CPU_FPU] |387| 
         000006f3 0102 
    6436                      .dwpsn  file "../bts.c",line 390,column 5,is_stmt,isa 0
    6437 000006f4 E801          MOVIZ     R1H,#16170            ; [CPU_FPU] |390| 
         000006f5 F951 
    6438 000006f6 E80A          MOVXI     R1H,#18968            ; [CPU_FPU] |390| 
         000006f7 50C1 
    6439                      .dwpsn  file "../bts.c",line 388,column 5,is_stmt,isa 0
    6440 000006f8 E203!         MOV32     @$BLOCKED(||BTS_ctrl_cv_ch2||)+4,R0H ; [CPU_FPU] |388| 
         000006f9 0004 
    6441                      .dwpsn  file "../bts.c",line 396,column 5,is_stmt,isa 0
    6442 000006fa E801          MOVIZ     R0H,#15623            ; [CPU_FPU] |396| 
         000006fb E838 
    6443 000006fc E80C          MOVXI     R0H,#38256            ; [CPU_FPU] |396| 
         000006fd AB80 
    6444                      .dwpsn  file "../bts.c",line 389,column 5,is_stmt,isa 0
    6445 000006fe E203!         MOV32     @$BLOCKED(||BTS_ctrl_cv_ch2||)+6,R2H ; [CPU_FPU] |389| 
         000006ff 0206 
    6446                      .dwpsn  file "../bts.c",line 397,column 5,is_stmt,isa 0
    6447 00000700 E805          MOVIZ     R2H,#48511            ; [CPU_FPU] |397| 
         00000701 EBFA 
    6448 00000702 E80B          MOVXI     R2H,#32169            ; [CPU_FPU] |397| 
         00000703 ED4A 
    6449                      .dwpsn  file "../bts.c",line 390,column 5,is_stmt,isa 0
    6450 00000704 E203!         MOV32     @$BLOCKED(||BTS_ctrl_cv_ch2||)+8,R1H ; [CPU_FPU] |390| 
         00000705 0108 
    6451                      .dwpsn  file "../bts.c",line 398,column 5,is_stmt,isa 0
    6452 00000706 E801          MOVIZ     R1H,#15600            ; [CPU_FPU] |398| 
         00000707 E781 
    6453 00000708 761F!         MOVW      DP,#||BTS_ctrl_cc_ch3|| ; [CPU_ARAU] 
         00000709 0000 
    6454 0000070a E80A          MOVXI     R1H,#21649            ; [CPU_FPU] |398| 
         0000070b A489 
    6455                      .dwpsn  file "../bts.c",line 396,column 5,is_stmt,isa 0
    6456 0000070c E203!         MOV32     @$BLOCKED(||BTS_ctrl_cc_ch3||),R0H ; [CPU_FPU] |396| 
         0000070d 0000 
TMS320C2000 Assembler PC v20.2.4 Tue Mar  2 07:24:45 2021

Copyright (c) 1996-2018 Texas Instruments Incorporated
bts.asm                                                              PAGE  142

    6457                      .dwpsn  file "../bts.c",line 399,column 5,is_stmt,isa 0
    6458 0000070e E805          MOVIZ     R0H,#49146            ; [CPU_FPU] |399| 
         0000070f FFD0 
    6459 00000710 E80F          MOVXI     R0H,#62539            ; [CPU_FPU] |399| 
         00000711 A258 
    6460                      .dwpsn  file "../bts.c",line 397,column 5,is_stmt,isa 0
    6461 00000712 E203!         MOV32     @$BLOCKED(||BTS_ctrl_cc_ch3||)+2,R2H ; [CPU_FPU] |397| 
         00000713 0202 
    6462                      .dwpsn  file "../bts.c",line 400,column 5,is_stmt,isa 0
    6463 00000714 E801          MOVIZ     R2H,#16245            ; [CPU_FPU] |400| 
         00000715 FBAA 
    6464 00000716 E80F          MOVXI     R2H,#59542            ; [CPU_FPU] |400| 
         00000717 44B2 
    6465                      .dwpsn  file "../bts.c",line 398,column 5,is_stmt,isa 0
    6466 00000718 E203!         MOV32     @$BLOCKED(||BTS_ctrl_cc_ch3||)+4,R1H ; [CPU_FPU] |398| 
         00000719 0104 
    6467                      .dwpsn  file "../bts.c",line 402,column 5,is_stmt,isa 0
    6468 0000071a E802          MOVIZ     R1H,#16640            ; [CPU_FPU] |402| 
         0000071b 0801 
    6469 0000071c E80C          MOVXI     R1H,#39581            ; [CPU_FPU] |402| 
         0000071d D4E9 
    6470                      .dwpsn  file "../bts.c",line 399,column 5,is_stmt,isa 0
    6471 0000071e E203!         MOV32     @$BLOCKED(||BTS_ctrl_cc_ch3||)+6,R0H ; [CPU_FPU] |399| 
         0000071f 0006 
    6472                      .dwpsn  file "../bts.c",line 403,column 5,is_stmt,isa 0
    6473 00000720 E806          MOVIZ     R0H,#49491            ; [CPU_FPU] |403| 
         00000721 0A98 
    6474 00000722 E80C          MOVXI     R0H,#38693            ; [CPU_FPU] |403| 
         00000723 B928 
    6475                      .dwpsn  file "../bts.c",line 400,column 5,is_stmt,isa 0
    6476 00000724 E203!         MOV32     @$BLOCKED(||BTS_ctrl_cc_ch3||)+8,R2H ; [CPU_FPU] |400| 
         00000725 0208 
    6477                      .dwpsn  file "../bts.c",line 404,column 5,is_stmt,isa 0
    6478 00000726 E802          MOVIZ     R2H,#16551            ; [CPU_FPU] |404| 
         00000727 053A 
    6479 00000728 761F!         MOVW      DP,#||BTS_ctrl_cv_ch3|| ; [CPU_ARAU] 
         00000729 0000 
    6480 0000072a E80D          MOVXI     R2H,#45032            ; [CPU_FPU] |404| 
         0000072b 7F42 
    6481                      .dwpsn  file "../bts.c",line 402,column 5,is_stmt,isa 0
    6482 0000072c E203!         MOV32     @$BLOCKED(||BTS_ctrl_cv_ch3||),R1H ; [CPU_FPU] |402| 
         0000072d 0100 
    6483                      .dwpsn  file "../bts.c",line 405,column 5,is_stmt,isa 0
    6484 0000072e E805          MOVIZ     R1H,#49109            ; [CPU_FPU] |405| 
         0000072f FEA9 
    6485 00000730 E809          MOVXI     R1H,#9484             ; [CPU_FPU] |405| 
         00000731 2861 
    6486                      .dwpsn  file "../bts.c",line 403,column 5,is_stmt,isa 0
    6487 00000732 E203!         MOV32     @$BLOCKED(||BTS_ctrl_cv_ch3||)+2,R0H ; [CPU_FPU] |403| 
         00000733 0002 
    6488                      .dwpsn  file "../bts.c",line 406,column 5,is_stmt,isa 0
    6489 00000734 E801          MOVIZ     R0H,#16170            ; [CPU_FPU] |406| 
         00000735 F950 
    6490 00000736 E80A          MOVXI     R0H,#18968            ; [CPU_FPU] |406| 
         00000737 50C0 
TMS320C2000 Assembler PC v20.2.4 Tue Mar  2 07:24:45 2021

Copyright (c) 1996-2018 Texas Instruments Incorporated
bts.asm                                                              PAGE  143

    6491                      .dwpsn  file "../bts.c",line 404,column 5,is_stmt,isa 0
    6492 00000738 E203!         MOV32     @$BLOCKED(||BTS_ctrl_cv_ch3||)+4,R2H ; [CPU_FPU] |404| 
         00000739 0204 
    6493                      .dwpsn  file "../bts.c",line 412,column 5,is_stmt,isa 0
    6494 0000073a E801          MOVIZ     R2H,#15623            ; [CPU_FPU] |412| 
         0000073b E83A 
    6495 0000073c E80C          MOVXI     R2H,#38256            ; [CPU_FPU] |412| 
         0000073d AB82 
    6496                      .dwpsn  file "../bts.c",line 405,column 5,is_stmt,isa 0
    6497 0000073e E203!         MOV32     @$BLOCKED(||BTS_ctrl_cv_ch3||)+6,R1H ; [CPU_FPU] |405| 
         0000073f 0106 
    6498                      .dwpsn  file "../bts.c",line 413,column 5,is_stmt,isa 0
    6499 00000740 E805          MOVIZ     R1H,#48511            ; [CPU_FPU] |413| 
         00000741 EBF9 
    6500 00000742 E80B          MOVXI     R1H,#32169            ; [CPU_FPU] |413| 
         00000743 ED49 
    6501                      .dwpsn  file "../bts.c",line 406,column 5,is_stmt,isa 0
    6502 00000744 E203!         MOV32     @$BLOCKED(||BTS_ctrl_cv_ch3||)+8,R0H ; [CPU_FPU] |406| 
         00000745 0008 
    6503                      .dwpsn  file "../bts.c",line 414,column 5,is_stmt,isa 0
    6504 00000746 E801          MOVIZ     R0H,#15600            ; [CPU_FPU] |414| 
         00000747 E780 
    6505 00000748 761F!         MOVW      DP,#||BTS_ctrl_cc_ch4|| ; [CPU_ARAU] 
         00000749 0000 
    6506 0000074a E80A          MOVXI     R0H,#21649            ; [CPU_FPU] |414| 
         0000074b A488 
    6507                      .dwpsn  file "../bts.c",line 412,column 5,is_stmt,isa 0
    6508 0000074c E203!         MOV32     @$BLOCKED(||BTS_ctrl_cc_ch4||),R2H ; [CPU_FPU] |412| 
         0000074d 0200 
    6509                      .dwpsn  file "../bts.c",line 415,column 5,is_stmt,isa 0
    6510 0000074e E805          MOVIZ     R2H,#49146            ; [CPU_FPU] |415| 
         0000074f FFD2 
    6511 00000750 E80F          MOVXI     R2H,#62539            ; [CPU_FPU] |415| 
         00000751 A25A 
    6512                      .dwpsn  file "../bts.c",line 413,column 5,is_stmt,isa 0
    6513 00000752 E203!         MOV32     @$BLOCKED(||BTS_ctrl_cc_ch4||)+2,R1H ; [CPU_FPU] |413| 
         00000753 0102 
    6514                      .dwpsn  file "../bts.c",line 416,column 5,is_stmt,isa 0
    6515 00000754 E801          MOVIZ     R1H,#16245            ; [CPU_FPU] |416| 
         00000755 FBA9 
    6516 00000756 E80F          MOVXI     R1H,#59542            ; [CPU_FPU] |416| 
         00000757 44B1 
    6517                      .dwpsn  file "../bts.c",line 414,column 5,is_stmt,isa 0
    6518 00000758 E203!         MOV32     @$BLOCKED(||BTS_ctrl_cc_ch4||)+4,R0H ; [CPU_FPU] |414| 
         00000759 0004 
    6519                      .dwpsn  file "../bts.c",line 418,column 5,is_stmt,isa 0
    6520 0000075a E802          MOVIZ     R0H,#16640            ; [CPU_FPU] |418| 
         0000075b 0800 
    6521 0000075c E80C          MOVXI     R0H,#39581            ; [CPU_FPU] |418| 
         0000075d D4E8 
    6522                      .dwpsn  file "../bts.c",line 415,column 5,is_stmt,isa 0
    6523 0000075e E203!         MOV32     @$BLOCKED(||BTS_ctrl_cc_ch4||)+6,R2H ; [CPU_FPU] |415| 
         0000075f 0206 
    6524                      .dwpsn  file "../bts.c",line 419,column 5,is_stmt,isa 0
    6525 00000760 E806          MOVIZ     R2H,#49491            ; [CPU_FPU] |419| 
TMS320C2000 Assembler PC v20.2.4 Tue Mar  2 07:24:45 2021

Copyright (c) 1996-2018 Texas Instruments Incorporated
bts.asm                                                              PAGE  144

         00000761 0A9A 
    6526 00000762 E80C          MOVXI     R2H,#38693            ; [CPU_FPU] |419| 
         00000763 B92A 
    6527                      .dwpsn  file "../bts.c",line 416,column 5,is_stmt,isa 0
    6528 00000764 E203!         MOV32     @$BLOCKED(||BTS_ctrl_cc_ch4||)+8,R1H ; [CPU_FPU] |416| 
         00000765 0108 
    6529                      .dwpsn  file "../bts.c",line 420,column 5,is_stmt,isa 0
    6530 00000766 E802          MOVIZ     R1H,#16551            ; [CPU_FPU] |420| 
         00000767 0539 
    6531 00000768 761F!         MOVW      DP,#||BTS_ctrl_cv_ch4|| ; [CPU_ARAU] 
         00000769 0000 
    6532 0000076a E80D          MOVXI     R1H,#45032            ; [CPU_FPU] |420| 
         0000076b 7F41 
    6533                      .dwpsn  file "../bts.c",line 418,column 5,is_stmt,isa 0
    6534 0000076c E203!         MOV32     @$BLOCKED(||BTS_ctrl_cv_ch4||),R0H ; [CPU_FPU] |418| 
         0000076d 0000 
    6535                      .dwpsn  file "../bts.c",line 421,column 5,is_stmt,isa 0
    6536 0000076e E805          MOVIZ     R0H,#49109            ; [CPU_FPU] |421| 
         0000076f FEA8 
    6537 00000770 E809          MOVXI     R0H,#9484             ; [CPU_FPU] |421| 
         00000771 2860 
    6538                      .dwpsn  file "../bts.c",line 419,column 5,is_stmt,isa 0
    6539 00000772 E203!         MOV32     @$BLOCKED(||BTS_ctrl_cv_ch4||)+2,R2H ; [CPU_FPU] |419| 
         00000773 0202 
    6540                      .dwpsn  file "../bts.c",line 422,column 5,is_stmt,isa 0
    6541 00000774 E801          MOVIZ     R2H,#16170            ; [CPU_FPU] |422| 
         00000775 F952 
    6542 00000776 E80A          MOVXI     R2H,#18968            ; [CPU_FPU] |422| 
         00000777 50C2 
    6543                      .dwpsn  file "../bts.c",line 420,column 5,is_stmt,isa 0
    6544 00000778 E203!         MOV32     @$BLOCKED(||BTS_ctrl_cv_ch4||)+4,R1H ; [CPU_FPU] |420| 
         00000779 0104 
    6545                      .dwpsn  file "../bts.c",line 427,column 5,is_stmt,isa 0
    6546 0000077a E801          MOVIZ     R1H,#15623            ; [CPU_FPU] |427| 
         0000077b E839 
    6547 0000077c E80C          MOVXI     R1H,#38256            ; [CPU_FPU] |427| 
         0000077d AB81 
    6548                      .dwpsn  file "../bts.c",line 421,column 5,is_stmt,isa 0
    6549 0000077e E203!         MOV32     @$BLOCKED(||BTS_ctrl_cv_ch4||)+6,R0H ; [CPU_FPU] |421| 
         0000077f 0006 
    6550                      .dwpsn  file "../bts.c",line 428,column 5,is_stmt,isa 0
    6551 00000780 E805          MOVIZ     R0H,#48511            ; [CPU_FPU] |428| 
         00000781 EBF8 
    6552 00000782 E80B          MOVXI     R0H,#32169            ; [CPU_FPU] |428| 
         00000783 ED48 
    6553                      .dwpsn  file "../bts.c",line 422,column 5,is_stmt,isa 0
    6554 00000784 E203!         MOV32     @$BLOCKED(||BTS_ctrl_cv_ch4||)+8,R2H ; [CPU_FPU] |422| 
         00000785 0208 
    6555                      .dwpsn  file "../bts.c",line 429,column 5,is_stmt,isa 0
    6556 00000786 E801          MOVIZ     R2H,#15600            ; [CPU_FPU] |429| 
         00000787 E782 
    6557 00000788 761F!         MOVW      DP,#||BTS_ctrl_cc_ch5|| ; [CPU_ARAU] 
         00000789 0000 
    6558 0000078a E80A          MOVXI     R2H,#21649            ; [CPU_FPU] |429| 
         0000078b A48A 
TMS320C2000 Assembler PC v20.2.4 Tue Mar  2 07:24:45 2021

Copyright (c) 1996-2018 Texas Instruments Incorporated
bts.asm                                                              PAGE  145

    6559                      .dwpsn  file "../bts.c",line 427,column 5,is_stmt,isa 0
    6560 0000078c E203!         MOV32     @$BLOCKED(||BTS_ctrl_cc_ch5||),R1H ; [CPU_FPU] |427| 
         0000078d 0100 
    6561                      .dwpsn  file "../bts.c",line 430,column 5,is_stmt,isa 0
    6562 0000078e E805          MOVIZ     R1H,#49146            ; [CPU_FPU] |430| 
         0000078f FFD1 
    6563 00000790 E80F          MOVXI     R1H,#62539            ; [CPU_FPU] |430| 
         00000791 A259 
    6564                      .dwpsn  file "../bts.c",line 428,column 5,is_stmt,isa 0
    6565 00000792 E203!         MOV32     @$BLOCKED(||BTS_ctrl_cc_ch5||)+2,R0H ; [CPU_FPU] |428| 
         00000793 0002 
    6566                      .dwpsn  file "../bts.c",line 431,column 5,is_stmt,isa 0
    6567 00000794 E801          MOVIZ     R0H,#16245            ; [CPU_FPU] |431| 
         00000795 FBA8 
    6568 00000796 E80F          MOVXI     R0H,#59542            ; [CPU_FPU] |431| 
         00000797 44B0 
    6569                      .dwpsn  file "../bts.c",line 429,column 5,is_stmt,isa 0
    6570 00000798 E203!         MOV32     @$BLOCKED(||BTS_ctrl_cc_ch5||)+4,R2H ; [CPU_FPU] |429| 
         00000799 0204 
    6571                      .dwpsn  file "../bts.c",line 433,column 5,is_stmt,isa 0
    6572 0000079a E802          MOVIZ     R2H,#16640            ; [CPU_FPU] |433| 
         0000079b 0802 
    6573 0000079c E80C          MOVXI     R2H,#39581            ; [CPU_FPU] |433| 
         0000079d D4EA 
    6574                      .dwpsn  file "../bts.c",line 430,column 5,is_stmt,isa 0
    6575 0000079e E203!         MOV32     @$BLOCKED(||BTS_ctrl_cc_ch5||)+6,R1H ; [CPU_FPU] |430| 
         0000079f 0106 
    6576                      .dwpsn  file "../bts.c",line 434,column 5,is_stmt,isa 0
    6577 000007a0 E806          MOVIZ     R1H,#49491            ; [CPU_FPU] |434| 
         000007a1 0A99 
    6578 000007a2 E80C          MOVXI     R1H,#38693            ; [CPU_FPU] |434| 
         000007a3 B929 
    6579                      .dwpsn  file "../bts.c",line 431,column 5,is_stmt,isa 0
    6580 000007a4 E203!         MOV32     @$BLOCKED(||BTS_ctrl_cc_ch5||)+8,R0H ; [CPU_FPU] |431| 
         000007a5 0008 
    6581                      .dwpsn  file "../bts.c",line 435,column 5,is_stmt,isa 0
    6582 000007a6 E802          MOVIZ     R0H,#16551            ; [CPU_FPU] |435| 
         000007a7 0538 
    6583 000007a8 761F!         MOVW      DP,#||BTS_ctrl_cv_ch5|| ; [CPU_ARAU] 
         000007a9 0000 
    6584 000007aa E80D          MOVXI     R0H,#45032            ; [CPU_FPU] |435| 
         000007ab 7F40 
    6585                      .dwpsn  file "../bts.c",line 433,column 5,is_stmt,isa 0
    6586 000007ac E203!         MOV32     @$BLOCKED(||BTS_ctrl_cv_ch5||),R2H ; [CPU_FPU] |433| 
         000007ad 0200 
    6587                      .dwpsn  file "../bts.c",line 436,column 5,is_stmt,isa 0
    6588 000007ae E805          MOVIZ     R2H,#49109            ; [CPU_FPU] |436| 
         000007af FEAA 
    6589 000007b0 E809          MOVXI     R2H,#9484             ; [CPU_FPU] |436| 
         000007b1 2862 
    6590                      .dwpsn  file "../bts.c",line 434,column 5,is_stmt,isa 0
    6591 000007b2 E203!         MOV32     @$BLOCKED(||BTS_ctrl_cv_ch5||)+2,R1H ; [CPU_FPU] |434| 
         000007b3 0102 
    6592                      .dwpsn  file "../bts.c",line 437,column 5,is_stmt,isa 0
    6593 000007b4 E801          MOVIZ     R1H,#16170            ; [CPU_FPU] |437| 
TMS320C2000 Assembler PC v20.2.4 Tue Mar  2 07:24:45 2021

Copyright (c) 1996-2018 Texas Instruments Incorporated
bts.asm                                                              PAGE  146

         000007b5 F951 
    6594 000007b6 E80A          MOVXI     R1H,#18968            ; [CPU_FPU] |437| 
         000007b7 50C1 
    6595                      .dwpsn  file "../bts.c",line 435,column 5,is_stmt,isa 0
    6596 000007b8 E203!         MOV32     @$BLOCKED(||BTS_ctrl_cv_ch5||)+4,R0H ; [CPU_FPU] |435| 
         000007b9 0004 
    6597                      .dwpsn  file "../bts.c",line 442,column 5,is_stmt,isa 0
    6598 000007ba E801          MOVIZ     R0H,#15623            ; [CPU_FPU] |442| 
         000007bb E838 
    6599 000007bc E80C          MOVXI     R0H,#38256            ; [CPU_FPU] |442| 
         000007bd AB80 
    6600                      .dwpsn  file "../bts.c",line 436,column 5,is_stmt,isa 0
    6601 000007be E203!         MOV32     @$BLOCKED(||BTS_ctrl_cv_ch5||)+6,R2H ; [CPU_FPU] |436| 
         000007bf 0206 
    6602                      .dwpsn  file "../bts.c",line 443,column 5,is_stmt,isa 0
    6603 000007c0 E805          MOVIZ     R2H,#48511            ; [CPU_FPU] |443| 
         000007c1 EBFA 
    6604 000007c2 E80B          MOVXI     R2H,#32169            ; [CPU_FPU] |443| 
         000007c3 ED4A 
    6605                      .dwpsn  file "../bts.c",line 437,column 5,is_stmt,isa 0
    6606 000007c4 E203!         MOV32     @$BLOCKED(||BTS_ctrl_cv_ch5||)+8,R1H ; [CPU_FPU] |437| 
         000007c5 0108 
    6607                      .dwpsn  file "../bts.c",line 444,column 5,is_stmt,isa 0
    6608 000007c6 E801          MOVIZ     R1H,#15600            ; [CPU_FPU] |444| 
         000007c7 E781 
    6609 000007c8 761F!         MOVW      DP,#||BTS_ctrl_cc_ch6|| ; [CPU_ARAU] 
         000007c9 0000 
    6610 000007ca E80A          MOVXI     R1H,#21649            ; [CPU_FPU] |444| 
         000007cb A489 
    6611                      .dwpsn  file "../bts.c",line 442,column 5,is_stmt,isa 0
    6612 000007cc E203!         MOV32     @$BLOCKED(||BTS_ctrl_cc_ch6||),R0H ; [CPU_FPU] |442| 
         000007cd 0000 
    6613                      .dwpsn  file "../bts.c",line 445,column 5,is_stmt,isa 0
    6614 000007ce E805          MOVIZ     R0H,#49146            ; [CPU_FPU] |445| 
         000007cf FFD0 
    6615 000007d0 E80F          MOVXI     R0H,#62539            ; [CPU_FPU] |445| 
         000007d1 A258 
    6616                      .dwpsn  file "../bts.c",line 443,column 5,is_stmt,isa 0
    6617 000007d2 E203!         MOV32     @$BLOCKED(||BTS_ctrl_cc_ch6||)+2,R2H ; [CPU_FPU] |443| 
         000007d3 0202 
    6618                      .dwpsn  file "../bts.c",line 446,column 5,is_stmt,isa 0
    6619 000007d4 E801          MOVIZ     R2H,#16245            ; [CPU_FPU] |446| 
         000007d5 FBAA 
    6620 000007d6 E80F          MOVXI     R2H,#59542            ; [CPU_FPU] |446| 
         000007d7 44B2 
    6621                      .dwpsn  file "../bts.c",line 444,column 5,is_stmt,isa 0
    6622 000007d8 E203!         MOV32     @$BLOCKED(||BTS_ctrl_cc_ch6||)+4,R1H ; [CPU_FPU] |444| 
         000007d9 0104 
    6623                      .dwpsn  file "../bts.c",line 448,column 5,is_stmt,isa 0
    6624 000007da E802          MOVIZ     R1H,#16640            ; [CPU_FPU] |448| 
         000007db 0801 
    6625 000007dc E80C          MOVXI     R1H,#39581            ; [CPU_FPU] |448| 
         000007dd D4E9 
    6626                      .dwpsn  file "../bts.c",line 445,column 5,is_stmt,isa 0
    6627 000007de E203!         MOV32     @$BLOCKED(||BTS_ctrl_cc_ch6||)+6,R0H ; [CPU_FPU] |445| 
TMS320C2000 Assembler PC v20.2.4 Tue Mar  2 07:24:45 2021

Copyright (c) 1996-2018 Texas Instruments Incorporated
bts.asm                                                              PAGE  147

         000007df 0006 
    6628                      .dwpsn  file "../bts.c",line 449,column 5,is_stmt,isa 0
    6629 000007e0 E806          MOVIZ     R0H,#49491            ; [CPU_FPU] |449| 
         000007e1 0A98 
    6630 000007e2 E80C          MOVXI     R0H,#38693            ; [CPU_FPU] |449| 
         000007e3 B928 
    6631                      .dwpsn  file "../bts.c",line 446,column 5,is_stmt,isa 0
    6632 000007e4 E203!         MOV32     @$BLOCKED(||BTS_ctrl_cc_ch6||)+8,R2H ; [CPU_FPU] |446| 
         000007e5 0208 
    6633                      .dwpsn  file "../bts.c",line 450,column 5,is_stmt,isa 0
    6634 000007e6 E802          MOVIZ     R2H,#16551            ; [CPU_FPU] |450| 
         000007e7 053A 
    6635 000007e8 761F!         MOVW      DP,#||BTS_ctrl_cv_ch6|| ; [CPU_ARAU] 
         000007e9 0000 
    6636 000007ea E80D          MOVXI     R2H,#45032            ; [CPU_FPU] |450| 
         000007eb 7F42 
    6637                      .dwpsn  file "../bts.c",line 448,column 5,is_stmt,isa 0
    6638 000007ec E203!         MOV32     @$BLOCKED(||BTS_ctrl_cv_ch6||),R1H ; [CPU_FPU] |448| 
         000007ed 0100 
    6639                      .dwpsn  file "../bts.c",line 451,column 5,is_stmt,isa 0
    6640 000007ee E805          MOVIZ     R1H,#49109            ; [CPU_FPU] |451| 
         000007ef FEA9 
    6641 000007f0 E809          MOVXI     R1H,#9484             ; [CPU_FPU] |451| 
         000007f1 2861 
    6642                      .dwpsn  file "../bts.c",line 449,column 5,is_stmt,isa 0
    6643 000007f2 E203!         MOV32     @$BLOCKED(||BTS_ctrl_cv_ch6||)+2,R0H ; [CPU_FPU] |449| 
         000007f3 0002 
    6644                      .dwpsn  file "../bts.c",line 452,column 5,is_stmt,isa 0
    6645 000007f4 E801          MOVIZ     R0H,#16170            ; [CPU_FPU] |452| 
         000007f5 F950 
    6646 000007f6 E80A          MOVXI     R0H,#18968            ; [CPU_FPU] |452| 
         000007f7 50C0 
    6647                      .dwpsn  file "../bts.c",line 450,column 5,is_stmt,isa 0
    6648 000007f8 E203!         MOV32     @$BLOCKED(||BTS_ctrl_cv_ch6||)+4,R2H ; [CPU_FPU] |450| 
         000007f9 0204 
    6649                      .dwpsn  file "../bts.c",line 458,column 5,is_stmt,isa 0
    6650 000007fa E801          MOVIZ     R2H,#15623            ; [CPU_FPU] |458| 
         000007fb E83A 
    6651 000007fc E80C          MOVXI     R2H,#38256            ; [CPU_FPU] |458| 
         000007fd AB82 
    6652                      .dwpsn  file "../bts.c",line 451,column 5,is_stmt,isa 0
    6653 000007fe E203!         MOV32     @$BLOCKED(||BTS_ctrl_cv_ch6||)+6,R1H ; [CPU_FPU] |451| 
         000007ff 0106 
    6654                      .dwpsn  file "../bts.c",line 459,column 5,is_stmt,isa 0
    6655 00000800 E805          MOVIZ     R1H,#48511            ; [CPU_FPU] |459| 
         00000801 EBF9 
    6656 00000802 E80B          MOVXI     R1H,#32169            ; [CPU_FPU] |459| 
         00000803 ED49 
    6657                      .dwpsn  file "../bts.c",line 452,column 5,is_stmt,isa 0
    6658 00000804 E203!         MOV32     @$BLOCKED(||BTS_ctrl_cv_ch6||)+8,R0H ; [CPU_FPU] |452| 
         00000805 0008 
    6659                      .dwpsn  file "../bts.c",line 460,column 5,is_stmt,isa 0
    6660 00000806 E801          MOVIZ     R0H,#15600            ; [CPU_FPU] |460| 
         00000807 E780 
    6661 00000808 761F!         MOVW      DP,#||BTS_ctrl_cc_ch7|| ; [CPU_ARAU] 
TMS320C2000 Assembler PC v20.2.4 Tue Mar  2 07:24:45 2021

Copyright (c) 1996-2018 Texas Instruments Incorporated
bts.asm                                                              PAGE  148

         00000809 0000 
    6662 0000080a E80A          MOVXI     R0H,#21649            ; [CPU_FPU] |460| 
         0000080b A488 
    6663                      .dwpsn  file "../bts.c",line 458,column 5,is_stmt,isa 0
    6664 0000080c E203!         MOV32     @$BLOCKED(||BTS_ctrl_cc_ch7||),R2H ; [CPU_FPU] |458| 
         0000080d 0200 
    6665                      .dwpsn  file "../bts.c",line 461,column 5,is_stmt,isa 0
    6666 0000080e E805          MOVIZ     R2H,#49146            ; [CPU_FPU] |461| 
         0000080f FFD2 
    6667 00000810 E80F          MOVXI     R2H,#62539            ; [CPU_FPU] |461| 
         00000811 A25A 
    6668                      .dwpsn  file "../bts.c",line 459,column 5,is_stmt,isa 0
    6669 00000812 E203!         MOV32     @$BLOCKED(||BTS_ctrl_cc_ch7||)+2,R1H ; [CPU_FPU] |459| 
         00000813 0102 
    6670                      .dwpsn  file "../bts.c",line 462,column 5,is_stmt,isa 0
    6671 00000814 E801          MOVIZ     R1H,#16245            ; [CPU_FPU] |462| 
         00000815 FBA9 
    6672 00000816 E80F          MOVXI     R1H,#59542            ; [CPU_FPU] |462| 
         00000817 44B1 
    6673                      .dwpsn  file "../bts.c",line 460,column 5,is_stmt,isa 0
    6674 00000818 E203!         MOV32     @$BLOCKED(||BTS_ctrl_cc_ch7||)+4,R0H ; [CPU_FPU] |460| 
         00000819 0004 
    6675                      .dwpsn  file "../bts.c",line 464,column 5,is_stmt,isa 0
    6676 0000081a E802          MOVIZ     R0H,#16640            ; [CPU_FPU] |464| 
         0000081b 0800 
    6677 0000081c E80C          MOVXI     R0H,#39581            ; [CPU_FPU] |464| 
         0000081d D4E8 
    6678                      .dwpsn  file "../bts.c",line 461,column 5,is_stmt,isa 0
    6679 0000081e E203!         MOV32     @$BLOCKED(||BTS_ctrl_cc_ch7||)+6,R2H ; [CPU_FPU] |461| 
         0000081f 0206 
    6680                      .dwpsn  file "../bts.c",line 465,column 5,is_stmt,isa 0
    6681 00000820 E806          MOVIZ     R2H,#49491            ; [CPU_FPU] |465| 
         00000821 0A9A 
    6682 00000822 E80C          MOVXI     R2H,#38693            ; [CPU_FPU] |465| 
         00000823 B92A 
    6683                      .dwpsn  file "../bts.c",line 462,column 5,is_stmt,isa 0
    6684 00000824 E203!         MOV32     @$BLOCKED(||BTS_ctrl_cc_ch7||)+8,R1H ; [CPU_FPU] |462| 
         00000825 0108 
    6685                      .dwpsn  file "../bts.c",line 466,column 5,is_stmt,isa 0
    6686 00000826 E802          MOVIZ     R1H,#16551            ; [CPU_FPU] |466| 
         00000827 0539 
    6687 00000828 761F!         MOVW      DP,#||BTS_ctrl_cv_ch7|| ; [CPU_ARAU] 
         00000829 0000 
    6688 0000082a E80D          MOVXI     R1H,#45032            ; [CPU_FPU] |466| 
         0000082b 7F41 
    6689                      .dwpsn  file "../bts.c",line 464,column 5,is_stmt,isa 0
    6690 0000082c E203!         MOV32     @$BLOCKED(||BTS_ctrl_cv_ch7||),R0H ; [CPU_FPU] |464| 
         0000082d 0000 
    6691                      .dwpsn  file "../bts.c",line 467,column 5,is_stmt,isa 0
    6692 0000082e E805          MOVIZ     R0H,#49109            ; [CPU_FPU] |467| 
         0000082f FEA8 
    6693 00000830 E809          MOVXI     R0H,#9484             ; [CPU_FPU] |467| 
         00000831 2860 
    6694                      .dwpsn  file "../bts.c",line 465,column 5,is_stmt,isa 0
    6695 00000832 E203!         MOV32     @$BLOCKED(||BTS_ctrl_cv_ch7||)+2,R2H ; [CPU_FPU] |465| 
TMS320C2000 Assembler PC v20.2.4 Tue Mar  2 07:24:45 2021

Copyright (c) 1996-2018 Texas Instruments Incorporated
bts.asm                                                              PAGE  149

         00000833 0202 
    6696                      .dwpsn  file "../bts.c",line 468,column 5,is_stmt,isa 0
    6697 00000834 E801          MOVIZ     R2H,#16170            ; [CPU_FPU] |468| 
         00000835 F952 
    6698 00000836 E80A          MOVXI     R2H,#18968            ; [CPU_FPU] |468| 
         00000837 50C2 
    6699                      .dwpsn  file "../bts.c",line 466,column 5,is_stmt,isa 0
    6700 00000838 E203!         MOV32     @$BLOCKED(||BTS_ctrl_cv_ch7||)+4,R1H ; [CPU_FPU] |466| 
         00000839 0104 
    6701                      .dwpsn  file "../bts.c",line 474,column 5,is_stmt,isa 0
    6702 0000083a E801          MOVIZ     R1H,#15623            ; [CPU_FPU] |474| 
         0000083b E839 
    6703 0000083c E80C          MOVXI     R1H,#38256            ; [CPU_FPU] |474| 
         0000083d AB81 
    6704                      .dwpsn  file "../bts.c",line 467,column 5,is_stmt,isa 0
    6705 0000083e E203!         MOV32     @$BLOCKED(||BTS_ctrl_cv_ch7||)+6,R0H ; [CPU_FPU] |467| 
         0000083f 0006 
    6706                      .dwpsn  file "../bts.c",line 475,column 5,is_stmt,isa 0
    6707 00000840 E805          MOVIZ     R0H,#48511            ; [CPU_FPU] |475| 
         00000841 EBF8 
    6708 00000842 E80B          MOVXI     R0H,#32169            ; [CPU_FPU] |475| 
         00000843 ED48 
    6709                      .dwpsn  file "../bts.c",line 468,column 5,is_stmt,isa 0
    6710 00000844 E203!         MOV32     @$BLOCKED(||BTS_ctrl_cv_ch7||)+8,R2H ; [CPU_FPU] |468| 
         00000845 0208 
    6711                      .dwpsn  file "../bts.c",line 476,column 5,is_stmt,isa 0
    6712 00000846 E801          MOVIZ     R2H,#15600            ; [CPU_FPU] |476| 
         00000847 E782 
    6713 00000848 761F!         MOVW      DP,#||BTS_ctrl_cc_ch8|| ; [CPU_ARAU] 
         00000849 0000 
    6714 0000084a E80A          MOVXI     R2H,#21649            ; [CPU_FPU] |476| 
         0000084b A48A 
    6715                      .dwpsn  file "../bts.c",line 474,column 5,is_stmt,isa 0
    6716 0000084c E203!         MOV32     @$BLOCKED(||BTS_ctrl_cc_ch8||),R1H ; [CPU_FPU] |474| 
         0000084d 0100 
    6717                      .dwpsn  file "../bts.c",line 477,column 5,is_stmt,isa 0
    6718 0000084e E805          MOVIZ     R1H,#49146            ; [CPU_FPU] |477| 
         0000084f FFD1 
    6719 00000850 E80F          MOVXI     R1H,#62539            ; [CPU_FPU] |477| 
         00000851 A259 
    6720                      .dwpsn  file "../bts.c",line 475,column 5,is_stmt,isa 0
    6721 00000852 E203!         MOV32     @$BLOCKED(||BTS_ctrl_cc_ch8||)+2,R0H ; [CPU_FPU] |475| 
         00000853 0002 
    6722                      .dwpsn  file "../bts.c",line 478,column 5,is_stmt,isa 0
    6723 00000854 E801          MOVIZ     R0H,#16245            ; [CPU_FPU] |478| 
         00000855 FBA8 
    6724 00000856 E80F          MOVXI     R0H,#59542            ; [CPU_FPU] |478| 
         00000857 44B0 
    6725                      .dwpsn  file "../bts.c",line 476,column 5,is_stmt,isa 0
    6726 00000858 E203!         MOV32     @$BLOCKED(||BTS_ctrl_cc_ch8||)+4,R2H ; [CPU_FPU] |476| 
         00000859 0204 
    6727                      .dwpsn  file "../bts.c",line 482,column 5,is_stmt,isa 0
    6728 0000085a E802          MOVIZ     R2H,#16551            ; [CPU_FPU] |482| 
         0000085b 053A 
    6729 0000085c E80D          MOVXI     R2H,#45032            ; [CPU_FPU] |482| 
TMS320C2000 Assembler PC v20.2.4 Tue Mar  2 07:24:45 2021

Copyright (c) 1996-2018 Texas Instruments Incorporated
bts.asm                                                              PAGE  150

         0000085d 7F42 
    6730                      .dwpsn  file "../bts.c",line 477,column 5,is_stmt,isa 0
    6731 0000085e E203!         MOV32     @$BLOCKED(||BTS_ctrl_cc_ch8||)+6,R1H ; [CPU_FPU] |477| 
         0000085f 0106 
    6732                      .dwpsn  file "../bts.c",line 483,column 5,is_stmt,isa 0
    6733 00000860 E805          MOVIZ     R1H,#49109            ; [CPU_FPU] |483| 
         00000861 FEA9 
    6734 00000862 E809          MOVXI     R1H,#9484             ; [CPU_FPU] |483| 
         00000863 2861 
    6735                      .dwpsn  file "../bts.c",line 478,column 5,is_stmt,isa 0
    6736 00000864 E203!         MOV32     @$BLOCKED(||BTS_ctrl_cc_ch8||)+8,R0H ; [CPU_FPU] |478| 
         00000865 0008 
    6737                      .dwpsn  file "../bts.c",line 484,column 5,is_stmt,isa 0
    6738 00000866 E801          MOVIZ     R0H,#16170            ; [CPU_FPU] |484| 
         00000867 F950 
    6739 00000868 761F!         MOVW      DP,#||BTS_ctrl_cv_ch8|| ; [CPU_ARAU] 
         00000869 0000 
    6740 0000086a E80A          MOVXI     R0H,#18968            ; [CPU_FPU] |484| 
         0000086b 50C0 
    6741                      .dwpsn  file "../bts.c",line 480,column 5,is_stmt,isa 0
    6742 0000086c E203!         MOV32     @$BLOCKED(||BTS_ctrl_cv_ch8||),R4H ; [CPU_FPU] |480| 
         0000086d 0400 
    6743                      .dwpsn  file "../bts.c",line 481,column 5,is_stmt,isa 0
    6744 0000086e E203!         MOV32     @$BLOCKED(||BTS_ctrl_cv_ch8||)+2,R3H ; [CPU_FPU] |481| 
         0000086f 0302 
    6745 00000870 E2AF          MOV32     R4H,*--SP             ; [CPU_FPU] 
         00000871 04BE 
    6746                      .dwcfi  cfa_offset, -2
    6747                      .dwcfi  restore_reg, 59
    6748                      .dwpsn  file "../bts.c",line 482,column 5,is_stmt,isa 0
    6749 00000872 E203!         MOV32     @$BLOCKED(||BTS_ctrl_cv_ch8||)+4,R2H ; [CPU_FPU] |482| 
         00000873 0204 
    6750                      .dwpsn  file "../bts.c",line 483,column 5,is_stmt,isa 0
    6751 00000874 E203!         MOV32     @$BLOCKED(||BTS_ctrl_cv_ch8||)+6,R1H ; [CPU_FPU] |483| 
         00000875 0106 
    6752                      .dwpsn  file "../bts.c",line 484,column 5,is_stmt,isa 0
    6753 00000876 E203!         MOV32     @$BLOCKED(||BTS_ctrl_cv_ch8||)+8,R0H ; [CPU_FPU] |484| 
         00000877 0008 
    6754              $C$DW$295       .dwtag  DW_TAG_TI_branch
    6755                      .dwattr $C$DW$295, DW_AT_low_pc(0x00)
    6756                      .dwattr $C$DW$295, DW_AT_TI_return
    6757              
    6758 00000878 0006          LRETR     ; [CPU_ALU] 
    6759                      ; return occurs ; [] 
    6760                      .dwattr $C$DW$294, DW_AT_TI_end_file("../bts.c")
    6761                      .dwattr $C$DW$294, DW_AT_TI_end_line(0x1e6)
    6762                      .dwattr $C$DW$294, DW_AT_TI_end_column(0x01)
    6763                      .dwendentry
    6764                      .dwendtag $C$DW$294
    6765              
    6766              ;**************************************************************
    6767              ;* UNDEFINED EXTERNAL REFERENCES                              *
    6768              ;**************************************************************
    6769                      .global ||SFRA_F32_reset||
    6770                      .global ||SFRA_F32_config||
TMS320C2000 Assembler PC v20.2.4 Tue Mar  2 07:24:45 2021

Copyright (c) 1996-2018 Texas Instruments Incorporated
bts.asm                                                              PAGE  151

    6771                      .global ||SFRA_F32_resetFreqRespArray||
    6772                      .global ||SFRA_F32_initFreqArrayWithLogSteps||
    6773                      .global ||SFRA_GUI_config||
    6774                      .global ||I2C_disableInterrupt||
    6775                      .global ||handleI2C_ErrorCondition||
    6776                      .global ||Write_Read_TX_RX_FIFO||
    6777                      .global ||I2C_enableInterrupt||
    6778                      .global ||I2C_clearInterruptStatus||
    6779                      .global ||SFO||
    6780                      .global ||SysCtl_getLowSpeedClock||
    6781                      .global ||__c28xabi_cmpull||
    6782              ;**************************************************************
    6783              ;* SECTION GROUPS                                             *
    6784              ;**************************************************************
    6785                      .group    "__fpclassify", 1
    6786                      .gmember  ".text:__fpclassify"
    6787                      .endgroup
    6788                      .group    "__fpclassifyf", 1
    6789                      .gmember  ".text:__fpclassifyf"
    6790                      .endgroup
    6791                      .group    "__fpclassifyl", 1
    6792                      .gmember  ".text:__fpclassifyl"
    6793                      .endgroup
    6794                      .group    "__isfinite", 1
    6795                      .gmember  ".text:__isfinite"
    6796                      .endgroup
    6797                      .group    "__isfinitef", 1
    6798                      .gmember  ".text:__isfinitef"
    6799                      .endgroup
    6800                      .group    "__isfinitel", 1
    6801                      .gmember  ".text:__isfinitel"
    6802                      .endgroup
    6803                      .group    "__isinf", 1
    6804                      .gmember  ".text:__isinf"
    6805                      .endgroup
    6806                      .group    "__isinff", 1
    6807                      .gmember  ".text:__isinff"
    6808                      .endgroup
    6809                      .group    "__isinfl", 1
    6810                      .gmember  ".text:__isinfl"
    6811                      .endgroup
    6812                      .group    "__isnan", 1
    6813                      .gmember  ".text:__isnan"
    6814                      .endgroup
    6815                      .group    "__isnanf", 1
    6816                      .gmember  ".text:__isnanf"
    6817                      .endgroup
    6818                      .group    "__isnanl", 1
    6819                      .gmember  ".text:__isnanl"
    6820                      .endgroup
    6821                      .group    "__isnormal", 1
    6822                      .gmember  ".text:__isnormal"
    6823                      .endgroup
    6824                      .group    "__isnormalf", 1
    6825                      .gmember  ".text:__isnormalf"
TMS320C2000 Assembler PC v20.2.4 Tue Mar  2 07:24:45 2021

Copyright (c) 1996-2018 Texas Instruments Incorporated
bts.asm                                                              PAGE  152

    6826                      .endgroup
    6827                      .group    "__isnormall", 1
    6828                      .gmember  ".text:__isnormall"
    6829                      .endgroup
    6830                      .group    "__relaxed_atan2f", 1
    6831                      .gmember  ".text:__relaxed_atan2f"
    6832                      .endgroup
    6833                      .group    "__relaxed_atanf", 1
    6834                      .gmember  ".text:__relaxed_atanf"
    6835                      .endgroup
    6836                      .group    "__relaxed_cosf", 1
    6837                      .gmember  ".text:__relaxed_cosf"
    6838                      .endgroup
    6839                      .group    "__relaxed_sinf", 1
    6840                      .gmember  ".text:__relaxed_sinf"
    6841                      .endgroup
    6842                      .group    "__relaxed_sqrtf", 1
    6843                      .gmember  ".text:__relaxed_sqrtf"
    6844                      .endgroup
    6845                      .group    "__signbit", 1
    6846                      .gmember  ".text:__signbit"
    6847                      .endgroup
    6848                      .group    "__signbitf", 1
    6849                      .gmember  ".text:__signbitf"
    6850                      .endgroup
    6851                      .group    "__signbitl", 1
    6852                      .gmember  ".text:__signbitl"
    6853                      .endgroup
    6854              
    6855              
    6856              ;***************************************************************
    6857              ;* BUILD ATTRIBUTES                                            *
    6858              ;***************************************************************
    6859                      .battr "c28xabi", Tag_File, 1, Tag_float_args(1)
    6860                      .battr "c28xabi", Tag_File, 1, Tag_double_args(1)
    6861                      .dwattr $C$DW$CU, DW_AT_language(DW_LANG_C)
    6862              
    6863              ;***************************************************************
    6864              ;* DWARF CIE ENTRIES                                           *
    6865              ;***************************************************************
    6866              
    6867              $C$DW$CIE       .dwcie 26
    6868                      .dwcfi  cfa_register, 20
    6869                      .dwcfi  cfa_offset, 0
    6870                      .dwcfi  same_value, 28
    6871                      .dwcfi  same_value, 6
    6872                      .dwcfi  same_value, 7
    6873                      .dwcfi  same_value, 8
    6874                      .dwcfi  same_value, 9
    6875                      .dwcfi  same_value, 10
    6876                      .dwcfi  same_value, 11
    6877                      .dwcfi  same_value, 59
    6878                      .dwcfi  same_value, 63
    6879                      .dwcfi  same_value, 67
    6880                      .dwcfi  same_value, 71
TMS320C2000 Assembler PC v20.2.4 Tue Mar  2 07:24:45 2021

Copyright (c) 1996-2018 Texas Instruments Incorporated
bts.asm                                                              PAGE  153

    6881                      .dwendentry
    6882                      .dwendtag $C$DW$CU
    6883              
    6884              
    6885              ;***************************************************************
    6886              ;* TYPE INFORMATION                                            *
    6887              ;***************************************************************
    6888              
    6889              $C$DW$TU$23     .dwtag  DW_TAG_type_unit
    6890                      .dwmtype  $C$DW$T$23
    6891              
    6892              $C$DW$T$23      .dwtag  DW_TAG_structure_type
    6893                      .dwattr $C$DW$T$23, DW_AT_byte_size(0x20)
    6894              $C$DW$296       .dwtag  DW_TAG_member
    6895                      .dwattr $C$DW$296, DW_AT_type(*$C$DW$T$20)
    6896                      .dwattr $C$DW$296, DW_AT_name("h_magVect")
    6897                      .dwattr $C$DW$296, DW_AT_accessibility(DW_ACCESS_public)
    6898                      .dwattr $C$DW$296, DW_AT_decl_file("C:/sandbox/github/Lion-IRVT/Hardware/source/tida-010086/bts_F2837
    6899                      .dwattr $C$DW$296, DW_AT_decl_line(0x40)
    6900                      .dwattr $C$DW$296, DW_AT_decl_column(0x10)
    6901              
    6902              $C$DW$297       .dwtag  DW_TAG_member
    6903                      .dwattr $C$DW$297, DW_AT_type(*$C$DW$T$20)
    6904                      .dwattr $C$DW$297, DW_AT_name("h_phaseVect")
    6905                      .dwattr $C$DW$297, DW_AT_data_member_location[DW_OP_plus_uconst 0x2]
    6906                      .dwattr $C$DW$297, DW_AT_accessibility(DW_ACCESS_public)
    6907                      .dwattr $C$DW$297, DW_AT_decl_file("C:/sandbox/github/Lion-IRVT/Hardware/source/tida-010086/bts_F2837
    6908                      .dwattr $C$DW$297, DW_AT_decl_line(0x41)
    6909                      .dwattr $C$DW$297, DW_AT_decl_column(0x10)
    6910              
    6911              $C$DW$298       .dwtag  DW_TAG_member
    6912                      .dwattr $C$DW$298, DW_AT_type(*$C$DW$T$20)
    6913                      .dwattr $C$DW$298, DW_AT_name("gh_magVect")
    6914                      .dwattr $C$DW$298, DW_AT_data_member_location[DW_OP_plus_uconst 0x4]
    6915                      .dwattr $C$DW$298, DW_AT_accessibility(DW_ACCESS_public)
    6916                      .dwattr $C$DW$298, DW_AT_decl_file("C:/sandbox/github/Lion-IRVT/Hardware/source/tida-010086/bts_F2837
    6917                      .dwattr $C$DW$298, DW_AT_decl_line(0x42)
    6918                      .dwattr $C$DW$298, DW_AT_decl_column(0x10)
    6919              
    6920              $C$DW$299       .dwtag  DW_TAG_member
    6921                      .dwattr $C$DW$299, DW_AT_type(*$C$DW$T$20)
    6922                      .dwattr $C$DW$299, DW_AT_name("gh_phaseVect")
    6923                      .dwattr $C$DW$299, DW_AT_data_member_location[DW_OP_plus_uconst 0x6]
    6924                      .dwattr $C$DW$299, DW_AT_accessibility(DW_ACCESS_public)
    6925                      .dwattr $C$DW$299, DW_AT_decl_file("C:/sandbox/github/Lion-IRVT/Hardware/source/tida-010086/bts_F2837
    6926                      .dwattr $C$DW$299, DW_AT_decl_line(0x43)
    6927                      .dwattr $C$DW$299, DW_AT_decl_column(0x10)
    6928              
    6929              $C$DW$300       .dwtag  DW_TAG_member
    6930                      .dwattr $C$DW$300, DW_AT_type(*$C$DW$T$20)
    6931                      .dwattr $C$DW$300, DW_AT_name("cl_magVect")
    6932                      .dwattr $C$DW$300, DW_AT_data_member_location[DW_OP_plus_uconst 0x8]
    6933                      .dwattr $C$DW$300, DW_AT_accessibility(DW_ACCESS_public)
    6934                      .dwattr $C$DW$300, DW_AT_decl_file("C:/sandbox/github/Lion-IRVT/Hardware/source/tida-010086/bts_F2837
    6935                      .dwattr $C$DW$300, DW_AT_decl_line(0x44)
TMS320C2000 Assembler PC v20.2.4 Tue Mar  2 07:24:45 2021

Copyright (c) 1996-2018 Texas Instruments Incorporated
bts.asm                                                              PAGE  154

    6936                      .dwattr $C$DW$300, DW_AT_decl_column(0x10)
    6937              
    6938              $C$DW$301       .dwtag  DW_TAG_member
    6939                      .dwattr $C$DW$301, DW_AT_type(*$C$DW$T$20)
    6940                      .dwattr $C$DW$301, DW_AT_name("cl_phaseVect")
    6941                      .dwattr $C$DW$301, DW_AT_data_member_location[DW_OP_plus_uconst 0xa]
    6942                      .dwattr $C$DW$301, DW_AT_accessibility(DW_ACCESS_public)
    6943                      .dwattr $C$DW$301, DW_AT_decl_file("C:/sandbox/github/Lion-IRVT/Hardware/source/tida-010086/bts_F2837
    6944                      .dwattr $C$DW$301, DW_AT_decl_line(0x45)
    6945                      .dwattr $C$DW$301, DW_AT_decl_column(0x10)
    6946              
    6947              $C$DW$302       .dwtag  DW_TAG_member
    6948                      .dwattr $C$DW$302, DW_AT_type(*$C$DW$T$20)
    6949                      .dwattr $C$DW$302, DW_AT_name("freqVect")
    6950                      .dwattr $C$DW$302, DW_AT_data_member_location[DW_OP_plus_uconst 0xc]
    6951                      .dwattr $C$DW$302, DW_AT_accessibility(DW_ACCESS_public)
    6952                      .dwattr $C$DW$302, DW_AT_decl_file("C:/sandbox/github/Lion-IRVT/Hardware/source/tida-010086/bts_F2837
    6953                      .dwattr $C$DW$302, DW_AT_decl_line(0x46)
    6954                      .dwattr $C$DW$302, DW_AT_decl_column(0x10)
    6955              
    6956              $C$DW$303       .dwtag  DW_TAG_member
    6957                      .dwattr $C$DW$303, DW_AT_type(*$C$DW$T$19)
    6958                      .dwattr $C$DW$303, DW_AT_name("amplitude")
    6959                      .dwattr $C$DW$303, DW_AT_data_member_location[DW_OP_plus_uconst 0xe]
    6960                      .dwattr $C$DW$303, DW_AT_accessibility(DW_ACCESS_public)
    6961                      .dwattr $C$DW$303, DW_AT_decl_file("C:/sandbox/github/Lion-IRVT/Hardware/source/tida-010086/bts_F2837
    6962                      .dwattr $C$DW$303, DW_AT_decl_line(0x47)
    6963                      .dwattr $C$DW$303, DW_AT_decl_column(0x0f)
    6964              
    6965              $C$DW$304       .dwtag  DW_TAG_member
    6966                      .dwattr $C$DW$304, DW_AT_type(*$C$DW$T$19)
    6967                      .dwattr $C$DW$304, DW_AT_name("isrFreq")
    6968                      .dwattr $C$DW$304, DW_AT_data_member_location[DW_OP_plus_uconst 0x10]
    6969                      .dwattr $C$DW$304, DW_AT_accessibility(DW_ACCESS_public)
    6970                      .dwattr $C$DW$304, DW_AT_decl_file("C:/sandbox/github/Lion-IRVT/Hardware/source/tida-010086/bts_F2837
    6971                      .dwattr $C$DW$304, DW_AT_decl_line(0x48)
    6972                      .dwattr $C$DW$304, DW_AT_decl_column(0x0f)
    6973              
    6974              $C$DW$305       .dwtag  DW_TAG_member
    6975                      .dwattr $C$DW$305, DW_AT_type(*$C$DW$T$19)
    6976                      .dwattr $C$DW$305, DW_AT_name("freqStart")
    6977                      .dwattr $C$DW$305, DW_AT_data_member_location[DW_OP_plus_uconst 0x12]
    6978                      .dwattr $C$DW$305, DW_AT_accessibility(DW_ACCESS_public)
    6979                      .dwattr $C$DW$305, DW_AT_decl_file("C:/sandbox/github/Lion-IRVT/Hardware/source/tida-010086/bts_F2837
    6980                      .dwattr $C$DW$305, DW_AT_decl_line(0x49)
    6981                      .dwattr $C$DW$305, DW_AT_decl_column(0x0f)
    6982              
    6983              $C$DW$306       .dwtag  DW_TAG_member
    6984                      .dwattr $C$DW$306, DW_AT_type(*$C$DW$T$19)
    6985                      .dwattr $C$DW$306, DW_AT_name("freqStep")
    6986                      .dwattr $C$DW$306, DW_AT_data_member_location[DW_OP_plus_uconst 0x14]
    6987                      .dwattr $C$DW$306, DW_AT_accessibility(DW_ACCESS_public)
    6988                      .dwattr $C$DW$306, DW_AT_decl_file("C:/sandbox/github/Lion-IRVT/Hardware/source/tida-010086/bts_F2837
    6989                      .dwattr $C$DW$306, DW_AT_decl_line(0x4a)
    6990                      .dwattr $C$DW$306, DW_AT_decl_column(0x0f)
TMS320C2000 Assembler PC v20.2.4 Tue Mar  2 07:24:45 2021

Copyright (c) 1996-2018 Texas Instruments Incorporated
bts.asm                                                              PAGE  155

    6991              
    6992              $C$DW$307       .dwtag  DW_TAG_member
    6993                      .dwattr $C$DW$307, DW_AT_type(*$C$DW$T$22)
    6994                      .dwattr $C$DW$307, DW_AT_name("start")
    6995                      .dwattr $C$DW$307, DW_AT_data_member_location[DW_OP_plus_uconst 0x16]
    6996                      .dwattr $C$DW$307, DW_AT_accessibility(DW_ACCESS_public)
    6997                      .dwattr $C$DW$307, DW_AT_decl_file("C:/sandbox/github/Lion-IRVT/Hardware/source/tida-010086/bts_F2837
    6998                      .dwattr $C$DW$307, DW_AT_decl_line(0x4b)
    6999                      .dwattr $C$DW$307, DW_AT_decl_column(0x0d)
    7000              
    7001              $C$DW$308       .dwtag  DW_TAG_member
    7002                      .dwattr $C$DW$308, DW_AT_type(*$C$DW$T$22)
    7003                      .dwattr $C$DW$308, DW_AT_name("state")
    7004                      .dwattr $C$DW$308, DW_AT_data_member_location[DW_OP_plus_uconst 0x17]
    7005                      .dwattr $C$DW$308, DW_AT_accessibility(DW_ACCESS_public)
    7006                      .dwattr $C$DW$308, DW_AT_decl_file("C:/sandbox/github/Lion-IRVT/Hardware/source/tida-010086/bts_F2837
    7007                      .dwattr $C$DW$308, DW_AT_decl_line(0x4c)
    7008                      .dwattr $C$DW$308, DW_AT_decl_column(0x0d)
    7009              
    7010              $C$DW$309       .dwtag  DW_TAG_member
    7011                      .dwattr $C$DW$309, DW_AT_type(*$C$DW$T$22)
    7012                      .dwattr $C$DW$309, DW_AT_name("status")
    7013                      .dwattr $C$DW$309, DW_AT_data_member_location[DW_OP_plus_uconst 0x18]
    7014                      .dwattr $C$DW$309, DW_AT_accessibility(DW_ACCESS_public)
    7015                      .dwattr $C$DW$309, DW_AT_decl_file("C:/sandbox/github/Lion-IRVT/Hardware/source/tida-010086/bts_F2837
    7016                      .dwattr $C$DW$309, DW_AT_decl_line(0x4d)
    7017                      .dwattr $C$DW$309, DW_AT_decl_column(0x0d)
    7018              
    7019              $C$DW$310       .dwtag  DW_TAG_member
    7020                      .dwattr $C$DW$310, DW_AT_type(*$C$DW$T$22)
    7021                      .dwattr $C$DW$310, DW_AT_name("vecLength")
    7022                      .dwattr $C$DW$310, DW_AT_data_member_location[DW_OP_plus_uconst 0x19]
    7023                      .dwattr $C$DW$310, DW_AT_accessibility(DW_ACCESS_public)
    7024                      .dwattr $C$DW$310, DW_AT_decl_file("C:/sandbox/github/Lion-IRVT/Hardware/source/tida-010086/bts_F2837
    7025                      .dwattr $C$DW$310, DW_AT_decl_line(0x4e)
    7026                      .dwattr $C$DW$310, DW_AT_decl_column(0x0d)
    7027              
    7028              $C$DW$311       .dwtag  DW_TAG_member
    7029                      .dwattr $C$DW$311, DW_AT_type(*$C$DW$T$22)
    7030                      .dwattr $C$DW$311, DW_AT_name("freqIndex")
    7031                      .dwattr $C$DW$311, DW_AT_data_member_location[DW_OP_plus_uconst 0x1a]
    7032                      .dwattr $C$DW$311, DW_AT_accessibility(DW_ACCESS_public)
    7033                      .dwattr $C$DW$311, DW_AT_decl_file("C:/sandbox/github/Lion-IRVT/Hardware/source/tida-010086/bts_F2837
    7034                      .dwattr $C$DW$311, DW_AT_decl_line(0x4f)
    7035                      .dwattr $C$DW$311, DW_AT_decl_column(0x0d)
    7036              
    7037              $C$DW$312       .dwtag  DW_TAG_member
    7038                      .dwattr $C$DW$312, DW_AT_type(*$C$DW$T$22)
    7039                      .dwattr $C$DW$312, DW_AT_name("storeH")
    7040                      .dwattr $C$DW$312, DW_AT_data_member_location[DW_OP_plus_uconst 0x1b]
    7041                      .dwattr $C$DW$312, DW_AT_accessibility(DW_ACCESS_public)
    7042                      .dwattr $C$DW$312, DW_AT_decl_file("C:/sandbox/github/Lion-IRVT/Hardware/source/tida-010086/bts_F2837
    7043                      .dwattr $C$DW$312, DW_AT_decl_line(0x50)
    7044                      .dwattr $C$DW$312, DW_AT_decl_column(0x0d)
    7045              
TMS320C2000 Assembler PC v20.2.4 Tue Mar  2 07:24:45 2021

Copyright (c) 1996-2018 Texas Instruments Incorporated
bts.asm                                                              PAGE  156

    7046              $C$DW$313       .dwtag  DW_TAG_member
    7047                      .dwattr $C$DW$313, DW_AT_type(*$C$DW$T$22)
    7048                      .dwattr $C$DW$313, DW_AT_name("storeGH")
    7049                      .dwattr $C$DW$313, DW_AT_data_member_location[DW_OP_plus_uconst 0x1c]
    7050                      .dwattr $C$DW$313, DW_AT_accessibility(DW_ACCESS_public)
    7051                      .dwattr $C$DW$313, DW_AT_decl_file("C:/sandbox/github/Lion-IRVT/Hardware/source/tida-010086/bts_F2837
    7052                      .dwattr $C$DW$313, DW_AT_decl_line(0x51)
    7053                      .dwattr $C$DW$313, DW_AT_decl_column(0x0d)
    7054              
    7055              $C$DW$314       .dwtag  DW_TAG_member
    7056                      .dwattr $C$DW$314, DW_AT_type(*$C$DW$T$22)
    7057                      .dwattr $C$DW$314, DW_AT_name("storeCL")
    7058                      .dwattr $C$DW$314, DW_AT_data_member_location[DW_OP_plus_uconst 0x1d]
    7059                      .dwattr $C$DW$314, DW_AT_accessibility(DW_ACCESS_public)
    7060                      .dwattr $C$DW$314, DW_AT_decl_file("C:/sandbox/github/Lion-IRVT/Hardware/source/tida-010086/bts_F2837
    7061                      .dwattr $C$DW$314, DW_AT_decl_line(0x52)
    7062                      .dwattr $C$DW$314, DW_AT_decl_column(0x0d)
    7063              
    7064              $C$DW$315       .dwtag  DW_TAG_member
    7065                      .dwattr $C$DW$315, DW_AT_type(*$C$DW$T$22)
    7066                      .dwattr $C$DW$315, DW_AT_name("speed")
    7067                      .dwattr $C$DW$315, DW_AT_data_member_location[DW_OP_plus_uconst 0x1e]
    7068                      .dwattr $C$DW$315, DW_AT_accessibility(DW_ACCESS_public)
    7069                      .dwattr $C$DW$315, DW_AT_decl_file("C:/sandbox/github/Lion-IRVT/Hardware/source/tida-010086/bts_F2837
    7070                      .dwattr $C$DW$315, DW_AT_decl_line(0x53)
    7071                      .dwattr $C$DW$315, DW_AT_decl_column(0x0d)
    7072              
    7073                      .dwattr $C$DW$T$23, DW_AT_decl_file("C:/sandbox/github/Lion-IRVT/Hardware/source/tida-010086/bts_F283
    7074                      .dwattr $C$DW$T$23, DW_AT_decl_line(0x3f)
    7075                      .dwattr $C$DW$T$23, DW_AT_decl_column(0x0f)
    7076                      .dwendtag $C$DW$T$23
    7077              
    7078                      .dwendtag $C$DW$TU$23
    7079              
    7080              
    7081              $C$DW$TU$57     .dwtag  DW_TAG_type_unit
    7082                      .dwmtype  $C$DW$T$57
    7083              $C$DW$T$57      .dwtag  DW_TAG_typedef
    7084                      .dwattr $C$DW$T$57, DW_AT_name("SFRA_F32")
    7085                      .dwattr $C$DW$T$57, DW_AT_type(*$C$DW$T$23)
    7086                      .dwattr $C$DW$T$57, DW_AT_decl_file("C:/sandbox/github/Lion-IRVT/Hardware/source/tida-010086/bts_F283
    7087                      .dwattr $C$DW$T$57, DW_AT_decl_line(0x54)
    7088                      .dwattr $C$DW$T$57, DW_AT_decl_column(0x02)
    7089              
    7090                      .dwendtag $C$DW$TU$57
    7091              
    7092              
    7093              $C$DW$TU$58     .dwtag  DW_TAG_type_unit
    7094                      .dwmtype  $C$DW$T$58
    7095              $C$DW$T$58      .dwtag  DW_TAG_pointer_type
    7096                      .dwattr $C$DW$T$58, DW_AT_type(*$C$DW$T$57)
    7097                      .dwattr $C$DW$T$58, DW_AT_address_class(0x20)
    7098              
    7099                      .dwendtag $C$DW$TU$58
    7100              
TMS320C2000 Assembler PC v20.2.4 Tue Mar  2 07:24:45 2021

Copyright (c) 1996-2018 Texas Instruments Incorporated
bts.asm                                                              PAGE  157

    7101              
    7102              $C$DW$TU$28     .dwtag  DW_TAG_type_unit
    7103                      .dwmtype  $C$DW$T$28
    7104              
    7105              $C$DW$T$28      .dwtag  DW_TAG_structure_type
    7106                      .dwattr $C$DW$T$28, DW_AT_byte_size(0x1e)
    7107              $C$DW$316       .dwtag  DW_TAG_member
    7108                      .dwattr $C$DW$316, DW_AT_type(*$C$DW$T$24)
    7109                      .dwattr $C$DW$316, DW_AT_name("iref_A")
    7110                      .dwattr $C$DW$316, DW_AT_accessibility(DW_ACCESS_public)
    7111                      .dwattr $C$DW$316, DW_AT_decl_file("C:/sandbox/github/Lion-IRVT/Hardware/source/tida-010086/bts_F2837
    7112                      .dwattr $C$DW$316, DW_AT_decl_line(0x78)
    7113                      .dwattr $C$DW$316, DW_AT_decl_column(0x18)
    7114              
    7115              $C$DW$317       .dwtag  DW_TAG_member
    7116                      .dwattr $C$DW$317, DW_AT_type(*$C$DW$T$24)
    7117                      .dwattr $C$DW$317, DW_AT_name("vref_charge_V")
    7118                      .dwattr $C$DW$317, DW_AT_data_member_location[DW_OP_plus_uconst 0x2]
    7119                      .dwattr $C$DW$317, DW_AT_accessibility(DW_ACCESS_public)
    7120                      .dwattr $C$DW$317, DW_AT_decl_file("C:/sandbox/github/Lion-IRVT/Hardware/source/tida-010086/bts_F2837
    7121                      .dwattr $C$DW$317, DW_AT_decl_line(0x79)
    7122                      .dwattr $C$DW$317, DW_AT_decl_column(0x18)
    7123              
    7124              $C$DW$318       .dwtag  DW_TAG_member
    7125                      .dwattr $C$DW$318, DW_AT_type(*$C$DW$T$24)
    7126                      .dwattr $C$DW$318, DW_AT_name("vref_discharge_V")
    7127                      .dwattr $C$DW$318, DW_AT_data_member_location[DW_OP_plus_uconst 0x4]
    7128                      .dwattr $C$DW$318, DW_AT_accessibility(DW_ACCESS_public)
    7129                      .dwattr $C$DW$318, DW_AT_decl_file("C:/sandbox/github/Lion-IRVT/Hardware/source/tida-010086/bts_F2837
    7130                      .dwattr $C$DW$318, DW_AT_decl_line(0x7a)
    7131                      .dwattr $C$DW$318, DW_AT_decl_column(0x18)
    7132              
    7133              $C$DW$319       .dwtag  DW_TAG_member
    7134                      .dwattr $C$DW$319, DW_AT_type(*$C$DW$T$27)
    7135                      .dwattr $C$DW$319, DW_AT_name("direction_logic")
    7136                      .dwattr $C$DW$319, DW_AT_data_member_location[DW_OP_plus_uconst 0x6]
    7137                      .dwattr $C$DW$319, DW_AT_accessibility(DW_ACCESS_public)
    7138                      .dwattr $C$DW$319, DW_AT_decl_file("C:/sandbox/github/Lion-IRVT/Hardware/source/tida-010086/bts_F2837
    7139                      .dwattr $C$DW$319, DW_AT_decl_line(0x7b)
    7140                      .dwattr $C$DW$319, DW_AT_decl_column(0x17)
    7141              
    7142              $C$DW$320       .dwtag  DW_TAG_member
    7143                      .dwattr $C$DW$320, DW_AT_type(*$C$DW$T$27)
    7144                      .dwattr $C$DW$320, DW_AT_name("enable_logic")
    7145                      .dwattr $C$DW$320, DW_AT_data_member_location[DW_OP_plus_uconst 0x7]
    7146                      .dwattr $C$DW$320, DW_AT_accessibility(DW_ACCESS_public)
    7147                      .dwattr $C$DW$320, DW_AT_decl_file("C:/sandbox/github/Lion-IRVT/Hardware/source/tida-010086/bts_F2837
    7148                      .dwattr $C$DW$320, DW_AT_decl_line(0x7c)
    7149                      .dwattr $C$DW$320, DW_AT_decl_column(0x17)
    7150              
    7151              $C$DW$321       .dwtag  DW_TAG_member
    7152                      .dwattr $C$DW$321, DW_AT_type(*$C$DW$T$24)
    7153                      .dwattr $C$DW$321, DW_AT_name("dutyRef_pu")
    7154                      .dwattr $C$DW$321, DW_AT_data_member_location[DW_OP_plus_uconst 0x8]
    7155                      .dwattr $C$DW$321, DW_AT_accessibility(DW_ACCESS_public)
TMS320C2000 Assembler PC v20.2.4 Tue Mar  2 07:24:45 2021

Copyright (c) 1996-2018 Texas Instruments Incorporated
bts.asm                                                              PAGE  158

    7156                      .dwattr $C$DW$321, DW_AT_decl_file("C:/sandbox/github/Lion-IRVT/Hardware/source/tida-010086/bts_F2837
    7157                      .dwattr $C$DW$321, DW_AT_decl_line(0x7d)
    7158                      .dwattr $C$DW$321, DW_AT_decl_column(0x18)
    7159              
    7160              $C$DW$322       .dwtag  DW_TAG_member
    7161                      .dwattr $C$DW$322, DW_AT_type(*$C$DW$T$24)
    7162                      .dwattr $C$DW$322, DW_AT_name("ioutCal_pu")
    7163                      .dwattr $C$DW$322, DW_AT_data_member_location[DW_OP_plus_uconst 0xa]
    7164                      .dwattr $C$DW$322, DW_AT_accessibility(DW_ACCESS_public)
    7165                      .dwattr $C$DW$322, DW_AT_decl_file("C:/sandbox/github/Lion-IRVT/Hardware/source/tida-010086/bts_F2837
    7166                      .dwattr $C$DW$322, DW_AT_decl_line(0x7e)
    7167                      .dwattr $C$DW$322, DW_AT_decl_column(0x18)
    7168              
    7169              $C$DW$323       .dwtag  DW_TAG_member
    7170                      .dwattr $C$DW$323, DW_AT_type(*$C$DW$T$24)
    7171                      .dwattr $C$DW$323, DW_AT_name("voutCal_pu")
    7172                      .dwattr $C$DW$323, DW_AT_data_member_location[DW_OP_plus_uconst 0xc]
    7173                      .dwattr $C$DW$323, DW_AT_accessibility(DW_ACCESS_public)
    7174                      .dwattr $C$DW$323, DW_AT_decl_file("C:/sandbox/github/Lion-IRVT/Hardware/source/tida-010086/bts_F2837
    7175                      .dwattr $C$DW$323, DW_AT_decl_line(0x7f)
    7176                      .dwattr $C$DW$323, DW_AT_decl_column(0x18)
    7177              
    7178              $C$DW$324       .dwtag  DW_TAG_member
    7179                      .dwattr $C$DW$324, DW_AT_type(*$C$DW$T$19)
    7180                      .dwattr $C$DW$324, DW_AT_name("IoutGain_pu")
    7181                      .dwattr $C$DW$324, DW_AT_data_member_location[DW_OP_plus_uconst 0xe]
    7182                      .dwattr $C$DW$324, DW_AT_accessibility(DW_ACCESS_public)
    7183                      .dwattr $C$DW$324, DW_AT_decl_file("C:/sandbox/github/Lion-IRVT/Hardware/source/tida-010086/bts_F2837
    7184                      .dwattr $C$DW$324, DW_AT_decl_line(0x81)
    7185                      .dwattr $C$DW$324, DW_AT_decl_column(0x0f)
    7186              
    7187              $C$DW$325       .dwtag  DW_TAG_member
    7188                      .dwattr $C$DW$325, DW_AT_type(*$C$DW$T$19)
    7189                      .dwattr $C$DW$325, DW_AT_name("IoutOffset_pu")
    7190                      .dwattr $C$DW$325, DW_AT_data_member_location[DW_OP_plus_uconst 0x10]
    7191                      .dwattr $C$DW$325, DW_AT_accessibility(DW_ACCESS_public)
    7192                      .dwattr $C$DW$325, DW_AT_decl_file("C:/sandbox/github/Lion-IRVT/Hardware/source/tida-010086/bts_F2837
    7193                      .dwattr $C$DW$325, DW_AT_decl_line(0x82)
    7194                      .dwattr $C$DW$325, DW_AT_decl_column(0x0f)
    7195              
    7196              $C$DW$326       .dwtag  DW_TAG_member
    7197                      .dwattr $C$DW$326, DW_AT_type(*$C$DW$T$19)
    7198                      .dwattr $C$DW$326, DW_AT_name("IoutGain_A")
    7199                      .dwattr $C$DW$326, DW_AT_data_member_location[DW_OP_plus_uconst 0x12]
    7200                      .dwattr $C$DW$326, DW_AT_accessibility(DW_ACCESS_public)
    7201                      .dwattr $C$DW$326, DW_AT_decl_file("C:/sandbox/github/Lion-IRVT/Hardware/source/tida-010086/bts_F2837
    7202                      .dwattr $C$DW$326, DW_AT_decl_line(0x83)
    7203                      .dwattr $C$DW$326, DW_AT_decl_column(0x0f)
    7204              
    7205              $C$DW$327       .dwtag  DW_TAG_member
    7206                      .dwattr $C$DW$327, DW_AT_type(*$C$DW$T$19)
    7207                      .dwattr $C$DW$327, DW_AT_name("IoutOffset_A")
    7208                      .dwattr $C$DW$327, DW_AT_data_member_location[DW_OP_plus_uconst 0x14]
    7209                      .dwattr $C$DW$327, DW_AT_accessibility(DW_ACCESS_public)
    7210                      .dwattr $C$DW$327, DW_AT_decl_file("C:/sandbox/github/Lion-IRVT/Hardware/source/tida-010086/bts_F2837
TMS320C2000 Assembler PC v20.2.4 Tue Mar  2 07:24:45 2021

Copyright (c) 1996-2018 Texas Instruments Incorporated
bts.asm                                                              PAGE  159

    7211                      .dwattr $C$DW$327, DW_AT_decl_line(0x84)
    7212                      .dwattr $C$DW$327, DW_AT_decl_column(0x0f)
    7213              
    7214              $C$DW$328       .dwtag  DW_TAG_member
    7215                      .dwattr $C$DW$328, DW_AT_type(*$C$DW$T$19)
    7216                      .dwattr $C$DW$328, DW_AT_name("VoutGain_pu")
    7217                      .dwattr $C$DW$328, DW_AT_data_member_location[DW_OP_plus_uconst 0x16]
    7218                      .dwattr $C$DW$328, DW_AT_accessibility(DW_ACCESS_public)
    7219                      .dwattr $C$DW$328, DW_AT_decl_file("C:/sandbox/github/Lion-IRVT/Hardware/source/tida-010086/bts_F2837
    7220                      .dwattr $C$DW$328, DW_AT_decl_line(0x86)
    7221                      .dwattr $C$DW$328, DW_AT_decl_column(0x0f)
    7222              
    7223              $C$DW$329       .dwtag  DW_TAG_member
    7224                      .dwattr $C$DW$329, DW_AT_type(*$C$DW$T$19)
    7225                      .dwattr $C$DW$329, DW_AT_name("VoutOffset_pu")
    7226                      .dwattr $C$DW$329, DW_AT_data_member_location[DW_OP_plus_uconst 0x18]
    7227                      .dwattr $C$DW$329, DW_AT_accessibility(DW_ACCESS_public)
    7228                      .dwattr $C$DW$329, DW_AT_decl_file("C:/sandbox/github/Lion-IRVT/Hardware/source/tida-010086/bts_F2837
    7229                      .dwattr $C$DW$329, DW_AT_decl_line(0x87)
    7230                      .dwattr $C$DW$329, DW_AT_decl_column(0x0f)
    7231              
    7232              $C$DW$330       .dwtag  DW_TAG_member
    7233                      .dwattr $C$DW$330, DW_AT_type(*$C$DW$T$19)
    7234                      .dwattr $C$DW$330, DW_AT_name("VoutGain_V")
    7235                      .dwattr $C$DW$330, DW_AT_data_member_location[DW_OP_plus_uconst 0x1a]
    7236                      .dwattr $C$DW$330, DW_AT_accessibility(DW_ACCESS_public)
    7237                      .dwattr $C$DW$330, DW_AT_decl_file("C:/sandbox/github/Lion-IRVT/Hardware/source/tida-010086/bts_F2837
    7238                      .dwattr $C$DW$330, DW_AT_decl_line(0x88)
    7239                      .dwattr $C$DW$330, DW_AT_decl_column(0x0f)
    7240              
    7241              $C$DW$331       .dwtag  DW_TAG_member
    7242                      .dwattr $C$DW$331, DW_AT_type(*$C$DW$T$19)
    7243                      .dwattr $C$DW$331, DW_AT_name("VoutOffset_V")
    7244                      .dwattr $C$DW$331, DW_AT_data_member_location[DW_OP_plus_uconst 0x1c]
    7245                      .dwattr $C$DW$331, DW_AT_accessibility(DW_ACCESS_public)
    7246                      .dwattr $C$DW$331, DW_AT_decl_file("C:/sandbox/github/Lion-IRVT/Hardware/source/tida-010086/bts_F2837
    7247                      .dwattr $C$DW$331, DW_AT_decl_line(0x89)
    7248                      .dwattr $C$DW$331, DW_AT_decl_column(0x0f)
    7249              
    7250                      .dwattr $C$DW$T$28, DW_AT_decl_file("C:/sandbox/github/Lion-IRVT/Hardware/source/tida-010086/bts_F283
    7251                      .dwattr $C$DW$T$28, DW_AT_decl_line(0x77)
    7252                      .dwattr $C$DW$T$28, DW_AT_decl_column(0x01)
    7253                      .dwendtag $C$DW$T$28
    7254              
    7255                      .dwendtag $C$DW$TU$28
    7256              
    7257              
    7258              $C$DW$TU$60     .dwtag  DW_TAG_type_unit
    7259                      .dwmtype  $C$DW$T$60
    7260              $C$DW$T$60      .dwtag  DW_TAG_typedef
    7261                      .dwattr $C$DW$T$60, DW_AT_name("BTS_userInput")
    7262                      .dwattr $C$DW$T$60, DW_AT_type(*$C$DW$T$28)
    7263                      .dwattr $C$DW$T$60, DW_AT_decl_file("C:/sandbox/github/Lion-IRVT/Hardware/source/tida-010086/bts_F283
    7264                      .dwattr $C$DW$T$60, DW_AT_decl_line(0x8b)
    7265                      .dwattr $C$DW$T$60, DW_AT_decl_column(0x02)
TMS320C2000 Assembler PC v20.2.4 Tue Mar  2 07:24:45 2021

Copyright (c) 1996-2018 Texas Instruments Incorporated
bts.asm                                                              PAGE  160

    7266              
    7267                      .dwendtag $C$DW$TU$60
    7268              
    7269              
    7270              $C$DW$TU$61     .dwtag  DW_TAG_type_unit
    7271                      .dwmtype  $C$DW$T$61
    7272              $C$DW$T$61      .dwtag  DW_TAG_pointer_type
    7273                      .dwattr $C$DW$T$61, DW_AT_type(*$C$DW$T$60)
    7274                      .dwattr $C$DW$T$61, DW_AT_address_class(0x20)
    7275              
    7276                      .dwendtag $C$DW$TU$61
    7277              
    7278              
    7279              $C$DW$TU$62     .dwtag  DW_TAG_type_unit
    7280                      .dwmtype  $C$DW$T$62
    7281              $C$DW$332       .dwtag  DW_TAG_TI_far_type
    7282                      .dwattr $C$DW$332, DW_AT_type(*$C$DW$T$61)
    7283              
    7284              $C$DW$T$62      .dwtag  DW_TAG_const_type
    7285                      .dwattr $C$DW$T$62, DW_AT_type(*$C$DW$332)
    7286              
    7287                      .dwendtag $C$DW$TU$62
    7288              
    7289              
    7290              $C$DW$TU$29     .dwtag  DW_TAG_type_unit
    7291                      .dwmtype  $C$DW$T$29
    7292              
    7293              $C$DW$T$29      .dwtag  DW_TAG_structure_type
    7294                      .dwattr $C$DW$T$29, DW_AT_byte_size(0x24)
    7295              $C$DW$333       .dwtag  DW_TAG_member
    7296                      .dwattr $C$DW$333, DW_AT_type(*$C$DW$T$19)
    7297                      .dwattr $C$DW$333, DW_AT_name("dutySet_pu")
    7298                      .dwattr $C$DW$333, DW_AT_accessibility(DW_ACCESS_public)
    7299                      .dwattr $C$DW$333, DW_AT_decl_file("C:/sandbox/github/Lion-IRVT/Hardware/source/tida-010086/bts_F2837
    7300                      .dwattr $C$DW$333, DW_AT_decl_line(0x97)
    7301                      .dwattr $C$DW$333, DW_AT_decl_column(0x0f)
    7302              
    7303              $C$DW$334       .dwtag  DW_TAG_member
    7304                      .dwattr $C$DW$334, DW_AT_type(*$C$DW$T$19)
    7305                      .dwattr $C$DW$334, DW_AT_name("dutySetRef_pu")
    7306                      .dwattr $C$DW$334, DW_AT_data_member_location[DW_OP_plus_uconst 0x2]
    7307                      .dwattr $C$DW$334, DW_AT_accessibility(DW_ACCESS_public)
    7308                      .dwattr $C$DW$334, DW_AT_decl_file("C:/sandbox/github/Lion-IRVT/Hardware/source/tida-010086/bts_F2837
    7309                      .dwattr $C$DW$334, DW_AT_decl_line(0x98)
    7310                      .dwattr $C$DW$334, DW_AT_decl_column(0x0f)
    7311              
    7312              $C$DW$335       .dwtag  DW_TAG_member
    7313                      .dwattr $C$DW$335, DW_AT_type(*$C$DW$T$19)
    7314                      .dwattr $C$DW$335, DW_AT_name("ioutRef_pu")
    7315                      .dwattr $C$DW$335, DW_AT_data_member_location[DW_OP_plus_uconst 0x4]
    7316                      .dwattr $C$DW$335, DW_AT_accessibility(DW_ACCESS_public)
    7317                      .dwattr $C$DW$335, DW_AT_decl_file("C:/sandbox/github/Lion-IRVT/Hardware/source/tida-010086/bts_F2837
    7318                      .dwattr $C$DW$335, DW_AT_decl_line(0x9a)
    7319                      .dwattr $C$DW$335, DW_AT_decl_column(0x0f)
    7320              
TMS320C2000 Assembler PC v20.2.4 Tue Mar  2 07:24:45 2021

Copyright (c) 1996-2018 Texas Instruments Incorporated
bts.asm                                                              PAGE  161

    7321              $C$DW$336       .dwtag  DW_TAG_member
    7322                      .dwattr $C$DW$336, DW_AT_type(*$C$DW$T$19)
    7323                      .dwattr $C$DW$336, DW_AT_name("ioutSet_pu")
    7324                      .dwattr $C$DW$336, DW_AT_data_member_location[DW_OP_plus_uconst 0x6]
    7325                      .dwattr $C$DW$336, DW_AT_accessibility(DW_ACCESS_public)
    7326                      .dwattr $C$DW$336, DW_AT_decl_file("C:/sandbox/github/Lion-IRVT/Hardware/source/tida-010086/bts_F2837
    7327                      .dwattr $C$DW$336, DW_AT_decl_line(0x9b)
    7328                      .dwattr $C$DW$336, DW_AT_decl_column(0x0f)
    7329              
    7330              $C$DW$337       .dwtag  DW_TAG_member
    7331                      .dwattr $C$DW$337, DW_AT_type(*$C$DW$T$19)
    7332                      .dwattr $C$DW$337, DW_AT_name("ioutSense_pu")
    7333                      .dwattr $C$DW$337, DW_AT_data_member_location[DW_OP_plus_uconst 0x8]
    7334                      .dwattr $C$DW$337, DW_AT_accessibility(DW_ACCESS_public)
    7335                      .dwattr $C$DW$337, DW_AT_decl_file("C:/sandbox/github/Lion-IRVT/Hardware/source/tida-010086/bts_F2837
    7336                      .dwattr $C$DW$337, DW_AT_decl_line(0x9c)
    7337                      .dwattr $C$DW$337, DW_AT_decl_column(0x0f)
    7338              
    7339              $C$DW$338       .dwtag  DW_TAG_member
    7340                      .dwattr $C$DW$338, DW_AT_type(*$C$DW$T$19)
    7341                      .dwattr $C$DW$338, DW_AT_name("voutRef_pu")
    7342                      .dwattr $C$DW$338, DW_AT_data_member_location[DW_OP_plus_uconst 0xa]
    7343                      .dwattr $C$DW$338, DW_AT_accessibility(DW_ACCESS_public)
    7344                      .dwattr $C$DW$338, DW_AT_decl_file("C:/sandbox/github/Lion-IRVT/Hardware/source/tida-010086/bts_F2837
    7345                      .dwattr $C$DW$338, DW_AT_decl_line(0x9e)
    7346                      .dwattr $C$DW$338, DW_AT_decl_column(0x0f)
    7347              
    7348              $C$DW$339       .dwtag  DW_TAG_member
    7349                      .dwattr $C$DW$339, DW_AT_type(*$C$DW$T$19)
    7350                      .dwattr $C$DW$339, DW_AT_name("voutSet_pu")
    7351                      .dwattr $C$DW$339, DW_AT_data_member_location[DW_OP_plus_uconst 0xc]
    7352                      .dwattr $C$DW$339, DW_AT_accessibility(DW_ACCESS_public)
    7353                      .dwattr $C$DW$339, DW_AT_decl_file("C:/sandbox/github/Lion-IRVT/Hardware/source/tida-010086/bts_F2837
    7354                      .dwattr $C$DW$339, DW_AT_decl_line(0x9f)
    7355                      .dwattr $C$DW$339, DW_AT_decl_column(0x0f)
    7356              
    7357              $C$DW$340       .dwtag  DW_TAG_member
    7358                      .dwattr $C$DW$340, DW_AT_type(*$C$DW$T$19)
    7359                      .dwattr $C$DW$340, DW_AT_name("voutSense_pu")
    7360                      .dwattr $C$DW$340, DW_AT_data_member_location[DW_OP_plus_uconst 0xe]
    7361                      .dwattr $C$DW$340, DW_AT_accessibility(DW_ACCESS_public)
    7362                      .dwattr $C$DW$340, DW_AT_decl_file("C:/sandbox/github/Lion-IRVT/Hardware/source/tida-010086/bts_F2837
    7363                      .dwattr $C$DW$340, DW_AT_decl_line(0xa0)
    7364                      .dwattr $C$DW$340, DW_AT_decl_column(0x0f)
    7365              
    7366              $C$DW$341       .dwtag  DW_TAG_member
    7367                      .dwattr $C$DW$341, DW_AT_type(*$C$DW$T$19)
    7368                      .dwattr $C$DW$341, DW_AT_name("uk_cc_pu")
    7369                      .dwattr $C$DW$341, DW_AT_data_member_location[DW_OP_plus_uconst 0x10]
    7370                      .dwattr $C$DW$341, DW_AT_accessibility(DW_ACCESS_public)
    7371                      .dwattr $C$DW$341, DW_AT_decl_file("C:/sandbox/github/Lion-IRVT/Hardware/source/tida-010086/bts_F2837
    7372                      .dwattr $C$DW$341, DW_AT_decl_line(0xa2)
    7373                      .dwattr $C$DW$341, DW_AT_decl_column(0x0f)
    7374              
    7375              $C$DW$342       .dwtag  DW_TAG_member
TMS320C2000 Assembler PC v20.2.4 Tue Mar  2 07:24:45 2021

Copyright (c) 1996-2018 Texas Instruments Incorporated
bts.asm                                                              PAGE  162

    7376                      .dwattr $C$DW$342, DW_AT_type(*$C$DW$T$19)
    7377                      .dwattr $C$DW$342, DW_AT_name("ek_cc_pu")
    7378                      .dwattr $C$DW$342, DW_AT_data_member_location[DW_OP_plus_uconst 0x12]
    7379                      .dwattr $C$DW$342, DW_AT_accessibility(DW_ACCESS_public)
    7380                      .dwattr $C$DW$342, DW_AT_decl_file("C:/sandbox/github/Lion-IRVT/Hardware/source/tida-010086/bts_F2837
    7381                      .dwattr $C$DW$342, DW_AT_decl_line(0xa3)
    7382                      .dwattr $C$DW$342, DW_AT_decl_column(0x0f)
    7383              
    7384              $C$DW$343       .dwtag  DW_TAG_member
    7385                      .dwattr $C$DW$343, DW_AT_type(*$C$DW$T$19)
    7386                      .dwattr $C$DW$343, DW_AT_name("uk_cv_pu")
    7387                      .dwattr $C$DW$343, DW_AT_data_member_location[DW_OP_plus_uconst 0x14]
    7388                      .dwattr $C$DW$343, DW_AT_accessibility(DW_ACCESS_public)
    7389                      .dwattr $C$DW$343, DW_AT_decl_file("C:/sandbox/github/Lion-IRVT/Hardware/source/tida-010086/bts_F2837
    7390                      .dwattr $C$DW$343, DW_AT_decl_line(0xa4)
    7391                      .dwattr $C$DW$343, DW_AT_decl_column(0x0f)
    7392              
    7393              $C$DW$344       .dwtag  DW_TAG_member
    7394                      .dwattr $C$DW$344, DW_AT_type(*$C$DW$T$19)
    7395                      .dwattr $C$DW$344, DW_AT_name("ek_cv_pu")
    7396                      .dwattr $C$DW$344, DW_AT_data_member_location[DW_OP_plus_uconst 0x16]
    7397                      .dwattr $C$DW$344, DW_AT_accessibility(DW_ACCESS_public)
    7398                      .dwattr $C$DW$344, DW_AT_decl_file("C:/sandbox/github/Lion-IRVT/Hardware/source/tida-010086/bts_F2837
    7399                      .dwattr $C$DW$344, DW_AT_decl_line(0xa5)
    7400                      .dwattr $C$DW$344, DW_AT_decl_column(0x0f)
    7401              
    7402              $C$DW$345       .dwtag  DW_TAG_member
    7403                      .dwattr $C$DW$345, DW_AT_type(*$C$DW$T$19)
    7404                      .dwattr $C$DW$345, DW_AT_name("direction_coeff")
    7405                      .dwattr $C$DW$345, DW_AT_data_member_location[DW_OP_plus_uconst 0x18]
    7406                      .dwattr $C$DW$345, DW_AT_accessibility(DW_ACCESS_public)
    7407                      .dwattr $C$DW$345, DW_AT_decl_file("C:/sandbox/github/Lion-IRVT/Hardware/source/tida-010086/bts_F2837
    7408                      .dwattr $C$DW$345, DW_AT_decl_line(0xa6)
    7409                      .dwattr $C$DW$345, DW_AT_decl_column(0x0f)
    7410              
    7411              $C$DW$346       .dwtag  DW_TAG_member
    7412                      .dwattr $C$DW$346, DW_AT_type(*$C$DW$T$19)
    7413                      .dwattr $C$DW$346, DW_AT_name("dutyH_pu")
    7414                      .dwattr $C$DW$346, DW_AT_data_member_location[DW_OP_plus_uconst 0x1a]
    7415                      .dwattr $C$DW$346, DW_AT_accessibility(DW_ACCESS_public)
    7416                      .dwattr $C$DW$346, DW_AT_decl_file("C:/sandbox/github/Lion-IRVT/Hardware/source/tida-010086/bts_F2837
    7417                      .dwattr $C$DW$346, DW_AT_decl_line(0xa8)
    7418                      .dwattr $C$DW$346, DW_AT_decl_column(0x0f)
    7419              
    7420              $C$DW$347       .dwtag  DW_TAG_member
    7421                      .dwattr $C$DW$347, DW_AT_type(*$C$DW$T$19)
    7422                      .dwattr $C$DW$347, DW_AT_name("dutyL_pu")
    7423                      .dwattr $C$DW$347, DW_AT_data_member_location[DW_OP_plus_uconst 0x1c]
    7424                      .dwattr $C$DW$347, DW_AT_accessibility(DW_ACCESS_public)
    7425                      .dwattr $C$DW$347, DW_AT_decl_file("C:/sandbox/github/Lion-IRVT/Hardware/source/tida-010086/bts_F2837
    7426                      .dwattr $C$DW$347, DW_AT_decl_line(0xa9)
    7427                      .dwattr $C$DW$347, DW_AT_decl_column(0x0f)
    7428              
    7429              $C$DW$348       .dwtag  DW_TAG_member
    7430                      .dwattr $C$DW$348, DW_AT_type(*$C$DW$T$26)
TMS320C2000 Assembler PC v20.2.4 Tue Mar  2 07:24:45 2021

Copyright (c) 1996-2018 Texas Instruments Incorporated
bts.asm                                                              PAGE  163

    7431                      .dwattr $C$DW$348, DW_AT_name("ctrlMode_logic")
    7432                      .dwattr $C$DW$348, DW_AT_data_member_location[DW_OP_plus_uconst 0x1e]
    7433                      .dwattr $C$DW$348, DW_AT_accessibility(DW_ACCESS_public)
    7434                      .dwattr $C$DW$348, DW_AT_decl_file("C:/sandbox/github/Lion-IRVT/Hardware/source/tida-010086/bts_F2837
    7435                      .dwattr $C$DW$348, DW_AT_decl_line(0xab)
    7436                      .dwattr $C$DW$348, DW_AT_decl_column(0x0e)
    7437              
    7438              $C$DW$349       .dwtag  DW_TAG_member
    7439                      .dwattr $C$DW$349, DW_AT_type(*$C$DW$T$26)
    7440                      .dwattr $C$DW$349, DW_AT_name("direction_logic")
    7441                      .dwattr $C$DW$349, DW_AT_data_member_location[DW_OP_plus_uconst 0x1f]
    7442                      .dwattr $C$DW$349, DW_AT_accessibility(DW_ACCESS_public)
    7443                      .dwattr $C$DW$349, DW_AT_decl_file("C:/sandbox/github/Lion-IRVT/Hardware/source/tida-010086/bts_F2837
    7444                      .dwattr $C$DW$349, DW_AT_decl_line(0xac)
    7445                      .dwattr $C$DW$349, DW_AT_decl_column(0x0e)
    7446              
    7447              $C$DW$350       .dwtag  DW_TAG_member
    7448                      .dwattr $C$DW$350, DW_AT_type(*$C$DW$T$22)
    7449                      .dwattr $C$DW$350, DW_AT_name("ioutTrip_16b")
    7450                      .dwattr $C$DW$350, DW_AT_data_member_location[DW_OP_plus_uconst 0x20]
    7451                      .dwattr $C$DW$350, DW_AT_accessibility(DW_ACCESS_public)
    7452                      .dwattr $C$DW$350, DW_AT_decl_file("C:/sandbox/github/Lion-IRVT/Hardware/source/tida-010086/bts_F2837
    7453                      .dwattr $C$DW$350, DW_AT_decl_line(0xae)
    7454                      .dwattr $C$DW$350, DW_AT_decl_column(0x0d)
    7455              
    7456              $C$DW$351       .dwtag  DW_TAG_member
    7457                      .dwattr $C$DW$351, DW_AT_type(*$C$DW$T$22)
    7458                      .dwattr $C$DW$351, DW_AT_name("ioutTrip_n_16b")
    7459                      .dwattr $C$DW$351, DW_AT_data_member_location[DW_OP_plus_uconst 0x21]
    7460                      .dwattr $C$DW$351, DW_AT_accessibility(DW_ACCESS_public)
    7461                      .dwattr $C$DW$351, DW_AT_decl_file("C:/sandbox/github/Lion-IRVT/Hardware/source/tida-010086/bts_F2837
    7462                      .dwattr $C$DW$351, DW_AT_decl_line(0xaf)
    7463                      .dwattr $C$DW$351, DW_AT_decl_column(0x0d)
    7464              
    7465              $C$DW$352       .dwtag  DW_TAG_member
    7466                      .dwattr $C$DW$352, DW_AT_type(*$C$DW$T$26)
    7467                      .dwattr $C$DW$352, DW_AT_name("tripFlag")
    7468                      .dwattr $C$DW$352, DW_AT_data_member_location[DW_OP_plus_uconst 0x22]
    7469                      .dwattr $C$DW$352, DW_AT_accessibility(DW_ACCESS_public)
    7470                      .dwattr $C$DW$352, DW_AT_decl_file("C:/sandbox/github/Lion-IRVT/Hardware/source/tida-010086/bts_F2837
    7471                      .dwattr $C$DW$352, DW_AT_decl_line(0xb0)
    7472                      .dwattr $C$DW$352, DW_AT_decl_column(0x0e)
    7473              
    7474                      .dwattr $C$DW$T$29, DW_AT_decl_file("C:/sandbox/github/Lion-IRVT/Hardware/source/tida-010086/bts_F283
    7475                      .dwattr $C$DW$T$29, DW_AT_decl_line(0x96)
    7476                      .dwattr $C$DW$T$29, DW_AT_decl_column(0x01)
    7477                      .dwendtag $C$DW$T$29
    7478              
    7479                      .dwendtag $C$DW$TU$29
    7480              
    7481              
    7482              $C$DW$TU$65     .dwtag  DW_TAG_type_unit
    7483                      .dwmtype  $C$DW$T$65
    7484              $C$DW$T$65      .dwtag  DW_TAG_typedef
    7485                      .dwattr $C$DW$T$65, DW_AT_name("BTS_ctrlLoopVariable")
TMS320C2000 Assembler PC v20.2.4 Tue Mar  2 07:24:45 2021

Copyright (c) 1996-2018 Texas Instruments Incorporated
bts.asm                                                              PAGE  164

    7486                      .dwattr $C$DW$T$65, DW_AT_type(*$C$DW$T$29)
    7487                      .dwattr $C$DW$T$65, DW_AT_decl_file("C:/sandbox/github/Lion-IRVT/Hardware/source/tida-010086/bts_F283
    7488                      .dwattr $C$DW$T$65, DW_AT_decl_line(0xb2)
    7489                      .dwattr $C$DW$T$65, DW_AT_decl_column(0x02)
    7490              
    7491                      .dwendtag $C$DW$TU$65
    7492              
    7493              
    7494              $C$DW$TU$66     .dwtag  DW_TAG_type_unit
    7495                      .dwmtype  $C$DW$T$66
    7496              $C$DW$T$66      .dwtag  DW_TAG_pointer_type
    7497                      .dwattr $C$DW$T$66, DW_AT_type(*$C$DW$T$65)
    7498                      .dwattr $C$DW$T$66, DW_AT_address_class(0x20)
    7499              
    7500                      .dwendtag $C$DW$TU$66
    7501              
    7502              
    7503              $C$DW$TU$67     .dwtag  DW_TAG_type_unit
    7504                      .dwmtype  $C$DW$T$67
    7505              $C$DW$353       .dwtag  DW_TAG_TI_far_type
    7506                      .dwattr $C$DW$353, DW_AT_type(*$C$DW$T$66)
    7507              
    7508              $C$DW$T$67      .dwtag  DW_TAG_const_type
    7509                      .dwattr $C$DW$T$67, DW_AT_type(*$C$DW$353)
    7510              
    7511                      .dwendtag $C$DW$TU$67
    7512              
    7513              
    7514              $C$DW$TU$33     .dwtag  DW_TAG_type_unit
    7515                      .dwmtype  $C$DW$T$33
    7516              
    7517              $C$DW$T$33      .dwtag  DW_TAG_structure_type
    7518                      .dwattr $C$DW$T$33, DW_AT_byte_size(0x52)
    7519              $C$DW$354       .dwtag  DW_TAG_member
    7520                      .dwattr $C$DW$354, DW_AT_type(*$C$DW$T$19)
    7521                      .dwattr $C$DW$354, DW_AT_name("Isense_A")
    7522                      .dwattr $C$DW$354, DW_AT_accessibility(DW_ACCESS_public)
    7523                      .dwattr $C$DW$354, DW_AT_decl_file("C:/sandbox/github/Lion-IRVT/Hardware/source/tida-010086/bts_F2837
    7524                      .dwattr $C$DW$354, DW_AT_decl_line(0x5f)
    7525                      .dwattr $C$DW$354, DW_AT_decl_column(0x0f)
    7526              
    7527              $C$DW$355       .dwtag  DW_TAG_member
    7528                      .dwattr $C$DW$355, DW_AT_type(*$C$DW$T$19)
    7529                      .dwattr $C$DW$355, DW_AT_name("Vsense_V")
    7530                      .dwattr $C$DW$355, DW_AT_data_member_location[DW_OP_plus_uconst 0x2]
    7531                      .dwattr $C$DW$355, DW_AT_accessibility(DW_ACCESS_public)
    7532                      .dwattr $C$DW$355, DW_AT_decl_file("C:/sandbox/github/Lion-IRVT/Hardware/source/tida-010086/bts_F2837
    7533                      .dwattr $C$DW$355, DW_AT_decl_line(0x60)
    7534                      .dwattr $C$DW$355, DW_AT_decl_column(0x0f)
    7535              
    7536              $C$DW$356       .dwtag  DW_TAG_member
    7537                      .dwattr $C$DW$356, DW_AT_type(*$C$DW$T$30)
    7538                      .dwattr $C$DW$356, DW_AT_name("Isense_16b")
    7539                      .dwattr $C$DW$356, DW_AT_data_member_location[DW_OP_plus_uconst 0x4]
    7540                      .dwattr $C$DW$356, DW_AT_accessibility(DW_ACCESS_public)
TMS320C2000 Assembler PC v20.2.4 Tue Mar  2 07:24:45 2021

Copyright (c) 1996-2018 Texas Instruments Incorporated
bts.asm                                                              PAGE  165

    7541                      .dwattr $C$DW$356, DW_AT_decl_file("C:/sandbox/github/Lion-IRVT/Hardware/source/tida-010086/bts_F2837
    7542                      .dwattr $C$DW$356, DW_AT_decl_line(0x61)
    7543                      .dwattr $C$DW$356, DW_AT_decl_column(0x0d)
    7544              
    7545              $C$DW$357       .dwtag  DW_TAG_member
    7546                      .dwattr $C$DW$357, DW_AT_type(*$C$DW$T$30)
    7547                      .dwattr $C$DW$357, DW_AT_name("Vsense_16b")
    7548                      .dwattr $C$DW$357, DW_AT_data_member_location[DW_OP_plus_uconst 0x24]
    7549                      .dwattr $C$DW$357, DW_AT_accessibility(DW_ACCESS_public)
    7550                      .dwattr $C$DW$357, DW_AT_decl_file("C:/sandbox/github/Lion-IRVT/Hardware/source/tida-010086/bts_F2837
    7551                      .dwattr $C$DW$357, DW_AT_decl_line(0x62)
    7552                      .dwattr $C$DW$357, DW_AT_decl_column(0x0d)
    7553              
    7554              $C$DW$358       .dwtag  DW_TAG_member
    7555                      .dwattr $C$DW$358, DW_AT_type(*$C$DW$T$32)
    7556                      .dwattr $C$DW$358, DW_AT_name("Sum_I")
    7557                      .dwattr $C$DW$358, DW_AT_data_member_location[DW_OP_plus_uconst 0x44]
    7558                      .dwattr $C$DW$358, DW_AT_accessibility(DW_ACCESS_public)
    7559                      .dwattr $C$DW$358, DW_AT_decl_file("C:/sandbox/github/Lion-IRVT/Hardware/source/tida-010086/bts_F2837
    7560                      .dwattr $C$DW$358, DW_AT_decl_line(0x63)
    7561                      .dwattr $C$DW$358, DW_AT_decl_column(0x0d)
    7562              
    7563              $C$DW$359       .dwtag  DW_TAG_member
    7564                      .dwattr $C$DW$359, DW_AT_type(*$C$DW$T$32)
    7565                      .dwattr $C$DW$359, DW_AT_name("Sum_V")
    7566                      .dwattr $C$DW$359, DW_AT_data_member_location[DW_OP_plus_uconst 0x46]
    7567                      .dwattr $C$DW$359, DW_AT_accessibility(DW_ACCESS_public)
    7568                      .dwattr $C$DW$359, DW_AT_decl_file("C:/sandbox/github/Lion-IRVT/Hardware/source/tida-010086/bts_F2837
    7569                      .dwattr $C$DW$359, DW_AT_decl_line(0x64)
    7570                      .dwattr $C$DW$359, DW_AT_decl_column(0x0d)
    7571              
    7572              $C$DW$360       .dwtag  DW_TAG_member
    7573                      .dwattr $C$DW$360, DW_AT_type(*$C$DW$T$26)
    7574                      .dwattr $C$DW$360, DW_AT_name("Index")
    7575                      .dwattr $C$DW$360, DW_AT_data_member_location[DW_OP_plus_uconst 0x48]
    7576                      .dwattr $C$DW$360, DW_AT_accessibility(DW_ACCESS_public)
    7577                      .dwattr $C$DW$360, DW_AT_decl_file("C:/sandbox/github/Lion-IRVT/Hardware/source/tida-010086/bts_F2837
    7578                      .dwattr $C$DW$360, DW_AT_decl_line(0x65)
    7579                      .dwattr $C$DW$360, DW_AT_decl_column(0x0e)
    7580              
    7581              $C$DW$361       .dwtag  DW_TAG_member
    7582                      .dwattr $C$DW$361, DW_AT_type(*$C$DW$T$19)
    7583                      .dwattr $C$DW$361, DW_AT_name("IoutGain_A")
    7584                      .dwattr $C$DW$361, DW_AT_data_member_location[DW_OP_plus_uconst 0x4a]
    7585                      .dwattr $C$DW$361, DW_AT_accessibility(DW_ACCESS_public)
    7586                      .dwattr $C$DW$361, DW_AT_decl_file("C:/sandbox/github/Lion-IRVT/Hardware/source/tida-010086/bts_F2837
    7587                      .dwattr $C$DW$361, DW_AT_decl_line(0x66)
    7588                      .dwattr $C$DW$361, DW_AT_decl_column(0x0f)
    7589              
    7590              $C$DW$362       .dwtag  DW_TAG_member
    7591                      .dwattr $C$DW$362, DW_AT_type(*$C$DW$T$19)
    7592                      .dwattr $C$DW$362, DW_AT_name("IoutOffset_A")
    7593                      .dwattr $C$DW$362, DW_AT_data_member_location[DW_OP_plus_uconst 0x4c]
    7594                      .dwattr $C$DW$362, DW_AT_accessibility(DW_ACCESS_public)
    7595                      .dwattr $C$DW$362, DW_AT_decl_file("C:/sandbox/github/Lion-IRVT/Hardware/source/tida-010086/bts_F2837
TMS320C2000 Assembler PC v20.2.4 Tue Mar  2 07:24:45 2021

Copyright (c) 1996-2018 Texas Instruments Incorporated
bts.asm                                                              PAGE  166

    7596                      .dwattr $C$DW$362, DW_AT_decl_line(0x67)
    7597                      .dwattr $C$DW$362, DW_AT_decl_column(0x0f)
    7598              
    7599              $C$DW$363       .dwtag  DW_TAG_member
    7600                      .dwattr $C$DW$363, DW_AT_type(*$C$DW$T$19)
    7601                      .dwattr $C$DW$363, DW_AT_name("VoutGain_V")
    7602                      .dwattr $C$DW$363, DW_AT_data_member_location[DW_OP_plus_uconst 0x4e]
    7603                      .dwattr $C$DW$363, DW_AT_accessibility(DW_ACCESS_public)
    7604                      .dwattr $C$DW$363, DW_AT_decl_file("C:/sandbox/github/Lion-IRVT/Hardware/source/tida-010086/bts_F2837
    7605                      .dwattr $C$DW$363, DW_AT_decl_line(0x68)
    7606                      .dwattr $C$DW$363, DW_AT_decl_column(0x0f)
    7607              
    7608              $C$DW$364       .dwtag  DW_TAG_member
    7609                      .dwattr $C$DW$364, DW_AT_type(*$C$DW$T$19)
    7610                      .dwattr $C$DW$364, DW_AT_name("VoutOffset_V")
    7611                      .dwattr $C$DW$364, DW_AT_data_member_location[DW_OP_plus_uconst 0x50]
    7612                      .dwattr $C$DW$364, DW_AT_accessibility(DW_ACCESS_public)
    7613                      .dwattr $C$DW$364, DW_AT_decl_file("C:/sandbox/github/Lion-IRVT/Hardware/source/tida-010086/bts_F2837
    7614                      .dwattr $C$DW$364, DW_AT_decl_line(0x69)
    7615                      .dwattr $C$DW$364, DW_AT_decl_column(0x0f)
    7616              
    7617                      .dwattr $C$DW$T$33, DW_AT_decl_file("C:/sandbox/github/Lion-IRVT/Hardware/source/tida-010086/bts_F283
    7618                      .dwattr $C$DW$T$33, DW_AT_decl_line(0x5e)
    7619                      .dwattr $C$DW$T$33, DW_AT_decl_column(0x01)
    7620                      .dwendtag $C$DW$T$33
    7621              
    7622                      .dwendtag $C$DW$TU$33
    7623              
    7624              
    7625              $C$DW$TU$70     .dwtag  DW_TAG_type_unit
    7626                      .dwmtype  $C$DW$T$70
    7627              $C$DW$T$70      .dwtag  DW_TAG_typedef
    7628                      .dwattr $C$DW$T$70, DW_AT_name("BTS_measValues")
    7629                      .dwattr $C$DW$T$70, DW_AT_type(*$C$DW$T$33)
    7630                      .dwattr $C$DW$T$70, DW_AT_decl_file("C:/sandbox/github/Lion-IRVT/Hardware/source/tida-010086/bts_F283
    7631                      .dwattr $C$DW$T$70, DW_AT_decl_line(0x6b)
    7632                      .dwattr $C$DW$T$70, DW_AT_decl_column(0x02)
    7633              
    7634                      .dwendtag $C$DW$TU$70
    7635              
    7636              
    7637              $C$DW$TU$71     .dwtag  DW_TAG_type_unit
    7638                      .dwmtype  $C$DW$T$71
    7639              $C$DW$T$71      .dwtag  DW_TAG_pointer_type
    7640                      .dwattr $C$DW$T$71, DW_AT_type(*$C$DW$T$70)
    7641                      .dwattr $C$DW$T$71, DW_AT_address_class(0x20)
    7642              
    7643                      .dwendtag $C$DW$TU$71
    7644              
    7645              
    7646              $C$DW$TU$72     .dwtag  DW_TAG_type_unit
    7647                      .dwmtype  $C$DW$T$72
    7648              $C$DW$365       .dwtag  DW_TAG_TI_far_type
    7649                      .dwattr $C$DW$365, DW_AT_type(*$C$DW$T$71)
    7650              
TMS320C2000 Assembler PC v20.2.4 Tue Mar  2 07:24:45 2021

Copyright (c) 1996-2018 Texas Instruments Incorporated
bts.asm                                                              PAGE  167

    7651              $C$DW$T$72      .dwtag  DW_TAG_const_type
    7652                      .dwattr $C$DW$T$72, DW_AT_type(*$C$DW$365)
    7653              
    7654                      .dwendtag $C$DW$TU$72
    7655              
    7656              
    7657              $C$DW$TU$35     .dwtag  DW_TAG_type_unit
    7658                      .dwmtype  $C$DW$T$35
    7659              
    7660              $C$DW$T$35      .dwtag  DW_TAG_structure_type
    7661                      .dwattr $C$DW$T$35, DW_AT_byte_size(0x406)
    7662              $C$DW$366       .dwtag  DW_TAG_member
    7663                      .dwattr $C$DW$366, DW_AT_type(*$C$DW$T$34)
    7664                      .dwattr $C$DW$366, DW_AT_name("plantMagVect")
    7665                      .dwattr $C$DW$366, DW_AT_accessibility(DW_ACCESS_public)
    7666                      .dwattr $C$DW$366, DW_AT_decl_file("C:/sandbox/github/Lion-IRVT/Hardware/source/tida-010086/bts_F2837
    7667                      .dwattr $C$DW$366, DW_AT_decl_line(0x149)
    7668                      .dwattr $C$DW$366, DW_AT_decl_column(0x14)
    7669              
    7670              $C$DW$367       .dwtag  DW_TAG_member
    7671                      .dwattr $C$DW$367, DW_AT_type(*$C$DW$T$34)
    7672                      .dwattr $C$DW$367, DW_AT_name("plantPhaseVect")
    7673                      .dwattr $C$DW$367, DW_AT_data_member_location[DW_OP_plus_uconst 0xce]
    7674                      .dwattr $C$DW$367, DW_AT_accessibility(DW_ACCESS_public)
    7675                      .dwattr $C$DW$367, DW_AT_decl_file("C:/sandbox/github/Lion-IRVT/Hardware/source/tida-010086/bts_F2837
    7676                      .dwattr $C$DW$367, DW_AT_decl_line(0x14a)
    7677                      .dwattr $C$DW$367, DW_AT_decl_column(0x14)
    7678              
    7679              $C$DW$368       .dwtag  DW_TAG_member
    7680                      .dwattr $C$DW$368, DW_AT_type(*$C$DW$T$34)
    7681                      .dwattr $C$DW$368, DW_AT_name("olMagVect")
    7682                      .dwattr $C$DW$368, DW_AT_data_member_location[DW_OP_plus_uconst 0x19c]
    7683                      .dwattr $C$DW$368, DW_AT_accessibility(DW_ACCESS_public)
    7684                      .dwattr $C$DW$368, DW_AT_decl_file("C:/sandbox/github/Lion-IRVT/Hardware/source/tida-010086/bts_F2837
    7685                      .dwattr $C$DW$368, DW_AT_decl_line(0x14b)
    7686                      .dwattr $C$DW$368, DW_AT_decl_column(0x14)
    7687              
    7688              $C$DW$369       .dwtag  DW_TAG_member
    7689                      .dwattr $C$DW$369, DW_AT_type(*$C$DW$T$34)
    7690                      .dwattr $C$DW$369, DW_AT_name("olPhaseVect")
    7691                      .dwattr $C$DW$369, DW_AT_data_member_location[DW_OP_plus_uconst 0x26a]
    7692                      .dwattr $C$DW$369, DW_AT_accessibility(DW_ACCESS_public)
    7693                      .dwattr $C$DW$369, DW_AT_decl_file("C:/sandbox/github/Lion-IRVT/Hardware/source/tida-010086/bts_F2837
    7694                      .dwattr $C$DW$369, DW_AT_decl_line(0x14c)
    7695                      .dwattr $C$DW$369, DW_AT_decl_column(0x14)
    7696              
    7697              $C$DW$370       .dwtag  DW_TAG_member
    7698                      .dwattr $C$DW$370, DW_AT_type(*$C$DW$T$34)
    7699                      .dwattr $C$DW$370, DW_AT_name("freqVect")
    7700                      .dwattr $C$DW$370, DW_AT_data_member_location[DW_OP_plus_uconst 0x338]
    7701                      .dwattr $C$DW$370, DW_AT_accessibility(DW_ACCESS_public)
    7702                      .dwattr $C$DW$370, DW_AT_decl_file("C:/sandbox/github/Lion-IRVT/Hardware/source/tida-010086/bts_F2837
    7703                      .dwattr $C$DW$370, DW_AT_decl_line(0x14d)
    7704                      .dwattr $C$DW$370, DW_AT_decl_column(0x14)
    7705              
TMS320C2000 Assembler PC v20.2.4 Tue Mar  2 07:24:45 2021

Copyright (c) 1996-2018 Texas Instruments Incorporated
bts.asm                                                              PAGE  168

    7706                      .dwattr $C$DW$T$35, DW_AT_decl_file("C:/sandbox/github/Lion-IRVT/Hardware/source/tida-010086/bts_F283
    7707                      .dwattr $C$DW$T$35, DW_AT_decl_line(0x148)
    7708                      .dwattr $C$DW$T$35, DW_AT_decl_column(0x14)
    7709                      .dwendtag $C$DW$T$35
    7710              
    7711                      .dwendtag $C$DW$TU$35
    7712              
    7713              
    7714              $C$DW$TU$75     .dwtag  DW_TAG_type_unit
    7715                      .dwmtype  $C$DW$T$75
    7716              $C$DW$T$75      .dwtag  DW_TAG_typedef
    7717                      .dwattr $C$DW$T$75, DW_AT_name("BTS_SfraDataType")
    7718                      .dwattr $C$DW$T$75, DW_AT_type(*$C$DW$T$35)
    7719                      .dwattr $C$DW$T$75, DW_AT_decl_file("C:/sandbox/github/Lion-IRVT/Hardware/source/tida-010086/bts_F283
    7720                      .dwattr $C$DW$T$75, DW_AT_decl_line(0x14e)
    7721                      .dwattr $C$DW$T$75, DW_AT_decl_column(0x07)
    7722              
    7723                      .dwendtag $C$DW$TU$75
    7724              
    7725              
    7726              $C$DW$TU$41     .dwtag  DW_TAG_type_unit
    7727                      .dwmtype  $C$DW$T$41
    7728              
    7729              $C$DW$T$41      .dwtag  DW_TAG_structure_type
    7730                      .dwattr $C$DW$T$41, DW_AT_name("I2CHandle")
    7731                      .dwattr $C$DW$T$41, DW_AT_byte_size(0x12)
    7732              $C$DW$371       .dwtag  DW_TAG_member
    7733                      .dwattr $C$DW$371, DW_AT_type(*$C$DW$T$37)
    7734                      .dwattr $C$DW$371, DW_AT_name("base")
    7735                      .dwattr $C$DW$371, DW_AT_accessibility(DW_ACCESS_public)
    7736                      .dwattr $C$DW$371, DW_AT_decl_file("C:\sandbox\github\Lion-IRVT\Hardware\source\tida-010086\bts_F2837
    7737                      .dwattr $C$DW$371, DW_AT_decl_line(0x48)
    7738                      .dwattr $C$DW$371, DW_AT_decl_column(0x0e)
    7739              
    7740              $C$DW$372       .dwtag  DW_TAG_member
    7741                      .dwattr $C$DW$372, DW_AT_type(*$C$DW$T$26)
    7742                      .dwattr $C$DW$372, DW_AT_name("SlaveAddr")
    7743                      .dwattr $C$DW$372, DW_AT_data_member_location[DW_OP_plus_uconst 0x2]
    7744                      .dwattr $C$DW$372, DW_AT_accessibility(DW_ACCESS_public)
    7745                      .dwattr $C$DW$372, DW_AT_decl_file("C:\sandbox\github\Lion-IRVT\Hardware\source\tida-010086\bts_F2837
    7746                      .dwattr $C$DW$372, DW_AT_decl_line(0x49)
    7747                      .dwattr $C$DW$372, DW_AT_decl_column(0x0e)
    7748              
    7749              $C$DW$373       .dwtag  DW_TAG_member
    7750                      .dwattr $C$DW$373, DW_AT_type(*$C$DW$T$38)
    7751                      .dwattr $C$DW$373, DW_AT_name("pControlAddr")
    7752                      .dwattr $C$DW$373, DW_AT_data_member_location[DW_OP_plus_uconst 0x4]
    7753                      .dwattr $C$DW$373, DW_AT_accessibility(DW_ACCESS_public)
    7754                      .dwattr $C$DW$373, DW_AT_decl_file("C:\sandbox\github\Lion-IRVT\Hardware\source\tida-010086\bts_F2837
    7755                      .dwattr $C$DW$373, DW_AT_decl_line(0x4a)
    7756                      .dwattr $C$DW$373, DW_AT_decl_column(0x0f)
    7757              
    7758              $C$DW$374       .dwtag  DW_TAG_member
    7759                      .dwattr $C$DW$374, DW_AT_type(*$C$DW$T$26)
    7760                      .dwattr $C$DW$374, DW_AT_name("NumOfAddrBytes")
TMS320C2000 Assembler PC v20.2.4 Tue Mar  2 07:24:45 2021

Copyright (c) 1996-2018 Texas Instruments Incorporated
bts.asm                                                              PAGE  169

    7761                      .dwattr $C$DW$374, DW_AT_data_member_location[DW_OP_plus_uconst 0x6]
    7762                      .dwattr $C$DW$374, DW_AT_accessibility(DW_ACCESS_public)
    7763                      .dwattr $C$DW$374, DW_AT_decl_file("C:\sandbox\github\Lion-IRVT\Hardware\source\tida-010086\bts_F2837
    7764                      .dwattr $C$DW$374, DW_AT_decl_line(0x4b)
    7765                      .dwattr $C$DW$374, DW_AT_decl_column(0x0e)
    7766              
    7767              $C$DW$375       .dwtag  DW_TAG_member
    7768                      .dwattr $C$DW$375, DW_AT_type(*$C$DW$T$39)
    7769                      .dwattr $C$DW$375, DW_AT_name("pTX_MsgBuffer")
    7770                      .dwattr $C$DW$375, DW_AT_data_member_location[DW_OP_plus_uconst 0x8]
    7771                      .dwattr $C$DW$375, DW_AT_accessibility(DW_ACCESS_public)
    7772                      .dwattr $C$DW$375, DW_AT_decl_file("C:\sandbox\github\Lion-IRVT\Hardware\source\tida-010086\bts_F2837
    7773                      .dwattr $C$DW$375, DW_AT_decl_line(0x4c)
    7774                      .dwattr $C$DW$375, DW_AT_decl_column(0x0f)
    7775              
    7776              $C$DW$376       .dwtag  DW_TAG_member
    7777                      .dwattr $C$DW$376, DW_AT_type(*$C$DW$T$39)
    7778                      .dwattr $C$DW$376, DW_AT_name("pRX_MsgBuffer")
    7779                      .dwattr $C$DW$376, DW_AT_data_member_location[DW_OP_plus_uconst 0xa]
    7780                      .dwattr $C$DW$376, DW_AT_accessibility(DW_ACCESS_public)
    7781                      .dwattr $C$DW$376, DW_AT_decl_file("C:\sandbox\github\Lion-IRVT\Hardware\source\tida-010086\bts_F2837
    7782                      .dwattr $C$DW$376, DW_AT_decl_line(0x4d)
    7783                      .dwattr $C$DW$376, DW_AT_decl_column(0x0f)
    7784              
    7785              $C$DW$377       .dwtag  DW_TAG_member
    7786                      .dwattr $C$DW$377, DW_AT_type(*$C$DW$T$26)
    7787                      .dwattr $C$DW$377, DW_AT_name("NumOfDataBytes")
    7788                      .dwattr $C$DW$377, DW_AT_data_member_location[DW_OP_plus_uconst 0xc]
    7789                      .dwattr $C$DW$377, DW_AT_accessibility(DW_ACCESS_public)
    7790                      .dwattr $C$DW$377, DW_AT_decl_file("C:\sandbox\github\Lion-IRVT\Hardware\source\tida-010086\bts_F2837
    7791                      .dwattr $C$DW$377, DW_AT_decl_line(0x4e)
    7792                      .dwattr $C$DW$377, DW_AT_decl_column(0x0e)
    7793              
    7794              $C$DW$378       .dwtag  DW_TAG_member
    7795                      .dwattr $C$DW$378, DW_AT_type(*$C$DW$T$40)
    7796                      .dwattr $C$DW$378, DW_AT_name("currentHandlePtr")
    7797                      .dwattr $C$DW$378, DW_AT_data_member_location[DW_OP_plus_uconst 0xe]
    7798                      .dwattr $C$DW$378, DW_AT_accessibility(DW_ACCESS_public)
    7799                      .dwattr $C$DW$378, DW_AT_decl_file("C:\sandbox\github\Lion-IRVT\Hardware\source\tida-010086\bts_F2837
    7800                      .dwattr $C$DW$378, DW_AT_decl_line(0x4f)
    7801                      .dwattr $C$DW$378, DW_AT_decl_column(0x17)
    7802              
    7803              $C$DW$379       .dwtag  DW_TAG_member
    7804                      .dwattr $C$DW$379, DW_AT_type(*$C$DW$T$26)
    7805                      .dwattr $C$DW$379, DW_AT_name("numofSixteenByte")
    7806                      .dwattr $C$DW$379, DW_AT_data_member_location[DW_OP_plus_uconst 0x10]
    7807                      .dwattr $C$DW$379, DW_AT_accessibility(DW_ACCESS_public)
    7808                      .dwattr $C$DW$379, DW_AT_decl_file("C:\sandbox\github\Lion-IRVT\Hardware\source\tida-010086\bts_F2837
    7809                      .dwattr $C$DW$379, DW_AT_decl_line(0x51)
    7810                      .dwattr $C$DW$379, DW_AT_decl_column(0x0e)
    7811              
    7812              $C$DW$380       .dwtag  DW_TAG_member
    7813                      .dwattr $C$DW$380, DW_AT_type(*$C$DW$T$26)
    7814                      .dwattr $C$DW$380, DW_AT_name("remainingBytes")
    7815                      .dwattr $C$DW$380, DW_AT_data_member_location[DW_OP_plus_uconst 0x11]
TMS320C2000 Assembler PC v20.2.4 Tue Mar  2 07:24:45 2021

Copyright (c) 1996-2018 Texas Instruments Incorporated
bts.asm                                                              PAGE  170

    7816                      .dwattr $C$DW$380, DW_AT_accessibility(DW_ACCESS_public)
    7817                      .dwattr $C$DW$380, DW_AT_decl_file("C:\sandbox\github\Lion-IRVT\Hardware\source\tida-010086\bts_F2837
    7818                      .dwattr $C$DW$380, DW_AT_decl_line(0x52)
    7819                      .dwattr $C$DW$380, DW_AT_decl_column(0x0e)
    7820              
    7821                      .dwattr $C$DW$T$41, DW_AT_decl_file("C:\sandbox\github\Lion-IRVT\Hardware\source\tida-010086\bts_F283
    7822                      .dwattr $C$DW$T$41, DW_AT_decl_line(0x46)
    7823                      .dwattr $C$DW$T$41, DW_AT_decl_column(0x08)
    7824                      .dwendtag $C$DW$T$41
    7825              
    7826                      .dwendtag $C$DW$TU$41
    7827              
    7828              
    7829              $C$DW$TU$40     .dwtag  DW_TAG_type_unit
    7830                      .dwmtype  $C$DW$T$40
    7831              $C$DW$T$40      .dwtag  DW_TAG_pointer_type
    7832                      .dwattr $C$DW$T$40, DW_AT_type(*$C$DW$T$41)
    7833                      .dwattr $C$DW$T$40, DW_AT_address_class(0x20)
    7834              
    7835                      .dwendtag $C$DW$TU$40
    7836              
    7837              
    7838              $C$DW$TU$43     .dwtag  DW_TAG_type_unit
    7839                      .dwmtype  $C$DW$T$43
    7840              
    7841              $C$DW$T$43      .dwtag  DW_TAG_structure_type
    7842                      .dwattr $C$DW$T$43, DW_AT_name("_Complex_double")
    7843                      .dwattr $C$DW$T$43, DW_AT_byte_size(0x08)
    7844              $C$DW$381       .dwtag  DW_TAG_member
    7845                      .dwattr $C$DW$381, DW_AT_type(*$C$DW$T$42)
    7846                      .dwattr $C$DW$381, DW_AT_name("_Vals")
    7847                      .dwattr $C$DW$381, DW_AT_accessibility(DW_ACCESS_public)
    7848                      .dwattr $C$DW$381, DW_AT_decl_file("C:\sandbox\github\Lion-IRVT\Hardware\source\tida-010086\bts_F2837
    7849                      .dwattr $C$DW$381, DW_AT_decl_line(0xe9)
    7850                      .dwattr $C$DW$381, DW_AT_decl_column(0x18)
    7851              
    7852                      .dwendtag $C$DW$T$43
    7853              
    7854                      .dwendtag $C$DW$TU$43
    7855              
    7856              
    7857              $C$DW$TU$77     .dwtag  DW_TAG_type_unit
    7858                      .dwmtype  $C$DW$T$77
    7859              $C$DW$T$77      .dwtag  DW_TAG_typedef
    7860                      .dwattr $C$DW$T$77, DW_AT_name("_Complex_double")
    7861                      .dwattr $C$DW$T$77, DW_AT_type(*$C$DW$T$43)
    7862                      .dwattr $C$DW$T$77, DW_AT_decl_file("C:\sandbox\github\Lion-IRVT\Hardware\source\tida-010086\bts_F283
    7863                      .dwattr $C$DW$T$77, DW_AT_decl_line(0xe9)
    7864                      .dwattr $C$DW$T$77, DW_AT_decl_column(0x18)
    7865              
    7866                      .dwendtag $C$DW$TU$77
    7867              
    7868              
    7869              $C$DW$TU$45     .dwtag  DW_TAG_type_unit
    7870                      .dwmtype  $C$DW$T$45
TMS320C2000 Assembler PC v20.2.4 Tue Mar  2 07:24:45 2021

Copyright (c) 1996-2018 Texas Instruments Incorporated
bts.asm                                                              PAGE  171

    7871              
    7872              $C$DW$T$45      .dwtag  DW_TAG_structure_type
    7873                      .dwattr $C$DW$T$45, DW_AT_name("_Complex_float")
    7874                      .dwattr $C$DW$T$45, DW_AT_byte_size(0x04)
    7875              $C$DW$382       .dwtag  DW_TAG_member
    7876                      .dwattr $C$DW$382, DW_AT_type(*$C$DW$T$44)
    7877                      .dwattr $C$DW$382, DW_AT_name("_Vals")
    7878                      .dwattr $C$DW$382, DW_AT_accessibility(DW_ACCESS_public)
    7879                      .dwattr $C$DW$382, DW_AT_decl_file("C:\sandbox\github\Lion-IRVT\Hardware\source\tida-010086\bts_F2837
    7880                      .dwattr $C$DW$382, DW_AT_decl_line(0xe9)
    7881                      .dwattr $C$DW$382, DW_AT_decl_column(0x18)
    7882              
    7883                      .dwendtag $C$DW$T$45
    7884              
    7885                      .dwendtag $C$DW$TU$45
    7886              
    7887              
    7888              $C$DW$TU$78     .dwtag  DW_TAG_type_unit
    7889                      .dwmtype  $C$DW$T$78
    7890              $C$DW$T$78      .dwtag  DW_TAG_typedef
    7891                      .dwattr $C$DW$T$78, DW_AT_name("_Complex_float")
    7892                      .dwattr $C$DW$T$78, DW_AT_type(*$C$DW$T$45)
    7893                      .dwattr $C$DW$T$78, DW_AT_decl_file("C:\sandbox\github\Lion-IRVT\Hardware\source\tida-010086\bts_F283
    7894                      .dwattr $C$DW$T$78, DW_AT_decl_line(0xe9)
    7895                      .dwattr $C$DW$T$78, DW_AT_decl_column(0x18)
    7896              
    7897                      .dwendtag $C$DW$TU$78
    7898              
    7899              
    7900              $C$DW$TU$47     .dwtag  DW_TAG_type_unit
    7901                      .dwmtype  $C$DW$T$47
    7902              
    7903              $C$DW$T$47      .dwtag  DW_TAG_structure_type
    7904                      .dwattr $C$DW$T$47, DW_AT_name("_Complex_long_double")
    7905                      .dwattr $C$DW$T$47, DW_AT_byte_size(0x08)
    7906              $C$DW$383       .dwtag  DW_TAG_member
    7907                      .dwattr $C$DW$383, DW_AT_type(*$C$DW$T$46)
    7908                      .dwattr $C$DW$383, DW_AT_name("_Vals")
    7909                      .dwattr $C$DW$383, DW_AT_accessibility(DW_ACCESS_public)
    7910                      .dwattr $C$DW$383, DW_AT_decl_file("C:\sandbox\github\Lion-IRVT\Hardware\source\tida-010086\bts_F2837
    7911                      .dwattr $C$DW$383, DW_AT_decl_line(0xe9)
    7912                      .dwattr $C$DW$383, DW_AT_decl_column(0x18)
    7913              
    7914                      .dwendtag $C$DW$T$47
    7915              
    7916                      .dwendtag $C$DW$TU$47
    7917              
    7918              
    7919              $C$DW$TU$80     .dwtag  DW_TAG_type_unit
    7920                      .dwmtype  $C$DW$T$80
    7921              $C$DW$T$80      .dwtag  DW_TAG_typedef
    7922                      .dwattr $C$DW$T$80, DW_AT_name("_Complex_long_double")
    7923                      .dwattr $C$DW$T$80, DW_AT_type(*$C$DW$T$47)
    7924                      .dwattr $C$DW$T$80, DW_AT_decl_file("C:\sandbox\github\Lion-IRVT\Hardware\source\tida-010086\bts_F283
    7925                      .dwattr $C$DW$T$80, DW_AT_decl_line(0xe9)
TMS320C2000 Assembler PC v20.2.4 Tue Mar  2 07:24:45 2021

Copyright (c) 1996-2018 Texas Instruments Incorporated
bts.asm                                                              PAGE  172

    7926                      .dwattr $C$DW$T$80, DW_AT_decl_column(0x18)
    7927              
    7928                      .dwendtag $C$DW$TU$80
    7929              
    7930              
    7931              $C$DW$TU$2      .dwtag  DW_TAG_type_unit
    7932                      .dwmtype  $C$DW$T$2
    7933              $C$DW$T$2       .dwtag  DW_TAG_unspecified_type
    7934                      .dwattr $C$DW$T$2, DW_AT_name("void")
    7935              
    7936                      .dwendtag $C$DW$TU$2
    7937              
    7938              
    7939              $C$DW$TU$4      .dwtag  DW_TAG_type_unit
    7940                      .dwmtype  $C$DW$T$4
    7941              $C$DW$T$4       .dwtag  DW_TAG_base_type
    7942                      .dwattr $C$DW$T$4, DW_AT_encoding(DW_ATE_boolean)
    7943                      .dwattr $C$DW$T$4, DW_AT_name("bool")
    7944                      .dwattr $C$DW$T$4, DW_AT_byte_size(0x01)
    7945              
    7946                      .dwendtag $C$DW$TU$4
    7947              
    7948              
    7949              $C$DW$TU$5      .dwtag  DW_TAG_type_unit
    7950                      .dwmtype  $C$DW$T$5
    7951              $C$DW$T$5       .dwtag  DW_TAG_base_type
    7952                      .dwattr $C$DW$T$5, DW_AT_encoding(DW_ATE_signed_char)
    7953                      .dwattr $C$DW$T$5, DW_AT_name("signed char")
    7954                      .dwattr $C$DW$T$5, DW_AT_byte_size(0x01)
    7955              
    7956                      .dwendtag $C$DW$TU$5
    7957              
    7958              
    7959              $C$DW$TU$6      .dwtag  DW_TAG_type_unit
    7960                      .dwmtype  $C$DW$T$6
    7961              $C$DW$T$6       .dwtag  DW_TAG_base_type
    7962                      .dwattr $C$DW$T$6, DW_AT_encoding(DW_ATE_unsigned_char)
    7963                      .dwattr $C$DW$T$6, DW_AT_name("unsigned char")
    7964                      .dwattr $C$DW$T$6, DW_AT_byte_size(0x01)
    7965              
    7966                      .dwendtag $C$DW$TU$6
    7967              
    7968              
    7969              $C$DW$TU$7      .dwtag  DW_TAG_type_unit
    7970                      .dwmtype  $C$DW$T$7
    7971              $C$DW$T$7       .dwtag  DW_TAG_base_type
    7972                      .dwattr $C$DW$T$7, DW_AT_encoding(DW_ATE_signed_char)
    7973                      .dwattr $C$DW$T$7, DW_AT_name("wchar_t")
    7974                      .dwattr $C$DW$T$7, DW_AT_byte_size(0x02)
    7975              
    7976                      .dwendtag $C$DW$TU$7
    7977              
    7978              
    7979              $C$DW$TU$8      .dwtag  DW_TAG_type_unit
    7980                      .dwmtype  $C$DW$T$8
TMS320C2000 Assembler PC v20.2.4 Tue Mar  2 07:24:45 2021

Copyright (c) 1996-2018 Texas Instruments Incorporated
bts.asm                                                              PAGE  173

    7981              $C$DW$T$8       .dwtag  DW_TAG_base_type
    7982                      .dwattr $C$DW$T$8, DW_AT_encoding(DW_ATE_signed)
    7983                      .dwattr $C$DW$T$8, DW_AT_name("short")
    7984                      .dwattr $C$DW$T$8, DW_AT_byte_size(0x01)
    7985              
    7986                      .dwendtag $C$DW$TU$8
    7987              
    7988              
    7989              $C$DW$TU$9      .dwtag  DW_TAG_type_unit
    7990                      .dwmtype  $C$DW$T$9
    7991              $C$DW$T$9       .dwtag  DW_TAG_base_type
    7992                      .dwattr $C$DW$T$9, DW_AT_encoding(DW_ATE_unsigned)
    7993                      .dwattr $C$DW$T$9, DW_AT_name("unsigned short")
    7994                      .dwattr $C$DW$T$9, DW_AT_byte_size(0x01)
    7995              
    7996                      .dwendtag $C$DW$TU$9
    7997              
    7998              
    7999              $C$DW$TU$10     .dwtag  DW_TAG_type_unit
    8000                      .dwmtype  $C$DW$T$10
    8001              $C$DW$T$10      .dwtag  DW_TAG_base_type
    8002                      .dwattr $C$DW$T$10, DW_AT_encoding(DW_ATE_signed)
    8003                      .dwattr $C$DW$T$10, DW_AT_name("int")
    8004                      .dwattr $C$DW$T$10, DW_AT_byte_size(0x01)
    8005              
    8006                      .dwendtag $C$DW$TU$10
    8007              
    8008              
    8009              $C$DW$TU$21     .dwtag  DW_TAG_type_unit
    8010                      .dwmtype  $C$DW$T$21
    8011              $C$DW$T$21      .dwtag  DW_TAG_typedef
    8012                      .dwattr $C$DW$T$21, DW_AT_name("__int16_t")
    8013                      .dwattr $C$DW$T$21, DW_AT_type(*$C$DW$T$10)
    8014                      .dwattr $C$DW$T$21, DW_AT_decl_file("C:/ti/ccs1011/ccs/tools/compiler/ti-cgt-c2000_20.2.4.LTS/include
    8015                      .dwattr $C$DW$T$21, DW_AT_decl_line(0x40)
    8016                      .dwattr $C$DW$T$21, DW_AT_decl_column(0x1d)
    8017              
    8018                      .dwendtag $C$DW$TU$21
    8019              
    8020              
    8021              $C$DW$TU$22     .dwtag  DW_TAG_type_unit
    8022                      .dwmtype  $C$DW$T$22
    8023              $C$DW$T$22      .dwtag  DW_TAG_typedef
    8024                      .dwattr $C$DW$T$22, DW_AT_name("int16_t")
    8025                      .dwattr $C$DW$T$22, DW_AT_type(*$C$DW$T$21)
    8026                      .dwattr $C$DW$T$22, DW_AT_decl_file("C:/ti/ccs1011/ccs/tools/compiler/ti-cgt-c2000_20.2.4.LTS/include
    8027                      .dwattr $C$DW$T$22, DW_AT_decl_line(0x2b)
    8028                      .dwattr $C$DW$T$22, DW_AT_decl_column(0x14)
    8029              
    8030                      .dwendtag $C$DW$TU$22
    8031              
    8032              
    8033              $C$DW$TU$30     .dwtag  DW_TAG_type_unit
    8034                      .dwmtype  $C$DW$T$30
    8035              
TMS320C2000 Assembler PC v20.2.4 Tue Mar  2 07:24:45 2021

Copyright (c) 1996-2018 Texas Instruments Incorporated
bts.asm                                                              PAGE  174

    8036              $C$DW$T$30      .dwtag  DW_TAG_array_type
    8037                      .dwattr $C$DW$T$30, DW_AT_type(*$C$DW$T$22)
    8038                      .dwattr $C$DW$T$30, DW_AT_byte_size(0x20)
    8039              $C$DW$384       .dwtag  DW_TAG_subrange_type
    8040                      .dwattr $C$DW$384, DW_AT_upper_bound(0x1f)
    8041              
    8042                      .dwendtag $C$DW$T$30
    8043              
    8044                      .dwendtag $C$DW$TU$30
    8045              
    8046              
    8047              $C$DW$TU$11     .dwtag  DW_TAG_type_unit
    8048                      .dwmtype  $C$DW$T$11
    8049              $C$DW$T$11      .dwtag  DW_TAG_base_type
    8050                      .dwattr $C$DW$T$11, DW_AT_encoding(DW_ATE_unsigned)
    8051                      .dwattr $C$DW$T$11, DW_AT_name("unsigned int")
    8052                      .dwattr $C$DW$T$11, DW_AT_byte_size(0x01)
    8053              
    8054                      .dwendtag $C$DW$TU$11
    8055              
    8056              
    8057              $C$DW$TU$25     .dwtag  DW_TAG_type_unit
    8058                      .dwmtype  $C$DW$T$25
    8059              $C$DW$T$25      .dwtag  DW_TAG_typedef
    8060                      .dwattr $C$DW$T$25, DW_AT_name("__uint16_t")
    8061                      .dwattr $C$DW$T$25, DW_AT_type(*$C$DW$T$11)
    8062                      .dwattr $C$DW$T$25, DW_AT_decl_file("C:/ti/ccs1011/ccs/tools/compiler/ti-cgt-c2000_20.2.4.LTS/include
    8063                      .dwattr $C$DW$T$25, DW_AT_decl_line(0x41)
    8064                      .dwattr $C$DW$T$25, DW_AT_decl_column(0x1c)
    8065              
    8066                      .dwendtag $C$DW$TU$25
    8067              
    8068              
    8069              $C$DW$TU$26     .dwtag  DW_TAG_type_unit
    8070                      .dwmtype  $C$DW$T$26
    8071              $C$DW$T$26      .dwtag  DW_TAG_typedef
    8072                      .dwattr $C$DW$T$26, DW_AT_name("uint16_t")
    8073                      .dwattr $C$DW$T$26, DW_AT_type(*$C$DW$T$25)
    8074                      .dwattr $C$DW$T$26, DW_AT_decl_file("C:/ti/ccs1011/ccs/tools/compiler/ti-cgt-c2000_20.2.4.LTS/include
    8075                      .dwattr $C$DW$T$26, DW_AT_decl_line(0x41)
    8076                      .dwattr $C$DW$T$26, DW_AT_decl_column(0x15)
    8077              
    8078                      .dwendtag $C$DW$TU$26
    8079              
    8080              
    8081              $C$DW$TU$39     .dwtag  DW_TAG_type_unit
    8082                      .dwmtype  $C$DW$T$39
    8083              $C$DW$T$39      .dwtag  DW_TAG_pointer_type
    8084                      .dwattr $C$DW$T$39, DW_AT_type(*$C$DW$T$26)
    8085                      .dwattr $C$DW$T$39, DW_AT_address_class(0x20)
    8086              
    8087                      .dwendtag $C$DW$TU$39
    8088              
    8089              
    8090              $C$DW$TU$109    .dwtag  DW_TAG_type_unit
TMS320C2000 Assembler PC v20.2.4 Tue Mar  2 07:24:45 2021

Copyright (c) 1996-2018 Texas Instruments Incorporated
bts.asm                                                              PAGE  175

    8091                      .dwmtype  $C$DW$T$109
    8092              
    8093              $C$DW$T$109     .dwtag  DW_TAG_array_type
    8094                      .dwattr $C$DW$T$109, DW_AT_type(*$C$DW$T$26)
    8095                      .dwattr $C$DW$T$109, DW_AT_byte_size(0x14)
    8096              $C$DW$385       .dwtag  DW_TAG_subrange_type
    8097                      .dwattr $C$DW$385, DW_AT_upper_bound(0x13)
    8098              
    8099                      .dwendtag $C$DW$T$109
    8100              
    8101                      .dwendtag $C$DW$TU$109
    8102              
    8103              
    8104              $C$DW$TU$110    .dwtag  DW_TAG_type_unit
    8105                      .dwmtype  $C$DW$T$110
    8106              
    8107              $C$DW$T$110     .dwtag  DW_TAG_array_type
    8108                      .dwattr $C$DW$T$110, DW_AT_type(*$C$DW$T$26)
    8109                      .dwattr $C$DW$T$110, DW_AT_byte_size(0x40)
    8110              $C$DW$386       .dwtag  DW_TAG_subrange_type
    8111                      .dwattr $C$DW$386, DW_AT_upper_bound(0x3f)
    8112              
    8113                      .dwendtag $C$DW$T$110
    8114              
    8115                      .dwendtag $C$DW$TU$110
    8116              
    8117              
    8118              $C$DW$TU$27     .dwtag  DW_TAG_type_unit
    8119                      .dwmtype  $C$DW$T$27
    8120              $C$DW$387       .dwtag  DW_TAG_TI_far_type
    8121                      .dwattr $C$DW$387, DW_AT_type(*$C$DW$T$26)
    8122              
    8123              $C$DW$T$27      .dwtag  DW_TAG_volatile_type
    8124                      .dwattr $C$DW$T$27, DW_AT_type(*$C$DW$387)
    8125              
    8126                      .dwendtag $C$DW$TU$27
    8127              
    8128              
    8129              $C$DW$TU$12     .dwtag  DW_TAG_type_unit
    8130                      .dwmtype  $C$DW$T$12
    8131              $C$DW$T$12      .dwtag  DW_TAG_base_type
    8132                      .dwattr $C$DW$T$12, DW_AT_encoding(DW_ATE_signed)
    8133                      .dwattr $C$DW$T$12, DW_AT_name("long")
    8134                      .dwattr $C$DW$T$12, DW_AT_byte_size(0x02)
    8135              
    8136                      .dwendtag $C$DW$TU$12
    8137              
    8138              
    8139              $C$DW$TU$31     .dwtag  DW_TAG_type_unit
    8140                      .dwmtype  $C$DW$T$31
    8141              $C$DW$T$31      .dwtag  DW_TAG_typedef
    8142                      .dwattr $C$DW$T$31, DW_AT_name("__int32_t")
    8143                      .dwattr $C$DW$T$31, DW_AT_type(*$C$DW$T$12)
    8144                      .dwattr $C$DW$T$31, DW_AT_decl_file("C:/ti/ccs1011/ccs/tools/compiler/ti-cgt-c2000_20.2.4.LTS/include
    8145                      .dwattr $C$DW$T$31, DW_AT_decl_line(0x42)
TMS320C2000 Assembler PC v20.2.4 Tue Mar  2 07:24:45 2021

Copyright (c) 1996-2018 Texas Instruments Incorporated
bts.asm                                                              PAGE  176

    8146                      .dwattr $C$DW$T$31, DW_AT_decl_column(0x1d)
    8147              
    8148                      .dwendtag $C$DW$TU$31
    8149              
    8150              
    8151              $C$DW$TU$32     .dwtag  DW_TAG_type_unit
    8152                      .dwmtype  $C$DW$T$32
    8153              $C$DW$T$32      .dwtag  DW_TAG_typedef
    8154                      .dwattr $C$DW$T$32, DW_AT_name("int32_t")
    8155                      .dwattr $C$DW$T$32, DW_AT_type(*$C$DW$T$31)
    8156                      .dwattr $C$DW$T$32, DW_AT_decl_file("C:/ti/ccs1011/ccs/tools/compiler/ti-cgt-c2000_20.2.4.LTS/include
    8157                      .dwattr $C$DW$T$32, DW_AT_decl_line(0x30)
    8158                      .dwattr $C$DW$T$32, DW_AT_decl_column(0x14)
    8159              
    8160                      .dwendtag $C$DW$TU$32
    8161              
    8162              
    8163              $C$DW$TU$13     .dwtag  DW_TAG_type_unit
    8164                      .dwmtype  $C$DW$T$13
    8165              $C$DW$T$13      .dwtag  DW_TAG_base_type
    8166                      .dwattr $C$DW$T$13, DW_AT_encoding(DW_ATE_unsigned)
    8167                      .dwattr $C$DW$T$13, DW_AT_name("unsigned long")
    8168                      .dwattr $C$DW$T$13, DW_AT_byte_size(0x02)
    8169              
    8170                      .dwendtag $C$DW$TU$13
    8171              
    8172              
    8173              $C$DW$TU$36     .dwtag  DW_TAG_type_unit
    8174                      .dwmtype  $C$DW$T$36
    8175              $C$DW$T$36      .dwtag  DW_TAG_typedef
    8176                      .dwattr $C$DW$T$36, DW_AT_name("__uint32_t")
    8177                      .dwattr $C$DW$T$36, DW_AT_type(*$C$DW$T$13)
    8178                      .dwattr $C$DW$T$36, DW_AT_decl_file("C:/ti/ccs1011/ccs/tools/compiler/ti-cgt-c2000_20.2.4.LTS/include
    8179                      .dwattr $C$DW$T$36, DW_AT_decl_line(0x43)
    8180                      .dwattr $C$DW$T$36, DW_AT_decl_column(0x1c)
    8181              
    8182                      .dwendtag $C$DW$TU$36
    8183              
    8184              
    8185              $C$DW$TU$37     .dwtag  DW_TAG_type_unit
    8186                      .dwmtype  $C$DW$T$37
    8187              $C$DW$T$37      .dwtag  DW_TAG_typedef
    8188                      .dwattr $C$DW$T$37, DW_AT_name("uint32_t")
    8189                      .dwattr $C$DW$T$37, DW_AT_type(*$C$DW$T$36)
    8190                      .dwattr $C$DW$T$37, DW_AT_decl_file("C:/ti/ccs1011/ccs/tools/compiler/ti-cgt-c2000_20.2.4.LTS/include
    8191                      .dwattr $C$DW$T$37, DW_AT_decl_line(0x46)
    8192                      .dwattr $C$DW$T$37, DW_AT_decl_column(0x15)
    8193              
    8194                      .dwendtag $C$DW$TU$37
    8195              
    8196              
    8197              $C$DW$TU$38     .dwtag  DW_TAG_type_unit
    8198                      .dwmtype  $C$DW$T$38
    8199              $C$DW$T$38      .dwtag  DW_TAG_pointer_type
    8200                      .dwattr $C$DW$T$38, DW_AT_type(*$C$DW$T$37)
TMS320C2000 Assembler PC v20.2.4 Tue Mar  2 07:24:45 2021

Copyright (c) 1996-2018 Texas Instruments Incorporated
bts.asm                                                              PAGE  177

    8201                      .dwattr $C$DW$T$38, DW_AT_address_class(0x20)
    8202              
    8203                      .dwendtag $C$DW$TU$38
    8204              
    8205              
    8206              $C$DW$TU$92     .dwtag  DW_TAG_type_unit
    8207                      .dwmtype  $C$DW$T$92
    8208              $C$DW$388       .dwtag  DW_TAG_TI_far_type
    8209                      .dwattr $C$DW$388, DW_AT_type(*$C$DW$T$37)
    8210              
    8211              $C$DW$T$92      .dwtag  DW_TAG_volatile_type
    8212                      .dwattr $C$DW$T$92, DW_AT_type(*$C$DW$388)
    8213              
    8214                      .dwendtag $C$DW$TU$92
    8215              
    8216              
    8217              $C$DW$TU$14     .dwtag  DW_TAG_type_unit
    8218                      .dwmtype  $C$DW$T$14
    8219              $C$DW$T$14      .dwtag  DW_TAG_base_type
    8220                      .dwattr $C$DW$T$14, DW_AT_encoding(DW_ATE_signed)
    8221                      .dwattr $C$DW$T$14, DW_AT_name("long long")
    8222                      .dwattr $C$DW$T$14, DW_AT_byte_size(0x04)
    8223              
    8224                      .dwendtag $C$DW$TU$14
    8225              
    8226              
    8227              $C$DW$TU$15     .dwtag  DW_TAG_type_unit
    8228                      .dwmtype  $C$DW$T$15
    8229              $C$DW$T$15      .dwtag  DW_TAG_base_type
    8230                      .dwattr $C$DW$T$15, DW_AT_encoding(DW_ATE_unsigned)
    8231                      .dwattr $C$DW$T$15, DW_AT_name("unsigned long long")
    8232                      .dwattr $C$DW$T$15, DW_AT_byte_size(0x04)
    8233              
    8234                      .dwendtag $C$DW$TU$15
    8235              
    8236              
    8237              $C$DW$TU$16     .dwtag  DW_TAG_type_unit
    8238                      .dwmtype  $C$DW$T$16
    8239              $C$DW$T$16      .dwtag  DW_TAG_base_type
    8240                      .dwattr $C$DW$T$16, DW_AT_encoding(DW_ATE_float)
    8241                      .dwattr $C$DW$T$16, DW_AT_name("float")
    8242                      .dwattr $C$DW$T$16, DW_AT_byte_size(0x02)
    8243              
    8244                      .dwendtag $C$DW$TU$16
    8245              
    8246              
    8247              $C$DW$TU$44     .dwtag  DW_TAG_type_unit
    8248                      .dwmtype  $C$DW$T$44
    8249              
    8250              $C$DW$T$44      .dwtag  DW_TAG_array_type
    8251                      .dwattr $C$DW$T$44, DW_AT_type(*$C$DW$T$16)
    8252                      .dwattr $C$DW$T$44, DW_AT_byte_size(0x04)
    8253              $C$DW$389       .dwtag  DW_TAG_subrange_type
    8254                      .dwattr $C$DW$389, DW_AT_upper_bound(0x01)
    8255              
TMS320C2000 Assembler PC v20.2.4 Tue Mar  2 07:24:45 2021

Copyright (c) 1996-2018 Texas Instruments Incorporated
bts.asm                                                              PAGE  178

    8256                      .dwendtag $C$DW$T$44
    8257              
    8258                      .dwendtag $C$DW$TU$44
    8259              
    8260              
    8261              $C$DW$TU$120    .dwtag  DW_TAG_type_unit
    8262                      .dwmtype  $C$DW$T$120
    8263              $C$DW$390       .dwtag  DW_TAG_TI_far_type
    8264                      .dwattr $C$DW$390, DW_AT_type(*$C$DW$T$16)
    8265              
    8266              $C$DW$T$120     .dwtag  DW_TAG_const_type
    8267                      .dwattr $C$DW$T$120, DW_AT_type(*$C$DW$390)
    8268              
    8269                      .dwendtag $C$DW$TU$120
    8270              
    8271              
    8272              $C$DW$TU$19     .dwtag  DW_TAG_type_unit
    8273                      .dwmtype  $C$DW$T$19
    8274              $C$DW$T$19      .dwtag  DW_TAG_typedef
    8275                      .dwattr $C$DW$T$19, DW_AT_name("float32_t")
    8276                      .dwattr $C$DW$T$19, DW_AT_type(*$C$DW$T$16)
    8277                      .dwattr $C$DW$T$19, DW_AT_decl_file("C:\ti\c2000\C2000Ware_DigitalPower_SDK_3_01_00_00\c2000ware\driv
    8278                      .dwattr $C$DW$T$19, DW_AT_decl_line(0x5e)
    8279                      .dwattr $C$DW$T$19, DW_AT_decl_column(0x17)
    8280              
    8281                      .dwendtag $C$DW$TU$19
    8282              
    8283              
    8284              $C$DW$TU$20     .dwtag  DW_TAG_type_unit
    8285                      .dwmtype  $C$DW$T$20
    8286              $C$DW$T$20      .dwtag  DW_TAG_pointer_type
    8287                      .dwattr $C$DW$T$20, DW_AT_type(*$C$DW$T$19)
    8288                      .dwattr $C$DW$T$20, DW_AT_address_class(0x20)
    8289              
    8290                      .dwendtag $C$DW$TU$20
    8291              
    8292              
    8293              $C$DW$TU$34     .dwtag  DW_TAG_type_unit
    8294                      .dwmtype  $C$DW$T$34
    8295              
    8296              $C$DW$T$34      .dwtag  DW_TAG_array_type
    8297                      .dwattr $C$DW$T$34, DW_AT_type(*$C$DW$T$19)
    8298                      .dwattr $C$DW$T$34, DW_AT_byte_size(0xce)
    8299              $C$DW$391       .dwtag  DW_TAG_subrange_type
    8300                      .dwattr $C$DW$391, DW_AT_upper_bound(0x66)
    8301              
    8302                      .dwendtag $C$DW$T$34
    8303              
    8304                      .dwendtag $C$DW$TU$34
    8305              
    8306              
    8307              $C$DW$TU$24     .dwtag  DW_TAG_type_unit
    8308                      .dwmtype  $C$DW$T$24
    8309              $C$DW$392       .dwtag  DW_TAG_TI_far_type
    8310                      .dwattr $C$DW$392, DW_AT_type(*$C$DW$T$19)
TMS320C2000 Assembler PC v20.2.4 Tue Mar  2 07:24:45 2021

Copyright (c) 1996-2018 Texas Instruments Incorporated
bts.asm                                                              PAGE  179

    8311              
    8312              $C$DW$T$24      .dwtag  DW_TAG_volatile_type
    8313                      .dwattr $C$DW$T$24, DW_AT_type(*$C$DW$392)
    8314              
    8315                      .dwendtag $C$DW$TU$24
    8316              
    8317              
    8318              $C$DW$TU$17     .dwtag  DW_TAG_type_unit
    8319                      .dwmtype  $C$DW$T$17
    8320              $C$DW$T$17      .dwtag  DW_TAG_base_type
    8321                      .dwattr $C$DW$T$17, DW_AT_encoding(DW_ATE_float)
    8322                      .dwattr $C$DW$T$17, DW_AT_name("double")
    8323                      .dwattr $C$DW$T$17, DW_AT_byte_size(0x04)
    8324              
    8325                      .dwendtag $C$DW$TU$17
    8326              
    8327              
    8328              $C$DW$TU$42     .dwtag  DW_TAG_type_unit
    8329                      .dwmtype  $C$DW$T$42
    8330              
    8331              $C$DW$T$42      .dwtag  DW_TAG_array_type
    8332                      .dwattr $C$DW$T$42, DW_AT_type(*$C$DW$T$17)
    8333                      .dwattr $C$DW$T$42, DW_AT_byte_size(0x08)
    8334              $C$DW$393       .dwtag  DW_TAG_subrange_type
    8335                      .dwattr $C$DW$393, DW_AT_upper_bound(0x01)
    8336              
    8337                      .dwendtag $C$DW$T$42
    8338              
    8339                      .dwendtag $C$DW$TU$42
    8340              
    8341              
    8342              $C$DW$TU$122    .dwtag  DW_TAG_type_unit
    8343                      .dwmtype  $C$DW$T$122
    8344              $C$DW$T$122     .dwtag  DW_TAG_pointer_type
    8345                      .dwattr $C$DW$T$122, DW_AT_type(*$C$DW$T$17)
    8346                      .dwattr $C$DW$T$122, DW_AT_address_class(0x20)
    8347              
    8348                      .dwendtag $C$DW$TU$122
    8349              
    8350              
    8351              $C$DW$TU$123    .dwtag  DW_TAG_type_unit
    8352                      .dwmtype  $C$DW$T$123
    8353              $C$DW$394       .dwtag  DW_TAG_TI_far_type
    8354                      .dwattr $C$DW$394, DW_AT_type(*$C$DW$T$122)
    8355              
    8356              $C$DW$T$123     .dwtag  DW_TAG_const_type
    8357                      .dwattr $C$DW$T$123, DW_AT_type(*$C$DW$394)
    8358              
    8359                      .dwendtag $C$DW$TU$123
    8360              
    8361              
    8362              $C$DW$TU$18     .dwtag  DW_TAG_type_unit
    8363                      .dwmtype  $C$DW$T$18
    8364              $C$DW$T$18      .dwtag  DW_TAG_base_type
    8365                      .dwattr $C$DW$T$18, DW_AT_encoding(DW_ATE_float)
TMS320C2000 Assembler PC v20.2.4 Tue Mar  2 07:24:45 2021

Copyright (c) 1996-2018 Texas Instruments Incorporated
bts.asm                                                              PAGE  180

    8366                      .dwattr $C$DW$T$18, DW_AT_name("long double")
    8367                      .dwattr $C$DW$T$18, DW_AT_byte_size(0x04)
    8368              
    8369                      .dwendtag $C$DW$TU$18
    8370              
    8371              
    8372              $C$DW$TU$46     .dwtag  DW_TAG_type_unit
    8373                      .dwmtype  $C$DW$T$46
    8374              
    8375              $C$DW$T$46      .dwtag  DW_TAG_array_type
    8376                      .dwattr $C$DW$T$46, DW_AT_type(*$C$DW$T$18)
    8377                      .dwattr $C$DW$T$46, DW_AT_byte_size(0x08)
    8378              $C$DW$395       .dwtag  DW_TAG_subrange_type
    8379                      .dwattr $C$DW$395, DW_AT_upper_bound(0x01)
    8380              
    8381                      .dwendtag $C$DW$T$46
    8382              
    8383                      .dwendtag $C$DW$TU$46
    8384              
    8385              
    8386              $C$DW$TU$125    .dwtag  DW_TAG_type_unit
    8387                      .dwmtype  $C$DW$T$125
    8388              $C$DW$T$125     .dwtag  DW_TAG_pointer_type
    8389                      .dwattr $C$DW$T$125, DW_AT_type(*$C$DW$T$18)
    8390                      .dwattr $C$DW$T$125, DW_AT_address_class(0x20)
    8391              
    8392                      .dwendtag $C$DW$TU$125
    8393              
    8394              
    8395              $C$DW$TU$126    .dwtag  DW_TAG_type_unit
    8396                      .dwmtype  $C$DW$T$126
    8397              $C$DW$396       .dwtag  DW_TAG_TI_far_type
    8398                      .dwattr $C$DW$396, DW_AT_type(*$C$DW$T$125)
    8399              
    8400              $C$DW$T$126     .dwtag  DW_TAG_const_type
    8401                      .dwattr $C$DW$T$126, DW_AT_type(*$C$DW$396)
    8402              
    8403                      .dwendtag $C$DW$TU$126
    8404              
    8405              
    8406              $C$DW$TU$48     .dwtag  DW_TAG_type_unit
    8407                      .dwmtype  $C$DW$T$48
    8408              
    8409              $C$DW$T$48      .dwtag  DW_TAG_structure_type
    8410                      .dwattr $C$DW$T$48, DW_AT_name("dcl_css")
    8411                      .dwattr $C$DW$T$48, DW_AT_byte_size(0x0a)
    8412              $C$DW$397       .dwtag  DW_TAG_member
    8413                      .dwattr $C$DW$397, DW_AT_type(*$C$DW$T$19)
    8414                      .dwattr $C$DW$397, DW_AT_name("tpt")
    8415                      .dwattr $C$DW$397, DW_AT_accessibility(DW_ACCESS_public)
    8416                      .dwattr $C$DW$397, DW_AT_decl_file("C:\sandbox\github\Lion-IRVT\Hardware\source\tida-010086\bts_F2837
    8417                      .dwattr $C$DW$397, DW_AT_decl_line(0x91)
    8418                      .dwattr $C$DW$397, DW_AT_decl_column(0x0f)
    8419              
    8420              $C$DW$398       .dwtag  DW_TAG_member
TMS320C2000 Assembler PC v20.2.4 Tue Mar  2 07:24:45 2021

Copyright (c) 1996-2018 Texas Instruments Incorporated
bts.asm                                                              PAGE  181

    8421                      .dwattr $C$DW$398, DW_AT_type(*$C$DW$T$19)
    8422                      .dwattr $C$DW$398, DW_AT_name("T")
    8423                      .dwattr $C$DW$398, DW_AT_data_member_location[DW_OP_plus_uconst 0x2]
    8424                      .dwattr $C$DW$398, DW_AT_accessibility(DW_ACCESS_public)
    8425                      .dwattr $C$DW$398, DW_AT_decl_file("C:\sandbox\github\Lion-IRVT\Hardware\source\tida-010086\bts_F2837
    8426                      .dwattr $C$DW$398, DW_AT_decl_line(0x92)
    8427                      .dwattr $C$DW$398, DW_AT_decl_column(0x0f)
    8428              
    8429              $C$DW$399       .dwtag  DW_TAG_member
    8430                      .dwattr $C$DW$399, DW_AT_type(*$C$DW$T$37)
    8431                      .dwattr $C$DW$399, DW_AT_name("sts")
    8432                      .dwattr $C$DW$399, DW_AT_data_member_location[DW_OP_plus_uconst 0x4]
    8433                      .dwattr $C$DW$399, DW_AT_accessibility(DW_ACCESS_public)
    8434                      .dwattr $C$DW$399, DW_AT_decl_file("C:\sandbox\github\Lion-IRVT\Hardware\source\tida-010086\bts_F2837
    8435                      .dwattr $C$DW$399, DW_AT_decl_line(0x93)
    8436                      .dwattr $C$DW$399, DW_AT_decl_column(0x0e)
    8437              
    8438              $C$DW$400       .dwtag  DW_TAG_member
    8439                      .dwattr $C$DW$400, DW_AT_type(*$C$DW$T$37)
    8440                      .dwattr $C$DW$400, DW_AT_name("err")
    8441                      .dwattr $C$DW$400, DW_AT_data_member_location[DW_OP_plus_uconst 0x6]
    8442                      .dwattr $C$DW$400, DW_AT_accessibility(DW_ACCESS_public)
    8443                      .dwattr $C$DW$400, DW_AT_decl_file("C:\sandbox\github\Lion-IRVT\Hardware\source\tida-010086\bts_F2837
    8444                      .dwattr $C$DW$400, DW_AT_decl_line(0x94)
    8445                      .dwattr $C$DW$400, DW_AT_decl_column(0x0e)
    8446              
    8447              $C$DW$401       .dwtag  DW_TAG_member
    8448                      .dwattr $C$DW$401, DW_AT_type(*$C$DW$T$37)
    8449                      .dwattr $C$DW$401, DW_AT_name("loc")
    8450                      .dwattr $C$DW$401, DW_AT_data_member_location[DW_OP_plus_uconst 0x8]
    8451                      .dwattr $C$DW$401, DW_AT_accessibility(DW_ACCESS_public)
    8452                      .dwattr $C$DW$401, DW_AT_decl_file("C:\sandbox\github\Lion-IRVT\Hardware\source\tida-010086\bts_F2837
    8453                      .dwattr $C$DW$401, DW_AT_decl_line(0x95)
    8454                      .dwattr $C$DW$401, DW_AT_decl_column(0x0e)
    8455              
    8456                      .dwattr $C$DW$T$48, DW_AT_decl_file("C:\sandbox\github\Lion-IRVT\Hardware\source\tida-010086\bts_F283
    8457                      .dwattr $C$DW$T$48, DW_AT_decl_line(0x90)
    8458                      .dwattr $C$DW$T$48, DW_AT_decl_column(0x19)
    8459                      .dwendtag $C$DW$T$48
    8460              
    8461                      .dwendtag $C$DW$TU$48
    8462              
    8463              
    8464              $C$DW$TU$52     .dwtag  DW_TAG_type_unit
    8465                      .dwmtype  $C$DW$T$52
    8466              $C$DW$402       .dwtag  DW_TAG_TI_far_type
    8467                      .dwattr $C$DW$402, DW_AT_type(*$C$DW$T$48)
    8468              
    8469              $C$DW$T$52      .dwtag  DW_TAG_volatile_type
    8470                      .dwattr $C$DW$T$52, DW_AT_type(*$C$DW$402)
    8471              
    8472                      .dwendtag $C$DW$TU$52
    8473              
    8474              
    8475              $C$DW$TU$53     .dwtag  DW_TAG_type_unit
TMS320C2000 Assembler PC v20.2.4 Tue Mar  2 07:24:45 2021

Copyright (c) 1996-2018 Texas Instruments Incorporated
bts.asm                                                              PAGE  182

    8476                      .dwmtype  $C$DW$T$53
    8477              $C$DW$T$53      .dwtag  DW_TAG_typedef
    8478                      .dwattr $C$DW$T$53, DW_AT_name("DCL_CSS")
    8479                      .dwattr $C$DW$T$53, DW_AT_type(*$C$DW$T$52)
    8480                      .dwattr $C$DW$T$53, DW_AT_decl_file("C:\sandbox\github\Lion-IRVT\Hardware\source\tida-010086\bts_F283
    8481                      .dwattr $C$DW$T$53, DW_AT_decl_line(0x96)
    8482                      .dwattr $C$DW$T$53, DW_AT_decl_column(0x03)
    8483              
    8484                      .dwendtag $C$DW$TU$53
    8485              
    8486              
    8487              $C$DW$TU$54     .dwtag  DW_TAG_type_unit
    8488                      .dwmtype  $C$DW$T$54
    8489              $C$DW$T$54      .dwtag  DW_TAG_pointer_type
    8490                      .dwattr $C$DW$T$54, DW_AT_type(*$C$DW$T$53)
    8491                      .dwattr $C$DW$T$54, DW_AT_address_class(0x20)
    8492              
    8493                      .dwendtag $C$DW$TU$54
    8494              
    8495              
    8496              $C$DW$TU$55     .dwtag  DW_TAG_type_unit
    8497                      .dwmtype  $C$DW$T$55
    8498              
    8499              $C$DW$T$55      .dwtag  DW_TAG_structure_type
    8500                      .dwattr $C$DW$T$55, DW_AT_name("dcl_df22")
    8501                      .dwattr $C$DW$T$55, DW_AT_byte_size(0x12)
    8502              $C$DW$403       .dwtag  DW_TAG_member
    8503                      .dwattr $C$DW$403, DW_AT_type(*$C$DW$T$19)
    8504                      .dwattr $C$DW$403, DW_AT_name("b0")
    8505                      .dwattr $C$DW$403, DW_AT_accessibility(DW_ACCESS_public)
    8506                      .dwattr $C$DW$403, DW_AT_decl_file("C:/sandbox/github/Lion-IRVT/Hardware/source/tida-010086/bts_F2837
    8507                      .dwattr $C$DW$403, DW_AT_decl_line(0x4ab)
    8508                      .dwattr $C$DW$403, DW_AT_decl_column(0x0f)
    8509              
    8510              $C$DW$404       .dwtag  DW_TAG_member
    8511                      .dwattr $C$DW$404, DW_AT_type(*$C$DW$T$19)
    8512                      .dwattr $C$DW$404, DW_AT_name("b1")
    8513                      .dwattr $C$DW$404, DW_AT_data_member_location[DW_OP_plus_uconst 0x2]
    8514                      .dwattr $C$DW$404, DW_AT_accessibility(DW_ACCESS_public)
    8515                      .dwattr $C$DW$404, DW_AT_decl_file("C:/sandbox/github/Lion-IRVT/Hardware/source/tida-010086/bts_F2837
    8516                      .dwattr $C$DW$404, DW_AT_decl_line(0x4ac)
    8517                      .dwattr $C$DW$404, DW_AT_decl_column(0x0f)
    8518              
    8519              $C$DW$405       .dwtag  DW_TAG_member
    8520                      .dwattr $C$DW$405, DW_AT_type(*$C$DW$T$19)
    8521                      .dwattr $C$DW$405, DW_AT_name("b2")
    8522                      .dwattr $C$DW$405, DW_AT_data_member_location[DW_OP_plus_uconst 0x4]
    8523                      .dwattr $C$DW$405, DW_AT_accessibility(DW_ACCESS_public)
    8524                      .dwattr $C$DW$405, DW_AT_decl_file("C:/sandbox/github/Lion-IRVT/Hardware/source/tida-010086/bts_F2837
    8525                      .dwattr $C$DW$405, DW_AT_decl_line(0x4ad)
    8526                      .dwattr $C$DW$405, DW_AT_decl_column(0x0f)
    8527              
    8528              $C$DW$406       .dwtag  DW_TAG_member
    8529                      .dwattr $C$DW$406, DW_AT_type(*$C$DW$T$19)
    8530                      .dwattr $C$DW$406, DW_AT_name("a1")
TMS320C2000 Assembler PC v20.2.4 Tue Mar  2 07:24:45 2021

Copyright (c) 1996-2018 Texas Instruments Incorporated
bts.asm                                                              PAGE  183

    8531                      .dwattr $C$DW$406, DW_AT_data_member_location[DW_OP_plus_uconst 0x6]
    8532                      .dwattr $C$DW$406, DW_AT_accessibility(DW_ACCESS_public)
    8533                      .dwattr $C$DW$406, DW_AT_decl_file("C:/sandbox/github/Lion-IRVT/Hardware/source/tida-010086/bts_F2837
    8534                      .dwattr $C$DW$406, DW_AT_decl_line(0x4ae)
    8535                      .dwattr $C$DW$406, DW_AT_decl_column(0x0f)
    8536              
    8537              $C$DW$407       .dwtag  DW_TAG_member
    8538                      .dwattr $C$DW$407, DW_AT_type(*$C$DW$T$19)
    8539                      .dwattr $C$DW$407, DW_AT_name("a2")
    8540                      .dwattr $C$DW$407, DW_AT_data_member_location[DW_OP_plus_uconst 0x8]
    8541                      .dwattr $C$DW$407, DW_AT_accessibility(DW_ACCESS_public)
    8542                      .dwattr $C$DW$407, DW_AT_decl_file("C:/sandbox/github/Lion-IRVT/Hardware/source/tida-010086/bts_F2837
    8543                      .dwattr $C$DW$407, DW_AT_decl_line(0x4af)
    8544                      .dwattr $C$DW$407, DW_AT_decl_column(0x0f)
    8545              
    8546              $C$DW$408       .dwtag  DW_TAG_member
    8547                      .dwattr $C$DW$408, DW_AT_type(*$C$DW$T$19)
    8548                      .dwattr $C$DW$408, DW_AT_name("x1")
    8549                      .dwattr $C$DW$408, DW_AT_data_member_location[DW_OP_plus_uconst 0xa]
    8550                      .dwattr $C$DW$408, DW_AT_accessibility(DW_ACCESS_public)
    8551                      .dwattr $C$DW$408, DW_AT_decl_file("C:/sandbox/github/Lion-IRVT/Hardware/source/tida-010086/bts_F2837
    8552                      .dwattr $C$DW$408, DW_AT_decl_line(0x4b0)
    8553                      .dwattr $C$DW$408, DW_AT_decl_column(0x0f)
    8554              
    8555              $C$DW$409       .dwtag  DW_TAG_member
    8556                      .dwattr $C$DW$409, DW_AT_type(*$C$DW$T$19)
    8557                      .dwattr $C$DW$409, DW_AT_name("x2")
    8558                      .dwattr $C$DW$409, DW_AT_data_member_location[DW_OP_plus_uconst 0xc]
    8559                      .dwattr $C$DW$409, DW_AT_accessibility(DW_ACCESS_public)
    8560                      .dwattr $C$DW$409, DW_AT_decl_file("C:/sandbox/github/Lion-IRVT/Hardware/source/tida-010086/bts_F2837
    8561                      .dwattr $C$DW$409, DW_AT_decl_line(0x4b1)
    8562                      .dwattr $C$DW$409, DW_AT_decl_column(0x0f)
    8563              
    8564              $C$DW$410       .dwtag  DW_TAG_member
    8565                      .dwattr $C$DW$410, DW_AT_type(*$C$DW$T$51)
    8566                      .dwattr $C$DW$410, DW_AT_name("sps")
    8567                      .dwattr $C$DW$410, DW_AT_data_member_location[DW_OP_plus_uconst 0xe]
    8568                      .dwattr $C$DW$410, DW_AT_accessibility(DW_ACCESS_public)
    8569                      .dwattr $C$DW$410, DW_AT_decl_file("C:/sandbox/github/Lion-IRVT/Hardware/source/tida-010086/bts_F2837
    8570                      .dwattr $C$DW$410, DW_AT_decl_line(0x4b2)
    8571                      .dwattr $C$DW$410, DW_AT_decl_column(0x13)
    8572              
    8573              $C$DW$411       .dwtag  DW_TAG_member
    8574                      .dwattr $C$DW$411, DW_AT_type(*$C$DW$T$54)
    8575                      .dwattr $C$DW$411, DW_AT_name("css")
    8576                      .dwattr $C$DW$411, DW_AT_data_member_location[DW_OP_plus_uconst 0x10]
    8577                      .dwattr $C$DW$411, DW_AT_accessibility(DW_ACCESS_public)
    8578                      .dwattr $C$DW$411, DW_AT_decl_file("C:/sandbox/github/Lion-IRVT/Hardware/source/tida-010086/bts_F2837
    8579                      .dwattr $C$DW$411, DW_AT_decl_line(0x4b3)
    8580                      .dwattr $C$DW$411, DW_AT_decl_column(0x0e)
    8581              
    8582                      .dwattr $C$DW$T$55, DW_AT_decl_file("C:/sandbox/github/Lion-IRVT/Hardware/source/tida-010086/bts_F283
    8583                      .dwattr $C$DW$T$55, DW_AT_decl_line(0x4aa)
    8584                      .dwattr $C$DW$T$55, DW_AT_decl_column(0x19)
    8585                      .dwendtag $C$DW$T$55
TMS320C2000 Assembler PC v20.2.4 Tue Mar  2 07:24:45 2021

Copyright (c) 1996-2018 Texas Instruments Incorporated
bts.asm                                                              PAGE  184

    8586              
    8587                      .dwendtag $C$DW$TU$55
    8588              
    8589              
    8590              $C$DW$TU$128    .dwtag  DW_TAG_type_unit
    8591                      .dwmtype  $C$DW$T$128
    8592              $C$DW$412       .dwtag  DW_TAG_TI_far_type
    8593                      .dwattr $C$DW$412, DW_AT_type(*$C$DW$T$55)
    8594              
    8595              $C$DW$T$128     .dwtag  DW_TAG_volatile_type
    8596                      .dwattr $C$DW$T$128, DW_AT_type(*$C$DW$412)
    8597              
    8598                      .dwendtag $C$DW$TU$128
    8599              
    8600              
    8601              $C$DW$TU$129    .dwtag  DW_TAG_type_unit
    8602                      .dwmtype  $C$DW$T$129
    8603              $C$DW$T$129     .dwtag  DW_TAG_typedef
    8604                      .dwattr $C$DW$T$129, DW_AT_name("DCL_DF22")
    8605                      .dwattr $C$DW$T$129, DW_AT_type(*$C$DW$T$128)
    8606                      .dwattr $C$DW$T$129, DW_AT_decl_file("C:/sandbox/github/Lion-IRVT/Hardware/source/tida-010086/bts_F28
    8607                      .dwattr $C$DW$T$129, DW_AT_decl_line(0x4b4)
    8608                      .dwattr $C$DW$T$129, DW_AT_decl_column(0x03)
    8609              
    8610                      .dwendtag $C$DW$TU$129
    8611              
    8612              
    8613              $C$DW$TU$56     .dwtag  DW_TAG_type_unit
    8614                      .dwmtype  $C$DW$T$56
    8615              
    8616              $C$DW$T$56      .dwtag  DW_TAG_structure_type
    8617                      .dwattr $C$DW$T$56, DW_AT_name("dcl_df22_sps")
    8618                      .dwattr $C$DW$T$56, DW_AT_byte_size(0x0a)
    8619              $C$DW$413       .dwtag  DW_TAG_member
    8620                      .dwattr $C$DW$413, DW_AT_type(*$C$DW$T$19)
    8621                      .dwattr $C$DW$413, DW_AT_name("b0")
    8622                      .dwattr $C$DW$413, DW_AT_accessibility(DW_ACCESS_public)
    8623                      .dwattr $C$DW$413, DW_AT_decl_file("C:/sandbox/github/Lion-IRVT/Hardware/source/tida-010086/bts_F2837
    8624                      .dwattr $C$DW$413, DW_AT_decl_line(0x49f)
    8625                      .dwattr $C$DW$413, DW_AT_decl_column(0x0f)
    8626              
    8627              $C$DW$414       .dwtag  DW_TAG_member
    8628                      .dwattr $C$DW$414, DW_AT_type(*$C$DW$T$19)
    8629                      .dwattr $C$DW$414, DW_AT_name("b1")
    8630                      .dwattr $C$DW$414, DW_AT_data_member_location[DW_OP_plus_uconst 0x2]
    8631                      .dwattr $C$DW$414, DW_AT_accessibility(DW_ACCESS_public)
    8632                      .dwattr $C$DW$414, DW_AT_decl_file("C:/sandbox/github/Lion-IRVT/Hardware/source/tida-010086/bts_F2837
    8633                      .dwattr $C$DW$414, DW_AT_decl_line(0x4a0)
    8634                      .dwattr $C$DW$414, DW_AT_decl_column(0x0f)
    8635              
    8636              $C$DW$415       .dwtag  DW_TAG_member
    8637                      .dwattr $C$DW$415, DW_AT_type(*$C$DW$T$19)
    8638                      .dwattr $C$DW$415, DW_AT_name("b2")
    8639                      .dwattr $C$DW$415, DW_AT_data_member_location[DW_OP_plus_uconst 0x4]
    8640                      .dwattr $C$DW$415, DW_AT_accessibility(DW_ACCESS_public)
TMS320C2000 Assembler PC v20.2.4 Tue Mar  2 07:24:45 2021

Copyright (c) 1996-2018 Texas Instruments Incorporated
bts.asm                                                              PAGE  185

    8641                      .dwattr $C$DW$415, DW_AT_decl_file("C:/sandbox/github/Lion-IRVT/Hardware/source/tida-010086/bts_F2837
    8642                      .dwattr $C$DW$415, DW_AT_decl_line(0x4a1)
    8643                      .dwattr $C$DW$415, DW_AT_decl_column(0x0f)
    8644              
    8645              $C$DW$416       .dwtag  DW_TAG_member
    8646                      .dwattr $C$DW$416, DW_AT_type(*$C$DW$T$19)
    8647                      .dwattr $C$DW$416, DW_AT_name("a1")
    8648                      .dwattr $C$DW$416, DW_AT_data_member_location[DW_OP_plus_uconst 0x6]
    8649                      .dwattr $C$DW$416, DW_AT_accessibility(DW_ACCESS_public)
    8650                      .dwattr $C$DW$416, DW_AT_decl_file("C:/sandbox/github/Lion-IRVT/Hardware/source/tida-010086/bts_F2837
    8651                      .dwattr $C$DW$416, DW_AT_decl_line(0x4a2)
    8652                      .dwattr $C$DW$416, DW_AT_decl_column(0x0f)
    8653              
    8654              $C$DW$417       .dwtag  DW_TAG_member
    8655                      .dwattr $C$DW$417, DW_AT_type(*$C$DW$T$19)
    8656                      .dwattr $C$DW$417, DW_AT_name("a2")
    8657                      .dwattr $C$DW$417, DW_AT_data_member_location[DW_OP_plus_uconst 0x8]
    8658                      .dwattr $C$DW$417, DW_AT_accessibility(DW_ACCESS_public)
    8659                      .dwattr $C$DW$417, DW_AT_decl_file("C:/sandbox/github/Lion-IRVT/Hardware/source/tida-010086/bts_F2837
    8660                      .dwattr $C$DW$417, DW_AT_decl_line(0x4a3)
    8661                      .dwattr $C$DW$417, DW_AT_decl_column(0x0f)
    8662              
    8663                      .dwattr $C$DW$T$56, DW_AT_decl_file("C:/sandbox/github/Lion-IRVT/Hardware/source/tida-010086/bts_F283
    8664                      .dwattr $C$DW$T$56, DW_AT_decl_line(0x49e)
    8665                      .dwattr $C$DW$T$56, DW_AT_decl_column(0x19)
    8666                      .dwendtag $C$DW$T$56
    8667              
    8668                      .dwendtag $C$DW$TU$56
    8669              
    8670              
    8671              $C$DW$TU$49     .dwtag  DW_TAG_type_unit
    8672                      .dwmtype  $C$DW$T$49
    8673              $C$DW$418       .dwtag  DW_TAG_TI_far_type
    8674                      .dwattr $C$DW$418, DW_AT_type(*$C$DW$T$56)
    8675              
    8676              $C$DW$T$49      .dwtag  DW_TAG_volatile_type
    8677                      .dwattr $C$DW$T$49, DW_AT_type(*$C$DW$418)
    8678              
    8679                      .dwendtag $C$DW$TU$49
    8680              
    8681              
    8682              $C$DW$TU$50     .dwtag  DW_TAG_type_unit
    8683                      .dwmtype  $C$DW$T$50
    8684              $C$DW$T$50      .dwtag  DW_TAG_typedef
    8685                      .dwattr $C$DW$T$50, DW_AT_name("DCL_DF22_SPS")
    8686                      .dwattr $C$DW$T$50, DW_AT_type(*$C$DW$T$49)
    8687                      .dwattr $C$DW$T$50, DW_AT_decl_file("C:/sandbox/github/Lion-IRVT/Hardware/source/tida-010086/bts_F283
    8688                      .dwattr $C$DW$T$50, DW_AT_decl_line(0x4a4)
    8689                      .dwattr $C$DW$T$50, DW_AT_decl_column(0x03)
    8690              
    8691                      .dwendtag $C$DW$TU$50
    8692              
    8693              
    8694              $C$DW$TU$51     .dwtag  DW_TAG_type_unit
    8695                      .dwmtype  $C$DW$T$51
TMS320C2000 Assembler PC v20.2.4 Tue Mar  2 07:24:45 2021

Copyright (c) 1996-2018 Texas Instruments Incorporated
bts.asm                                                              PAGE  186

    8696              $C$DW$T$51      .dwtag  DW_TAG_pointer_type
    8697                      .dwattr $C$DW$T$51, DW_AT_type(*$C$DW$T$50)
    8698                      .dwattr $C$DW$T$51, DW_AT_address_class(0x20)
    8699              
    8700                      .dwendtag $C$DW$TU$51
    8701              

No Assembly Errors, No Assembly Warnings
