TMS320C2000 Assembler PC v22.6.1 Tue Aug 13 19:46:08 2024

Copyright (c) 1996-2018 Texas Instruments Incorporated
bts.asm                                                              PAGE    1

       1              ;***************************************************************
       2              ;* TMS320C2000 G3 C/C++ Codegen                               PC v22.6.1.LTS *
       3              ;* Date/Time created: Tue Aug 13 19:46:07 2024                 *
       4              ;***************************************************************
       5                      .compiler_opts --abi=eabi --cla_support=cla1 --diag_wrap=off --float_support=fpu32 --hll_source=on --
       6                      .asg    XAR2, FP
       7              
       8              $C$DW$CU        .dwtag  DW_TAG_compile_unit
       9                      .dwattr $C$DW$CU, DW_AT_name("../bts.c")
      10                      .dwattr $C$DW$CU, DW_AT_producer("TI TMS320C2000 G3 C/C++ Codegen PC v22.6.1.LTS Copyright (c) 1996-2
      11                      .dwattr $C$DW$CU, DW_AT_TI_version(0x01)
      12                      .dwattr $C$DW$CU, DW_AT_comp_dir("C:\sandbox\github\Lion-IRVT\Hardware\source\tida-010086\bts_F2837xD
      13              
      14              $C$DW$1 .dwtag  DW_TAG_subprogram
      15                      .dwattr $C$DW$1, DW_AT_name("SFRA_F32_reset")
      16                      .dwattr $C$DW$1, DW_AT_linkage_name("SFRA_F32_reset")
      17                      .dwattr $C$DW$1, DW_AT_declaration
      18                      .dwattr $C$DW$1, DW_AT_external
      19                      .dwattr $C$DW$1, DW_AT_decl_file("C:/ti/c2000/C2000Ware_DigitalPower_SDK_5_03_00_00/libraries/sfra/in
      20                      .dwattr $C$DW$1, DW_AT_decl_line(0x5a)
      21                      .dwattr $C$DW$1, DW_AT_decl_column(0x0d)
      22              $C$DW$2 .dwtag  DW_TAG_formal_parameter
      23                      .dwattr $C$DW$2, DW_AT_type(*$C$DW$T$59)
      24              
      25                      .dwendtag $C$DW$1
      26              
      27              
      28              $C$DW$3 .dwtag  DW_TAG_subprogram
      29                      .dwattr $C$DW$3, DW_AT_name("SFRA_F32_config")
      30                      .dwattr $C$DW$3, DW_AT_linkage_name("SFRA_F32_config")
      31                      .dwattr $C$DW$3, DW_AT_declaration
      32                      .dwattr $C$DW$3, DW_AT_external
      33                      .dwattr $C$DW$3, DW_AT_decl_file("C:/ti/c2000/C2000Ware_DigitalPower_SDK_5_03_00_00/libraries/sfra/in
      34                      .dwattr $C$DW$3, DW_AT_decl_line(0x6e)
      35                      .dwattr $C$DW$3, DW_AT_decl_column(0x0d)
      36              $C$DW$4 .dwtag  DW_TAG_formal_parameter
      37                      .dwattr $C$DW$4, DW_AT_type(*$C$DW$T$59)
      38              
      39              $C$DW$5 .dwtag  DW_TAG_formal_parameter
      40                      .dwattr $C$DW$5, DW_AT_type(*$C$DW$T$19)
      41              
      42              $C$DW$6 .dwtag  DW_TAG_formal_parameter
      43                      .dwattr $C$DW$6, DW_AT_type(*$C$DW$T$19)
      44              
      45              $C$DW$7 .dwtag  DW_TAG_formal_parameter
      46                      .dwattr $C$DW$7, DW_AT_type(*$C$DW$T$22)
      47              
      48              $C$DW$8 .dwtag  DW_TAG_formal_parameter
      49                      .dwattr $C$DW$8, DW_AT_type(*$C$DW$T$19)
      50              
      51              $C$DW$9 .dwtag  DW_TAG_formal_parameter
      52                      .dwattr $C$DW$9, DW_AT_type(*$C$DW$T$19)
      53              
      54              $C$DW$10        .dwtag  DW_TAG_formal_parameter
      55                      .dwattr $C$DW$10, DW_AT_type(*$C$DW$T$20)
TMS320C2000 Assembler PC v22.6.1 Tue Aug 13 19:46:08 2024

Copyright (c) 1996-2018 Texas Instruments Incorporated
bts.asm                                                              PAGE    2

      56              
      57              $C$DW$11        .dwtag  DW_TAG_formal_parameter
      58                      .dwattr $C$DW$11, DW_AT_type(*$C$DW$T$20)
      59              
      60              $C$DW$12        .dwtag  DW_TAG_formal_parameter
      61                      .dwattr $C$DW$12, DW_AT_type(*$C$DW$T$20)
      62              
      63              $C$DW$13        .dwtag  DW_TAG_formal_parameter
      64                      .dwattr $C$DW$13, DW_AT_type(*$C$DW$T$20)
      65              
      66              $C$DW$14        .dwtag  DW_TAG_formal_parameter
      67                      .dwattr $C$DW$14, DW_AT_type(*$C$DW$T$20)
      68              
      69              $C$DW$15        .dwtag  DW_TAG_formal_parameter
      70                      .dwattr $C$DW$15, DW_AT_type(*$C$DW$T$20)
      71              
      72              $C$DW$16        .dwtag  DW_TAG_formal_parameter
      73                      .dwattr $C$DW$16, DW_AT_type(*$C$DW$T$20)
      74              
      75              $C$DW$17        .dwtag  DW_TAG_formal_parameter
      76                      .dwattr $C$DW$17, DW_AT_type(*$C$DW$T$22)
      77              
      78                      .dwendtag $C$DW$3
      79              
      80              
      81              $C$DW$18        .dwtag  DW_TAG_subprogram
      82                      .dwattr $C$DW$18, DW_AT_name("SFRA_F32_resetFreqRespArray")
      83                      .dwattr $C$DW$18, DW_AT_linkage_name("SFRA_F32_resetFreqRespArray")
      84                      .dwattr $C$DW$18, DW_AT_declaration
      85                      .dwattr $C$DW$18, DW_AT_external
      86                      .dwattr $C$DW$18, DW_AT_decl_file("C:/ti/c2000/C2000Ware_DigitalPower_SDK_5_03_00_00/libraries/sfra/i
      87                      .dwattr $C$DW$18, DW_AT_decl_line(0x8c)
      88                      .dwattr $C$DW$18, DW_AT_decl_column(0x0d)
      89              $C$DW$19        .dwtag  DW_TAG_formal_parameter
      90                      .dwattr $C$DW$19, DW_AT_type(*$C$DW$T$59)
      91              
      92                      .dwendtag $C$DW$18
      93              
      94              
      95              $C$DW$20        .dwtag  DW_TAG_subprogram
      96                      .dwattr $C$DW$20, DW_AT_name("SFRA_F32_initFreqArrayWithLogSteps")
      97                      .dwattr $C$DW$20, DW_AT_linkage_name("SFRA_F32_initFreqArrayWithLogSteps")
      98                      .dwattr $C$DW$20, DW_AT_declaration
      99                      .dwattr $C$DW$20, DW_AT_external
     100                      .dwattr $C$DW$20, DW_AT_decl_file("C:/ti/c2000/C2000Ware_DigitalPower_SDK_5_03_00_00/libraries/sfra/i
     101                      .dwattr $C$DW$20, DW_AT_decl_line(0x83)
     102                      .dwattr $C$DW$20, DW_AT_decl_column(0x0d)
     103              $C$DW$21        .dwtag  DW_TAG_formal_parameter
     104                      .dwattr $C$DW$21, DW_AT_type(*$C$DW$T$59)
     105              
     106              $C$DW$22        .dwtag  DW_TAG_formal_parameter
     107                      .dwattr $C$DW$22, DW_AT_type(*$C$DW$T$19)
     108              
     109              $C$DW$23        .dwtag  DW_TAG_formal_parameter
     110                      .dwattr $C$DW$23, DW_AT_type(*$C$DW$T$19)
TMS320C2000 Assembler PC v22.6.1 Tue Aug 13 19:46:08 2024

Copyright (c) 1996-2018 Texas Instruments Incorporated
bts.asm                                                              PAGE    3

     111              
     112                      .dwendtag $C$DW$20
     113              
     114              
     115              $C$DW$24        .dwtag  DW_TAG_subprogram
     116                      .dwattr $C$DW$24, DW_AT_name("SFRA_GUI_config")
     117                      .dwattr $C$DW$24, DW_AT_linkage_name("SFRA_GUI_config")
     118                      .dwattr $C$DW$24, DW_AT_declaration
     119                      .dwattr $C$DW$24, DW_AT_external
     120                      .dwattr $C$DW$24, DW_AT_decl_file("C:/ti/c2000/C2000Ware_DigitalPower_SDK_5_03_00_00/libraries/sfra/g
     121                      .dwattr $C$DW$24, DW_AT_decl_line(0x3b)
     122                      .dwattr $C$DW$24, DW_AT_decl_column(0x06)
     123              $C$DW$25        .dwtag  DW_TAG_formal_parameter
     124                      .dwattr $C$DW$25, DW_AT_type(*$C$DW$T$102)
     125              
     126              $C$DW$26        .dwtag  DW_TAG_formal_parameter
     127                      .dwattr $C$DW$26, DW_AT_type(*$C$DW$T$37)
     128              
     129              $C$DW$27        .dwtag  DW_TAG_formal_parameter
     130                      .dwattr $C$DW$27, DW_AT_type(*$C$DW$T$37)
     131              
     132              $C$DW$28        .dwtag  DW_TAG_formal_parameter
     133                      .dwattr $C$DW$28, DW_AT_type(*$C$DW$T$26)
     134              
     135              $C$DW$29        .dwtag  DW_TAG_formal_parameter
     136                      .dwattr $C$DW$29, DW_AT_type(*$C$DW$T$37)
     137              
     138              $C$DW$30        .dwtag  DW_TAG_formal_parameter
     139                      .dwattr $C$DW$30, DW_AT_type(*$C$DW$T$26)
     140              
     141              $C$DW$31        .dwtag  DW_TAG_formal_parameter
     142                      .dwattr $C$DW$31, DW_AT_type(*$C$DW$T$37)
     143              
     144              $C$DW$32        .dwtag  DW_TAG_formal_parameter
     145                      .dwattr $C$DW$32, DW_AT_type(*$C$DW$T$26)
     146              
     147              $C$DW$33        .dwtag  DW_TAG_formal_parameter
     148                      .dwattr $C$DW$33, DW_AT_type(*$C$DW$T$26)
     149              
     150              $C$DW$34        .dwtag  DW_TAG_formal_parameter
     151                      .dwattr $C$DW$34, DW_AT_type(*$C$DW$T$37)
     152              
     153              $C$DW$35        .dwtag  DW_TAG_formal_parameter
     154                      .dwattr $C$DW$35, DW_AT_type(*$C$DW$T$59)
     155              
     156              $C$DW$36        .dwtag  DW_TAG_formal_parameter
     157                      .dwattr $C$DW$36, DW_AT_type(*$C$DW$T$26)
     158              
     159                      .dwendtag $C$DW$24
     160              
     161              
     162              $C$DW$37        .dwtag  DW_TAG_subprogram
     163                      .dwattr $C$DW$37, DW_AT_name("handleI2C_ErrorCondition")
     164                      .dwattr $C$DW$37, DW_AT_linkage_name("handleI2C_ErrorCondition")
     165                      .dwattr $C$DW$37, DW_AT_declaration
TMS320C2000 Assembler PC v22.6.1 Tue Aug 13 19:46:08 2024

Copyright (c) 1996-2018 Texas Instruments Incorporated
bts.asm                                                              PAGE    4

     166                      .dwattr $C$DW$37, DW_AT_external
     167                      .dwattr $C$DW$37, DW_AT_decl_file("C:\sandbox\github\Lion-IRVT\Hardware\source\tida-010086\bts_F2837x
     168                      .dwattr $C$DW$37, DW_AT_decl_line(0x65)
     169                      .dwattr $C$DW$37, DW_AT_decl_column(0x0d)
     170              $C$DW$38        .dwtag  DW_TAG_formal_parameter
     171                      .dwattr $C$DW$38, DW_AT_type(*$C$DW$T$40)
     172              
     173                      .dwendtag $C$DW$37
     174              
     175              
     176              $C$DW$39        .dwtag  DW_TAG_subprogram
     177                      .dwattr $C$DW$39, DW_AT_name("Write_Read_TX_RX_FIFO")
     178                      .dwattr $C$DW$39, DW_AT_linkage_name("Write_Read_TX_RX_FIFO")
     179                      .dwattr $C$DW$39, DW_AT_declaration
     180                      .dwattr $C$DW$39, DW_AT_external
     181                      .dwattr $C$DW$39, DW_AT_decl_file("C:\sandbox\github\Lion-IRVT\Hardware\source\tida-010086\bts_F2837x
     182                      .dwattr $C$DW$39, DW_AT_decl_line(0x66)
     183                      .dwattr $C$DW$39, DW_AT_decl_column(0x0d)
     184              $C$DW$40        .dwtag  DW_TAG_formal_parameter
     185                      .dwattr $C$DW$40, DW_AT_type(*$C$DW$T$40)
     186              
     187                      .dwendtag $C$DW$39
     188              
     189              
     190              $C$DW$41        .dwtag  DW_TAG_subprogram
     191                      .dwattr $C$DW$41, DW_AT_name("I2C_disableInterrupt")
     192                      .dwattr $C$DW$41, DW_AT_linkage_name("I2C_disableInterrupt")
     193                      .dwattr $C$DW$41, DW_AT_declaration
     194                      .dwattr $C$DW$41, DW_AT_external
     195                      .dwattr $C$DW$41, DW_AT_decl_file("C:/ti/c2000/C2000Ware_DigitalPower_SDK_5_03_00_00/c2000ware/driver
     196                      .dwattr $C$DW$41, DW_AT_decl_line(0x4f8)
     197                      .dwattr $C$DW$41, DW_AT_decl_column(0x01)
     198              $C$DW$42        .dwtag  DW_TAG_formal_parameter
     199                      .dwattr $C$DW$42, DW_AT_type(*$C$DW$T$37)
     200              
     201              $C$DW$43        .dwtag  DW_TAG_formal_parameter
     202                      .dwattr $C$DW$43, DW_AT_type(*$C$DW$T$37)
     203              
     204                      .dwendtag $C$DW$41
     205              
     206              
     207              $C$DW$44        .dwtag  DW_TAG_subprogram
     208                      .dwattr $C$DW$44, DW_AT_name("I2C_enableInterrupt")
     209                      .dwattr $C$DW$44, DW_AT_linkage_name("I2C_enableInterrupt")
     210                      .dwattr $C$DW$44, DW_AT_declaration
     211                      .dwattr $C$DW$44, DW_AT_external
     212                      .dwattr $C$DW$44, DW_AT_decl_file("C:/ti/c2000/C2000Ware_DigitalPower_SDK_5_03_00_00/c2000ware/driver
     213                      .dwattr $C$DW$44, DW_AT_decl_line(0x4e4)
     214                      .dwattr $C$DW$44, DW_AT_decl_column(0x01)
     215              $C$DW$45        .dwtag  DW_TAG_formal_parameter
     216                      .dwattr $C$DW$45, DW_AT_type(*$C$DW$T$37)
     217              
     218              $C$DW$46        .dwtag  DW_TAG_formal_parameter
     219                      .dwattr $C$DW$46, DW_AT_type(*$C$DW$T$37)
     220              
TMS320C2000 Assembler PC v22.6.1 Tue Aug 13 19:46:08 2024

Copyright (c) 1996-2018 Texas Instruments Incorporated
bts.asm                                                              PAGE    5

     221                      .dwendtag $C$DW$44
     222              
     223              
     224              $C$DW$47        .dwtag  DW_TAG_subprogram
     225                      .dwattr $C$DW$47, DW_AT_name("I2C_clearInterruptStatus")
     226                      .dwattr $C$DW$47, DW_AT_linkage_name("I2C_clearInterruptStatus")
     227                      .dwattr $C$DW$47, DW_AT_declaration
     228                      .dwattr $C$DW$47, DW_AT_external
     229                      .dwattr $C$DW$47, DW_AT_decl_file("C:/ti/c2000/C2000Ware_DigitalPower_SDK_5_03_00_00/c2000ware/driver
     230                      .dwattr $C$DW$47, DW_AT_decl_line(0x52e)
     231                      .dwattr $C$DW$47, DW_AT_decl_column(0x01)
     232              $C$DW$48        .dwtag  DW_TAG_formal_parameter
     233                      .dwattr $C$DW$48, DW_AT_type(*$C$DW$T$37)
     234              
     235              $C$DW$49        .dwtag  DW_TAG_formal_parameter
     236                      .dwattr $C$DW$49, DW_AT_type(*$C$DW$T$37)
     237              
     238                      .dwendtag $C$DW$47
     239              
     240                      .global ||BUCK_sfoStatus||
     241 00000000               .bss    ||BUCK_sfoStatus||,1,1,0
     242              $C$DW$50        .dwtag  DW_TAG_variable
     243                      .dwattr $C$DW$50, DW_AT_name("BUCK_sfoStatus")
     244                      .dwattr $C$DW$50, DW_AT_linkage_name("BUCK_sfoStatus")
     245                      .dwattr $C$DW$50, DW_AT_location[DW_OP_addr ||BUCK_sfoStatus||]
     246                      .dwattr $C$DW$50, DW_AT_type(*$C$DW$T$26)
     247                      .dwattr $C$DW$50, DW_AT_external
     248                      .dwattr $C$DW$50, DW_AT_decl_file("../bts.c")
     249                      .dwattr $C$DW$50, DW_AT_decl_line(0x43)
     250                      .dwattr $C$DW$50, DW_AT_decl_column(0x16)
     251              
     252                      .global ||BTS_sfoStatus||
     253 00000001               .bss    ||BTS_sfoStatus||,1,1,0
     254              $C$DW$51        .dwtag  DW_TAG_variable
     255                      .dwattr $C$DW$51, DW_AT_name("BTS_sfoStatus")
     256                      .dwattr $C$DW$51, DW_AT_linkage_name("BTS_sfoStatus")
     257                      .dwattr $C$DW$51, DW_AT_location[DW_OP_addr ||BTS_sfoStatus||]
     258                      .dwattr $C$DW$51, DW_AT_type(*$C$DW$T$26)
     259                      .dwattr $C$DW$51, DW_AT_external
     260                      .dwattr $C$DW$51, DW_AT_decl_file("../bts.c")
     261                      .dwattr $C$DW$51, DW_AT_decl_line(0x44)
     262                      .dwattr $C$DW$51, DW_AT_decl_column(0x16)
     263              
     264              
     265              $C$DW$52        .dwtag  DW_TAG_subprogram
     266                      .dwattr $C$DW$52, DW_AT_name("I2CBusScan")
     267                      .dwattr $C$DW$52, DW_AT_linkage_name("I2CBusScan")
     268                      .dwattr $C$DW$52, DW_AT_type(*$C$DW$T$26)
     269                      .dwattr $C$DW$52, DW_AT_declaration
     270                      .dwattr $C$DW$52, DW_AT_external
     271                      .dwattr $C$DW$52, DW_AT_decl_file("C:\sandbox\github\Lion-IRVT\Hardware\source\tida-010086\bts_F2837x
     272                      .dwattr $C$DW$52, DW_AT_decl_line(0x5a)
     273                      .dwattr $C$DW$52, DW_AT_decl_column(0x0a)
     274              $C$DW$53        .dwtag  DW_TAG_formal_parameter
     275                      .dwattr $C$DW$53, DW_AT_type(*$C$DW$T$37)
TMS320C2000 Assembler PC v22.6.1 Tue Aug 13 19:46:08 2024

Copyright (c) 1996-2018 Texas Instruments Incorporated
bts.asm                                                              PAGE    6

     276              
     277              $C$DW$54        .dwtag  DW_TAG_formal_parameter
     278                      .dwattr $C$DW$54, DW_AT_type(*$C$DW$T$39)
     279              
     280                      .dwendtag $C$DW$52
     281              
     282              
     283              $C$DW$55        .dwtag  DW_TAG_subprogram
     284                      .dwattr $C$DW$55, DW_AT_name("I2C_MasterReceiver")
     285                      .dwattr $C$DW$55, DW_AT_linkage_name("I2C_MasterReceiver")
     286                      .dwattr $C$DW$55, DW_AT_type(*$C$DW$T$26)
     287                      .dwattr $C$DW$55, DW_AT_declaration
     288                      .dwattr $C$DW$55, DW_AT_external
     289                      .dwattr $C$DW$55, DW_AT_decl_file("C:\sandbox\github\Lion-IRVT\Hardware\source\tida-010086\bts_F2837x
     290                      .dwattr $C$DW$55, DW_AT_decl_line(0x5d)
     291                      .dwattr $C$DW$55, DW_AT_decl_column(0x0a)
     292              $C$DW$56        .dwtag  DW_TAG_formal_parameter
     293                      .dwattr $C$DW$56, DW_AT_type(*$C$DW$T$40)
     294              
     295                      .dwendtag $C$DW$55
     296              
     297              
     298              $C$DW$57        .dwtag  DW_TAG_subprogram
     299                      .dwattr $C$DW$57, DW_AT_name("SFO")
     300                      .dwattr $C$DW$57, DW_AT_linkage_name("SFO")
     301                      .dwattr $C$DW$57, DW_AT_type(*$C$DW$T$10)
     302                      .dwattr $C$DW$57, DW_AT_declaration
     303                      .dwattr $C$DW$57, DW_AT_external
     304                      .dwattr $C$DW$57, DW_AT_decl_file("C:/sandbox/github/Lion-IRVT/Hardware/source/tida-010086/bts_F2837x
     305                      .dwattr $C$DW$57, DW_AT_decl_line(0x40)
     306                      .dwattr $C$DW$57, DW_AT_decl_column(0x05)
     307                      .dwendtag $C$DW$57
     308              
     309                      .global ||MEP_ScaleFactor||
     310 00000002               .bss    ||MEP_ScaleFactor||,2,1,1
     311              $C$DW$58        .dwtag  DW_TAG_variable
     312                      .dwattr $C$DW$58, DW_AT_name("MEP_ScaleFactor")
     313                      .dwattr $C$DW$58, DW_AT_linkage_name("MEP_ScaleFactor")
     314                      .dwattr $C$DW$58, DW_AT_location[DW_OP_addr ||MEP_ScaleFactor||]
     315                      .dwattr $C$DW$58, DW_AT_type(*$C$DW$T$37)
     316                      .dwattr $C$DW$58, DW_AT_external
     317                      .dwattr $C$DW$58, DW_AT_decl_file("../bts.c")
     318                      .dwattr $C$DW$58, DW_AT_decl_line(0x42)
     319                      .dwattr $C$DW$58, DW_AT_decl_column(0x16)
     320              
     321                      .global ||i2c_int_crnt_responderPtr||
     322 00000004               .bss    ||i2c_int_crnt_responderPtr||,2,1,1
     323              $C$DW$59        .dwtag  DW_TAG_variable
     324                      .dwattr $C$DW$59, DW_AT_name("i2c_int_crnt_responderPtr")
     325                      .dwattr $C$DW$59, DW_AT_linkage_name("i2c_int_crnt_responderPtr")
     326                      .dwattr $C$DW$59, DW_AT_location[DW_OP_addr ||i2c_int_crnt_responderPtr||]
     327                      .dwattr $C$DW$59, DW_AT_type(*$C$DW$T$40)
     328                      .dwattr $C$DW$59, DW_AT_external
     329                      .dwattr $C$DW$59, DW_AT_decl_file("../bts.c")
     330                      .dwattr $C$DW$59, DW_AT_decl_line(0x7e)
TMS320C2000 Assembler PC v22.6.1 Tue Aug 13 19:46:08 2024

Copyright (c) 1996-2018 Texas Instruments Incorporated
bts.asm                                                              PAGE    7

     331                      .dwattr $C$DW$59, DW_AT_decl_column(0x13)
     332              
     333                      .global ||I2CA_ControlAddr||
     334 00000006               .bss    ||I2CA_ControlAddr||,2,1,1
     335              $C$DW$60        .dwtag  DW_TAG_variable
     336                      .dwattr $C$DW$60, DW_AT_name("I2CA_ControlAddr")
     337                      .dwattr $C$DW$60, DW_AT_linkage_name("I2CA_ControlAddr")
     338                      .dwattr $C$DW$60, DW_AT_location[DW_OP_addr ||I2CA_ControlAddr||]
     339                      .dwattr $C$DW$60, DW_AT_type(*$C$DW$T$37)
     340                      .dwattr $C$DW$60, DW_AT_external
     341                      .dwattr $C$DW$60, DW_AT_decl_file("../bts.c")
     342                      .dwattr $C$DW$60, DW_AT_decl_line(0x88)
     343                      .dwattr $C$DW$60, DW_AT_decl_column(0x0a)
     344              
     345                      .global ||I2CB_ControlAddr||
     346 00000008               .bss    ||I2CB_ControlAddr||,2,1,1
     347              $C$DW$61        .dwtag  DW_TAG_variable
     348                      .dwattr $C$DW$61, DW_AT_name("I2CB_ControlAddr")
     349                      .dwattr $C$DW$61, DW_AT_linkage_name("I2CB_ControlAddr")
     350                      .dwattr $C$DW$61, DW_AT_location[DW_OP_addr ||I2CB_ControlAddr||]
     351                      .dwattr $C$DW$61, DW_AT_type(*$C$DW$T$37)
     352                      .dwattr $C$DW$61, DW_AT_external
     353                      .dwattr $C$DW$61, DW_AT_decl_file("../bts.c")
     354                      .dwattr $C$DW$61, DW_AT_decl_line(0x89)
     355                      .dwattr $C$DW$61, DW_AT_decl_column(0x0a)
     356              
     357              
     358              $C$DW$62        .dwtag  DW_TAG_subprogram
     359                      .dwattr $C$DW$62, DW_AT_name("SysCtl_getLowSpeedClock")
     360                      .dwattr $C$DW$62, DW_AT_linkage_name("SysCtl_getLowSpeedClock")
     361                      .dwattr $C$DW$62, DW_AT_type(*$C$DW$T$37)
     362                      .dwattr $C$DW$62, DW_AT_declaration
     363                      .dwattr $C$DW$62, DW_AT_external
     364                      .dwattr $C$DW$62, DW_AT_decl_file("C:\ti\c2000\C2000Ware_DigitalPower_SDK_5_03_00_00\c2000ware\driver
     365                      .dwattr $C$DW$62, DW_AT_decl_line(0xd73)
     366                      .dwattr $C$DW$62, DW_AT_decl_column(0x01)
     367              $C$DW$63        .dwtag  DW_TAG_formal_parameter
     368                      .dwattr $C$DW$63, DW_AT_type(*$C$DW$T$37)
     369              
     370                      .dwendtag $C$DW$62
     371              
     372                      .global ||BTS_ctrl_ch1||
     373 00000000               .data
     374                      .align  2
     375                      .elfsym ||BTS_ctrl_ch1||,SYM_SIZE(18),SYM_BLOCKED(1)
     376 00000000       ||BTS_ctrl_ch1||:
     377 00000000 0000          .xfloat $strtod("0x1p+0")               ; BTS_ctrl_ch1.b0 @ 0
         00000001 3F80 
     378 00000002 0000          .xfloat $strtod("0x0p+0")               ; BTS_ctrl_ch1.b1 @ 32
         00000003 0000 
     379 00000004 0000          .xfloat $strtod("0x0p+0")               ; BTS_ctrl_ch1.b2 @ 64
         00000005 0000 
     380 00000006 0000          .xfloat $strtod("0x0p+0")               ; BTS_ctrl_ch1.a1 @ 96
         00000007 0000 
     381 00000008 0000          .xfloat $strtod("0x0p+0")               ; BTS_ctrl_ch1.a2 @ 128
TMS320C2000 Assembler PC v22.6.1 Tue Aug 13 19:46:08 2024

Copyright (c) 1996-2018 Texas Instruments Incorporated
bts.asm                                                              PAGE    8

         00000009 0000 
     382 0000000a 0000          .xfloat $strtod("0x0p+0")               ; BTS_ctrl_ch1.x1 @ 160
         0000000b 0000 
     383 0000000c 0000          .xfloat $strtod("0x0p+0")               ; BTS_ctrl_ch1.x2 @ 192
         0000000d 0000 
     384 0000000e 0000          .bits           0,32
         0000000f 0000 
     385                                      ; BTS_ctrl_ch1.sps @ 224
     386 00000010 0000          .bits           0,32
         00000011 0000 
     387                                      ; BTS_ctrl_ch1.css @ 256
     388              
     389              $C$DW$64        .dwtag  DW_TAG_variable
     390                      .dwattr $C$DW$64, DW_AT_name("BTS_ctrl_ch1")
     391                      .dwattr $C$DW$64, DW_AT_linkage_name("BTS_ctrl_ch1")
     392                      .dwattr $C$DW$64, DW_AT_location[DW_OP_addr ||BTS_ctrl_ch1||]
     393                      .dwattr $C$DW$64, DW_AT_type(*$C$DW$T$151)
     394                      .dwattr $C$DW$64, DW_AT_external
     395                      .dwattr $C$DW$64, DW_AT_decl_file("../bts.c")
     396                      .dwattr $C$DW$64, DW_AT_decl_line(0x56)
     397                      .dwattr $C$DW$64, DW_AT_decl_column(0x1e)
     398              
     399                      .global ||BTS_ctrl_ch2||
     400 00000012               .data
     401                      .align  2
     402                      .elfsym ||BTS_ctrl_ch2||,SYM_SIZE(18),SYM_BLOCKED(1)
     403 00000012       ||BTS_ctrl_ch2||:
     404 00000012 0000          .xfloat $strtod("0x1p+0")               ; BTS_ctrl_ch2.b0 @ 0
         00000013 3F80 
     405 00000014 0000          .xfloat $strtod("0x0p+0")               ; BTS_ctrl_ch2.b1 @ 32
         00000015 0000 
     406 00000016 0000          .xfloat $strtod("0x0p+0")               ; BTS_ctrl_ch2.b2 @ 64
         00000017 0000 
     407 00000018 0000          .xfloat $strtod("0x0p+0")               ; BTS_ctrl_ch2.a1 @ 96
         00000019 0000 
     408 0000001a 0000          .xfloat $strtod("0x0p+0")               ; BTS_ctrl_ch2.a2 @ 128
         0000001b 0000 
     409 0000001c 0000          .xfloat $strtod("0x0p+0")               ; BTS_ctrl_ch2.x1 @ 160
         0000001d 0000 
     410 0000001e 0000          .xfloat $strtod("0x0p+0")               ; BTS_ctrl_ch2.x2 @ 192
         0000001f 0000 
     411 00000020 0000          .bits           0,32
         00000021 0000 
     412                                      ; BTS_ctrl_ch2.sps @ 224
     413 00000022 0000          .bits           0,32
         00000023 0000 
     414                                      ; BTS_ctrl_ch2.css @ 256
     415              
     416              $C$DW$65        .dwtag  DW_TAG_variable
     417                      .dwattr $C$DW$65, DW_AT_name("BTS_ctrl_ch2")
     418                      .dwattr $C$DW$65, DW_AT_linkage_name("BTS_ctrl_ch2")
     419                      .dwattr $C$DW$65, DW_AT_location[DW_OP_addr ||BTS_ctrl_ch2||]
     420                      .dwattr $C$DW$65, DW_AT_type(*$C$DW$T$151)
     421                      .dwattr $C$DW$65, DW_AT_external
     422                      .dwattr $C$DW$65, DW_AT_decl_file("../bts.c")
TMS320C2000 Assembler PC v22.6.1 Tue Aug 13 19:46:08 2024

Copyright (c) 1996-2018 Texas Instruments Incorporated
bts.asm                                                              PAGE    9

     423                      .dwattr $C$DW$65, DW_AT_decl_line(0x57)
     424                      .dwattr $C$DW$65, DW_AT_decl_column(0x1e)
     425              
     426                      .global ||BTS_ctrl_ch3||
     427 00000024               .data
     428                      .align  2
     429                      .elfsym ||BTS_ctrl_ch3||,SYM_SIZE(18),SYM_BLOCKED(1)
     430 00000024       ||BTS_ctrl_ch3||:
     431 00000024 0000          .xfloat $strtod("0x1p+0")               ; BTS_ctrl_ch3.b0 @ 0
         00000025 3F80 
     432 00000026 0000          .xfloat $strtod("0x0p+0")               ; BTS_ctrl_ch3.b1 @ 32
         00000027 0000 
     433 00000028 0000          .xfloat $strtod("0x0p+0")               ; BTS_ctrl_ch3.b2 @ 64
         00000029 0000 
     434 0000002a 0000          .xfloat $strtod("0x0p+0")               ; BTS_ctrl_ch3.a1 @ 96
         0000002b 0000 
     435 0000002c 0000          .xfloat $strtod("0x0p+0")               ; BTS_ctrl_ch3.a2 @ 128
         0000002d 0000 
     436 0000002e 0000          .xfloat $strtod("0x0p+0")               ; BTS_ctrl_ch3.x1 @ 160
         0000002f 0000 
     437 00000030 0000          .xfloat $strtod("0x0p+0")               ; BTS_ctrl_ch3.x2 @ 192
         00000031 0000 
     438 00000032 0000          .bits           0,32
         00000033 0000 
     439                                      ; BTS_ctrl_ch3.sps @ 224
     440 00000034 0000          .bits           0,32
         00000035 0000 
     441                                      ; BTS_ctrl_ch3.css @ 256
     442              
     443              $C$DW$66        .dwtag  DW_TAG_variable
     444                      .dwattr $C$DW$66, DW_AT_name("BTS_ctrl_ch3")
     445                      .dwattr $C$DW$66, DW_AT_linkage_name("BTS_ctrl_ch3")
     446                      .dwattr $C$DW$66, DW_AT_location[DW_OP_addr ||BTS_ctrl_ch3||]
     447                      .dwattr $C$DW$66, DW_AT_type(*$C$DW$T$151)
     448                      .dwattr $C$DW$66, DW_AT_external
     449                      .dwattr $C$DW$66, DW_AT_decl_file("../bts.c")
     450                      .dwattr $C$DW$66, DW_AT_decl_line(0x58)
     451                      .dwattr $C$DW$66, DW_AT_decl_column(0x1e)
     452              
     453                      .global ||BTS_ctrl_ch4||
     454 00000036               .data
     455                      .align  2
     456                      .elfsym ||BTS_ctrl_ch4||,SYM_SIZE(18),SYM_BLOCKED(1)
     457 00000040       ||BTS_ctrl_ch4||:
     458 00000040 0000          .xfloat $strtod("0x1p+0")               ; BTS_ctrl_ch4.b0 @ 0
         00000041 3F80 
     459 00000042 0000          .xfloat $strtod("0x0p+0")               ; BTS_ctrl_ch4.b1 @ 32
         00000043 0000 
     460 00000044 0000          .xfloat $strtod("0x0p+0")               ; BTS_ctrl_ch4.b2 @ 64
         00000045 0000 
     461 00000046 0000          .xfloat $strtod("0x0p+0")               ; BTS_ctrl_ch4.a1 @ 96
         00000047 0000 
     462 00000048 0000          .xfloat $strtod("0x0p+0")               ; BTS_ctrl_ch4.a2 @ 128
         00000049 0000 
     463 0000004a 0000          .xfloat $strtod("0x0p+0")               ; BTS_ctrl_ch4.x1 @ 160
TMS320C2000 Assembler PC v22.6.1 Tue Aug 13 19:46:08 2024

Copyright (c) 1996-2018 Texas Instruments Incorporated
bts.asm                                                              PAGE   10

         0000004b 0000 
     464 0000004c 0000          .xfloat $strtod("0x0p+0")               ; BTS_ctrl_ch4.x2 @ 192
         0000004d 0000 
     465 0000004e 0000          .bits           0,32
         0000004f 0000 
     466                                      ; BTS_ctrl_ch4.sps @ 224
     467 00000050 0000          .bits           0,32
         00000051 0000 
     468                                      ; BTS_ctrl_ch4.css @ 256
     469              
     470              $C$DW$67        .dwtag  DW_TAG_variable
     471                      .dwattr $C$DW$67, DW_AT_name("BTS_ctrl_ch4")
     472                      .dwattr $C$DW$67, DW_AT_linkage_name("BTS_ctrl_ch4")
     473                      .dwattr $C$DW$67, DW_AT_location[DW_OP_addr ||BTS_ctrl_ch4||]
     474                      .dwattr $C$DW$67, DW_AT_type(*$C$DW$T$151)
     475                      .dwattr $C$DW$67, DW_AT_external
     476                      .dwattr $C$DW$67, DW_AT_decl_file("../bts.c")
     477                      .dwattr $C$DW$67, DW_AT_decl_line(0x59)
     478                      .dwattr $C$DW$67, DW_AT_decl_column(0x1e)
     479              
     480                      .global ||BTS_ctrl_ch5||
     481 00000052               .data
     482                      .align  2
     483                      .elfsym ||BTS_ctrl_ch5||,SYM_SIZE(18),SYM_BLOCKED(1)
     484 00000052       ||BTS_ctrl_ch5||:
     485 00000052 0000          .xfloat $strtod("0x1p+0")               ; BTS_ctrl_ch5.b0 @ 0
         00000053 3F80 
     486 00000054 0000          .xfloat $strtod("0x0p+0")               ; BTS_ctrl_ch5.b1 @ 32
         00000055 0000 
     487 00000056 0000          .xfloat $strtod("0x0p+0")               ; BTS_ctrl_ch5.b2 @ 64
         00000057 0000 
     488 00000058 0000          .xfloat $strtod("0x0p+0")               ; BTS_ctrl_ch5.a1 @ 96
         00000059 0000 
     489 0000005a 0000          .xfloat $strtod("0x0p+0")               ; BTS_ctrl_ch5.a2 @ 128
         0000005b 0000 
     490 0000005c 0000          .xfloat $strtod("0x0p+0")               ; BTS_ctrl_ch5.x1 @ 160
         0000005d 0000 
     491 0000005e 0000          .xfloat $strtod("0x0p+0")               ; BTS_ctrl_ch5.x2 @ 192
         0000005f 0000 
     492 00000060 0000          .bits           0,32
         00000061 0000 
     493                                      ; BTS_ctrl_ch5.sps @ 224
     494 00000062 0000          .bits           0,32
         00000063 0000 
     495                                      ; BTS_ctrl_ch5.css @ 256
     496              
     497              $C$DW$68        .dwtag  DW_TAG_variable
     498                      .dwattr $C$DW$68, DW_AT_name("BTS_ctrl_ch5")
     499                      .dwattr $C$DW$68, DW_AT_linkage_name("BTS_ctrl_ch5")
     500                      .dwattr $C$DW$68, DW_AT_location[DW_OP_addr ||BTS_ctrl_ch5||]
     501                      .dwattr $C$DW$68, DW_AT_type(*$C$DW$T$151)
     502                      .dwattr $C$DW$68, DW_AT_external
     503                      .dwattr $C$DW$68, DW_AT_decl_file("../bts.c")
     504                      .dwattr $C$DW$68, DW_AT_decl_line(0x5a)
     505                      .dwattr $C$DW$68, DW_AT_decl_column(0x1e)
TMS320C2000 Assembler PC v22.6.1 Tue Aug 13 19:46:08 2024

Copyright (c) 1996-2018 Texas Instruments Incorporated
bts.asm                                                              PAGE   11

     506              
     507                      .global ||BTS_ctrl_ch6||
     508 00000064               .data
     509                      .align  2
     510                      .elfsym ||BTS_ctrl_ch6||,SYM_SIZE(18),SYM_BLOCKED(1)
     511 00000064       ||BTS_ctrl_ch6||:
     512 00000064 0000          .xfloat $strtod("0x1p+0")               ; BTS_ctrl_ch6.b0 @ 0
         00000065 3F80 
     513 00000066 0000          .xfloat $strtod("0x0p+0")               ; BTS_ctrl_ch6.b1 @ 32
         00000067 0000 
     514 00000068 0000          .xfloat $strtod("0x0p+0")               ; BTS_ctrl_ch6.b2 @ 64
         00000069 0000 
     515 0000006a 0000          .xfloat $strtod("0x0p+0")               ; BTS_ctrl_ch6.a1 @ 96
         0000006b 0000 
     516 0000006c 0000          .xfloat $strtod("0x0p+0")               ; BTS_ctrl_ch6.a2 @ 128
         0000006d 0000 
     517 0000006e 0000          .xfloat $strtod("0x0p+0")               ; BTS_ctrl_ch6.x1 @ 160
         0000006f 0000 
     518 00000070 0000          .xfloat $strtod("0x0p+0")               ; BTS_ctrl_ch6.x2 @ 192
         00000071 0000 
     519 00000072 0000          .bits           0,32
         00000073 0000 
     520                                      ; BTS_ctrl_ch6.sps @ 224
     521 00000074 0000          .bits           0,32
         00000075 0000 
     522                                      ; BTS_ctrl_ch6.css @ 256
     523              
     524              $C$DW$69        .dwtag  DW_TAG_variable
     525                      .dwattr $C$DW$69, DW_AT_name("BTS_ctrl_ch6")
     526                      .dwattr $C$DW$69, DW_AT_linkage_name("BTS_ctrl_ch6")
     527                      .dwattr $C$DW$69, DW_AT_location[DW_OP_addr ||BTS_ctrl_ch6||]
     528                      .dwattr $C$DW$69, DW_AT_type(*$C$DW$T$151)
     529                      .dwattr $C$DW$69, DW_AT_external
     530                      .dwattr $C$DW$69, DW_AT_decl_file("../bts.c")
     531                      .dwattr $C$DW$69, DW_AT_decl_line(0x5b)
     532                      .dwattr $C$DW$69, DW_AT_decl_column(0x1e)
     533              
     534                      .global ||BTS_ctrl_ch7||
     535 00000076               .data
     536                      .align  2
     537                      .elfsym ||BTS_ctrl_ch7||,SYM_SIZE(18),SYM_BLOCKED(1)
     538 00000080       ||BTS_ctrl_ch7||:
     539 00000080 0000          .xfloat $strtod("0x1p+0")               ; BTS_ctrl_ch7.b0 @ 0
         00000081 3F80 
     540 00000082 0000          .xfloat $strtod("0x0p+0")               ; BTS_ctrl_ch7.b1 @ 32
         00000083 0000 
     541 00000084 0000          .xfloat $strtod("0x0p+0")               ; BTS_ctrl_ch7.b2 @ 64
         00000085 0000 
     542 00000086 0000          .xfloat $strtod("0x0p+0")               ; BTS_ctrl_ch7.a1 @ 96
         00000087 0000 
     543 00000088 0000          .xfloat $strtod("0x0p+0")               ; BTS_ctrl_ch7.a2 @ 128
         00000089 0000 
     544 0000008a 0000          .xfloat $strtod("0x0p+0")               ; BTS_ctrl_ch7.x1 @ 160
         0000008b 0000 
     545 0000008c 0000          .xfloat $strtod("0x0p+0")               ; BTS_ctrl_ch7.x2 @ 192
TMS320C2000 Assembler PC v22.6.1 Tue Aug 13 19:46:08 2024

Copyright (c) 1996-2018 Texas Instruments Incorporated
bts.asm                                                              PAGE   12

         0000008d 0000 
     546 0000008e 0000          .bits           0,32
         0000008f 0000 
     547                                      ; BTS_ctrl_ch7.sps @ 224
     548 00000090 0000          .bits           0,32
         00000091 0000 
     549                                      ; BTS_ctrl_ch7.css @ 256
     550              
     551              $C$DW$70        .dwtag  DW_TAG_variable
     552                      .dwattr $C$DW$70, DW_AT_name("BTS_ctrl_ch7")
     553                      .dwattr $C$DW$70, DW_AT_linkage_name("BTS_ctrl_ch7")
     554                      .dwattr $C$DW$70, DW_AT_location[DW_OP_addr ||BTS_ctrl_ch7||]
     555                      .dwattr $C$DW$70, DW_AT_type(*$C$DW$T$151)
     556                      .dwattr $C$DW$70, DW_AT_external
     557                      .dwattr $C$DW$70, DW_AT_decl_file("../bts.c")
     558                      .dwattr $C$DW$70, DW_AT_decl_line(0x5c)
     559                      .dwattr $C$DW$70, DW_AT_decl_column(0x1e)
     560              
     561                      .global ||BTS_ctrl_ch8||
     562 00000092               .data
     563                      .align  2
     564                      .elfsym ||BTS_ctrl_ch8||,SYM_SIZE(18),SYM_BLOCKED(1)
     565 00000092       ||BTS_ctrl_ch8||:
     566 00000092 0000          .xfloat $strtod("0x1p+0")               ; BTS_ctrl_ch8.b0 @ 0
         00000093 3F80 
     567 00000094 0000          .xfloat $strtod("0x0p+0")               ; BTS_ctrl_ch8.b1 @ 32
         00000095 0000 
     568 00000096 0000          .xfloat $strtod("0x0p+0")               ; BTS_ctrl_ch8.b2 @ 64
         00000097 0000 
     569 00000098 0000          .xfloat $strtod("0x0p+0")               ; BTS_ctrl_ch8.a1 @ 96
         00000099 0000 
     570 0000009a 0000          .xfloat $strtod("0x0p+0")               ; BTS_ctrl_ch8.a2 @ 128
         0000009b 0000 
     571 0000009c 0000          .xfloat $strtod("0x0p+0")               ; BTS_ctrl_ch8.x1 @ 160
         0000009d 0000 
     572 0000009e 0000          .xfloat $strtod("0x0p+0")               ; BTS_ctrl_ch8.x2 @ 192
         0000009f 0000 
     573 000000a0 0000          .bits           0,32
         000000a1 0000 
     574                                      ; BTS_ctrl_ch8.sps @ 224
     575 000000a2 0000          .bits           0,32
         000000a3 0000 
     576                                      ; BTS_ctrl_ch8.css @ 256
     577              
     578              $C$DW$71        .dwtag  DW_TAG_variable
     579                      .dwattr $C$DW$71, DW_AT_name("BTS_ctrl_ch8")
     580                      .dwattr $C$DW$71, DW_AT_linkage_name("BTS_ctrl_ch8")
     581                      .dwattr $C$DW$71, DW_AT_location[DW_OP_addr ||BTS_ctrl_ch8||]
     582                      .dwattr $C$DW$71, DW_AT_type(*$C$DW$T$151)
     583                      .dwattr $C$DW$71, DW_AT_external
     584                      .dwattr $C$DW$71, DW_AT_decl_file("../bts.c")
     585                      .dwattr $C$DW$71, DW_AT_decl_line(0x5d)
     586                      .dwattr $C$DW$71, DW_AT_decl_column(0x1e)
     587              
     588                      .global ||EEPROM||
TMS320C2000 Assembler PC v22.6.1 Tue Aug 13 19:46:08 2024

Copyright (c) 1996-2018 Texas Instruments Incorporated
bts.asm                                                              PAGE   13

     589 0000000a               .bss    ||EEPROM||,20,1,1
     590              $C$DW$72        .dwtag  DW_TAG_variable
     591                      .dwattr $C$DW$72, DW_AT_name("EEPROM")
     592                      .dwattr $C$DW$72, DW_AT_linkage_name("EEPROM")
     593                      .dwattr $C$DW$72, DW_AT_location[DW_OP_addr ||EEPROM||]
     594                      .dwattr $C$DW$72, DW_AT_type(*$C$DW$T$41)
     595                      .dwattr $C$DW$72, DW_AT_external
     596                      .dwattr $C$DW$72, DW_AT_decl_file("../bts.c")
     597                      .dwattr $C$DW$72, DW_AT_decl_line(0x6f)
     598                      .dwattr $C$DW$72, DW_AT_decl_column(0x13)
     599              
     600                      .global ||I2CA||
     601 0000001e               .bss    ||I2CA||,20,1,1
     602              $C$DW$73        .dwtag  DW_TAG_variable
     603                      .dwattr $C$DW$73, DW_AT_name("I2CA")
     604                      .dwattr $C$DW$73, DW_AT_linkage_name("I2CA")
     605                      .dwattr $C$DW$73, DW_AT_location[DW_OP_addr ||I2CA||]
     606                      .dwattr $C$DW$73, DW_AT_type(*$C$DW$T$41)
     607                      .dwattr $C$DW$73, DW_AT_external
     608                      .dwattr $C$DW$73, DW_AT_decl_file("../bts.c")
     609                      .dwattr $C$DW$73, DW_AT_decl_line(0x70)
     610                      .dwattr $C$DW$73, DW_AT_decl_column(0x12)
     611              
     612                      .global ||I2CB||
     613 00000040               .bss    ||I2CB||,20,1,1
     614              $C$DW$74        .dwtag  DW_TAG_variable
     615                      .dwattr $C$DW$74, DW_AT_name("I2CB")
     616                      .dwattr $C$DW$74, DW_AT_linkage_name("I2CB")
     617                      .dwattr $C$DW$74, DW_AT_location[DW_OP_addr ||I2CB||]
     618                      .dwattr $C$DW$74, DW_AT_type(*$C$DW$T$41)
     619                      .dwattr $C$DW$74, DW_AT_external
     620                      .dwattr $C$DW$74, DW_AT_decl_file("../bts.c")
     621                      .dwattr $C$DW$74, DW_AT_decl_line(0x71)
     622                      .dwattr $C$DW$74, DW_AT_decl_column(0x12)
     623              
     624                      .global ||AvailableI2C_slaves||
     625 00000000       ||AvailableI2C_slaves||:        .usect  ".bss:AvailableI2C_slaves",20,0,0
     626              $C$DW$75        .dwtag  DW_TAG_variable
     627                      .dwattr $C$DW$75, DW_AT_name("AvailableI2C_slaves")
     628                      .dwattr $C$DW$75, DW_AT_linkage_name("AvailableI2C_slaves")
     629                      .dwattr $C$DW$75, DW_AT_location[DW_OP_addr ||AvailableI2C_slaves||]
     630                      .dwattr $C$DW$75, DW_AT_type(*$C$DW$T$129)
     631                      .dwattr $C$DW$75, DW_AT_external
     632                      .dwattr $C$DW$75, DW_AT_decl_file("../bts.c")
     633                      .dwattr $C$DW$75, DW_AT_decl_line(0x80)
     634                      .dwattr $C$DW$75, DW_AT_decl_column(0x0a)
     635              
     636                      .global ||BTS_sfra||
     637 00000054               .bss    ||BTS_sfra||,32,1,1
     638              $C$DW$76        .dwtag  DW_TAG_variable
     639                      .dwattr $C$DW$76, DW_AT_name("BTS_sfra")
     640                      .dwattr $C$DW$76, DW_AT_linkage_name("BTS_sfra")
     641                      .dwattr $C$DW$76, DW_AT_location[DW_OP_addr ||BTS_sfra||]
     642                      .dwattr $C$DW$76, DW_AT_type(*$C$DW$T$58)
     643                      .dwattr $C$DW$76, DW_AT_external
TMS320C2000 Assembler PC v22.6.1 Tue Aug 13 19:46:08 2024

Copyright (c) 1996-2018 Texas Instruments Incorporated
bts.asm                                                              PAGE   14

     644                      .dwattr $C$DW$76, DW_AT_decl_file("../bts.c")
     645                      .dwattr $C$DW$76, DW_AT_decl_line(0x92)
     646                      .dwattr $C$DW$76, DW_AT_decl_column(0x16)
     647              
     648                      .global ||I2CA_TXdata||
     649 00000000       ||I2CA_TXdata||:        .usect  ".bss:I2CA_TXdata",64,0,0
     650              $C$DW$77        .dwtag  DW_TAG_variable
     651                      .dwattr $C$DW$77, DW_AT_name("I2CA_TXdata")
     652                      .dwattr $C$DW$77, DW_AT_linkage_name("I2CA_TXdata")
     653                      .dwattr $C$DW$77, DW_AT_location[DW_OP_addr ||I2CA_TXdata||]
     654                      .dwattr $C$DW$77, DW_AT_type(*$C$DW$T$130)
     655                      .dwattr $C$DW$77, DW_AT_external
     656                      .dwattr $C$DW$77, DW_AT_decl_file("../bts.c")
     657                      .dwattr $C$DW$77, DW_AT_decl_line(0x82)
     658                      .dwattr $C$DW$77, DW_AT_decl_column(0x0a)
     659              
     660                      .global ||I2CB_TXdata||
     661 00000000       ||I2CB_TXdata||:        .usect  ".bss:I2CB_TXdata",64,0,0
     662              $C$DW$78        .dwtag  DW_TAG_variable
     663                      .dwattr $C$DW$78, DW_AT_name("I2CB_TXdata")
     664                      .dwattr $C$DW$78, DW_AT_linkage_name("I2CB_TXdata")
     665                      .dwattr $C$DW$78, DW_AT_location[DW_OP_addr ||I2CB_TXdata||]
     666                      .dwattr $C$DW$78, DW_AT_type(*$C$DW$T$130)
     667                      .dwattr $C$DW$78, DW_AT_external
     668                      .dwattr $C$DW$78, DW_AT_decl_file("../bts.c")
     669                      .dwattr $C$DW$78, DW_AT_decl_line(0x83)
     670                      .dwattr $C$DW$78, DW_AT_decl_column(0x0a)
     671              
     672                      .global ||I2CA_RXdata||
     673 00000000       ||I2CA_RXdata||:        .usect  ".bss:I2CA_RXdata",64,0,0
     674              $C$DW$79        .dwtag  DW_TAG_variable
     675                      .dwattr $C$DW$79, DW_AT_name("I2CA_RXdata")
     676                      .dwattr $C$DW$79, DW_AT_linkage_name("I2CA_RXdata")
     677                      .dwattr $C$DW$79, DW_AT_location[DW_OP_addr ||I2CA_RXdata||]
     678                      .dwattr $C$DW$79, DW_AT_type(*$C$DW$T$130)
     679                      .dwattr $C$DW$79, DW_AT_external
     680                      .dwattr $C$DW$79, DW_AT_decl_file("../bts.c")
     681                      .dwattr $C$DW$79, DW_AT_decl_line(0x85)
     682                      .dwattr $C$DW$79, DW_AT_decl_column(0x0a)
     683              
     684                      .global ||I2CB_RXdata||
     685 00000000       ||I2CB_RXdata||:        .usect  ".bss:I2CB_RXdata",64,0,0
     686              $C$DW$80        .dwtag  DW_TAG_variable
     687                      .dwattr $C$DW$80, DW_AT_name("I2CB_RXdata")
     688                      .dwattr $C$DW$80, DW_AT_linkage_name("I2CB_RXdata")
     689                      .dwattr $C$DW$80, DW_AT_location[DW_OP_addr ||I2CB_RXdata||]
     690                      .dwattr $C$DW$80, DW_AT_type(*$C$DW$T$130)
     691                      .dwattr $C$DW$80, DW_AT_external
     692                      .dwattr $C$DW$80, DW_AT_decl_file("../bts.c")
     693                      .dwattr $C$DW$80, DW_AT_decl_line(0x86)
     694                      .dwattr $C$DW$80, DW_AT_decl_column(0x0a)
     695              
     696                      .global ||BTS_ctrl_cc||
     697 00000000               .sect   ".data:BTS_ctrl_cc", RW
     698                      .align  2
TMS320C2000 Assembler PC v22.6.1 Tue Aug 13 19:46:08 2024

Copyright (c) 1996-2018 Texas Instruments Incorporated
bts.asm                                                              PAGE   15

     699                      .elfsym ||BTS_ctrl_cc||,SYM_SIZE(144)
     700 00000000       ||BTS_ctrl_cc||:
     701 00000000 0000          .xfloat $strtod("0x1p+0")               ; BTS_ctrl_cc[0].b0 @ 0
         00000001 3F80 
     702 00000002 0000          .xfloat $strtod("0x0p+0")               ; BTS_ctrl_cc[0].b1 @ 32
         00000003 0000 
     703 00000004 0000          .xfloat $strtod("0x0p+0")               ; BTS_ctrl_cc[0].b2 @ 64
         00000005 0000 
     704 00000006 0000          .xfloat $strtod("0x0p+0")               ; BTS_ctrl_cc[0].a1 @ 96
         00000007 0000 
     705 00000008 0000          .xfloat $strtod("0x0p+0")               ; BTS_ctrl_cc[0].a2 @ 128
         00000009 0000 
     706 0000000a 0000          .xfloat $strtod("0x0p+0")               ; BTS_ctrl_cc[0].x1 @ 160
         0000000b 0000 
     707 0000000c 0000          .xfloat $strtod("0x0p+0")               ; BTS_ctrl_cc[0].x2 @ 192
         0000000d 0000 
     708 0000000e 0000          .bits           0,32
         0000000f 0000 
     709                                      ; BTS_ctrl_cc[0].sps @ 224
     710 00000010 0000          .bits           0,32
         00000011 0000 
     711                                      ; BTS_ctrl_cc[0].css @ 256
     712 00000012 0000          .xfloat $strtod("0x1p+0")               ; BTS_ctrl_cc[1].b0 @ 288
         00000013 3F80 
     713 00000014 0000          .xfloat $strtod("0x0p+0")               ; BTS_ctrl_cc[1].b1 @ 320
         00000015 0000 
     714 00000016 0000          .xfloat $strtod("0x0p+0")               ; BTS_ctrl_cc[1].b2 @ 352
         00000017 0000 
     715 00000018 0000          .xfloat $strtod("0x0p+0")               ; BTS_ctrl_cc[1].a1 @ 384
         00000019 0000 
     716 0000001a 0000          .xfloat $strtod("0x0p+0")               ; BTS_ctrl_cc[1].a2 @ 416
         0000001b 0000 
     717 0000001c 0000          .xfloat $strtod("0x0p+0")               ; BTS_ctrl_cc[1].x1 @ 448
         0000001d 0000 
     718 0000001e 0000          .xfloat $strtod("0x0p+0")               ; BTS_ctrl_cc[1].x2 @ 480
         0000001f 0000 
     719 00000020 0000          .bits           0,32
         00000021 0000 
     720                                      ; BTS_ctrl_cc[1].sps @ 512
     721 00000022 0000          .bits           0,32
         00000023 0000 
     722                                      ; BTS_ctrl_cc[1].css @ 544
     723 00000024 0000          .xfloat $strtod("0x1p+0")               ; BTS_ctrl_cc[2].b0 @ 576
         00000025 3F80 
     724 00000026 0000          .xfloat $strtod("0x0p+0")               ; BTS_ctrl_cc[2].b1 @ 608
         00000027 0000 
     725 00000028 0000          .xfloat $strtod("0x0p+0")               ; BTS_ctrl_cc[2].b2 @ 640
         00000029 0000 
     726 0000002a 0000          .xfloat $strtod("0x0p+0")               ; BTS_ctrl_cc[2].a1 @ 672
         0000002b 0000 
     727 0000002c 0000          .xfloat $strtod("0x0p+0")               ; BTS_ctrl_cc[2].a2 @ 704
         0000002d 0000 
     728 0000002e 0000          .xfloat $strtod("0x0p+0")               ; BTS_ctrl_cc[2].x1 @ 736
         0000002f 0000 
     729 00000030 0000          .xfloat $strtod("0x0p+0")               ; BTS_ctrl_cc[2].x2 @ 768
TMS320C2000 Assembler PC v22.6.1 Tue Aug 13 19:46:08 2024

Copyright (c) 1996-2018 Texas Instruments Incorporated
bts.asm                                                              PAGE   16

         00000031 0000 
     730 00000032 0000          .bits           0,32
         00000033 0000 
     731                                      ; BTS_ctrl_cc[2].sps @ 800
     732 00000034 0000          .bits           0,32
         00000035 0000 
     733                                      ; BTS_ctrl_cc[2].css @ 832
     734 00000036 0000          .xfloat $strtod("0x1p+0")               ; BTS_ctrl_cc[3].b0 @ 864
         00000037 3F80 
     735 00000038 0000          .xfloat $strtod("0x0p+0")               ; BTS_ctrl_cc[3].b1 @ 896
         00000039 0000 
     736 0000003a 0000          .xfloat $strtod("0x0p+0")               ; BTS_ctrl_cc[3].b2 @ 928
         0000003b 0000 
     737 0000003c 0000          .xfloat $strtod("0x0p+0")               ; BTS_ctrl_cc[3].a1 @ 960
         0000003d 0000 
     738 0000003e 0000          .xfloat $strtod("0x0p+0")               ; BTS_ctrl_cc[3].a2 @ 992
         0000003f 0000 
     739 00000040 0000          .xfloat $strtod("0x0p+0")               ; BTS_ctrl_cc[3].x1 @ 1024
         00000041 0000 
     740 00000042 0000          .xfloat $strtod("0x0p+0")               ; BTS_ctrl_cc[3].x2 @ 1056
         00000043 0000 
     741 00000044 0000          .bits           0,32
         00000045 0000 
     742                                      ; BTS_ctrl_cc[3].sps @ 1088
     743 00000046 0000          .bits           0,32
         00000047 0000 
     744                                      ; BTS_ctrl_cc[3].css @ 1120
     745 00000048 0000          .xfloat $strtod("0x1p+0")               ; BTS_ctrl_cc[4].b0 @ 1152
         00000049 3F80 
     746 0000004a 0000          .xfloat $strtod("0x0p+0")               ; BTS_ctrl_cc[4].b1 @ 1184
         0000004b 0000 
     747 0000004c 0000          .xfloat $strtod("0x0p+0")               ; BTS_ctrl_cc[4].b2 @ 1216
         0000004d 0000 
     748 0000004e 0000          .xfloat $strtod("0x0p+0")               ; BTS_ctrl_cc[4].a1 @ 1248
         0000004f 0000 
     749 00000050 0000          .xfloat $strtod("0x0p+0")               ; BTS_ctrl_cc[4].a2 @ 1280
         00000051 0000 
     750 00000052 0000          .xfloat $strtod("0x0p+0")               ; BTS_ctrl_cc[4].x1 @ 1312
         00000053 0000 
     751 00000054 0000          .xfloat $strtod("0x0p+0")               ; BTS_ctrl_cc[4].x2 @ 1344
         00000055 0000 
     752 00000056 0000          .bits           0,32
         00000057 0000 
     753                                      ; BTS_ctrl_cc[4].sps @ 1376
     754 00000058 0000          .bits           0,32
         00000059 0000 
     755                                      ; BTS_ctrl_cc[4].css @ 1408
     756 0000005a 0000          .xfloat $strtod("0x1p+0")               ; BTS_ctrl_cc[5].b0 @ 1440
         0000005b 3F80 
     757 0000005c 0000          .xfloat $strtod("0x0p+0")               ; BTS_ctrl_cc[5].b1 @ 1472
         0000005d 0000 
     758 0000005e 0000          .xfloat $strtod("0x0p+0")               ; BTS_ctrl_cc[5].b2 @ 1504
         0000005f 0000 
     759 00000060 0000          .xfloat $strtod("0x0p+0")               ; BTS_ctrl_cc[5].a1 @ 1536
         00000061 0000 
TMS320C2000 Assembler PC v22.6.1 Tue Aug 13 19:46:08 2024

Copyright (c) 1996-2018 Texas Instruments Incorporated
bts.asm                                                              PAGE   17

     760 00000062 0000          .xfloat $strtod("0x0p+0")               ; BTS_ctrl_cc[5].a2 @ 1568
         00000063 0000 
     761 00000064 0000          .xfloat $strtod("0x0p+0")               ; BTS_ctrl_cc[5].x1 @ 1600
         00000065 0000 
     762 00000066 0000          .xfloat $strtod("0x0p+0")               ; BTS_ctrl_cc[5].x2 @ 1632
         00000067 0000 
     763 00000068 0000          .bits           0,32
         00000069 0000 
     764                                      ; BTS_ctrl_cc[5].sps @ 1664
     765 0000006a 0000          .bits           0,32
         0000006b 0000 
     766                                      ; BTS_ctrl_cc[5].css @ 1696
     767 0000006c 0000          .xfloat $strtod("0x1p+0")               ; BTS_ctrl_cc[6].b0 @ 1728
         0000006d 3F80 
     768 0000006e 0000          .xfloat $strtod("0x0p+0")               ; BTS_ctrl_cc[6].b1 @ 1760
         0000006f 0000 
     769 00000070 0000          .xfloat $strtod("0x0p+0")               ; BTS_ctrl_cc[6].b2 @ 1792
         00000071 0000 
     770 00000072 0000          .xfloat $strtod("0x0p+0")               ; BTS_ctrl_cc[6].a1 @ 1824
         00000073 0000 
     771 00000074 0000          .xfloat $strtod("0x0p+0")               ; BTS_ctrl_cc[6].a2 @ 1856
         00000075 0000 
     772 00000076 0000          .xfloat $strtod("0x0p+0")               ; BTS_ctrl_cc[6].x1 @ 1888
         00000077 0000 
     773 00000078 0000          .xfloat $strtod("0x0p+0")               ; BTS_ctrl_cc[6].x2 @ 1920
         00000079 0000 
     774 0000007a 0000          .bits           0,32
         0000007b 0000 
     775                                      ; BTS_ctrl_cc[6].sps @ 1952
     776 0000007c 0000          .bits           0,32
         0000007d 0000 
     777                                      ; BTS_ctrl_cc[6].css @ 1984
     778 0000007e 0000          .xfloat $strtod("0x1p+0")               ; BTS_ctrl_cc[7].b0 @ 2016
         0000007f 3F80 
     779 00000080 0000          .xfloat $strtod("0x0p+0")               ; BTS_ctrl_cc[7].b1 @ 2048
         00000081 0000 
     780 00000082 0000          .xfloat $strtod("0x0p+0")               ; BTS_ctrl_cc[7].b2 @ 2080
         00000083 0000 
     781 00000084 0000          .xfloat $strtod("0x0p+0")               ; BTS_ctrl_cc[7].a1 @ 2112
         00000085 0000 
     782 00000086 0000          .xfloat $strtod("0x0p+0")               ; BTS_ctrl_cc[7].a2 @ 2144
         00000087 0000 
     783 00000088 0000          .xfloat $strtod("0x0p+0")               ; BTS_ctrl_cc[7].x1 @ 2176
         00000089 0000 
     784 0000008a 0000          .xfloat $strtod("0x0p+0")               ; BTS_ctrl_cc[7].x2 @ 2208
         0000008b 0000 
     785 0000008c 0000          .bits           0,32
         0000008d 0000 
     786                                      ; BTS_ctrl_cc[7].sps @ 2240
     787 0000008e 0000          .bits           0,32
         0000008f 0000 
     788                                      ; BTS_ctrl_cc[7].css @ 2272
     789              
     790              $C$DW$81        .dwtag  DW_TAG_variable
     791                      .dwattr $C$DW$81, DW_AT_name("BTS_ctrl_cc")
TMS320C2000 Assembler PC v22.6.1 Tue Aug 13 19:46:08 2024

Copyright (c) 1996-2018 Texas Instruments Incorporated
bts.asm                                                              PAGE   18

     792                      .dwattr $C$DW$81, DW_AT_linkage_name("BTS_ctrl_cc")
     793                      .dwattr $C$DW$81, DW_AT_location[DW_OP_addr ||BTS_ctrl_cc||]
     794                      .dwattr $C$DW$81, DW_AT_type(*$C$DW$T$152)
     795                      .dwattr $C$DW$81, DW_AT_external
     796                      .dwattr $C$DW$81, DW_AT_decl_file("../bts.c")
     797                      .dwattr $C$DW$81, DW_AT_decl_line(0x22)
     798                      .dwattr $C$DW$81, DW_AT_decl_column(0x15)
     799              
     800                      .global ||BTS_ctrl_cv||
     801 00000000               .sect   ".data:BTS_ctrl_cv", RW
     802                      .align  2
     803                      .elfsym ||BTS_ctrl_cv||,SYM_SIZE(144)
     804 00000000       ||BTS_ctrl_cv||:
     805 00000000 0000          .xfloat $strtod("0x1p+0")               ; BTS_ctrl_cv[0].b0 @ 0
         00000001 3F80 
     806 00000002 0000          .xfloat $strtod("0x0p+0")               ; BTS_ctrl_cv[0].b1 @ 32
         00000003 0000 
     807 00000004 0000          .xfloat $strtod("0x0p+0")               ; BTS_ctrl_cv[0].b2 @ 64
         00000005 0000 
     808 00000006 0000          .xfloat $strtod("0x0p+0")               ; BTS_ctrl_cv[0].a1 @ 96
         00000007 0000 
     809 00000008 0000          .xfloat $strtod("0x0p+0")               ; BTS_ctrl_cv[0].a2 @ 128
         00000009 0000 
     810 0000000a 0000          .xfloat $strtod("0x0p+0")               ; BTS_ctrl_cv[0].x1 @ 160
         0000000b 0000 
     811 0000000c 0000          .xfloat $strtod("0x0p+0")               ; BTS_ctrl_cv[0].x2 @ 192
         0000000d 0000 
     812 0000000e 0000          .bits           0,32
         0000000f 0000 
     813                                      ; BTS_ctrl_cv[0].sps @ 224
     814 00000010 0000          .bits           0,32
         00000011 0000 
     815                                      ; BTS_ctrl_cv[0].css @ 256
     816 00000012 0000          .xfloat $strtod("0x1p+0")               ; BTS_ctrl_cv[1].b0 @ 288
         00000013 3F80 
     817 00000014 0000          .xfloat $strtod("0x0p+0")               ; BTS_ctrl_cv[1].b1 @ 320
         00000015 0000 
     818 00000016 0000          .xfloat $strtod("0x0p+0")               ; BTS_ctrl_cv[1].b2 @ 352
         00000017 0000 
     819 00000018 0000          .xfloat $strtod("0x0p+0")               ; BTS_ctrl_cv[1].a1 @ 384
         00000019 0000 
     820 0000001a 0000          .xfloat $strtod("0x0p+0")               ; BTS_ctrl_cv[1].a2 @ 416
         0000001b 0000 
     821 0000001c 0000          .xfloat $strtod("0x0p+0")               ; BTS_ctrl_cv[1].x1 @ 448
         0000001d 0000 
     822 0000001e 0000          .xfloat $strtod("0x0p+0")               ; BTS_ctrl_cv[1].x2 @ 480
         0000001f 0000 
     823 00000020 0000          .bits           0,32
         00000021 0000 
     824                                      ; BTS_ctrl_cv[1].sps @ 512
     825 00000022 0000          .bits           0,32
         00000023 0000 
     826                                      ; BTS_ctrl_cv[1].css @ 544
     827 00000024 0000          .xfloat $strtod("0x1p+0")               ; BTS_ctrl_cv[2].b0 @ 576
         00000025 3F80 
TMS320C2000 Assembler PC v22.6.1 Tue Aug 13 19:46:08 2024

Copyright (c) 1996-2018 Texas Instruments Incorporated
bts.asm                                                              PAGE   19

     828 00000026 0000          .xfloat $strtod("0x0p+0")               ; BTS_ctrl_cv[2].b1 @ 608
         00000027 0000 
     829 00000028 0000          .xfloat $strtod("0x0p+0")               ; BTS_ctrl_cv[2].b2 @ 640
         00000029 0000 
     830 0000002a 0000          .xfloat $strtod("0x0p+0")               ; BTS_ctrl_cv[2].a1 @ 672
         0000002b 0000 
     831 0000002c 0000          .xfloat $strtod("0x0p+0")               ; BTS_ctrl_cv[2].a2 @ 704
         0000002d 0000 
     832 0000002e 0000          .xfloat $strtod("0x0p+0")               ; BTS_ctrl_cv[2].x1 @ 736
         0000002f 0000 
     833 00000030 0000          .xfloat $strtod("0x0p+0")               ; BTS_ctrl_cv[2].x2 @ 768
         00000031 0000 
     834 00000032 0000          .bits           0,32
         00000033 0000 
     835                                      ; BTS_ctrl_cv[2].sps @ 800
     836 00000034 0000          .bits           0,32
         00000035 0000 
     837                                      ; BTS_ctrl_cv[2].css @ 832
     838 00000036 0000          .xfloat $strtod("0x1p+0")               ; BTS_ctrl_cv[3].b0 @ 864
         00000037 3F80 
     839 00000038 0000          .xfloat $strtod("0x0p+0")               ; BTS_ctrl_cv[3].b1 @ 896
         00000039 0000 
     840 0000003a 0000          .xfloat $strtod("0x0p+0")               ; BTS_ctrl_cv[3].b2 @ 928
         0000003b 0000 
     841 0000003c 0000          .xfloat $strtod("0x0p+0")               ; BTS_ctrl_cv[3].a1 @ 960
         0000003d 0000 
     842 0000003e 0000          .xfloat $strtod("0x0p+0")               ; BTS_ctrl_cv[3].a2 @ 992
         0000003f 0000 
     843 00000040 0000          .xfloat $strtod("0x0p+0")               ; BTS_ctrl_cv[3].x1 @ 1024
         00000041 0000 
     844 00000042 0000          .xfloat $strtod("0x0p+0")               ; BTS_ctrl_cv[3].x2 @ 1056
         00000043 0000 
     845 00000044 0000          .bits           0,32
         00000045 0000 
     846                                      ; BTS_ctrl_cv[3].sps @ 1088
     847 00000046 0000          .bits           0,32
         00000047 0000 
     848                                      ; BTS_ctrl_cv[3].css @ 1120
     849 00000048 0000          .xfloat $strtod("0x1p+0")               ; BTS_ctrl_cv[4].b0 @ 1152
         00000049 3F80 
     850 0000004a 0000          .xfloat $strtod("0x0p+0")               ; BTS_ctrl_cv[4].b1 @ 1184
         0000004b 0000 
     851 0000004c 0000          .xfloat $strtod("0x0p+0")               ; BTS_ctrl_cv[4].b2 @ 1216
         0000004d 0000 
     852 0000004e 0000          .xfloat $strtod("0x0p+0")               ; BTS_ctrl_cv[4].a1 @ 1248
         0000004f 0000 
     853 00000050 0000          .xfloat $strtod("0x0p+0")               ; BTS_ctrl_cv[4].a2 @ 1280
         00000051 0000 
     854 00000052 0000          .xfloat $strtod("0x0p+0")               ; BTS_ctrl_cv[4].x1 @ 1312
         00000053 0000 
     855 00000054 0000          .xfloat $strtod("0x0p+0")               ; BTS_ctrl_cv[4].x2 @ 1344
         00000055 0000 
     856 00000056 0000          .bits           0,32
         00000057 0000 
     857                                      ; BTS_ctrl_cv[4].sps @ 1376
TMS320C2000 Assembler PC v22.6.1 Tue Aug 13 19:46:08 2024

Copyright (c) 1996-2018 Texas Instruments Incorporated
bts.asm                                                              PAGE   20

     858 00000058 0000          .bits           0,32
         00000059 0000 
     859                                      ; BTS_ctrl_cv[4].css @ 1408
     860 0000005a 0000          .xfloat $strtod("0x1p+0")               ; BTS_ctrl_cv[5].b0 @ 1440
         0000005b 3F80 
     861 0000005c 0000          .xfloat $strtod("0x0p+0")               ; BTS_ctrl_cv[5].b1 @ 1472
         0000005d 0000 
     862 0000005e 0000          .xfloat $strtod("0x0p+0")               ; BTS_ctrl_cv[5].b2 @ 1504
         0000005f 0000 
     863 00000060 0000          .xfloat $strtod("0x0p+0")               ; BTS_ctrl_cv[5].a1 @ 1536
         00000061 0000 
     864 00000062 0000          .xfloat $strtod("0x0p+0")               ; BTS_ctrl_cv[5].a2 @ 1568
         00000063 0000 
     865 00000064 0000          .xfloat $strtod("0x0p+0")               ; BTS_ctrl_cv[5].x1 @ 1600
         00000065 0000 
     866 00000066 0000          .xfloat $strtod("0x0p+0")               ; BTS_ctrl_cv[5].x2 @ 1632
         00000067 0000 
     867 00000068 0000          .bits           0,32
         00000069 0000 
     868                                      ; BTS_ctrl_cv[5].sps @ 1664
     869 0000006a 0000          .bits           0,32
         0000006b 0000 
     870                                      ; BTS_ctrl_cv[5].css @ 1696
     871 0000006c 0000          .xfloat $strtod("0x1p+0")               ; BTS_ctrl_cv[6].b0 @ 1728
         0000006d 3F80 
     872 0000006e 0000          .xfloat $strtod("0x0p+0")               ; BTS_ctrl_cv[6].b1 @ 1760
         0000006f 0000 
     873 00000070 0000          .xfloat $strtod("0x0p+0")               ; BTS_ctrl_cv[6].b2 @ 1792
         00000071 0000 
     874 00000072 0000          .xfloat $strtod("0x0p+0")               ; BTS_ctrl_cv[6].a1 @ 1824
         00000073 0000 
     875 00000074 0000          .xfloat $strtod("0x0p+0")               ; BTS_ctrl_cv[6].a2 @ 1856
         00000075 0000 
     876 00000076 0000          .xfloat $strtod("0x0p+0")               ; BTS_ctrl_cv[6].x1 @ 1888
         00000077 0000 
     877 00000078 0000          .xfloat $strtod("0x0p+0")               ; BTS_ctrl_cv[6].x2 @ 1920
         00000079 0000 
     878 0000007a 0000          .bits           0,32
         0000007b 0000 
     879                                      ; BTS_ctrl_cv[6].sps @ 1952
     880 0000007c 0000          .bits           0,32
         0000007d 0000 
     881                                      ; BTS_ctrl_cv[6].css @ 1984
     882 0000007e 0000          .xfloat $strtod("0x1p+0")               ; BTS_ctrl_cv[7].b0 @ 2016
         0000007f 3F80 
     883 00000080 0000          .xfloat $strtod("0x0p+0")               ; BTS_ctrl_cv[7].b1 @ 2048
         00000081 0000 
     884 00000082 0000          .xfloat $strtod("0x0p+0")               ; BTS_ctrl_cv[7].b2 @ 2080
         00000083 0000 
     885 00000084 0000          .xfloat $strtod("0x0p+0")               ; BTS_ctrl_cv[7].a1 @ 2112
         00000085 0000 
     886 00000086 0000          .xfloat $strtod("0x0p+0")               ; BTS_ctrl_cv[7].a2 @ 2144
         00000087 0000 
     887 00000088 0000          .xfloat $strtod("0x0p+0")               ; BTS_ctrl_cv[7].x1 @ 2176
         00000089 0000 
TMS320C2000 Assembler PC v22.6.1 Tue Aug 13 19:46:08 2024

Copyright (c) 1996-2018 Texas Instruments Incorporated
bts.asm                                                              PAGE   21

     888 0000008a 0000          .xfloat $strtod("0x0p+0")               ; BTS_ctrl_cv[7].x2 @ 2208
         0000008b 0000 
     889 0000008c 0000          .bits           0,32
         0000008d 0000 
     890                                      ; BTS_ctrl_cv[7].sps @ 2240
     891 0000008e 0000          .bits           0,32
         0000008f 0000 
     892                                      ; BTS_ctrl_cv[7].css @ 2272
     893              
     894              $C$DW$82        .dwtag  DW_TAG_variable
     895                      .dwattr $C$DW$82, DW_AT_name("BTS_ctrl_cv")
     896                      .dwattr $C$DW$82, DW_AT_linkage_name("BTS_ctrl_cv")
     897                      .dwattr $C$DW$82, DW_AT_location[DW_OP_addr ||BTS_ctrl_cv||]
     898                      .dwattr $C$DW$82, DW_AT_type(*$C$DW$T$152)
     899                      .dwattr $C$DW$82, DW_AT_external
     900                      .dwattr $C$DW$82, DW_AT_decl_file("../bts.c")
     901                      .dwattr $C$DW$82, DW_AT_decl_line(0x28)
     902                      .dwattr $C$DW$82, DW_AT_decl_column(0x15)
     903              
     904                      .global ||BTS_userInputs||
     905 00000000       ||BTS_userInputs||:     .usect  ".bss:BTS_userInputs",256,0,1
     906              $C$DW$83        .dwtag  DW_TAG_variable
     907                      .dwattr $C$DW$83, DW_AT_name("BTS_userInputs")
     908                      .dwattr $C$DW$83, DW_AT_linkage_name("BTS_userInputs")
     909                      .dwattr $C$DW$83, DW_AT_location[DW_OP_addr ||BTS_userInputs||]
     910                      .dwattr $C$DW$83, DW_AT_type(*$C$DW$T$64)
     911                      .dwattr $C$DW$83, DW_AT_external
     912                      .dwattr $C$DW$83, DW_AT_decl_file("../bts.c")
     913                      .dwattr $C$DW$83, DW_AT_decl_line(0x20)
     914                      .dwattr $C$DW$83, DW_AT_decl_column(0x0f)
     915              
     916                      .global ||BTS_ctrlLoopVariables||
     917 00000000       ||BTS_ctrlLoopVariables||:      .usect  ".bss:BTS_ctrlLoopVariables",288,0,1
     918              $C$DW$84        .dwtag  DW_TAG_variable
     919                      .dwattr $C$DW$84, DW_AT_name("BTS_ctrlLoopVariables")
     920                      .dwattr $C$DW$84, DW_AT_linkage_name("BTS_ctrlLoopVariables")
     921                      .dwattr $C$DW$84, DW_AT_location[DW_OP_addr ||BTS_ctrlLoopVariables||]
     922                      .dwattr $C$DW$84, DW_AT_type(*$C$DW$T$71)
     923                      .dwattr $C$DW$84, DW_AT_external
     924                      .dwattr $C$DW$84, DW_AT_decl_file("../bts.c")
     925                      .dwattr $C$DW$84, DW_AT_decl_line(0x64)
     926                      .dwattr $C$DW$84, DW_AT_decl_column(0x16)
     927              
     928                      .global ||BTS_measValues||
     929 00000000       ||BTS_measValues||:     .usect  ".bss:BTS_measValues",656,0,1
     930              $C$DW$85        .dwtag  DW_TAG_variable
     931                      .dwattr $C$DW$85, DW_AT_name("BTS_measValues")
     932                      .dwattr $C$DW$85, DW_AT_linkage_name("BTS_measValues")
     933                      .dwattr $C$DW$85, DW_AT_location[DW_OP_addr ||BTS_measValues||]
     934                      .dwattr $C$DW$85, DW_AT_type(*$C$DW$T$78)
     935                      .dwattr $C$DW$85, DW_AT_external
     936                      .dwattr $C$DW$85, DW_AT_decl_file("../bts.c")
     937                      .dwattr $C$DW$85, DW_AT_decl_line(0x1e)
     938                      .dwattr $C$DW$85, DW_AT_decl_column(0x0f)
     939              
TMS320C2000 Assembler PC v22.6.1 Tue Aug 13 19:46:08 2024

Copyright (c) 1996-2018 Texas Instruments Incorporated
bts.asm                                                              PAGE   22

     940                      .global ||BTS_sfraData||
     941 00000080               .bss    ||BTS_sfraData||,1030,1,1
     942              $C$DW$86        .dwtag  DW_TAG_variable
     943                      .dwattr $C$DW$86, DW_AT_name("BTS_sfraData")
     944                      .dwattr $C$DW$86, DW_AT_linkage_name("BTS_sfraData")
     945                      .dwattr $C$DW$86, DW_AT_location[DW_OP_addr ||BTS_sfraData||]
     946                      .dwattr $C$DW$86, DW_AT_type(*$C$DW$T$82)
     947                      .dwattr $C$DW$86, DW_AT_external
     948                      .dwattr $C$DW$86, DW_AT_decl_file("../bts.c")
     949                      .dwattr $C$DW$86, DW_AT_decl_line(0x93)
     950                      .dwattr $C$DW$86, DW_AT_decl_column(0x15)
     951              
     952                      .sblock ".bss"
     953                      .sblock ".data"
     954              ;       C:\ti\ccs1271\ccs\tools\compiler\ti-cgt-c2000_22.6.1.LTS\bin\opt2000.exe C:\\Users\\lucas\\AppData\\L
     955              ;       C:\ti\ccs1271\ccs\tools\compiler\ti-cgt-c2000_22.6.1.LTS\bin\acia2000.exe -@C:\\Users\\lucas\\AppData
     956 00000000               .sect   "isrcodefuncs:retain"
     957                      .retain
     958                      .retainrefs
     959                      .global ||i2cBISR||
     960              
     961              $C$DW$87        .dwtag  DW_TAG_subprogram
     962                      .dwattr $C$DW$87, DW_AT_name("i2cBISR")
     963                      .dwattr $C$DW$87, DW_AT_low_pc(||i2cBISR||)
     964                      .dwattr $C$DW$87, DW_AT_high_pc(0x00)
     965                      .dwattr $C$DW$87, DW_AT_linkage_name("i2cBISR")
     966                      .dwattr $C$DW$87, DW_AT_external
     967                      .dwattr $C$DW$87, DW_AT_decl_file("../bts.c")
     968                      .dwattr $C$DW$87, DW_AT_decl_line(0x269)
     969                      .dwattr $C$DW$87, DW_AT_decl_column(0x12)
     970                      .dwattr $C$DW$87, DW_AT_TI_interrupt
     971                      .dwattr $C$DW$87, DW_AT_TI_max_frame_size(-16)
     972                      .dwpsn  file "../bts.c",line 618,column 1,is_stmt,address ||i2cBISR||,isa 0
     973              
     974                      .dwfde $C$DW$CIE, ||i2cBISR||
     975              
     976              ;***************************************************************
     977              ;* FNAME: i2cBISR                       FR SIZE:  14           *
     978              ;*                                                             *
     979              ;* FUNCTION ENVIRONMENT                                        *
     980              ;*                                                             *
     981              ;* FUNCTION PROPERTIES                                         *
     982              ;*                            0 Parameter,  0 Auto, 14 SOE     *
     983              ;***************************************************************
     984              
     985 00000000       ||i2cBISR||:
     986                      .dwcfi  cfa_offset, -2
     987                      .dwcfi  save_reg_to_mem, 26, 0
     988 00000000 761B          ASP       ; [CPU_ALU] 
     989 00000001 0005          PUSH      AR1H:AR0H             ; [CPU_ALU] 
     990                      .dwcfi  save_reg_to_mem, 5, 2
     991                      .dwcfi  save_reg_to_mem, 7, 3
     992                      .dwcfi  cfa_offset, -4
     993 00000002 ABBD          MOVL      *SP++,XT              ; [CPU_ALU] 
     994                      .dwcfi  save_reg_to_mem, 21, 4
TMS320C2000 Assembler PC v22.6.1 Tue Aug 13 19:46:08 2024

Copyright (c) 1996-2018 Texas Instruments Incorporated
bts.asm                                                              PAGE   23

     995                      .dwcfi  save_reg_to_mem, 22, 5
     996                      .dwcfi  cfa_offset, -6
     997 00000003 A8BD          MOVL      *SP++,XAR4            ; [CPU_ALU] 
     998                      .dwcfi  save_reg_to_mem, 12, 6
     999                      .dwcfi  save_reg_to_mem, 13, 7
    1000                      .dwcfi  cfa_offset, -8
    1001 00000004 A0BD          MOVL      *SP++,XAR5            ; [CPU_ALU] 
    1002                      .dwcfi  save_reg_to_mem, 14, 8
    1003                      .dwcfi  save_reg_to_mem, 15, 9
    1004                      .dwcfi  cfa_offset, -10
    1005 00000005 C2BD          MOVL      *SP++,XAR6            ; [CPU_ALU] 
    1006                      .dwcfi  save_reg_to_mem, 16, 10
    1007                      .dwcfi  save_reg_to_mem, 17, 11
    1008                      .dwcfi  cfa_offset, -12
    1009 00000006 C3BD          MOVL      *SP++,XAR7            ; [CPU_ALU] 
    1010                      .dwcfi  save_reg_to_mem, 18, 12
    1011                      .dwcfi  save_reg_to_mem, 19, 13
    1012                      .dwcfi  cfa_offset, -14
    1013 00000007 FFF0          PUSH      RB                    ; [CPU_FPU] 
    1014                      .dwcfi  save_reg_to_mem, 74, 16
    1015                      .dwcfi  cfa_offset, -16
    1016 00000008 E670          SAVE      RNDF32=1, RNDF64=1    ; [CPU_FPU] 
         00000009 0600 
    1017 0000000a FF69          SPM       0                     ; [CPU_ALU] 
    1018 0000000b 2942          CLRC      PAGE0,OVM             ; [CPU_ALU] 
    1019 0000000c 5616          CLRC      AMODE                 ; [CPU_ALU] 
    1020 0000000d 761F!         MOVW      DP,#||I2CB||          ; [CPU_ARAU] 
         0000000e 0000 
    1021                      .dwpsn  file "C:/ti/c2000/C2000Ware_DigitalPower_SDK_5_03_00_00/c2000ware/driverlib/f2837xd/driverlib
    1022 0000000f 8A00!         MOVL      XAR4,@$BLOCKED(||I2CB||) ; [CPU_ALU] |684| 
    1023 00000010 92D4          MOV       AL,*+XAR4[2]          ; [CPU_ALU] |684| 
    1024                      .dwpsn  file "../bts.c",line 621,column 4,is_stmt,isa 0
    1025 00000011 8F00!         MOVL      XAR4,#||I2CB||        ; [CPU_ARAU] |621| 
         00000012 0000 
    1026              $C$DW$88        .dwtag  DW_TAG_TI_branch
    1027                      .dwattr $C$DW$88, DW_AT_low_pc(0x00)
    1028                      .dwattr $C$DW$88, DW_AT_name("handleI2C_ErrorCondition")
    1029                      .dwattr $C$DW$88, DW_AT_TI_call
    1030              
    1031 00000013 7640!         LCR       #||handleI2C_ErrorCondition|| ; [CPU_ALU] |621| 
         00000014 0000 
    1032                      ; call occurs [#||handleI2C_ErrorCondition||] ; [] |621| 
    1033                      .dwpsn  file "C:\ti\c2000\C2000Ware_DigitalPower_SDK_5_03_00_00\c2000ware\driverlib\f2837xd\driverlib
    1034 00000015 9A80          MOVB      AL,#128               ; [CPU_ALU] |377| 
    1035 00000016 F4A9          MOV       *(0:0x0ce1),AL        ; [CPU_ALU] |377| 
         00000017 0CE1 
    1036 00000018 E562          RESTORE   ; [CPU_FPU] 
    1037 00000019 FFF1          POP       RB                    ; [CPU_FPU] 
    1038                      .dwcfi  cfa_offset, -14
    1039                      .dwcfi  restore_reg, 74
    1040 0000001a C5BE          MOVL      XAR7,*--SP            ; [CPU_ALU] 
    1041                      .dwcfi  cfa_offset, -12
    1042                      .dwcfi  restore_reg, 18
    1043 0000001b C4BE          MOVL      XAR6,*--SP            ; [CPU_ALU] 
    1044                      .dwcfi  cfa_offset, -10
TMS320C2000 Assembler PC v22.6.1 Tue Aug 13 19:46:08 2024

Copyright (c) 1996-2018 Texas Instruments Incorporated
bts.asm                                                              PAGE   24

    1045                      .dwcfi  restore_reg, 16
    1046 0000001c 83BE          MOVL      XAR5,*--SP            ; [CPU_ALU] 
    1047                      .dwcfi  cfa_offset, -8
    1048                      .dwcfi  restore_reg, 14
    1049 0000001d 8ABE          MOVL      XAR4,*--SP            ; [CPU_ALU] 
    1050                      .dwcfi  cfa_offset, -6
    1051                      .dwcfi  restore_reg, 12
    1052 0000001e 87BE          MOVL      XT,*--SP              ; [CPU_ALU] 
    1053                      .dwcfi  cfa_offset, -4
    1054                      .dwcfi  restore_reg, 22
    1055                      .dwcfi  restore_reg, 21
    1056 0000001f 0003          POP       AR1H:AR0H             ; [CPU_ALU] 
    1057                      .dwcfi  cfa_offset, -2
    1058                      .dwcfi  restore_reg, 5
    1059                      .dwcfi  restore_reg, 7
    1060 00000020 7617          NASP      ; [CPU_ALU] 
    1061              $C$DW$89        .dwtag  DW_TAG_TI_branch
    1062                      .dwattr $C$DW$89, DW_AT_low_pc(0x00)
    1063                      .dwattr $C$DW$89, DW_AT_TI_return
    1064              
    1065 00000021 7602          IRET      ; [CPU_ALU] 
    1066                      ; return occurs ; [] 
    1067                      .dwattr $C$DW$87, DW_AT_TI_end_file("../bts.c")
    1068                      .dwattr $C$DW$87, DW_AT_TI_end_line(0x270)
    1069                      .dwattr $C$DW$87, DW_AT_TI_end_column(0x01)
    1070                      .dwendentry
    1071                      .dwendtag $C$DW$87
    1072              
    1073 00000022               .sect   "isrcodefuncs:retain"
    1074                      .retain
    1075                      .retainrefs
    1076                      .global ||i2cBFIFOISR||
    1077              
    1078              $C$DW$90        .dwtag  DW_TAG_subprogram
    1079                      .dwattr $C$DW$90, DW_AT_name("i2cBFIFOISR")
    1080                      .dwattr $C$DW$90, DW_AT_low_pc(||i2cBFIFOISR||)
    1081                      .dwattr $C$DW$90, DW_AT_high_pc(0x00)
    1082                      .dwattr $C$DW$90, DW_AT_linkage_name("i2cBFIFOISR")
    1083                      .dwattr $C$DW$90, DW_AT_external
    1084                      .dwattr $C$DW$90, DW_AT_decl_file("../bts.c")
    1085                      .dwattr $C$DW$90, DW_AT_decl_line(0x277)
    1086                      .dwattr $C$DW$90, DW_AT_decl_column(0x12)
    1087                      .dwattr $C$DW$90, DW_AT_TI_interrupt
    1088                      .dwattr $C$DW$90, DW_AT_TI_max_frame_size(-18)
    1089                      .dwpsn  file "../bts.c",line 632,column 1,is_stmt,address ||i2cBFIFOISR||,isa 0
    1090              
    1091                      .dwfde $C$DW$CIE, ||i2cBFIFOISR||
    1092              
    1093              ;***************************************************************
    1094              ;* FNAME: i2cBFIFOISR                   FR SIZE:  16           *
    1095              ;*                                                             *
    1096              ;* FUNCTION ENVIRONMENT                                        *
    1097              ;*                                                             *
    1098              ;* FUNCTION PROPERTIES                                         *
    1099              ;*                            2 Parameter,  0 Auto, 14 SOE     *
TMS320C2000 Assembler PC v22.6.1 Tue Aug 13 19:46:08 2024

Copyright (c) 1996-2018 Texas Instruments Incorporated
bts.asm                                                              PAGE   25

    1100              ;***************************************************************
    1101              
    1102              ||i2cBFIFOISR||:
    1103              ;* AR4   assigned to $O$C1
    1104              ;* AL    assigned to MasterSlave
    1105              $C$DW$91        .dwtag  DW_TAG_variable
    1106                      .dwattr $C$DW$91, DW_AT_name("MasterSlave")
    1107                      .dwattr $C$DW$91, DW_AT_type(*$C$DW$T$26)
    1108                      .dwattr $C$DW$91, DW_AT_location[DW_OP_reg0]
    1109              
    1110                      .dwcfi  cfa_offset, -2
    1111                      .dwcfi  save_reg_to_mem, 26, 0
    1112 00000022 761B          ASP       ; [CPU_ALU] 
    1113 00000023 0005          PUSH      AR1H:AR0H             ; [CPU_ALU] 
    1114                      .dwcfi  save_reg_to_mem, 5, 2
    1115                      .dwcfi  save_reg_to_mem, 7, 3
    1116                      .dwcfi  cfa_offset, -4
    1117 00000024 ABBD          MOVL      *SP++,XT              ; [CPU_ALU] 
    1118                      .dwcfi  save_reg_to_mem, 21, 4
    1119                      .dwcfi  save_reg_to_mem, 22, 5
    1120                      .dwcfi  cfa_offset, -6
    1121 00000025 A8BD          MOVL      *SP++,XAR4            ; [CPU_ALU] 
    1122                      .dwcfi  save_reg_to_mem, 12, 6
    1123                      .dwcfi  save_reg_to_mem, 13, 7
    1124                      .dwcfi  cfa_offset, -8
    1125 00000026 A0BD          MOVL      *SP++,XAR5            ; [CPU_ALU] 
    1126                      .dwcfi  save_reg_to_mem, 14, 8
    1127                      .dwcfi  save_reg_to_mem, 15, 9
    1128                      .dwcfi  cfa_offset, -10
    1129 00000027 C2BD          MOVL      *SP++,XAR6            ; [CPU_ALU] 
    1130                      .dwcfi  save_reg_to_mem, 16, 10
    1131                      .dwcfi  save_reg_to_mem, 17, 11
    1132                      .dwcfi  cfa_offset, -12
    1133 00000028 C3BD          MOVL      *SP++,XAR7            ; [CPU_ALU] 
    1134                      .dwcfi  save_reg_to_mem, 18, 12
    1135                      .dwcfi  save_reg_to_mem, 19, 13
    1136                      .dwcfi  cfa_offset, -14
    1137 00000029 FFF0          PUSH      RB                    ; [CPU_FPU] 
    1138                      .dwcfi  save_reg_to_mem, 74, 16
    1139                      .dwcfi  cfa_offset, -16
    1140 0000002a E670          SAVE      RNDF32=1, RNDF64=1    ; [CPU_FPU] 
         0000002b 0600 
    1141 0000002c FE02          ADDB      SP,#2                 ; [CPU_ARAU] 
    1142                      .dwcfi  cfa_offset, -18
    1143 0000002d FF69          SPM       0                     ; [CPU_ALU] 
    1144 0000002e 2942          CLRC      PAGE0,OVM             ; [CPU_ALU] 
    1145 0000002f 5616          CLRC      AMODE                 ; [CPU_ALU] 
    1146                      .dwpsn  file "../bts.c",line 633,column 5,is_stmt,isa 0
    1147 00000030 8F00!         MOVL      XAR4,#||I2CB||        ; [CPU_ARAU] |633| 
         00000031 0000 
    1148              $C$DW$92        .dwtag  DW_TAG_TI_branch
    1149                      .dwattr $C$DW$92, DW_AT_low_pc(0x00)
    1150                      .dwattr $C$DW$92, DW_AT_name("Write_Read_TX_RX_FIFO")
    1151                      .dwattr $C$DW$92, DW_AT_TI_call
    1152              
TMS320C2000 Assembler PC v22.6.1 Tue Aug 13 19:46:08 2024

Copyright (c) 1996-2018 Texas Instruments Incorporated
bts.asm                                                              PAGE   26

    1153 00000032 7640!         LCR       #||Write_Read_TX_RX_FIFO|| ; [CPU_ALU] |633| 
         00000033 0000 
    1154                      ; call occurs [#||Write_Read_TX_RX_FIFO||] ; [] |633| 
    1155 00000034 761F!         MOVW      DP,#||I2CB||          ; [CPU_ARAU] 
         00000035 0000 
    1156                      .dwpsn  file "../bts.c",line 635,column 26,is_stmt,isa 0
    1157 00000036 8A00!         MOVL      XAR4,@$BLOCKED(||I2CB||) ; [CPU_ALU] |635| 
    1158 00000037 D009          MOVB      XAR0,#9               ; [CPU_ALU] |635| 
    1159 00000038 9294          MOV       AL,*+XAR4[AR0]        ; [CPU_ALU] |635| 
    1160                      .dwpsn  file "../bts.c",line 638,column 5,is_stmt,isa 0
    1161 00000039 49A9          TBIT      AL,#9                 ; [CPU_ALU] |638| 
    1162 0000003a 6C07          B         ||$C$L1||,NTC         ; [CPU_ALU] |638| 
    1163                      ; branchcc occurs ; [] |638| 
    1164                      .dwpsn  file "../bts.c",line 641,column 8,is_stmt,isa 0
    1165 0000003b 8F42          MOVL      XAR5,#131072          ; [CPU_ARAU] |641| 
         0000003c 0000 
    1166 0000003d A8A9          MOVL      ACC,XAR4              ; [CPU_ALU] |641| 
    1167 0000003e A042          MOVL      *-SP[2],XAR5          ; [CPU_ALU] |641| 
    1168              $C$DW$93        .dwtag  DW_TAG_TI_branch
    1169                      .dwattr $C$DW$93, DW_AT_low_pc(0x00)
    1170                      .dwattr $C$DW$93, DW_AT_name("I2C_disableInterrupt")
    1171                      .dwattr $C$DW$93, DW_AT_TI_call
    1172              
    1173 0000003f 7640!         LCR       #||I2C_disableInterrupt|| ; [CPU_ALU] |641| 
         00000040 0000 
    1174                      ; call occurs [#||I2C_disableInterrupt||] ; [] |641| 
    1175 00000041       ||$C$L1||:    
    1176                      .dwpsn  file "C:\ti\c2000\C2000Ware_DigitalPower_SDK_5_03_00_00\c2000ware\driverlib\f2837xd\driverlib
    1177 00000041 9A80          MOVB      AL,#128               ; [CPU_ALU] |377| 
    1178 00000042 F4A9          MOV       *(0:0x0ce1),AL        ; [CPU_ALU] |377| 
         00000043 0CE1 
    1179 00000044 FE82          SUBB      SP,#2                 ; [CPU_ARAU] 
    1180                      .dwcfi  cfa_offset, -16
    1181 00000045 E562          RESTORE   ; [CPU_FPU] 
    1182 00000046 FFF1          POP       RB                    ; [CPU_FPU] 
    1183                      .dwcfi  cfa_offset, -14
    1184                      .dwcfi  restore_reg, 74
    1185 00000047 C5BE          MOVL      XAR7,*--SP            ; [CPU_ALU] 
    1186                      .dwcfi  cfa_offset, -12
    1187                      .dwcfi  restore_reg, 18
    1188 00000048 C4BE          MOVL      XAR6,*--SP            ; [CPU_ALU] 
    1189                      .dwcfi  cfa_offset, -10
    1190                      .dwcfi  restore_reg, 16
    1191 00000049 83BE          MOVL      XAR5,*--SP            ; [CPU_ALU] 
    1192                      .dwcfi  cfa_offset, -8
    1193                      .dwcfi  restore_reg, 14
    1194 0000004a 8ABE          MOVL      XAR4,*--SP            ; [CPU_ALU] 
    1195                      .dwcfi  cfa_offset, -6
    1196                      .dwcfi  restore_reg, 12
    1197 0000004b 87BE          MOVL      XT,*--SP              ; [CPU_ALU] 
    1198                      .dwcfi  cfa_offset, -4
    1199                      .dwcfi  restore_reg, 22
    1200                      .dwcfi  restore_reg, 21
    1201 0000004c 0003          POP       AR1H:AR0H             ; [CPU_ALU] 
    1202                      .dwcfi  cfa_offset, -2
TMS320C2000 Assembler PC v22.6.1 Tue Aug 13 19:46:08 2024

Copyright (c) 1996-2018 Texas Instruments Incorporated
bts.asm                                                              PAGE   27

    1203                      .dwcfi  restore_reg, 5
    1204                      .dwcfi  restore_reg, 7
    1205 0000004d 7617          NASP      ; [CPU_ALU] 
    1206              $C$DW$94        .dwtag  DW_TAG_TI_branch
    1207                      .dwattr $C$DW$94, DW_AT_low_pc(0x00)
    1208                      .dwattr $C$DW$94, DW_AT_TI_return
    1209              
    1210 0000004e 7602          IRET      ; [CPU_ALU] 
    1211                      ; return occurs ; [] 
    1212                      .dwattr $C$DW$90, DW_AT_TI_end_file("../bts.c")
    1213                      .dwattr $C$DW$90, DW_AT_TI_end_line(0x28e)
    1214                      .dwattr $C$DW$90, DW_AT_TI_end_column(0x01)
    1215                      .dwendentry
    1216                      .dwendtag $C$DW$90
    1217              
    1218 0000004f               .sect   "isrcodefuncs:retain"
    1219                      .retain
    1220                      .retainrefs
    1221                      .global ||i2cAISR||
    1222              
    1223              $C$DW$95        .dwtag  DW_TAG_subprogram
    1224                      .dwattr $C$DW$95, DW_AT_name("i2cAISR")
    1225                      .dwattr $C$DW$95, DW_AT_low_pc(||i2cAISR||)
    1226                      .dwattr $C$DW$95, DW_AT_high_pc(0x00)
    1227                      .dwattr $C$DW$95, DW_AT_linkage_name("i2cAISR")
    1228                      .dwattr $C$DW$95, DW_AT_external
    1229                      .dwattr $C$DW$95, DW_AT_decl_file("../bts.c")
    1230                      .dwattr $C$DW$95, DW_AT_decl_line(0x295)
    1231                      .dwattr $C$DW$95, DW_AT_decl_column(0x12)
    1232                      .dwattr $C$DW$95, DW_AT_TI_interrupt
    1233                      .dwattr $C$DW$95, DW_AT_TI_max_frame_size(-16)
    1234                      .dwpsn  file "../bts.c",line 662,column 1,is_stmt,address ||i2cAISR||,isa 0
    1235              
    1236                      .dwfde $C$DW$CIE, ||i2cAISR||
    1237              
    1238              ;***************************************************************
    1239              ;* FNAME: i2cAISR                       FR SIZE:  14           *
    1240              ;*                                                             *
    1241              ;* FUNCTION ENVIRONMENT                                        *
    1242              ;*                                                             *
    1243              ;* FUNCTION PROPERTIES                                         *
    1244              ;*                            0 Parameter,  0 Auto, 14 SOE     *
    1245              ;***************************************************************
    1246              
    1247 0000004f       ||i2cAISR||:
    1248                      .dwcfi  cfa_offset, -2
    1249                      .dwcfi  save_reg_to_mem, 26, 0
    1250 0000004f 761B          ASP       ; [CPU_ALU] 
    1251 00000050 0005          PUSH      AR1H:AR0H             ; [CPU_ALU] 
    1252                      .dwcfi  save_reg_to_mem, 5, 2
    1253                      .dwcfi  save_reg_to_mem, 7, 3
    1254                      .dwcfi  cfa_offset, -4
    1255 00000051 ABBD          MOVL      *SP++,XT              ; [CPU_ALU] 
    1256                      .dwcfi  save_reg_to_mem, 21, 4
    1257                      .dwcfi  save_reg_to_mem, 22, 5
TMS320C2000 Assembler PC v22.6.1 Tue Aug 13 19:46:08 2024

Copyright (c) 1996-2018 Texas Instruments Incorporated
bts.asm                                                              PAGE   28

    1258                      .dwcfi  cfa_offset, -6
    1259 00000052 A8BD          MOVL      *SP++,XAR4            ; [CPU_ALU] 
    1260                      .dwcfi  save_reg_to_mem, 12, 6
    1261                      .dwcfi  save_reg_to_mem, 13, 7
    1262                      .dwcfi  cfa_offset, -8
    1263 00000053 A0BD          MOVL      *SP++,XAR5            ; [CPU_ALU] 
    1264                      .dwcfi  save_reg_to_mem, 14, 8
    1265                      .dwcfi  save_reg_to_mem, 15, 9
    1266                      .dwcfi  cfa_offset, -10
    1267 00000054 C2BD          MOVL      *SP++,XAR6            ; [CPU_ALU] 
    1268                      .dwcfi  save_reg_to_mem, 16, 10
    1269                      .dwcfi  save_reg_to_mem, 17, 11
    1270                      .dwcfi  cfa_offset, -12
    1271 00000055 C3BD          MOVL      *SP++,XAR7            ; [CPU_ALU] 
    1272                      .dwcfi  save_reg_to_mem, 18, 12
    1273                      .dwcfi  save_reg_to_mem, 19, 13
    1274                      .dwcfi  cfa_offset, -14
    1275 00000056 FFF0          PUSH      RB                    ; [CPU_FPU] 
    1276                      .dwcfi  save_reg_to_mem, 74, 16
    1277                      .dwcfi  cfa_offset, -16
    1278 00000057 E670          SAVE      RNDF32=1, RNDF64=1    ; [CPU_FPU] 
         00000058 0600 
    1279 00000059 FF69          SPM       0                     ; [CPU_ALU] 
    1280 0000005a 2942          CLRC      PAGE0,OVM             ; [CPU_ALU] 
    1281 0000005b 5616          CLRC      AMODE                 ; [CPU_ALU] 
    1282 0000005c 761F!         MOVW      DP,#||I2CA||          ; [CPU_ARAU] 
         0000005d 0000 
    1283                      .dwpsn  file "C:/ti/c2000/C2000Ware_DigitalPower_SDK_5_03_00_00/c2000ware/driverlib/f2837xd/driverlib
    1284 0000005e 8A00!         MOVL      XAR4,@$BLOCKED(||I2CA||) ; [CPU_ALU] |684| 
    1285 0000005f 92D4          MOV       AL,*+XAR4[2]          ; [CPU_ALU] |684| 
    1286                      .dwpsn  file "../bts.c",line 665,column 5,is_stmt,isa 0
    1287 00000060 8F00!         MOVL      XAR4,#||I2CA||        ; [CPU_ARAU] |665| 
         00000061 0000 
    1288              $C$DW$96        .dwtag  DW_TAG_TI_branch
    1289                      .dwattr $C$DW$96, DW_AT_low_pc(0x00)
    1290                      .dwattr $C$DW$96, DW_AT_name("handleI2C_ErrorCondition")
    1291                      .dwattr $C$DW$96, DW_AT_TI_call
    1292              
    1293 00000062 7640!         LCR       #||handleI2C_ErrorCondition|| ; [CPU_ALU] |665| 
         00000063 0000 
    1294                      ; call occurs [#||handleI2C_ErrorCondition||] ; [] |665| 
    1295                      .dwpsn  file "C:\ti\c2000\C2000Ware_DigitalPower_SDK_5_03_00_00\c2000ware\driverlib\f2837xd\driverlib
    1296 00000064 9A80          MOVB      AL,#128               ; [CPU_ALU] |377| 
    1297 00000065 F4A9          MOV       *(0:0x0ce1),AL        ; [CPU_ALU] |377| 
         00000066 0CE1 
    1298 00000067 E562          RESTORE   ; [CPU_FPU] 
    1299 00000068 FFF1          POP       RB                    ; [CPU_FPU] 
    1300                      .dwcfi  cfa_offset, -14
    1301                      .dwcfi  restore_reg, 74
    1302 00000069 C5BE          MOVL      XAR7,*--SP            ; [CPU_ALU] 
    1303                      .dwcfi  cfa_offset, -12
    1304                      .dwcfi  restore_reg, 18
    1305 0000006a C4BE          MOVL      XAR6,*--SP            ; [CPU_ALU] 
    1306                      .dwcfi  cfa_offset, -10
    1307                      .dwcfi  restore_reg, 16
TMS320C2000 Assembler PC v22.6.1 Tue Aug 13 19:46:08 2024

Copyright (c) 1996-2018 Texas Instruments Incorporated
bts.asm                                                              PAGE   29

    1308 0000006b 83BE          MOVL      XAR5,*--SP            ; [CPU_ALU] 
    1309                      .dwcfi  cfa_offset, -8
    1310                      .dwcfi  restore_reg, 14
    1311 0000006c 8ABE          MOVL      XAR4,*--SP            ; [CPU_ALU] 
    1312                      .dwcfi  cfa_offset, -6
    1313                      .dwcfi  restore_reg, 12
    1314 0000006d 87BE          MOVL      XT,*--SP              ; [CPU_ALU] 
    1315                      .dwcfi  cfa_offset, -4
    1316                      .dwcfi  restore_reg, 22
    1317                      .dwcfi  restore_reg, 21
    1318 0000006e 0003          POP       AR1H:AR0H             ; [CPU_ALU] 
    1319                      .dwcfi  cfa_offset, -2
    1320                      .dwcfi  restore_reg, 5
    1321                      .dwcfi  restore_reg, 7
    1322 0000006f 7617          NASP      ; [CPU_ALU] 
    1323              $C$DW$97        .dwtag  DW_TAG_TI_branch
    1324                      .dwattr $C$DW$97, DW_AT_low_pc(0x00)
    1325                      .dwattr $C$DW$97, DW_AT_TI_return
    1326              
    1327 00000070 7602          IRET      ; [CPU_ALU] 
    1328                      ; return occurs ; [] 
    1329                      .dwattr $C$DW$95, DW_AT_TI_end_file("../bts.c")
    1330                      .dwattr $C$DW$95, DW_AT_TI_end_line(0x29b)
    1331                      .dwattr $C$DW$95, DW_AT_TI_end_column(0x01)
    1332                      .dwendentry
    1333                      .dwendtag $C$DW$95
    1334              
    1335 00000071               .sect   "isrcodefuncs:retain"
    1336                      .retain
    1337                      .retainrefs
    1338                      .global ||i2cAFIFOISR||
    1339              
    1340              $C$DW$98        .dwtag  DW_TAG_subprogram
    1341                      .dwattr $C$DW$98, DW_AT_name("i2cAFIFOISR")
    1342                      .dwattr $C$DW$98, DW_AT_low_pc(||i2cAFIFOISR||)
    1343                      .dwattr $C$DW$98, DW_AT_high_pc(0x00)
    1344                      .dwattr $C$DW$98, DW_AT_linkage_name("i2cAFIFOISR")
    1345                      .dwattr $C$DW$98, DW_AT_external
    1346                      .dwattr $C$DW$98, DW_AT_decl_file("../bts.c")
    1347                      .dwattr $C$DW$98, DW_AT_decl_line(0x2a2)
    1348                      .dwattr $C$DW$98, DW_AT_decl_column(0x12)
    1349                      .dwattr $C$DW$98, DW_AT_TI_interrupt
    1350                      .dwattr $C$DW$98, DW_AT_TI_max_frame_size(-18)
    1351                      .dwpsn  file "../bts.c",line 675,column 1,is_stmt,address ||i2cAFIFOISR||,isa 0
    1352              
    1353                      .dwfde $C$DW$CIE, ||i2cAFIFOISR||
    1354              
    1355              ;***************************************************************
    1356              ;* FNAME: i2cAFIFOISR                   FR SIZE:  16           *
    1357              ;*                                                             *
    1358              ;* FUNCTION ENVIRONMENT                                        *
    1359              ;*                                                             *
    1360              ;* FUNCTION PROPERTIES                                         *
    1361              ;*                            2 Parameter,  0 Auto, 14 SOE     *
    1362              ;***************************************************************
TMS320C2000 Assembler PC v22.6.1 Tue Aug 13 19:46:08 2024

Copyright (c) 1996-2018 Texas Instruments Incorporated
bts.asm                                                              PAGE   30

    1363              
    1364              ||i2cAFIFOISR||:
    1365              ;* AR4   assigned to $O$C1
    1366              ;* AR4   assigned to $O$v2
    1367              ;* AR4   assigned to $O$v1
    1368              ;* AL    assigned to MasterSlave
    1369              $C$DW$99        .dwtag  DW_TAG_variable
    1370                      .dwattr $C$DW$99, DW_AT_name("MasterSlave")
    1371                      .dwattr $C$DW$99, DW_AT_type(*$C$DW$T$26)
    1372                      .dwattr $C$DW$99, DW_AT_location[DW_OP_reg0]
    1373              
    1374                      .dwcfi  cfa_offset, -2
    1375                      .dwcfi  save_reg_to_mem, 26, 0
    1376 00000071 761B          ASP       ; [CPU_ALU] 
    1377 00000072 0005          PUSH      AR1H:AR0H             ; [CPU_ALU] 
    1378                      .dwcfi  save_reg_to_mem, 5, 2
    1379                      .dwcfi  save_reg_to_mem, 7, 3
    1380                      .dwcfi  cfa_offset, -4
    1381 00000073 ABBD          MOVL      *SP++,XT              ; [CPU_ALU] 
    1382                      .dwcfi  save_reg_to_mem, 21, 4
    1383                      .dwcfi  save_reg_to_mem, 22, 5
    1384                      .dwcfi  cfa_offset, -6
    1385 00000074 A8BD          MOVL      *SP++,XAR4            ; [CPU_ALU] 
    1386                      .dwcfi  save_reg_to_mem, 12, 6
    1387                      .dwcfi  save_reg_to_mem, 13, 7
    1388                      .dwcfi  cfa_offset, -8
    1389 00000075 A0BD          MOVL      *SP++,XAR5            ; [CPU_ALU] 
    1390                      .dwcfi  save_reg_to_mem, 14, 8
    1391                      .dwcfi  save_reg_to_mem, 15, 9
    1392                      .dwcfi  cfa_offset, -10
    1393 00000076 C2BD          MOVL      *SP++,XAR6            ; [CPU_ALU] 
    1394                      .dwcfi  save_reg_to_mem, 16, 10
    1395                      .dwcfi  save_reg_to_mem, 17, 11
    1396                      .dwcfi  cfa_offset, -12
    1397 00000077 C3BD          MOVL      *SP++,XAR7            ; [CPU_ALU] 
    1398                      .dwcfi  save_reg_to_mem, 18, 12
    1399                      .dwcfi  save_reg_to_mem, 19, 13
    1400                      .dwcfi  cfa_offset, -14
    1401 00000078 FFF0          PUSH      RB                    ; [CPU_FPU] 
    1402                      .dwcfi  save_reg_to_mem, 74, 16
    1403                      .dwcfi  cfa_offset, -16
    1404 00000079 E670          SAVE      RNDF32=1, RNDF64=1    ; [CPU_FPU] 
         0000007a 0600 
    1405 0000007b FE02          ADDB      SP,#2                 ; [CPU_ARAU] 
    1406                      .dwcfi  cfa_offset, -18
    1407 0000007c FF69          SPM       0                     ; [CPU_ALU] 
    1408 0000007d 2942          CLRC      PAGE0,OVM             ; [CPU_ALU] 
    1409 0000007e 5616          CLRC      AMODE                 ; [CPU_ALU] 
    1410                      .dwpsn  file "../bts.c",line 676,column 5,is_stmt,isa 0
    1411 0000007f 8F00!         MOVL      XAR4,#||I2CA||        ; [CPU_ARAU] |676| 
         00000080 0000 
    1412              $C$DW$100       .dwtag  DW_TAG_TI_branch
    1413                      .dwattr $C$DW$100, DW_AT_low_pc(0x00)
    1414                      .dwattr $C$DW$100, DW_AT_name("Write_Read_TX_RX_FIFO")
    1415                      .dwattr $C$DW$100, DW_AT_TI_call
TMS320C2000 Assembler PC v22.6.1 Tue Aug 13 19:46:08 2024

Copyright (c) 1996-2018 Texas Instruments Incorporated
bts.asm                                                              PAGE   31

    1416              
    1417 00000081 7640!         LCR       #||Write_Read_TX_RX_FIFO|| ; [CPU_ALU] |676| 
         00000082 0000 
    1418                      ; call occurs [#||Write_Read_TX_RX_FIFO||] ; [] |676| 
    1419 00000083 761F!         MOVW      DP,#||I2CA||          ; [CPU_ARAU] 
         00000084 0000 
    1420                      .dwpsn  file "../bts.c",line 678,column 26,is_stmt,isa 0
    1421 00000085 8A00!         MOVL      XAR4,@$BLOCKED(||I2CA||) ; [CPU_ALU] |678| 
    1422 00000086 D009          MOVB      XAR0,#9               ; [CPU_ALU] |678| 
    1423 00000087 9294          MOV       AL,*+XAR4[AR0]        ; [CPU_ALU] |678| 
    1424                      .dwpsn  file "../bts.c",line 680,column 5,is_stmt,isa 0
    1425 00000088 4AA9          TBIT      AL,#10                ; [CPU_ALU] |680| 
    1426 00000089 6D58          B         ||$C$L4||,TC          ; [CPU_ALU] |680| 
    1427                      ; branchcc occurs ; [] |680| 
    1428                      .dwpsn  file "../bts.c",line 698,column 9,is_stmt,isa 0
    1429 0000008a 49A9          TBIT      AL,#9                 ; [CPU_ALU] |698| 
    1430 0000008b 6D37          B         ||$C$L3||,TC          ; [CPU_ALU] |698| 
    1431                      ; branchcc occurs ; [] |698| 
    1432 0000008c 761F!         MOVW      DP,#||I2CB||          ; [CPU_ARAU] 
         0000008d 0000 
    1433                      .dwpsn  file "../bts.c",line 712,column 12,is_stmt,isa 0
    1434 0000008e 8A00!         MOVL      XAR4,@$BLOCKED(||I2CB||) ; [CPU_ALU] |712| 
    1435 0000008f 88EC          MOVZ      AR6,*+XAR4[5]         ; [CPU_ALU] |712| 
    1436 00000090 0E06!         MOVU      ACC,@$BLOCKED(||I2CB||)+6 ; [CPU_ALU] |712| 
    1437 00000091 0FA6          CMPL      ACC,XAR6              ; [CPU_ALU] |712| 
    1438 00000092 6121          B         ||$C$L2||,EQ          ; [CPU_ALU] |712| 
    1439                      ; branchcc occurs ; [] |712| 
    1440                      .dwpsn  file "../bts.c",line 726,column 16,is_stmt,isa 0
    1441 00000093 8F42          MOVL      XAR5,#131072          ; [CPU_ARAU] |726| 
         00000094 0000 
    1442 00000095 A8A9          MOVL      ACC,XAR4              ; [CPU_ALU] |726| 
    1443 00000096 A042          MOVL      *-SP[2],XAR5          ; [CPU_ALU] |726| 
    1444              $C$DW$101       .dwtag  DW_TAG_TI_branch
    1445                      .dwattr $C$DW$101, DW_AT_low_pc(0x00)
    1446                      .dwattr $C$DW$101, DW_AT_name("I2C_enableInterrupt")
    1447                      .dwattr $C$DW$101, DW_AT_TI_call
    1448              
    1449 00000097 7640!         LCR       #||I2C_enableInterrupt|| ; [CPU_ALU] |726| 
         00000098 0000 
    1450                      ; call occurs [#||I2C_enableInterrupt||] ; [] |726| 
    1451 00000099 761F!         MOVW      DP,#||I2CB||          ; [CPU_ARAU] 
         0000009a 0000 
    1452                      .dwpsn  file "../bts.c",line 727,column 16,is_stmt,isa 0
    1453 0000009b 8F01          MOVL      XAR4,#65536           ; [CPU_ARAU] |727| 
         0000009c 0000 
    1454 0000009d A842          MOVL      *-SP[2],XAR4          ; [CPU_ALU] |727| 
    1455 0000009e 0600!         MOVL      ACC,@$BLOCKED(||I2CB||) ; [CPU_ALU] |727| 
    1456              $C$DW$102       .dwtag  DW_TAG_TI_branch
    1457                      .dwattr $C$DW$102, DW_AT_low_pc(0x00)
    1458                      .dwattr $C$DW$102, DW_AT_name("I2C_disableInterrupt")
    1459                      .dwattr $C$DW$102, DW_AT_TI_call
    1460              
    1461 0000009f 7640!         LCR       #||I2C_disableInterrupt|| ; [CPU_ALU] |727| 
         000000a0 0000 
    1462                      ; call occurs [#||I2C_disableInterrupt||] ; [] |727| 
TMS320C2000 Assembler PC v22.6.1 Tue Aug 13 19:46:08 2024

Copyright (c) 1996-2018 Texas Instruments Incorporated
bts.asm                                                              PAGE   32

    1463 000000a1 761F!         MOVW      DP,#||I2CB||          ; [CPU_ARAU] 
         000000a2 0000 
    1464                      .dwpsn  file "../bts.c",line 728,column 16,is_stmt,isa 0
    1465 000000a3 8F03          MOVL      XAR4,#196608          ; [CPU_ARAU] |728| 
         000000a4 0000 
    1466 000000a5 A842          MOVL      *-SP[2],XAR4          ; [CPU_ALU] |728| 
    1467 000000a6 0600!         MOVL      ACC,@$BLOCKED(||I2CB||) ; [CPU_ALU] |728| 
    1468              $C$DW$103       .dwtag  DW_TAG_TI_branch
    1469                      .dwattr $C$DW$103, DW_AT_low_pc(0x00)
    1470                      .dwattr $C$DW$103, DW_AT_name("I2C_clearInterruptStatus")
    1471                      .dwattr $C$DW$103, DW_AT_TI_call
    1472              
    1473 000000a7 7640!         LCR       #||I2C_clearInterruptStatus|| ; [CPU_ALU] |728| 
         000000a8 0000 
    1474                      ; call occurs [#||I2C_clearInterruptStatus||] ; [] |728| 
    1475 000000a9 761F!         MOVW      DP,#||I2CA||+10       ; [CPU_ARAU] 
         000000aa 0000 
    1476                      .dwpsn  file "../bts.c",line 729,column 16,is_stmt,isa 0
    1477 000000ab 060A!         MOVL      ACC,@$BLOCKED(||I2CA||)+10 ; [CPU_ALU] |729| 
    1478 000000ac 604E          B         ||$C$L7||,NEQ         ; [CPU_ALU] |729| 
    1479                      ; branchcc occurs ; [] |729| 
    1480                      .dwpsn  file "../bts.c",line 732,column 20,is_stmt,isa 0
    1481 000000ad BE00          MOVB      XAR6,#0               ; [CPU_ALU] |732| 
    1482                      .dwpsn  file "../bts.c",line 731,column 20,is_stmt,isa 0
    1483 000000ae 0604!         MOVL      ACC,@$BLOCKED(||I2CA||)+4 ; [CPU_ALU] |731| 
    1484 000000af 91FF          ANDB      AH,#255               ; [CPU_ALU] |731| 
    1485 000000b0 1E0A!         MOVL      @$BLOCKED(||I2CA||)+10,ACC ; [CPU_ALU] |731| 
    1486                      .dwpsn  file "../bts.c",line 732,column 20,is_stmt,isa 0
    1487 000000b1 C208!         MOVL      @$BLOCKED(||I2CA||)+8,XAR6 ; [CPU_ALU] |732| 
    1488 000000b2 6F48          B         ||$C$L7||,UNC         ; [CPU_ALU] |732| 
    1489                      ; branch occurs ; [] |732| 
    1490 000000b3       ||$C$L2||:    
    1491                      .dwpsn  file "../bts.c",line 716,column 16,is_stmt,isa 0
    1492 000000b3 0204          MOVB      ACC,#4                ; [CPU_ALU] |716| 
    1493 000000b4 1E42          MOVL      *-SP[2],ACC           ; [CPU_ALU] |716| 
    1494 000000b5 A8A9          MOVL      ACC,XAR4              ; [CPU_ALU] |716| 
    1495              $C$DW$104       .dwtag  DW_TAG_TI_branch
    1496                      .dwattr $C$DW$104, DW_AT_low_pc(0x00)
    1497                      .dwattr $C$DW$104, DW_AT_name("I2C_enableInterrupt")
    1498                      .dwattr $C$DW$104, DW_AT_TI_call
    1499              
    1500 000000b6 7640!         LCR       #||I2C_enableInterrupt|| ; [CPU_ALU] |716| 
         000000b7 0000 
    1501                      ; call occurs [#||I2C_enableInterrupt||] ; [] |716| 
    1502 000000b8 761F!         MOVW      DP,#||I2CA||+8        ; [CPU_ARAU] 
         000000b9 0000 
    1503                      .dwpsn  file "../bts.c",line 717,column 16,is_stmt,isa 0
    1504 000000ba 0608!         MOVL      ACC,@$BLOCKED(||I2CA||)+8 ; [CPU_ALU] |717| 
    1505 000000bb 603F          B         ||$C$L7||,NEQ         ; [CPU_ALU] |717| 
    1506                      ; branchcc occurs ; [] |717| 
    1507                      .dwpsn  file "../bts.c",line 720,column 21,is_stmt,isa 0
    1508 000000bc BE00          MOVB      XAR6,#0               ; [CPU_ALU] |720| 
    1509                      .dwpsn  file "../bts.c",line 719,column 21,is_stmt,isa 0
    1510 000000bd 0604!         MOVL      ACC,@$BLOCKED(||I2CA||)+4 ; [CPU_ALU] |719| 
    1511 000000be 91FF          ANDB      AH,#255               ; [CPU_ALU] |719| 
TMS320C2000 Assembler PC v22.6.1 Tue Aug 13 19:46:08 2024

Copyright (c) 1996-2018 Texas Instruments Incorporated
bts.asm                                                              PAGE   33

    1512 000000bf 1E08!         MOVL      @$BLOCKED(||I2CA||)+8,ACC ; [CPU_ALU] |719| 
    1513                      .dwpsn  file "../bts.c",line 720,column 21,is_stmt,isa 0
    1514 000000c0 C20A!         MOVL      @$BLOCKED(||I2CA||)+10,XAR6 ; [CPU_ALU] |720| 
    1515 000000c1 6F39          B         ||$C$L7||,UNC         ; [CPU_ALU] |720| 
    1516                      ; branch occurs ; [] |720| 
    1517 000000c2       ||$C$L3||:    
    1518 000000c2 761F!         MOVW      DP,#||I2CB||          ; [CPU_ARAU] 
         000000c3 0000 
    1519                      .dwpsn  file "../bts.c",line 703,column 13,is_stmt,isa 0
    1520 000000c4 8F01          MOVL      XAR4,#65536           ; [CPU_ARAU] |703| 
         000000c5 0000 
    1521 000000c6 0600!         MOVL      ACC,@$BLOCKED(||I2CB||) ; [CPU_ALU] |703| 
    1522 000000c7 A842          MOVL      *-SP[2],XAR4          ; [CPU_ALU] |703| 
    1523              $C$DW$105       .dwtag  DW_TAG_TI_branch
    1524                      .dwattr $C$DW$105, DW_AT_low_pc(0x00)
    1525                      .dwattr $C$DW$105, DW_AT_name("I2C_enableInterrupt")
    1526                      .dwattr $C$DW$105, DW_AT_TI_call
    1527              
    1528 000000c8 7640!         LCR       #||I2C_enableInterrupt|| ; [CPU_ALU] |703| 
         000000c9 0000 
    1529                      ; call occurs [#||I2C_enableInterrupt||] ; [] |703| 
    1530 000000ca 761F!         MOVW      DP,#||I2CB||          ; [CPU_ARAU] 
         000000cb 0000 
    1531                      .dwpsn  file "../bts.c",line 704,column 13,is_stmt,isa 0
    1532 000000cc 8F02          MOVL      XAR4,#131072          ; [CPU_ARAU] |704| 
         000000cd 0000 
    1533 000000ce A842          MOVL      *-SP[2],XAR4          ; [CPU_ALU] |704| 
    1534 000000cf 0600!         MOVL      ACC,@$BLOCKED(||I2CB||) ; [CPU_ALU] |704| 
    1535              $C$DW$106       .dwtag  DW_TAG_TI_branch
    1536                      .dwattr $C$DW$106, DW_AT_low_pc(0x00)
    1537                      .dwattr $C$DW$106, DW_AT_name("I2C_disableInterrupt")
    1538                      .dwattr $C$DW$106, DW_AT_TI_call
    1539              
    1540 000000d0 7640!         LCR       #||I2C_disableInterrupt|| ; [CPU_ALU] |704| 
         000000d1 0000 
    1541                      ; call occurs [#||I2C_disableInterrupt||] ; [] |704| 
    1542 000000d2 761F!         MOVW      DP,#||I2CB||          ; [CPU_ARAU] 
         000000d3 0000 
    1543                      .dwpsn  file "../bts.c",line 705,column 13,is_stmt,isa 0
    1544 000000d4 8F01          MOVL      XAR4,#65536           ; [CPU_ARAU] |705| 
         000000d5 0000 
    1545 000000d6 A842          MOVL      *-SP[2],XAR4          ; [CPU_ALU] |705| 
    1546 000000d7 0600!         MOVL      ACC,@$BLOCKED(||I2CB||) ; [CPU_ALU] |705| 
    1547              $C$DW$107       .dwtag  DW_TAG_TI_branch
    1548                      .dwattr $C$DW$107, DW_AT_low_pc(0x00)
    1549                      .dwattr $C$DW$107, DW_AT_name("I2C_clearInterruptStatus")
    1550                      .dwattr $C$DW$107, DW_AT_TI_call
    1551              
    1552 000000d8 7640!         LCR       #||I2C_clearInterruptStatus|| ; [CPU_ALU] |705| 
         000000d9 0000 
    1553                      ; call occurs [#||I2C_clearInterruptStatus||] ; [] |705| 
    1554 000000da 761F!         MOVW      DP,#||I2CA||          ; [CPU_ARAU] 
         000000db 0000 
    1555                      .dwpsn  file "../bts.c",line 707,column 13,is_stmt,isa 0
    1556 000000dc 8F02          MOVL      XAR4,#131072          ; [CPU_ARAU] |707| 
TMS320C2000 Assembler PC v22.6.1 Tue Aug 13 19:46:08 2024

Copyright (c) 1996-2018 Texas Instruments Incorporated
bts.asm                                                              PAGE   34

         000000dd 0000 
    1557 000000de A842          MOVL      *-SP[2],XAR4          ; [CPU_ALU] |707| 
    1558 000000df 0600!         MOVL      ACC,@$BLOCKED(||I2CA||) ; [CPU_ALU] |707| 
    1559 000000e0 6F18          B         ||$C$L6||,UNC         ; [CPU_ALU] 
    1560                      ; branch occurs ; [] 
    1561 000000e1       ||$C$L4||:    
    1562                      .dwpsn  file "../bts.c",line 683,column 9,is_stmt,isa 0
    1563 000000e1 49A9          TBIT      AL,#9                 ; [CPU_ALU] |683| 
    1564 000000e2 6D12          B         ||$C$L5||,TC          ; [CPU_ALU] |683| 
    1565                      ; branchcc occurs ; [] |683| 
    1566 000000e3 761F!         MOVW      DP,#||I2CB||          ; [CPU_ARAU] 
         000000e4 0000 
    1567                      .dwpsn  file "../bts.c",line 691,column 11,is_stmt,isa 0
    1568 000000e5 8F02          MOVL      XAR4,#131072          ; [CPU_ARAU] |691| 
         000000e6 0000 
    1569 000000e7 0600!         MOVL      ACC,@$BLOCKED(||I2CB||) ; [CPU_ALU] |691| 
    1570 000000e8 A842          MOVL      *-SP[2],XAR4          ; [CPU_ALU] |691| 
    1571              $C$DW$108       .dwtag  DW_TAG_TI_branch
    1572                      .dwattr $C$DW$108, DW_AT_low_pc(0x00)
    1573                      .dwattr $C$DW$108, DW_AT_name("I2C_enableInterrupt")
    1574                      .dwattr $C$DW$108, DW_AT_TI_call
    1575              
    1576 000000e9 7640!         LCR       #||I2C_enableInterrupt|| ; [CPU_ALU] |691| 
         000000ea 0000 
    1577                      ; call occurs [#||I2C_enableInterrupt||] ; [] |691| 
    1578 000000eb 761F!         MOVW      DP,#||I2CB||          ; [CPU_ARAU] 
         000000ec 0000 
    1579                      .dwpsn  file "../bts.c",line 692,column 11,is_stmt,isa 0
    1580 000000ed 8F02          MOVL      XAR4,#131072          ; [CPU_ARAU] |692| 
         000000ee 0000 
    1581 000000ef A842          MOVL      *-SP[2],XAR4          ; [CPU_ALU] |692| 
    1582 000000f0 0600!         MOVL      ACC,@$BLOCKED(||I2CB||) ; [CPU_ALU] |692| 
    1583              $C$DW$109       .dwtag  DW_TAG_TI_branch
    1584                      .dwattr $C$DW$109, DW_AT_low_pc(0x00)
    1585                      .dwattr $C$DW$109, DW_AT_name("I2C_clearInterruptStatus")
    1586                      .dwattr $C$DW$109, DW_AT_TI_call
    1587              
    1588 000000f1 7640!         LCR       #||I2C_clearInterruptStatus|| ; [CPU_ALU] |692| 
         000000f2 0000 
    1589                      ; call occurs [#||I2C_clearInterruptStatus||] ; [] |692| 
    1590 000000f3 6F07          B         ||$C$L7||,UNC         ; [CPU_ALU] |692| 
    1591                      ; branch occurs ; [] |692| 
    1592 000000f4       ||$C$L5||:    
    1593                      .dwpsn  file "../bts.c",line 686,column 11,is_stmt,isa 0
    1594 000000f4 8F42          MOVL      XAR5,#131072          ; [CPU_ARAU] |686| 
         000000f5 0000 
    1595 000000f6 A8A9          MOVL      ACC,XAR4              ; [CPU_ALU] |686| 
    1596 000000f7 A042          MOVL      *-SP[2],XAR5          ; [CPU_ALU] |686| 
    1597              ||$C$L6||:    
    1598              $C$DW$110       .dwtag  DW_TAG_TI_branch
    1599                      .dwattr $C$DW$110, DW_AT_low_pc(0x00)
    1600                      .dwattr $C$DW$110, DW_AT_name("I2C_disableInterrupt")
    1601                      .dwattr $C$DW$110, DW_AT_TI_call
    1602              
    1603 000000f8 7640!         LCR       #||I2C_disableInterrupt|| ; [CPU_ALU] |686| 
TMS320C2000 Assembler PC v22.6.1 Tue Aug 13 19:46:08 2024

Copyright (c) 1996-2018 Texas Instruments Incorporated
bts.asm                                                              PAGE   35

         000000f9 0000 
    1604                      ; call occurs [#||I2C_disableInterrupt||] ; [] |686| 
    1605 000000fa       ||$C$L7||:    
    1606                      .dwpsn  file "C:\ti\c2000\C2000Ware_DigitalPower_SDK_5_03_00_00\c2000ware\driverlib\f2837xd\driverlib
    1607 000000fa 9A80          MOVB      AL,#128               ; [CPU_ALU] |377| 
    1608 000000fb F4A9          MOV       *(0:0x0ce1),AL        ; [CPU_ALU] |377| 
         000000fc 0CE1 
    1609 000000fd FE82          SUBB      SP,#2                 ; [CPU_ARAU] 
    1610                      .dwcfi  cfa_offset, -16
    1611 000000fe E562          RESTORE   ; [CPU_FPU] 
    1612 000000ff FFF1          POP       RB                    ; [CPU_FPU] 
    1613                      .dwcfi  cfa_offset, -14
    1614                      .dwcfi  restore_reg, 74
    1615 00000100 C5BE          MOVL      XAR7,*--SP            ; [CPU_ALU] 
    1616                      .dwcfi  cfa_offset, -12
    1617                      .dwcfi  restore_reg, 18
    1618 00000101 C4BE          MOVL      XAR6,*--SP            ; [CPU_ALU] 
    1619                      .dwcfi  cfa_offset, -10
    1620                      .dwcfi  restore_reg, 16
    1621 00000102 83BE          MOVL      XAR5,*--SP            ; [CPU_ALU] 
    1622                      .dwcfi  cfa_offset, -8
    1623                      .dwcfi  restore_reg, 14
    1624 00000103 8ABE          MOVL      XAR4,*--SP            ; [CPU_ALU] 
    1625                      .dwcfi  cfa_offset, -6
    1626                      .dwcfi  restore_reg, 12
    1627 00000104 87BE          MOVL      XT,*--SP              ; [CPU_ALU] 
    1628                      .dwcfi  cfa_offset, -4
    1629                      .dwcfi  restore_reg, 22
    1630                      .dwcfi  restore_reg, 21
    1631 00000105 0003          POP       AR1H:AR0H             ; [CPU_ALU] 
    1632                      .dwcfi  cfa_offset, -2
    1633                      .dwcfi  restore_reg, 5
    1634                      .dwcfi  restore_reg, 7
    1635 00000106 7617          NASP      ; [CPU_ALU] 
    1636              $C$DW$111       .dwtag  DW_TAG_TI_branch
    1637                      .dwattr $C$DW$111, DW_AT_low_pc(0x00)
    1638                      .dwattr $C$DW$111, DW_AT_TI_return
    1639              
    1640 00000107 7602          IRET      ; [CPU_ALU] 
    1641                      ; return occurs ; [] 
    1642                      .dwattr $C$DW$98, DW_AT_TI_end_file("../bts.c")
    1643                      .dwattr $C$DW$98, DW_AT_TI_end_line(0x2e3)
    1644                      .dwattr $C$DW$98, DW_AT_TI_end_column(0x01)
    1645                      .dwendentry
    1646                      .dwendtag $C$DW$98
    1647              
    1648 00000000               .sect   ".text:__signbitl"
    1649                      .clink
    1650                      .global ||__signbitl||
    1651              
    1652              $C$DW$112       .dwtag  DW_TAG_subprogram
    1653                      .dwattr $C$DW$112, DW_AT_name("__signbitl")
    1654                      .dwattr $C$DW$112, DW_AT_low_pc(||__signbitl||)
    1655                      .dwattr $C$DW$112, DW_AT_high_pc(0x00)
    1656                      .dwattr $C$DW$112, DW_AT_linkage_name("__signbitl")
TMS320C2000 Assembler PC v22.6.1 Tue Aug 13 19:46:08 2024

Copyright (c) 1996-2018 Texas Instruments Incorporated
bts.asm                                                              PAGE   36

    1657                      .dwattr $C$DW$112, DW_AT_external
    1658                      .dwattr $C$DW$112, DW_AT_type(*$C$DW$T$10)
    1659                      .dwattr $C$DW$112, DW_AT_decl_file("C:/ti/ccs1271/ccs/tools/compiler/ti-cgt-c2000_22.6.1.LTS/include/
    1660                      .dwattr $C$DW$112, DW_AT_decl_line(0x16f)
    1661                      .dwattr $C$DW$112, DW_AT_decl_column(0x18)
    1662                      .dwattr $C$DW$112, DW_AT_TI_max_frame_size(-6)
    1663                      .dwpsn  file "C:/ti/ccs1271/ccs/tools/compiler/ti-cgt-c2000_22.6.1.LTS/include/_defs.h",line 368,colu
    1664              
    1665                      .dwfde $C$DW$CIE, ||__signbitl||
    1666              $C$DW$113       .dwtag  DW_TAG_formal_parameter
    1667                      .dwattr $C$DW$113, DW_AT_name("e")
    1668                      .dwattr $C$DW$113, DW_AT_type(*$C$DW$T$147)
    1669                      .dwattr $C$DW$113, DW_AT_location[DW_OP_reg12]
    1670              
    1671              
    1672              ;***************************************************************
    1673              ;* FNAME: __signbitl                    FR SIZE:   4           *
    1674              ;*                                                             *
    1675              ;* FUNCTION ENVIRONMENT                                        *
    1676              ;*                                                             *
    1677              ;* FUNCTION PROPERTIES                                         *
    1678              ;*                            4 Parameter,  0 Auto,  0 SOE     *
    1679              ;***************************************************************
    1680              
    1681              ||__signbitl||:
    1682              ;* AR4   assigned to e
    1683              $C$DW$114       .dwtag  DW_TAG_variable
    1684                      .dwattr $C$DW$114, DW_AT_name("e")
    1685                      .dwattr $C$DW$114, DW_AT_type(*$C$DW$T$148)
    1686                      .dwattr $C$DW$114, DW_AT_location[DW_OP_reg12]
    1687              
    1688                      .dwcfi  cfa_offset, -2
    1689                      .dwcfi  save_reg_to_mem, 26, 0
    1690 00000000 FE04          ADDB      SP,#4                 ; [CPU_ARAU] 
    1691                      .dwcfi  cfa_offset, -6
    1692                      .dwpsn  file "C:/ti/ccs1271/ccs/tools/compiler/ti-cgt-c2000_22.6.1.LTS/include/_defs.h",line 368,colu
    1693 00000001 0200          MOVB      ACC,#0                ; [CPU_ALU] |368| 
    1694 00000002 1E44          MOVL      *-SP[4],ACC           ; [CPU_ALU] |368| 
    1695 00000003 2B42          MOV       *-SP[2],#0            ; [CPU_ALU] |368| 
    1696 00000004 2B41          MOV       *-SP[1],#0            ; [CPU_ALU] |368| 
    1697 00000005 A3C4          MOVL      P,*+XAR4[0]           ; [CPU_ALU] |368| 
    1698 00000006 06D4          MOVL      ACC,*+XAR4[2]         ; [CPU_ALU] |368| 
    1699 00000007 18AB          AND       PL,#0                 ; [CPU_ALU] |368| 
         00000008 0000 
    1700 00000009 18AA          AND       PH,#0                 ; [CPU_ALU] |368| 
         0000000a 0000 
    1701 0000000b 9000          ANDB      AL,#0                 ; [CPU_ALU] |368| 
    1702 0000000c 18A8          AND       AH,#32768             ; [CPU_ALU] |368| 
         0000000d 8000 
    1703              $C$DW$115       .dwtag  DW_TAG_TI_branch
    1704                      .dwattr $C$DW$115, DW_AT_low_pc(0x00)
    1705                      .dwattr $C$DW$115, DW_AT_name("__c28xabi_cmpull")
    1706                      .dwattr $C$DW$115, DW_AT_TI_call
    1707              
    1708 0000000e 7640!         LCR       #||__c28xabi_cmpull|| ; [CPU_ALU] |368| 
TMS320C2000 Assembler PC v22.6.1 Tue Aug 13 19:46:08 2024

Copyright (c) 1996-2018 Texas Instruments Incorporated
bts.asm                                                              PAGE   37

         0000000f 0000 
    1709                      ; call occurs [#||__c28xabi_cmpull||] ; [] |368| 
    1710 00000010 9B00          MOVB      AH,#0                 ; [CPU_ALU] |368| 
    1711 00000011 5200          CMPB      AL,#0                 ; [CPU_ALU] |368| 
    1712 00000012 56B0          MOVB      AH,#1,NEQ             ; [CPU_ALU] |368| 
         00000013 01A8 
    1713 00000014 92A8          MOV       AL,AH                 ; [CPU_ALU] |368| 
    1714 00000015 FE84          SUBB      SP,#4                 ; [CPU_ARAU] 
    1715                      .dwcfi  cfa_offset, -2
    1716              $C$DW$116       .dwtag  DW_TAG_TI_branch
    1717                      .dwattr $C$DW$116, DW_AT_low_pc(0x00)
    1718                      .dwattr $C$DW$116, DW_AT_TI_return
    1719              
    1720 00000016 0006          LRETR     ; [CPU_ALU] 
    1721                      ; return occurs ; [] 
    1722                      .dwattr $C$DW$112, DW_AT_TI_end_file("C:/ti/ccs1271/ccs/tools/compiler/ti-cgt-c2000_22.6.1.LTS/includ
    1723                      .dwattr $C$DW$112, DW_AT_TI_end_line(0x170)
    1724                      .dwattr $C$DW$112, DW_AT_TI_end_column(0x2b)
    1725                      .dwendentry
    1726                      .dwendtag $C$DW$112
    1727              
    1728 00000000               .sect   ".text:__signbitf"
    1729                      .clink
    1730                      .global ||__signbitf||
    1731              
    1732              $C$DW$117       .dwtag  DW_TAG_subprogram
    1733                      .dwattr $C$DW$117, DW_AT_name("__signbitf")
    1734                      .dwattr $C$DW$117, DW_AT_low_pc(||__signbitf||)
    1735                      .dwattr $C$DW$117, DW_AT_high_pc(0x00)
    1736                      .dwattr $C$DW$117, DW_AT_linkage_name("__signbitf")
    1737                      .dwattr $C$DW$117, DW_AT_external
    1738                      .dwattr $C$DW$117, DW_AT_type(*$C$DW$T$10)
    1739                      .dwattr $C$DW$117, DW_AT_decl_file("C:/ti/ccs1271/ccs/tools/compiler/ti-cgt-c2000_22.6.1.LTS/include/
    1740                      .dwattr $C$DW$117, DW_AT_decl_line(0x16d)
    1741                      .dwattr $C$DW$117, DW_AT_decl_column(0x18)
    1742                      .dwattr $C$DW$117, DW_AT_TI_max_frame_size(-2)
    1743                      .dwpsn  file "C:/ti/ccs1271/ccs/tools/compiler/ti-cgt-c2000_22.6.1.LTS/include/_defs.h",line 366,colu
    1744              
    1745                      .dwfde $C$DW$CIE, ||__signbitf||
    1746              $C$DW$118       .dwtag  DW_TAG_formal_parameter
    1747                      .dwattr $C$DW$118, DW_AT_name("f")
    1748                      .dwattr $C$DW$118, DW_AT_type(*$C$DW$T$16)
    1749                      .dwattr $C$DW$118, DW_AT_location[DW_OP_regx 0x2b]
    1750              
    1751              
    1752              ;***************************************************************
    1753              ;* FNAME: __signbitf                    FR SIZE:   0           *
    1754              ;*                                                             *
    1755              ;* FUNCTION ENVIRONMENT                                        *
    1756              ;*                                                             *
    1757              ;* FUNCTION PROPERTIES                                         *
    1758              ;*                            0 Parameter,  0 Auto,  0 SOE     *
    1759              ;***************************************************************
    1760              
    1761              ||__signbitf||:
TMS320C2000 Assembler PC v22.6.1 Tue Aug 13 19:46:08 2024

Copyright (c) 1996-2018 Texas Instruments Incorporated
bts.asm                                                              PAGE   38

    1762              ;* R0    assigned to f
    1763              $C$DW$119       .dwtag  DW_TAG_variable
    1764                      .dwattr $C$DW$119, DW_AT_name("f")
    1765                      .dwattr $C$DW$119, DW_AT_type(*$C$DW$T$141)
    1766                      .dwattr $C$DW$119, DW_AT_location[DW_OP_regx 0x2b]
    1767              
    1768                      .dwcfi  cfa_offset, -2
    1769                      .dwcfi  save_reg_to_mem, 26, 0
    1770                      .dwpsn  file "C:/ti/ccs1271/ccs/tools/compiler/ti-cgt-c2000_22.6.1.LTS/include/_defs.h",line 366,colu
    1771 00000000 BFA9          MOV32     ACC,R0H               ; [CPU_FPU] |366| 
         00000001 0F12 
    1772 00000002 BE00          MOVB      XAR6,#0               ; [CPU_ALU] |366| 
    1773 00000003 9000          ANDB      AL,#0                 ; [CPU_ALU] |366| 
    1774 00000004 18A8          AND       AH,#32768             ; [CPU_ALU] |366| 
         00000005 8000 
    1775 00000006 FF58          TEST      ACC                   ; [CPU_ALU] |366| 
    1776 00000007 56B0          MOVB      XAR6,#1,NEQ           ; [CPU_ALU] |366| 
         00000008 01A6 
    1777 00000009 92A6          MOV       AL,AR6                ; [CPU_ALU] |366| 
    1778              $C$DW$120       .dwtag  DW_TAG_TI_branch
    1779                      .dwattr $C$DW$120, DW_AT_low_pc(0x00)
    1780                      .dwattr $C$DW$120, DW_AT_TI_return
    1781              
    1782 0000000a 0006          LRETR     ; [CPU_ALU] 
    1783                      ; return occurs ; [] 
    1784                      .dwattr $C$DW$117, DW_AT_TI_end_file("C:/ti/ccs1271/ccs/tools/compiler/ti-cgt-c2000_22.6.1.LTS/includ
    1785                      .dwattr $C$DW$117, DW_AT_TI_end_line(0x16e)
    1786                      .dwattr $C$DW$117, DW_AT_TI_end_column(0x29)
    1787                      .dwendentry
    1788                      .dwendtag $C$DW$117
    1789              
    1790 00000000               .sect   ".text:__signbit"
    1791                      .clink
    1792                      .global ||__signbit||
    1793              
    1794              $C$DW$121       .dwtag  DW_TAG_subprogram
    1795                      .dwattr $C$DW$121, DW_AT_name("__signbit")
    1796                      .dwattr $C$DW$121, DW_AT_low_pc(||__signbit||)
    1797                      .dwattr $C$DW$121, DW_AT_high_pc(0x00)
    1798                      .dwattr $C$DW$121, DW_AT_linkage_name("__signbit")
    1799                      .dwattr $C$DW$121, DW_AT_external
    1800                      .dwattr $C$DW$121, DW_AT_type(*$C$DW$T$10)
    1801                      .dwattr $C$DW$121, DW_AT_decl_file("C:/ti/ccs1271/ccs/tools/compiler/ti-cgt-c2000_22.6.1.LTS/include/
    1802                      .dwattr $C$DW$121, DW_AT_decl_line(0x16b)
    1803                      .dwattr $C$DW$121, DW_AT_decl_column(0x18)
    1804                      .dwattr $C$DW$121, DW_AT_TI_max_frame_size(-6)
    1805                      .dwpsn  file "C:/ti/ccs1271/ccs/tools/compiler/ti-cgt-c2000_22.6.1.LTS/include/_defs.h",line 364,colu
    1806              
    1807                      .dwfde $C$DW$CIE, ||__signbit||
    1808              $C$DW$122       .dwtag  DW_TAG_formal_parameter
    1809                      .dwattr $C$DW$122, DW_AT_name("d")
    1810                      .dwattr $C$DW$122, DW_AT_type(*$C$DW$T$144)
    1811                      .dwattr $C$DW$122, DW_AT_location[DW_OP_reg12]
    1812              
    1813              
TMS320C2000 Assembler PC v22.6.1 Tue Aug 13 19:46:08 2024

Copyright (c) 1996-2018 Texas Instruments Incorporated
bts.asm                                                              PAGE   39

    1814              ;***************************************************************
    1815              ;* FNAME: __signbit                     FR SIZE:   4           *
    1816              ;*                                                             *
    1817              ;* FUNCTION ENVIRONMENT                                        *
    1818              ;*                                                             *
    1819              ;* FUNCTION PROPERTIES                                         *
    1820              ;*                            4 Parameter,  0 Auto,  0 SOE     *
    1821              ;***************************************************************
    1822              
    1823              ||__signbit||:
    1824              ;* AR4   assigned to d
    1825              $C$DW$123       .dwtag  DW_TAG_variable
    1826                      .dwattr $C$DW$123, DW_AT_name("d")
    1827                      .dwattr $C$DW$123, DW_AT_type(*$C$DW$T$145)
    1828                      .dwattr $C$DW$123, DW_AT_location[DW_OP_reg12]
    1829              
    1830                      .dwcfi  cfa_offset, -2
    1831                      .dwcfi  save_reg_to_mem, 26, 0
    1832 00000000 FE04          ADDB      SP,#4                 ; [CPU_ARAU] 
    1833                      .dwcfi  cfa_offset, -6
    1834                      .dwpsn  file "C:/ti/ccs1271/ccs/tools/compiler/ti-cgt-c2000_22.6.1.LTS/include/_defs.h",line 364,colu
    1835 00000001 0200          MOVB      ACC,#0                ; [CPU_ALU] |364| 
    1836 00000002 1E44          MOVL      *-SP[4],ACC           ; [CPU_ALU] |364| 
    1837 00000003 2B42          MOV       *-SP[2],#0            ; [CPU_ALU] |364| 
    1838 00000004 2B41          MOV       *-SP[1],#0            ; [CPU_ALU] |364| 
    1839 00000005 A3C4          MOVL      P,*+XAR4[0]           ; [CPU_ALU] |364| 
    1840 00000006 06D4          MOVL      ACC,*+XAR4[2]         ; [CPU_ALU] |364| 
    1841 00000007 18AB          AND       PL,#0                 ; [CPU_ALU] |364| 
         00000008 0000 
    1842 00000009 18AA          AND       PH,#0                 ; [CPU_ALU] |364| 
         0000000a 0000 
    1843 0000000b 9000          ANDB      AL,#0                 ; [CPU_ALU] |364| 
    1844 0000000c 18A8          AND       AH,#32768             ; [CPU_ALU] |364| 
         0000000d 8000 
    1845              $C$DW$124       .dwtag  DW_TAG_TI_branch
    1846                      .dwattr $C$DW$124, DW_AT_low_pc(0x00)
    1847                      .dwattr $C$DW$124, DW_AT_name("__c28xabi_cmpull")
    1848                      .dwattr $C$DW$124, DW_AT_TI_call
    1849              
    1850 0000000e 7640!         LCR       #||__c28xabi_cmpull|| ; [CPU_ALU] |364| 
         0000000f 0000 
    1851                      ; call occurs [#||__c28xabi_cmpull||] ; [] |364| 
    1852 00000010 9B00          MOVB      AH,#0                 ; [CPU_ALU] |364| 
    1853 00000011 5200          CMPB      AL,#0                 ; [CPU_ALU] |364| 
    1854 00000012 56B0          MOVB      AH,#1,NEQ             ; [CPU_ALU] |364| 
         00000013 01A8 
    1855 00000014 92A8          MOV       AL,AH                 ; [CPU_ALU] |364| 
    1856 00000015 FE84          SUBB      SP,#4                 ; [CPU_ARAU] 
    1857                      .dwcfi  cfa_offset, -2
    1858              $C$DW$125       .dwtag  DW_TAG_TI_branch
    1859                      .dwattr $C$DW$125, DW_AT_low_pc(0x00)
    1860                      .dwattr $C$DW$125, DW_AT_TI_return
    1861              
    1862 00000016 0006          LRETR     ; [CPU_ALU] 
    1863                      ; return occurs ; [] 
TMS320C2000 Assembler PC v22.6.1 Tue Aug 13 19:46:08 2024

Copyright (c) 1996-2018 Texas Instruments Incorporated
bts.asm                                                              PAGE   40

    1864                      .dwattr $C$DW$121, DW_AT_TI_end_file("C:/ti/ccs1271/ccs/tools/compiler/ti-cgt-c2000_22.6.1.LTS/includ
    1865                      .dwattr $C$DW$121, DW_AT_TI_end_line(0x16c)
    1866                      .dwattr $C$DW$121, DW_AT_TI_end_column(0x2a)
    1867                      .dwendentry
    1868                      .dwendtag $C$DW$121
    1869              
    1870 00000000               .sect   ".text:__relaxed_sqrtf"
    1871                      .clink
    1872                      .global ||__relaxed_sqrtf||
    1873              
    1874              $C$DW$126       .dwtag  DW_TAG_subprogram
    1875                      .dwattr $C$DW$126, DW_AT_name("__relaxed_sqrtf")
    1876                      .dwattr $C$DW$126, DW_AT_low_pc(||__relaxed_sqrtf||)
    1877                      .dwattr $C$DW$126, DW_AT_high_pc(0x00)
    1878                      .dwattr $C$DW$126, DW_AT_linkage_name("__relaxed_sqrtf")
    1879                      .dwattr $C$DW$126, DW_AT_external
    1880                      .dwattr $C$DW$126, DW_AT_type(*$C$DW$T$16)
    1881                      .dwattr $C$DW$126, DW_AT_decl_file("C:/ti/ccs1271/ccs/tools/compiler/ti-cgt-c2000_22.6.1.LTS/include/
    1882                      .dwattr $C$DW$126, DW_AT_decl_line(0x103)
    1883                      .dwattr $C$DW$126, DW_AT_decl_column(0x10)
    1884                      .dwattr $C$DW$126, DW_AT_TI_max_frame_size(-2)
    1885                      .dwpsn  file "C:/ti/ccs1271/ccs/tools/compiler/ti-cgt-c2000_22.6.1.LTS/include/math.h",line 260,colum
    1886              
    1887                      .dwfde $C$DW$CIE, ||__relaxed_sqrtf||
    1888              $C$DW$127       .dwtag  DW_TAG_formal_parameter
    1889                      .dwattr $C$DW$127, DW_AT_name("x")
    1890                      .dwattr $C$DW$127, DW_AT_type(*$C$DW$T$16)
    1891                      .dwattr $C$DW$127, DW_AT_location[DW_OP_regx 0x2b]
    1892              
    1893              
    1894              ;***************************************************************
    1895              ;* FNAME: __relaxed_sqrtf               FR SIZE:   0           *
    1896              ;*                                                             *
    1897              ;* FUNCTION ENVIRONMENT                                        *
    1898              ;*                                                             *
    1899              ;* FUNCTION PROPERTIES                                         *
    1900              ;*                            0 Parameter,  0 Auto,  0 SOE     *
    1901              ;***************************************************************
    1902              
    1903              ||__relaxed_sqrtf||:
    1904              ;* R0    assigned to x
    1905              $C$DW$128       .dwtag  DW_TAG_variable
    1906                      .dwattr $C$DW$128, DW_AT_name("x")
    1907                      .dwattr $C$DW$128, DW_AT_type(*$C$DW$T$141)
    1908                      .dwattr $C$DW$128, DW_AT_location[DW_OP_regx 0x2b]
    1909              
    1910                      .dwcfi  cfa_offset, -2
    1911                      .dwcfi  save_reg_to_mem, 26, 0
    1912                      .dwpsn  file "C:/ti/ccs1271/ccs/tools/compiler/ti-cgt-c2000_22.6.1.LTS/include/math.h",line 261,colum
    1913 00000000 E277          SQRTF32   R0H,R0H               ; [CPU_FPU] |261| 
         00000001 0000 
    1914 00000002 7700          NOP       ; [CPU_ALU] 
    1915 00000003 7700          NOP       ; [CPU_ALU] 
    1916 00000004 7700          NOP       ; [CPU_ALU] 
    1917              $C$DW$129       .dwtag  DW_TAG_TI_branch
TMS320C2000 Assembler PC v22.6.1 Tue Aug 13 19:46:08 2024

Copyright (c) 1996-2018 Texas Instruments Incorporated
bts.asm                                                              PAGE   41

    1918                      .dwattr $C$DW$129, DW_AT_low_pc(0x00)
    1919                      .dwattr $C$DW$129, DW_AT_TI_return
    1920              
    1921 00000005 0006          LRETR     ; [CPU_ALU] 
    1922                      ; return occurs ; [] 
    1923                      .dwattr $C$DW$126, DW_AT_TI_end_file("C:/ti/ccs1271/ccs/tools/compiler/ti-cgt-c2000_22.6.1.LTS/includ
    1924                      .dwattr $C$DW$126, DW_AT_TI_end_line(0x106)
    1925                      .dwattr $C$DW$126, DW_AT_TI_end_column(0x01)
    1926                      .dwendentry
    1927                      .dwendtag $C$DW$126
    1928              
    1929 00000000               .sect   ".text:__relaxed_sinf"
    1930                      .clink
    1931                      .global ||__relaxed_sinf||
    1932              
    1933              $C$DW$130       .dwtag  DW_TAG_subprogram
    1934                      .dwattr $C$DW$130, DW_AT_name("__relaxed_sinf")
    1935                      .dwattr $C$DW$130, DW_AT_low_pc(||__relaxed_sinf||)
    1936                      .dwattr $C$DW$130, DW_AT_high_pc(0x00)
    1937                      .dwattr $C$DW$130, DW_AT_linkage_name("__relaxed_sinf")
    1938                      .dwattr $C$DW$130, DW_AT_external
    1939                      .dwattr $C$DW$130, DW_AT_type(*$C$DW$T$16)
    1940                      .dwattr $C$DW$130, DW_AT_decl_file("C:/ti/ccs1271/ccs/tools/compiler/ti-cgt-c2000_22.6.1.LTS/include/
    1941                      .dwattr $C$DW$130, DW_AT_decl_line(0x108)
    1942                      .dwattr $C$DW$130, DW_AT_decl_column(0x10)
    1943                      .dwattr $C$DW$130, DW_AT_TI_max_frame_size(-2)
    1944                      .dwpsn  file "C:/ti/ccs1271/ccs/tools/compiler/ti-cgt-c2000_22.6.1.LTS/include/math.h",line 265,colum
    1945              
    1946                      .dwfde $C$DW$CIE, ||__relaxed_sinf||
    1947              $C$DW$131       .dwtag  DW_TAG_formal_parameter
    1948                      .dwattr $C$DW$131, DW_AT_name("x")
    1949                      .dwattr $C$DW$131, DW_AT_type(*$C$DW$T$16)
    1950                      .dwattr $C$DW$131, DW_AT_location[DW_OP_regx 0x2b]
    1951              
    1952              
    1953              ;***************************************************************
    1954              ;* FNAME: __relaxed_sinf                FR SIZE:   0           *
    1955              ;*                                                             *
    1956              ;* FUNCTION ENVIRONMENT                                        *
    1957              ;*                                                             *
    1958              ;* FUNCTION PROPERTIES                                         *
    1959              ;*                            0 Parameter,  0 Auto,  0 SOE     *
    1960              ;***************************************************************
    1961              
    1962              ||__relaxed_sinf||:
    1963              ;* R0    assigned to x
    1964              $C$DW$132       .dwtag  DW_TAG_variable
    1965                      .dwattr $C$DW$132, DW_AT_name("x")
    1966                      .dwattr $C$DW$132, DW_AT_type(*$C$DW$T$141)
    1967                      .dwattr $C$DW$132, DW_AT_location[DW_OP_regx 0x2b]
    1968              
    1969                      .dwcfi  cfa_offset, -2
    1970                      .dwcfi  save_reg_to_mem, 26, 0
    1971                      .dwpsn  file "C:/ti/ccs1271/ccs/tools/compiler/ti-cgt-c2000_22.6.1.LTS/include/math.h",line 266,colum
    1972 00000000 E271          DIV2PIF32 R0H,R0H               ; [CPU_FPU] |266| 
TMS320C2000 Assembler PC v22.6.1 Tue Aug 13 19:46:08 2024

Copyright (c) 1996-2018 Texas Instruments Incorporated
bts.asm                                                              PAGE   42

         00000001 0000 
    1973 00000002 7700          NOP       ; [CPU_ALU] 
    1974 00000003 E278          SINPUF32  R0H,R0H               ; [CPU_FPU] |266| 
         00000004 0000 
    1975 00000005 7700          NOP       ; [CPU_ALU] 
    1976 00000006 7700          NOP       ; [CPU_ALU] 
    1977              $C$DW$133       .dwtag  DW_TAG_TI_branch
    1978                      .dwattr $C$DW$133, DW_AT_low_pc(0x00)
    1979                      .dwattr $C$DW$133, DW_AT_TI_return
    1980              
    1981 00000007 0006          LRETR     ; [CPU_ALU] 
    1982                      ; return occurs ; [] 
    1983                      .dwattr $C$DW$130, DW_AT_TI_end_file("C:/ti/ccs1271/ccs/tools/compiler/ti-cgt-c2000_22.6.1.LTS/includ
    1984                      .dwattr $C$DW$130, DW_AT_TI_end_line(0x10b)
    1985                      .dwattr $C$DW$130, DW_AT_TI_end_column(0x01)
    1986                      .dwendentry
    1987                      .dwendtag $C$DW$130
    1988              
    1989 00000000               .sect   ".text:__relaxed_fmodf"
    1990                      .clink
    1991                      .global ||__relaxed_fmodf||
    1992              
    1993              $C$DW$134       .dwtag  DW_TAG_subprogram
    1994                      .dwattr $C$DW$134, DW_AT_name("__relaxed_fmodf")
    1995                      .dwattr $C$DW$134, DW_AT_low_pc(||__relaxed_fmodf||)
    1996                      .dwattr $C$DW$134, DW_AT_high_pc(0x00)
    1997                      .dwattr $C$DW$134, DW_AT_linkage_name("__relaxed_fmodf")
    1998                      .dwattr $C$DW$134, DW_AT_external
    1999                      .dwattr $C$DW$134, DW_AT_type(*$C$DW$T$16)
    2000                      .dwattr $C$DW$134, DW_AT_decl_file("C:/ti/ccs1271/ccs/tools/compiler/ti-cgt-c2000_22.6.1.LTS/include/
    2001                      .dwattr $C$DW$134, DW_AT_decl_line(0x11c)
    2002                      .dwattr $C$DW$134, DW_AT_decl_column(0x10)
    2003                      .dwattr $C$DW$134, DW_AT_TI_max_frame_size(-2)
    2004                      .dwpsn  file "C:/ti/ccs1271/ccs/tools/compiler/ti-cgt-c2000_22.6.1.LTS/include/math.h",line 285,colum
    2005              
    2006                      .dwfde $C$DW$CIE, ||__relaxed_fmodf||
    2007              $C$DW$135       .dwtag  DW_TAG_formal_parameter
    2008                      .dwattr $C$DW$135, DW_AT_name("y")
    2009                      .dwattr $C$DW$135, DW_AT_type(*$C$DW$T$16)
    2010                      .dwattr $C$DW$135, DW_AT_location[DW_OP_regx 0x2b]
    2011              
    2012              $C$DW$136       .dwtag  DW_TAG_formal_parameter
    2013                      .dwattr $C$DW$136, DW_AT_name("x")
    2014                      .dwattr $C$DW$136, DW_AT_type(*$C$DW$T$16)
    2015                      .dwattr $C$DW$136, DW_AT_location[DW_OP_regx 0x2f]
    2016              
    2017              
    2018              ;***************************************************************
    2019              ;* FNAME: __relaxed_fmodf               FR SIZE:   0           *
    2020              ;*                                                             *
    2021              ;* FUNCTION ENVIRONMENT                                        *
    2022              ;*                                                             *
    2023              ;* FUNCTION PROPERTIES                                         *
    2024              ;*                            0 Parameter,  0 Auto,  0 SOE     *
    2025              ;***************************************************************
TMS320C2000 Assembler PC v22.6.1 Tue Aug 13 19:46:08 2024

Copyright (c) 1996-2018 Texas Instruments Incorporated
bts.asm                                                              PAGE   43

    2026              
    2027              ||__relaxed_fmodf||:
    2028              ;* R0    assigned to y
    2029              $C$DW$137       .dwtag  DW_TAG_variable
    2030                      .dwattr $C$DW$137, DW_AT_name("y")
    2031                      .dwattr $C$DW$137, DW_AT_type(*$C$DW$T$141)
    2032                      .dwattr $C$DW$137, DW_AT_location[DW_OP_regx 0x2b]
    2033              
    2034              ;* R1    assigned to x
    2035              $C$DW$138       .dwtag  DW_TAG_variable
    2036                      .dwattr $C$DW$138, DW_AT_name("x")
    2037                      .dwattr $C$DW$138, DW_AT_type(*$C$DW$T$141)
    2038                      .dwattr $C$DW$138, DW_AT_location[DW_OP_regx 0x2f]
    2039              
    2040                      .dwcfi  cfa_offset, -2
    2041                      .dwcfi  save_reg_to_mem, 26, 0
    2042                      .dwpsn  file "C:/ti/ccs1271/ccs/tools/compiler/ti-cgt-c2000_22.6.1.LTS/include/math.h",line 286,colum
    2043 00000000 E274          DIVF32    R2H,R0H,R1H           ; [CPU_FPU] |286| 
         00000001 0042 
    2044 00000002 7700          NOP       ; [CPU_ALU] 
    2045 00000003 7700          NOP       ; [CPU_ALU] 
    2046 00000004 7700          NOP       ; [CPU_ALU] 
    2047 00000005 7700          NOP       ; [CPU_ALU] 
    2048 00000006 E688          F32TOI32  R2H,R2H               ; [CPU_FPU] |286| 
         00000007 0012 
    2049 00000008 7700          NOP       ; [CPU_ALU] 
    2050 00000009 E689          I32TOF32  R2H,R2H               ; [CPU_FPU] |286| 
         0000000a 0012 
    2051 0000000b 7700          NOP       ; [CPU_ALU] 
    2052 0000000c E700          MPYF32    R1H,R1H,R2H           ; [CPU_FPU] |286| 
         0000000d 0089 
    2053 0000000e 7700          NOP       ; [CPU_ALU] 
    2054 0000000f E720          SUBF32    R0H,R0H,R1H           ; [CPU_FPU] |286| 
         00000010 0040 
    2055              $C$DW$139       .dwtag  DW_TAG_TI_branch
    2056                      .dwattr $C$DW$139, DW_AT_low_pc(0x00)
    2057                      .dwattr $C$DW$139, DW_AT_TI_return
    2058              
    2059 00000011 0006          LRETR     ; [CPU_ALU] 
    2060                      ; return occurs ; [] 
    2061                      .dwattr $C$DW$134, DW_AT_TI_end_file("C:/ti/ccs1271/ccs/tools/compiler/ti-cgt-c2000_22.6.1.LTS/includ
    2062                      .dwattr $C$DW$134, DW_AT_TI_end_line(0x11f)
    2063                      .dwattr $C$DW$134, DW_AT_TI_end_column(0x01)
    2064                      .dwendentry
    2065                      .dwendtag $C$DW$134
    2066              
    2067 00000000               .sect   ".text:__relaxed_fminf"
    2068                      .clink
    2069                      .global ||__relaxed_fminf||
    2070              
    2071              $C$DW$140       .dwtag  DW_TAG_subprogram
    2072                      .dwattr $C$DW$140, DW_AT_name("__relaxed_fminf")
    2073                      .dwattr $C$DW$140, DW_AT_low_pc(||__relaxed_fminf||)
    2074                      .dwattr $C$DW$140, DW_AT_high_pc(0x00)
    2075                      .dwattr $C$DW$140, DW_AT_linkage_name("__relaxed_fminf")
TMS320C2000 Assembler PC v22.6.1 Tue Aug 13 19:46:08 2024

Copyright (c) 1996-2018 Texas Instruments Incorporated
bts.asm                                                              PAGE   44

    2076                      .dwattr $C$DW$140, DW_AT_external
    2077                      .dwattr $C$DW$140, DW_AT_type(*$C$DW$T$16)
    2078                      .dwattr $C$DW$140, DW_AT_decl_file("C:/ti/ccs1271/ccs/tools/compiler/ti-cgt-c2000_22.6.1.LTS/include/
    2079                      .dwattr $C$DW$140, DW_AT_decl_line(0xee)
    2080                      .dwattr $C$DW$140, DW_AT_decl_column(0x10)
    2081                      .dwattr $C$DW$140, DW_AT_TI_max_frame_size(-2)
    2082                      .dwpsn  file "C:/ti/ccs1271/ccs/tools/compiler/ti-cgt-c2000_22.6.1.LTS/include/math.h",line 239,colum
    2083              
    2084                      .dwfde $C$DW$CIE, ||__relaxed_fminf||
    2085              $C$DW$141       .dwtag  DW_TAG_formal_parameter
    2086                      .dwattr $C$DW$141, DW_AT_name("x")
    2087                      .dwattr $C$DW$141, DW_AT_type(*$C$DW$T$16)
    2088                      .dwattr $C$DW$141, DW_AT_location[DW_OP_regx 0x2b]
    2089              
    2090              $C$DW$142       .dwtag  DW_TAG_formal_parameter
    2091                      .dwattr $C$DW$142, DW_AT_name("y")
    2092                      .dwattr $C$DW$142, DW_AT_type(*$C$DW$T$16)
    2093                      .dwattr $C$DW$142, DW_AT_location[DW_OP_regx 0x2f]
    2094              
    2095              
    2096              ;***************************************************************
    2097              ;* FNAME: __relaxed_fminf               FR SIZE:   0           *
    2098              ;*                                                             *
    2099              ;* FUNCTION ENVIRONMENT                                        *
    2100              ;*                                                             *
    2101              ;* FUNCTION PROPERTIES                                         *
    2102              ;*                            0 Parameter,  0 Auto,  0 SOE     *
    2103              ;***************************************************************
    2104              
    2105              ||__relaxed_fminf||:
    2106              ;* R1    assigned to y
    2107              $C$DW$143       .dwtag  DW_TAG_variable
    2108                      .dwattr $C$DW$143, DW_AT_name("y")
    2109                      .dwattr $C$DW$143, DW_AT_type(*$C$DW$T$141)
    2110                      .dwattr $C$DW$143, DW_AT_location[DW_OP_regx 0x2f]
    2111              
    2112                      .dwcfi  cfa_offset, -2
    2113                      .dwcfi  save_reg_to_mem, 26, 0
    2114                      .dwpsn  file "C:/ti/ccs1271/ccs/tools/compiler/ti-cgt-c2000_22.6.1.LTS/include/math.h",line 240,colum
    2115 00000000 E697          MINF32    R0H,R1H               ; [CPU_FPU] |240| 
         00000001 0008 
    2116              $C$DW$144       .dwtag  DW_TAG_TI_branch
    2117                      .dwattr $C$DW$144, DW_AT_low_pc(0x00)
    2118                      .dwattr $C$DW$144, DW_AT_TI_return
    2119              
    2120 00000002 0006          LRETR     ; [CPU_ALU] 
    2121                      ; return occurs ; [] 
    2122                      .dwattr $C$DW$140, DW_AT_TI_end_file("C:/ti/ccs1271/ccs/tools/compiler/ti-cgt-c2000_22.6.1.LTS/includ
    2123                      .dwattr $C$DW$140, DW_AT_TI_end_line(0xf1)
    2124                      .dwattr $C$DW$140, DW_AT_TI_end_column(0x01)
    2125                      .dwendentry
    2126                      .dwendtag $C$DW$140
    2127              
    2128 00000000               .sect   ".text:__relaxed_fmaxf"
    2129                      .clink
TMS320C2000 Assembler PC v22.6.1 Tue Aug 13 19:46:08 2024

Copyright (c) 1996-2018 Texas Instruments Incorporated
bts.asm                                                              PAGE   45

    2130                      .global ||__relaxed_fmaxf||
    2131              
    2132              $C$DW$145       .dwtag  DW_TAG_subprogram
    2133                      .dwattr $C$DW$145, DW_AT_name("__relaxed_fmaxf")
    2134                      .dwattr $C$DW$145, DW_AT_low_pc(||__relaxed_fmaxf||)
    2135                      .dwattr $C$DW$145, DW_AT_high_pc(0x00)
    2136                      .dwattr $C$DW$145, DW_AT_linkage_name("__relaxed_fmaxf")
    2137                      .dwattr $C$DW$145, DW_AT_external
    2138                      .dwattr $C$DW$145, DW_AT_type(*$C$DW$T$16)
    2139                      .dwattr $C$DW$145, DW_AT_decl_file("C:/ti/ccs1271/ccs/tools/compiler/ti-cgt-c2000_22.6.1.LTS/include/
    2140                      .dwattr $C$DW$145, DW_AT_decl_line(0xe8)
    2141                      .dwattr $C$DW$145, DW_AT_decl_column(0x10)
    2142                      .dwattr $C$DW$145, DW_AT_TI_max_frame_size(-2)
    2143                      .dwpsn  file "C:/ti/ccs1271/ccs/tools/compiler/ti-cgt-c2000_22.6.1.LTS/include/math.h",line 233,colum
    2144              
    2145                      .dwfde $C$DW$CIE, ||__relaxed_fmaxf||
    2146              $C$DW$146       .dwtag  DW_TAG_formal_parameter
    2147                      .dwattr $C$DW$146, DW_AT_name("x")
    2148                      .dwattr $C$DW$146, DW_AT_type(*$C$DW$T$16)
    2149                      .dwattr $C$DW$146, DW_AT_location[DW_OP_regx 0x2b]
    2150              
    2151              $C$DW$147       .dwtag  DW_TAG_formal_parameter
    2152                      .dwattr $C$DW$147, DW_AT_name("y")
    2153                      .dwattr $C$DW$147, DW_AT_type(*$C$DW$T$16)
    2154                      .dwattr $C$DW$147, DW_AT_location[DW_OP_regx 0x2f]
    2155              
    2156              
    2157              ;***************************************************************
    2158              ;* FNAME: __relaxed_fmaxf               FR SIZE:   0           *
    2159              ;*                                                             *
    2160              ;* FUNCTION ENVIRONMENT                                        *
    2161              ;*                                                             *
    2162              ;* FUNCTION PROPERTIES                                         *
    2163              ;*                            0 Parameter,  0 Auto,  0 SOE     *
    2164              ;***************************************************************
    2165              
    2166              ||__relaxed_fmaxf||:
    2167              ;* R1    assigned to y
    2168              $C$DW$148       .dwtag  DW_TAG_variable
    2169                      .dwattr $C$DW$148, DW_AT_name("y")
    2170                      .dwattr $C$DW$148, DW_AT_type(*$C$DW$T$141)
    2171                      .dwattr $C$DW$148, DW_AT_location[DW_OP_regx 0x2f]
    2172              
    2173                      .dwcfi  cfa_offset, -2
    2174                      .dwcfi  save_reg_to_mem, 26, 0
    2175                      .dwpsn  file "C:/ti/ccs1271/ccs/tools/compiler/ti-cgt-c2000_22.6.1.LTS/include/math.h",line 234,colum
    2176 00000000 E696          MAXF32    R0H,R1H               ; [CPU_FPU] |234| 
         00000001 0008 
    2177              $C$DW$149       .dwtag  DW_TAG_TI_branch
    2178                      .dwattr $C$DW$149, DW_AT_low_pc(0x00)
    2179                      .dwattr $C$DW$149, DW_AT_TI_return
    2180              
    2181 00000002 0006          LRETR     ; [CPU_ALU] 
    2182                      ; return occurs ; [] 
    2183                      .dwattr $C$DW$145, DW_AT_TI_end_file("C:/ti/ccs1271/ccs/tools/compiler/ti-cgt-c2000_22.6.1.LTS/includ
TMS320C2000 Assembler PC v22.6.1 Tue Aug 13 19:46:08 2024

Copyright (c) 1996-2018 Texas Instruments Incorporated
bts.asm                                                              PAGE   46

    2184                      .dwattr $C$DW$145, DW_AT_TI_end_line(0xeb)
    2185                      .dwattr $C$DW$145, DW_AT_TI_end_column(0x01)
    2186                      .dwendentry
    2187                      .dwendtag $C$DW$145
    2188              
    2189 00000000               .sect   ".text:__relaxed_cosf"
    2190                      .clink
    2191                      .global ||__relaxed_cosf||
    2192              
    2193              $C$DW$150       .dwtag  DW_TAG_subprogram
    2194                      .dwattr $C$DW$150, DW_AT_name("__relaxed_cosf")
    2195                      .dwattr $C$DW$150, DW_AT_low_pc(||__relaxed_cosf||)
    2196                      .dwattr $C$DW$150, DW_AT_high_pc(0x00)
    2197                      .dwattr $C$DW$150, DW_AT_linkage_name("__relaxed_cosf")
    2198                      .dwattr $C$DW$150, DW_AT_external
    2199                      .dwattr $C$DW$150, DW_AT_type(*$C$DW$T$16)
    2200                      .dwattr $C$DW$150, DW_AT_decl_file("C:/ti/ccs1271/ccs/tools/compiler/ti-cgt-c2000_22.6.1.LTS/include/
    2201                      .dwattr $C$DW$150, DW_AT_decl_line(0x10d)
    2202                      .dwattr $C$DW$150, DW_AT_decl_column(0x10)
    2203                      .dwattr $C$DW$150, DW_AT_TI_max_frame_size(-2)
    2204                      .dwpsn  file "C:/ti/ccs1271/ccs/tools/compiler/ti-cgt-c2000_22.6.1.LTS/include/math.h",line 270,colum
    2205              
    2206                      .dwfde $C$DW$CIE, ||__relaxed_cosf||
    2207              $C$DW$151       .dwtag  DW_TAG_formal_parameter
    2208                      .dwattr $C$DW$151, DW_AT_name("x")
    2209                      .dwattr $C$DW$151, DW_AT_type(*$C$DW$T$16)
    2210                      .dwattr $C$DW$151, DW_AT_location[DW_OP_regx 0x2b]
    2211              
    2212              
    2213              ;***************************************************************
    2214              ;* FNAME: __relaxed_cosf                FR SIZE:   0           *
    2215              ;*                                                             *
    2216              ;* FUNCTION ENVIRONMENT                                        *
    2217              ;*                                                             *
    2218              ;* FUNCTION PROPERTIES                                         *
    2219              ;*                            0 Parameter,  0 Auto,  0 SOE     *
    2220              ;***************************************************************
    2221              
    2222              ||__relaxed_cosf||:
    2223              ;* R0    assigned to x
    2224              $C$DW$152       .dwtag  DW_TAG_variable
    2225                      .dwattr $C$DW$152, DW_AT_name("x")
    2226                      .dwattr $C$DW$152, DW_AT_type(*$C$DW$T$141)
    2227                      .dwattr $C$DW$152, DW_AT_location[DW_OP_regx 0x2b]
    2228              
    2229                      .dwcfi  cfa_offset, -2
    2230                      .dwcfi  save_reg_to_mem, 26, 0
    2231                      .dwpsn  file "C:/ti/ccs1271/ccs/tools/compiler/ti-cgt-c2000_22.6.1.LTS/include/math.h",line 271,colum
    2232 00000000 E271          DIV2PIF32 R0H,R0H               ; [CPU_FPU] |271| 
         00000001 0000 
    2233 00000002 7700          NOP       ; [CPU_ALU] 
    2234 00000003 E279          COSPUF32  R0H,R0H               ; [CPU_FPU] |271| 
         00000004 0000 
    2235 00000005 7700          NOP       ; [CPU_ALU] 
    2236 00000006 7700          NOP       ; [CPU_ALU] 
TMS320C2000 Assembler PC v22.6.1 Tue Aug 13 19:46:08 2024

Copyright (c) 1996-2018 Texas Instruments Incorporated
bts.asm                                                              PAGE   47

    2237              $C$DW$153       .dwtag  DW_TAG_TI_branch
    2238                      .dwattr $C$DW$153, DW_AT_low_pc(0x00)
    2239                      .dwattr $C$DW$153, DW_AT_TI_return
    2240              
    2241 00000007 0006          LRETR     ; [CPU_ALU] 
    2242                      ; return occurs ; [] 
    2243                      .dwattr $C$DW$150, DW_AT_TI_end_file("C:/ti/ccs1271/ccs/tools/compiler/ti-cgt-c2000_22.6.1.LTS/includ
    2244                      .dwattr $C$DW$150, DW_AT_TI_end_line(0x110)
    2245                      .dwattr $C$DW$150, DW_AT_TI_end_column(0x01)
    2246                      .dwendentry
    2247                      .dwendtag $C$DW$150
    2248              
    2249 00000000               .sect   ".text:__relaxed_atanf"
    2250                      .clink
    2251                      .global ||__relaxed_atanf||
    2252              
    2253              $C$DW$154       .dwtag  DW_TAG_subprogram
    2254                      .dwattr $C$DW$154, DW_AT_name("__relaxed_atanf")
    2255                      .dwattr $C$DW$154, DW_AT_low_pc(||__relaxed_atanf||)
    2256                      .dwattr $C$DW$154, DW_AT_high_pc(0x00)
    2257                      .dwattr $C$DW$154, DW_AT_linkage_name("__relaxed_atanf")
    2258                      .dwattr $C$DW$154, DW_AT_external
    2259                      .dwattr $C$DW$154, DW_AT_type(*$C$DW$T$16)
    2260                      .dwattr $C$DW$154, DW_AT_decl_file("C:/ti/ccs1271/ccs/tools/compiler/ti-cgt-c2000_22.6.1.LTS/include/
    2261                      .dwattr $C$DW$154, DW_AT_decl_line(0x112)
    2262                      .dwattr $C$DW$154, DW_AT_decl_column(0x10)
    2263                      .dwattr $C$DW$154, DW_AT_TI_max_frame_size(-2)
    2264                      .dwpsn  file "C:/ti/ccs1271/ccs/tools/compiler/ti-cgt-c2000_22.6.1.LTS/include/math.h",line 275,colum
    2265              
    2266                      .dwfde $C$DW$CIE, ||__relaxed_atanf||
    2267              $C$DW$155       .dwtag  DW_TAG_formal_parameter
    2268                      .dwattr $C$DW$155, DW_AT_name("x")
    2269                      .dwattr $C$DW$155, DW_AT_type(*$C$DW$T$16)
    2270                      .dwattr $C$DW$155, DW_AT_location[DW_OP_regx 0x2b]
    2271              
    2272              
    2273              ;***************************************************************
    2274              ;* FNAME: __relaxed_atanf               FR SIZE:   0           *
    2275              ;*                                                             *
    2276              ;* FUNCTION ENVIRONMENT                                        *
    2277              ;*                                                             *
    2278              ;* FUNCTION PROPERTIES                                         *
    2279              ;*                            0 Parameter,  0 Auto,  0 SOE     *
    2280              ;***************************************************************
    2281              
    2282              ||__relaxed_atanf||:
    2283              ;* R0    assigned to x
    2284              $C$DW$156       .dwtag  DW_TAG_variable
    2285                      .dwattr $C$DW$156, DW_AT_name("x")
    2286                      .dwattr $C$DW$156, DW_AT_type(*$C$DW$T$141)
    2287                      .dwattr $C$DW$156, DW_AT_location[DW_OP_regx 0x2b]
    2288              
    2289                      .dwcfi  cfa_offset, -2
    2290                      .dwcfi  save_reg_to_mem, 26, 0
    2291                      .dwpsn  file "C:/ti/ccs1271/ccs/tools/compiler/ti-cgt-c2000_22.6.1.LTS/include/math.h",line 276,colum
TMS320C2000 Assembler PC v22.6.1 Tue Aug 13 19:46:08 2024

Copyright (c) 1996-2018 Texas Instruments Incorporated
bts.asm                                                              PAGE   48

    2292 00000000 E801          MOVIZ     R1H,#16256            ; [CPU_FPU] |276| 
         00000001 FC01 
    2293 00000002 E27C          QUADF32   R1H,R0H,R0H,R1H       ; [CPU_FPU] |276| 
         00000003 0201 
    2294 00000004 7700          NOP       ; [CPU_ALU] 
    2295 00000005 7700          NOP       ; [CPU_ALU] 
    2296 00000006 7700          NOP       ; [CPU_ALU] 
    2297 00000007 7700          NOP       ; [CPU_ALU] 
    2298 00000008 E27A          ATANPUF32 R0H,R0H               ; [CPU_FPU] |276| 
         00000009 0000 
    2299 0000000a 7700          NOP       ; [CPU_ALU] 
    2300 0000000b 7700          NOP       ; [CPU_ALU] 
    2301 0000000c 7700          NOP       ; [CPU_ALU] 
    2302 0000000d E710          ADDF32    R0H,R0H,R1H           ; [CPU_FPU] |276| 
         0000000e 0040 
    2303 0000000f 7700          NOP       ; [CPU_ALU] 
    2304 00000010 7700          NOP       ; [CPU_ALU] 
    2305 00000011 E270          MPY2PIF32 R0H,R0H               ; [CPU_FPU] |276| 
         00000012 0000 
    2306 00000013 7700          NOP       ; [CPU_ALU] 
    2307              $C$DW$157       .dwtag  DW_TAG_TI_branch
    2308                      .dwattr $C$DW$157, DW_AT_low_pc(0x00)
    2309                      .dwattr $C$DW$157, DW_AT_TI_return
    2310              
    2311 00000014 0006          LRETR     ; [CPU_ALU] 
    2312                      ; return occurs ; [] 
    2313                      .dwattr $C$DW$154, DW_AT_TI_end_file("C:/ti/ccs1271/ccs/tools/compiler/ti-cgt-c2000_22.6.1.LTS/includ
    2314                      .dwattr $C$DW$154, DW_AT_TI_end_line(0x115)
    2315                      .dwattr $C$DW$154, DW_AT_TI_end_column(0x01)
    2316                      .dwendentry
    2317                      .dwendtag $C$DW$154
    2318              
    2319 00000000               .sect   ".text:__relaxed_atan2f"
    2320                      .clink
    2321                      .global ||__relaxed_atan2f||
    2322              
    2323              $C$DW$158       .dwtag  DW_TAG_subprogram
    2324                      .dwattr $C$DW$158, DW_AT_name("__relaxed_atan2f")
    2325                      .dwattr $C$DW$158, DW_AT_low_pc(||__relaxed_atan2f||)
    2326                      .dwattr $C$DW$158, DW_AT_high_pc(0x00)
    2327                      .dwattr $C$DW$158, DW_AT_linkage_name("__relaxed_atan2f")
    2328                      .dwattr $C$DW$158, DW_AT_external
    2329                      .dwattr $C$DW$158, DW_AT_type(*$C$DW$T$16)
    2330                      .dwattr $C$DW$158, DW_AT_decl_file("C:/ti/ccs1271/ccs/tools/compiler/ti-cgt-c2000_22.6.1.LTS/include/
    2331                      .dwattr $C$DW$158, DW_AT_decl_line(0x117)
    2332                      .dwattr $C$DW$158, DW_AT_decl_column(0x10)
    2333                      .dwattr $C$DW$158, DW_AT_TI_max_frame_size(-2)
    2334                      .dwpsn  file "C:/ti/ccs1271/ccs/tools/compiler/ti-cgt-c2000_22.6.1.LTS/include/math.h",line 280,colum
    2335              
    2336                      .dwfde $C$DW$CIE, ||__relaxed_atan2f||
    2337              $C$DW$159       .dwtag  DW_TAG_formal_parameter
    2338                      .dwattr $C$DW$159, DW_AT_name("y")
    2339                      .dwattr $C$DW$159, DW_AT_type(*$C$DW$T$16)
    2340                      .dwattr $C$DW$159, DW_AT_location[DW_OP_regx 0x2b]
    2341              
TMS320C2000 Assembler PC v22.6.1 Tue Aug 13 19:46:08 2024

Copyright (c) 1996-2018 Texas Instruments Incorporated
bts.asm                                                              PAGE   49

    2342              $C$DW$160       .dwtag  DW_TAG_formal_parameter
    2343                      .dwattr $C$DW$160, DW_AT_name("x")
    2344                      .dwattr $C$DW$160, DW_AT_type(*$C$DW$T$16)
    2345                      .dwattr $C$DW$160, DW_AT_location[DW_OP_regx 0x2f]
    2346              
    2347              
    2348              ;***************************************************************
    2349              ;* FNAME: __relaxed_atan2f              FR SIZE:   0           *
    2350              ;*                                                             *
    2351              ;* FUNCTION ENVIRONMENT                                        *
    2352              ;*                                                             *
    2353              ;* FUNCTION PROPERTIES                                         *
    2354              ;*                            0 Parameter,  0 Auto,  0 SOE     *
    2355              ;***************************************************************
    2356              
    2357              ||__relaxed_atan2f||:
    2358              ;* R0    assigned to y
    2359              $C$DW$161       .dwtag  DW_TAG_variable
    2360                      .dwattr $C$DW$161, DW_AT_name("y")
    2361                      .dwattr $C$DW$161, DW_AT_type(*$C$DW$T$141)
    2362                      .dwattr $C$DW$161, DW_AT_location[DW_OP_regx 0x2b]
    2363              
    2364              ;* R1    assigned to x
    2365              $C$DW$162       .dwtag  DW_TAG_variable
    2366                      .dwattr $C$DW$162, DW_AT_name("x")
    2367                      .dwattr $C$DW$162, DW_AT_type(*$C$DW$T$141)
    2368                      .dwattr $C$DW$162, DW_AT_location[DW_OP_regx 0x2f]
    2369              
    2370                      .dwcfi  cfa_offset, -2
    2371                      .dwcfi  save_reg_to_mem, 26, 0
    2372                      .dwpsn  file "C:/ti/ccs1271/ccs/tools/compiler/ti-cgt-c2000_22.6.1.LTS/include/math.h",line 281,colum
    2373 00000000 E27C          QUADF32   R1H,R0H,R0H,R1H       ; [CPU_FPU] |281| 
         00000001 0201 
    2374 00000002 7700          NOP       ; [CPU_ALU] 
    2375 00000003 7700          NOP       ; [CPU_ALU] 
    2376 00000004 7700          NOP       ; [CPU_ALU] 
    2377 00000005 7700          NOP       ; [CPU_ALU] 
    2378 00000006 E27A          ATANPUF32 R0H,R0H               ; [CPU_FPU] |281| 
         00000007 0000 
    2379 00000008 7700          NOP       ; [CPU_ALU] 
    2380 00000009 7700          NOP       ; [CPU_ALU] 
    2381 0000000a 7700          NOP       ; [CPU_ALU] 
    2382 0000000b E710          ADDF32    R0H,R0H,R1H           ; [CPU_FPU] |281| 
         0000000c 0040 
    2383 0000000d 7700          NOP       ; [CPU_ALU] 
    2384 0000000e 7700          NOP       ; [CPU_ALU] 
    2385 0000000f E270          MPY2PIF32 R0H,R0H               ; [CPU_FPU] |281| 
         00000010 0000 
    2386 00000011 7700          NOP       ; [CPU_ALU] 
    2387              $C$DW$163       .dwtag  DW_TAG_TI_branch
    2388                      .dwattr $C$DW$163, DW_AT_low_pc(0x00)
    2389                      .dwattr $C$DW$163, DW_AT_TI_return
    2390              
    2391 00000012 0006          LRETR     ; [CPU_ALU] 
    2392                      ; return occurs ; [] 
TMS320C2000 Assembler PC v22.6.1 Tue Aug 13 19:46:08 2024

Copyright (c) 1996-2018 Texas Instruments Incorporated
bts.asm                                                              PAGE   50

    2393                      .dwattr $C$DW$158, DW_AT_TI_end_file("C:/ti/ccs1271/ccs/tools/compiler/ti-cgt-c2000_22.6.1.LTS/includ
    2394                      .dwattr $C$DW$158, DW_AT_TI_end_line(0x11a)
    2395                      .dwattr $C$DW$158, DW_AT_TI_end_column(0x01)
    2396                      .dwendentry
    2397                      .dwendtag $C$DW$158
    2398              
    2399 00000000               .sect   ".text:__isnormall"
    2400                      .clink
    2401                      .global ||__isnormall||
    2402              
    2403              $C$DW$164       .dwtag  DW_TAG_subprogram
    2404                      .dwattr $C$DW$164, DW_AT_name("__isnormall")
    2405                      .dwattr $C$DW$164, DW_AT_low_pc(||__isnormall||)
    2406                      .dwattr $C$DW$164, DW_AT_high_pc(0x00)
    2407                      .dwattr $C$DW$164, DW_AT_linkage_name("__isnormall")
    2408                      .dwattr $C$DW$164, DW_AT_external
    2409                      .dwattr $C$DW$164, DW_AT_type(*$C$DW$T$10)
    2410                      .dwattr $C$DW$164, DW_AT_decl_file("C:/ti/ccs1271/ccs/tools/compiler/ti-cgt-c2000_22.6.1.LTS/include/
    2411                      .dwattr $C$DW$164, DW_AT_decl_line(0x167)
    2412                      .dwattr $C$DW$164, DW_AT_decl_column(0x18)
    2413                      .dwattr $C$DW$164, DW_AT_TI_max_frame_size(-6)
    2414                      .dwpsn  file "C:/ti/ccs1271/ccs/tools/compiler/ti-cgt-c2000_22.6.1.LTS/include/_defs.h",line 360,colu
    2415              
    2416                      .dwfde $C$DW$CIE, ||__isnormall||
    2417              $C$DW$165       .dwtag  DW_TAG_formal_parameter
    2418                      .dwattr $C$DW$165, DW_AT_name("e")
    2419                      .dwattr $C$DW$165, DW_AT_type(*$C$DW$T$147)
    2420                      .dwattr $C$DW$165, DW_AT_location[DW_OP_reg12]
    2421              
    2422              
    2423              ;***************************************************************
    2424              ;* FNAME: __isnormall                   FR SIZE:   4           *
    2425              ;*                                                             *
    2426              ;* FUNCTION ENVIRONMENT                                        *
    2427              ;*                                                             *
    2428              ;* FUNCTION PROPERTIES                                         *
    2429              ;*                            4 Parameter,  0 Auto,  0 SOE     *
    2430              ;***************************************************************
    2431              
    2432              ||__isnormall||:
    2433              ;* AR5   assigned to $O$C2
    2434              ;* AR6   assigned to $O$S1
    2435              ;* AR4   assigned to e
    2436              $C$DW$166       .dwtag  DW_TAG_variable
    2437                      .dwattr $C$DW$166, DW_AT_name("e")
    2438                      .dwattr $C$DW$166, DW_AT_type(*$C$DW$T$148)
    2439                      .dwattr $C$DW$166, DW_AT_location[DW_OP_reg12]
    2440              
    2441                      .dwcfi  cfa_offset, -2
    2442                      .dwcfi  save_reg_to_mem, 26, 0
    2443 00000000 FE04          ADDB      SP,#4                 ; [CPU_ARAU] 
    2444                      .dwcfi  cfa_offset, -6
    2445                      .dwpsn  file "C:/ti/ccs1271/ccs/tools/compiler/ti-cgt-c2000_22.6.1.LTS/include/_defs.h",line 360,colu
    2446 00000001 83C4          MOVL      XAR5,*+XAR4[0]        ; [CPU_ALU] |360| 
    2447 00000002 8AD4          MOVL      XAR4,*+XAR4[2]        ; [CPU_ALU] |360| 
TMS320C2000 Assembler PC v22.6.1 Tue Aug 13 19:46:08 2024

Copyright (c) 1996-2018 Texas Instruments Incorporated
bts.asm                                                              PAGE   51

    2448 00000003 BE00          MOVB      XAR6,#0               ; [CPU_ALU] |360| 
    2449 00000004 28AC          MOV       T,#52                 ; [CPU_ALU] |360| 
         00000005 0034 
    2450 00000006 A0AB          MOVL      P,XAR5                ; [CPU_ALU] |360| 
    2451 00000007 A8A9          MOVL      ACC,XAR4              ; [CPU_ALU] |360| 
    2452 00000008 C244          MOVL      *-SP[4],XAR6          ; [CPU_ALU] |360| 
    2453 00000009 2B42          MOV       *-SP[2],#0            ; [CPU_ALU] |360| 
    2454 0000000a 565B          LSR64     ACC:P,T               ; [CPU_ALU] |360| 
    2455 0000000b 2B41          MOV       *-SP[1],#0            ; [CPU_FPU] |360| 
    2456 0000000c 9000          ANDB      AL,#0                 ; [CPU_ALU] |360| 
    2457 0000000d 9100          ANDB      AH,#0                 ; [CPU_ALU] |360| 
    2458 0000000e 18AB          AND       PL,#2047              ; [CPU_ALU] |360| 
         0000000f 07FF 
    2459 00000010 18AA          AND       PH,#0                 ; [CPU_ALU] |360| 
         00000011 0000 
    2460              $C$DW$167       .dwtag  DW_TAG_TI_branch
    2461                      .dwattr $C$DW$167, DW_AT_low_pc(0x00)
    2462                      .dwattr $C$DW$167, DW_AT_name("__c28xabi_cmpull")
    2463                      .dwattr $C$DW$167, DW_AT_TI_call
    2464              
    2465 00000012 7640!         LCR       #||__c28xabi_cmpull|| ; [CPU_ALU] |360| 
         00000013 0000 
    2466                      ; call occurs [#||__c28xabi_cmpull||] ; [] |360| 
    2467 00000014 BE00          MOVB      XAR6,#0               ; [CPU_ALU] |360| 
    2468 00000015 5200          CMPB      AL,#0                 ; [CPU_ALU] |360| 
    2469 00000016 610E          B         ||$C$L8||,EQ          ; [CPU_ALU] |360| 
    2470                      ; branchcc occurs ; [] |360| 
    2471 00000017 A0AB          MOVL      P,XAR5                ; [CPU_ALU] |360| 
    2472 00000018 A8A9          MOVL      ACC,XAR4              ; [CPU_ALU] |360| 
    2473 00000019 28AC          MOV       T,#48                 ; [CPU_ALU] |360| 
         0000001a 0030 
    2474 0000001b 565B          LSR64     ACC:P,T               ; [CPU_ALU] |360| 
    2475 0000001c 18AB          AND       PL,#0x7ff0            ; [CPU_ALU] |360| 
         0000001d 7FF0 
    2476 0000001e 80AB          MOVZ      AR7,PL                ; [CPU_ALU] |360| 
    2477 0000001f FF20          MOV       ACC,#32752            ; [CPU_ALU] |360| 
         00000020 7FF0 
    2478 00000021 0FA7          CMPL      ACC,XAR7              ; [CPU_ALU] |360| 
    2479 00000022 56B0          MOVB      XAR6,#1,NEQ           ; [CPU_ALU] |360| 
         00000023 01A6 
    2480 00000024       ||$C$L8||:    
    2481 00000024 FE84          SUBB      SP,#4                 ; [CPU_ARAU] 
    2482                      .dwcfi  cfa_offset, -2
    2483 00000025 92A6          MOV       AL,AR6                ; [CPU_ALU] |360| 
    2484              $C$DW$168       .dwtag  DW_TAG_TI_branch
    2485                      .dwattr $C$DW$168, DW_AT_low_pc(0x00)
    2486                      .dwattr $C$DW$168, DW_AT_TI_return
    2487              
    2488 00000026 0006          LRETR     ; [CPU_ALU] 
    2489                      ; return occurs ; [] 
    2490                      .dwattr $C$DW$164, DW_AT_TI_end_file("C:/ti/ccs1271/ccs/tools/compiler/ti-cgt-c2000_22.6.1.LTS/includ
    2491                      .dwattr $C$DW$164, DW_AT_TI_end_line(0x169)
    2492                      .dwattr $C$DW$164, DW_AT_TI_end_column(0x31)
    2493                      .dwendentry
    2494                      .dwendtag $C$DW$164
TMS320C2000 Assembler PC v22.6.1 Tue Aug 13 19:46:08 2024

Copyright (c) 1996-2018 Texas Instruments Incorporated
bts.asm                                                              PAGE   52

    2495              
    2496 00000000               .sect   ".text:__isnormalf"
    2497                      .clink
    2498                      .global ||__isnormalf||
    2499              
    2500              $C$DW$169       .dwtag  DW_TAG_subprogram
    2501                      .dwattr $C$DW$169, DW_AT_name("__isnormalf")
    2502                      .dwattr $C$DW$169, DW_AT_low_pc(||__isnormalf||)
    2503                      .dwattr $C$DW$169, DW_AT_high_pc(0x00)
    2504                      .dwattr $C$DW$169, DW_AT_linkage_name("__isnormalf")
    2505                      .dwattr $C$DW$169, DW_AT_external
    2506                      .dwattr $C$DW$169, DW_AT_type(*$C$DW$T$10)
    2507                      .dwattr $C$DW$169, DW_AT_decl_file("C:/ti/ccs1271/ccs/tools/compiler/ti-cgt-c2000_22.6.1.LTS/include/
    2508                      .dwattr $C$DW$169, DW_AT_decl_line(0x163)
    2509                      .dwattr $C$DW$169, DW_AT_decl_column(0x18)
    2510                      .dwattr $C$DW$169, DW_AT_TI_max_frame_size(-2)
    2511                      .dwpsn  file "C:/ti/ccs1271/ccs/tools/compiler/ti-cgt-c2000_22.6.1.LTS/include/_defs.h",line 356,colu
    2512              
    2513                      .dwfde $C$DW$CIE, ||__isnormalf||
    2514              $C$DW$170       .dwtag  DW_TAG_formal_parameter
    2515                      .dwattr $C$DW$170, DW_AT_name("f")
    2516                      .dwattr $C$DW$170, DW_AT_type(*$C$DW$T$16)
    2517                      .dwattr $C$DW$170, DW_AT_location[DW_OP_regx 0x2b]
    2518              
    2519              
    2520              ;***************************************************************
    2521              ;* FNAME: __isnormalf                   FR SIZE:   0           *
    2522              ;*                                                             *
    2523              ;* FUNCTION ENVIRONMENT                                        *
    2524              ;*                                                             *
    2525              ;* FUNCTION PROPERTIES                                         *
    2526              ;*                            0 Parameter,  0 Auto,  0 SOE     *
    2527              ;***************************************************************
    2528              
    2529              ||__isnormalf||:
    2530              ;* PL    assigned to $O$K3
    2531              ;* AR6   assigned to $O$S1
    2532              ;* R0    assigned to f
    2533              $C$DW$171       .dwtag  DW_TAG_variable
    2534                      .dwattr $C$DW$171, DW_AT_name("f")
    2535                      .dwattr $C$DW$171, DW_AT_type(*$C$DW$T$141)
    2536                      .dwattr $C$DW$171, DW_AT_location[DW_OP_regx 0x2b]
    2537              
    2538                      .dwcfi  cfa_offset, -2
    2539                      .dwcfi  save_reg_to_mem, 26, 0
    2540                      .dwpsn  file "C:/ti/ccs1271/ccs/tools/compiler/ti-cgt-c2000_22.6.1.LTS/include/_defs.h",line 356,colu
    2541 00000000 BFAB          MOV32     P,R0H                 ; [CPU_FPU] |356| 
         00000001 0F12 
    2542 00000002 28AC          MOV       T,#23                 ; [CPU_ALU] |356| 
         00000003 0017 
    2543 00000004 A9A9          MOVL      ACC,P                 ; [CPU_ALU] |356| 
    2544 00000005 BE00          MOVB      XAR6,#0               ; [CPU_ALU] |356| 
    2545 00000006 5622          LSRL      ACC,T                 ; [CPU_ALU] |356| 
    2546 00000007 90FF          ANDB      AL,#0xff              ; [CPU_ALU] |356| 
    2547 00000008 6109          B         ||$C$L9||,EQ          ; [CPU_ALU] |356| 
TMS320C2000 Assembler PC v22.6.1 Tue Aug 13 19:46:08 2024

Copyright (c) 1996-2018 Texas Instruments Incorporated
bts.asm                                                              PAGE   53

    2548                      ; branchcc occurs ; [] |356| 
    2549 00000009 CCAA          AND       AL,PH,#0x7f80         ; [CPU_ALU] |356| 
         0000000a 7F80 
    2550 0000000b 80A9          MOVZ      AR7,AL                ; [CPU_ALU] |356| 
    2551 0000000c FF20          MOV       ACC,#32640            ; [CPU_ALU] |356| 
         0000000d 7F80 
    2552 0000000e 0FA7          CMPL      ACC,XAR7              ; [CPU_ALU] |356| 
    2553 0000000f 56B0          MOVB      XAR6,#1,NEQ           ; [CPU_ALU] |356| 
         00000010 01A6 
    2554 00000011       ||$C$L9||:    
    2555 00000011 92A6          MOV       AL,AR6                ; [CPU_ALU] |356| 
    2556              $C$DW$172       .dwtag  DW_TAG_TI_branch
    2557                      .dwattr $C$DW$172, DW_AT_low_pc(0x00)
    2558                      .dwattr $C$DW$172, DW_AT_TI_return
    2559              
    2560 00000012 0006          LRETR     ; [CPU_ALU] 
    2561                      ; return occurs ; [] 
    2562                      .dwattr $C$DW$169, DW_AT_TI_end_file("C:/ti/ccs1271/ccs/tools/compiler/ti-cgt-c2000_22.6.1.LTS/includ
    2563                      .dwattr $C$DW$169, DW_AT_TI_end_line(0x165)
    2564                      .dwattr $C$DW$169, DW_AT_TI_end_column(0x2f)
    2565                      .dwendentry
    2566                      .dwendtag $C$DW$169
    2567              
    2568 00000000               .sect   ".text:__isnormal"
    2569                      .clink
    2570                      .global ||__isnormal||
    2571              
    2572              $C$DW$173       .dwtag  DW_TAG_subprogram
    2573                      .dwattr $C$DW$173, DW_AT_name("__isnormal")
    2574                      .dwattr $C$DW$173, DW_AT_low_pc(||__isnormal||)
    2575                      .dwattr $C$DW$173, DW_AT_high_pc(0x00)
    2576                      .dwattr $C$DW$173, DW_AT_linkage_name("__isnormal")
    2577                      .dwattr $C$DW$173, DW_AT_external
    2578                      .dwattr $C$DW$173, DW_AT_type(*$C$DW$T$10)
    2579                      .dwattr $C$DW$173, DW_AT_decl_file("C:/ti/ccs1271/ccs/tools/compiler/ti-cgt-c2000_22.6.1.LTS/include/
    2580                      .dwattr $C$DW$173, DW_AT_decl_line(0x15f)
    2581                      .dwattr $C$DW$173, DW_AT_decl_column(0x18)
    2582                      .dwattr $C$DW$173, DW_AT_TI_max_frame_size(-6)
    2583                      .dwpsn  file "C:/ti/ccs1271/ccs/tools/compiler/ti-cgt-c2000_22.6.1.LTS/include/_defs.h",line 352,colu
    2584              
    2585                      .dwfde $C$DW$CIE, ||__isnormal||
    2586              $C$DW$174       .dwtag  DW_TAG_formal_parameter
    2587                      .dwattr $C$DW$174, DW_AT_name("d")
    2588                      .dwattr $C$DW$174, DW_AT_type(*$C$DW$T$144)
    2589                      .dwattr $C$DW$174, DW_AT_location[DW_OP_reg12]
    2590              
    2591              
    2592              ;***************************************************************
    2593              ;* FNAME: __isnormal                    FR SIZE:   4           *
    2594              ;*                                                             *
    2595              ;* FUNCTION ENVIRONMENT                                        *
    2596              ;*                                                             *
    2597              ;* FUNCTION PROPERTIES                                         *
    2598              ;*                            4 Parameter,  0 Auto,  0 SOE     *
    2599              ;***************************************************************
TMS320C2000 Assembler PC v22.6.1 Tue Aug 13 19:46:08 2024

Copyright (c) 1996-2018 Texas Instruments Incorporated
bts.asm                                                              PAGE   54

    2600              
    2601              ||__isnormal||:
    2602              ;* AR5   assigned to $O$C2
    2603              ;* AR6   assigned to $O$S1
    2604              ;* AR4   assigned to d
    2605              $C$DW$175       .dwtag  DW_TAG_variable
    2606                      .dwattr $C$DW$175, DW_AT_name("d")
    2607                      .dwattr $C$DW$175, DW_AT_type(*$C$DW$T$145)
    2608                      .dwattr $C$DW$175, DW_AT_location[DW_OP_reg12]
    2609              
    2610                      .dwcfi  cfa_offset, -2
    2611                      .dwcfi  save_reg_to_mem, 26, 0
    2612 00000000 FE04          ADDB      SP,#4                 ; [CPU_ARAU] 
    2613                      .dwcfi  cfa_offset, -6
    2614                      .dwpsn  file "C:/ti/ccs1271/ccs/tools/compiler/ti-cgt-c2000_22.6.1.LTS/include/_defs.h",line 352,colu
    2615 00000001 83C4          MOVL      XAR5,*+XAR4[0]        ; [CPU_ALU] |352| 
    2616 00000002 8AD4          MOVL      XAR4,*+XAR4[2]        ; [CPU_ALU] |352| 
    2617 00000003 BE00          MOVB      XAR6,#0               ; [CPU_ALU] |352| 
    2618 00000004 28AC          MOV       T,#52                 ; [CPU_ALU] |352| 
         00000005 0034 
    2619 00000006 A0AB          MOVL      P,XAR5                ; [CPU_ALU] |352| 
    2620 00000007 A8A9          MOVL      ACC,XAR4              ; [CPU_ALU] |352| 
    2621 00000008 C244          MOVL      *-SP[4],XAR6          ; [CPU_ALU] |352| 
    2622 00000009 2B42          MOV       *-SP[2],#0            ; [CPU_ALU] |352| 
    2623 0000000a 565B          LSR64     ACC:P,T               ; [CPU_ALU] |352| 
    2624 0000000b 2B41          MOV       *-SP[1],#0            ; [CPU_FPU] |352| 
    2625 0000000c 9000          ANDB      AL,#0                 ; [CPU_ALU] |352| 
    2626 0000000d 9100          ANDB      AH,#0                 ; [CPU_ALU] |352| 
    2627 0000000e 18AB          AND       PL,#2047              ; [CPU_ALU] |352| 
         0000000f 07FF 
    2628 00000010 18AA          AND       PH,#0                 ; [CPU_ALU] |352| 
         00000011 0000 
    2629              $C$DW$176       .dwtag  DW_TAG_TI_branch
    2630                      .dwattr $C$DW$176, DW_AT_low_pc(0x00)
    2631                      .dwattr $C$DW$176, DW_AT_name("__c28xabi_cmpull")
    2632                      .dwattr $C$DW$176, DW_AT_TI_call
    2633              
    2634 00000012 7640!         LCR       #||__c28xabi_cmpull|| ; [CPU_ALU] |352| 
         00000013 0000 
    2635                      ; call occurs [#||__c28xabi_cmpull||] ; [] |352| 
    2636 00000014 BE00          MOVB      XAR6,#0               ; [CPU_ALU] |352| 
    2637 00000015 5200          CMPB      AL,#0                 ; [CPU_ALU] |352| 
    2638 00000016 610E          B         ||$C$L10||,EQ         ; [CPU_ALU] |352| 
    2639                      ; branchcc occurs ; [] |352| 
    2640 00000017 A0AB          MOVL      P,XAR5                ; [CPU_ALU] |352| 
    2641 00000018 A8A9          MOVL      ACC,XAR4              ; [CPU_ALU] |352| 
    2642 00000019 28AC          MOV       T,#48                 ; [CPU_ALU] |352| 
         0000001a 0030 
    2643 0000001b 565B          LSR64     ACC:P,T               ; [CPU_ALU] |352| 
    2644 0000001c 18AB          AND       PL,#0x7ff0            ; [CPU_ALU] |352| 
         0000001d 7FF0 
    2645 0000001e 80AB          MOVZ      AR7,PL                ; [CPU_ALU] |352| 
    2646 0000001f FF20          MOV       ACC,#32752            ; [CPU_ALU] |352| 
         00000020 7FF0 
    2647 00000021 0FA7          CMPL      ACC,XAR7              ; [CPU_ALU] |352| 
TMS320C2000 Assembler PC v22.6.1 Tue Aug 13 19:46:08 2024

Copyright (c) 1996-2018 Texas Instruments Incorporated
bts.asm                                                              PAGE   55

    2648 00000022 56B0          MOVB      XAR6,#1,NEQ           ; [CPU_ALU] |352| 
         00000023 01A6 
    2649 00000024       ||$C$L10||:    
    2650 00000024 FE84          SUBB      SP,#4                 ; [CPU_ARAU] 
    2651                      .dwcfi  cfa_offset, -2
    2652 00000025 92A6          MOV       AL,AR6                ; [CPU_ALU] |352| 
    2653              $C$DW$177       .dwtag  DW_TAG_TI_branch
    2654                      .dwattr $C$DW$177, DW_AT_low_pc(0x00)
    2655                      .dwattr $C$DW$177, DW_AT_TI_return
    2656              
    2657 00000026 0006          LRETR     ; [CPU_ALU] 
    2658                      ; return occurs ; [] 
    2659                      .dwattr $C$DW$173, DW_AT_TI_end_file("C:/ti/ccs1271/ccs/tools/compiler/ti-cgt-c2000_22.6.1.LTS/includ
    2660                      .dwattr $C$DW$173, DW_AT_TI_end_line(0x161)
    2661                      .dwattr $C$DW$173, DW_AT_TI_end_column(0x30)
    2662                      .dwendentry
    2663                      .dwendtag $C$DW$173
    2664              
    2665 00000000               .sect   ".text:__isnanl"
    2666                      .clink
    2667                      .global ||__isnanl||
    2668              
    2669              $C$DW$178       .dwtag  DW_TAG_subprogram
    2670                      .dwattr $C$DW$178, DW_AT_name("__isnanl")
    2671                      .dwattr $C$DW$178, DW_AT_low_pc(||__isnanl||)
    2672                      .dwattr $C$DW$178, DW_AT_high_pc(0x00)
    2673                      .dwattr $C$DW$178, DW_AT_linkage_name("__isnanl")
    2674                      .dwattr $C$DW$178, DW_AT_external
    2675                      .dwattr $C$DW$178, DW_AT_type(*$C$DW$T$10)
    2676                      .dwattr $C$DW$178, DW_AT_decl_file("C:/ti/ccs1271/ccs/tools/compiler/ti-cgt-c2000_22.6.1.LTS/include/
    2677                      .dwattr $C$DW$178, DW_AT_decl_line(0x15b)
    2678                      .dwattr $C$DW$178, DW_AT_decl_column(0x18)
    2679                      .dwattr $C$DW$178, DW_AT_TI_max_frame_size(-6)
    2680                      .dwpsn  file "C:/ti/ccs1271/ccs/tools/compiler/ti-cgt-c2000_22.6.1.LTS/include/_defs.h",line 348,colu
    2681              
    2682                      .dwfde $C$DW$CIE, ||__isnanl||
    2683              $C$DW$179       .dwtag  DW_TAG_formal_parameter
    2684                      .dwattr $C$DW$179, DW_AT_name("e")
    2685                      .dwattr $C$DW$179, DW_AT_type(*$C$DW$T$147)
    2686                      .dwattr $C$DW$179, DW_AT_location[DW_OP_reg12]
    2687              
    2688              
    2689              ;***************************************************************
    2690              ;* FNAME: __isnanl                      FR SIZE:   4           *
    2691              ;*                                                             *
    2692              ;* FUNCTION ENVIRONMENT                                        *
    2693              ;*                                                             *
    2694              ;* FUNCTION PROPERTIES                                         *
    2695              ;*                            4 Parameter,  0 Auto,  0 SOE     *
    2696              ;***************************************************************
    2697              
    2698              ||__isnanl||:
    2699              ;* AR7   assigned to $O$C2
    2700              ;* AR4   assigned to $O$S1
    2701              ;* AR4   assigned to e
TMS320C2000 Assembler PC v22.6.1 Tue Aug 13 19:46:08 2024

Copyright (c) 1996-2018 Texas Instruments Incorporated
bts.asm                                                              PAGE   56

    2702              $C$DW$180       .dwtag  DW_TAG_variable
    2703                      .dwattr $C$DW$180, DW_AT_name("e")
    2704                      .dwattr $C$DW$180, DW_AT_type(*$C$DW$T$148)
    2705                      .dwattr $C$DW$180, DW_AT_location[DW_OP_reg12]
    2706              
    2707                      .dwcfi  cfa_offset, -2
    2708                      .dwcfi  save_reg_to_mem, 26, 0
    2709 00000000 FE04          ADDB      SP,#4                 ; [CPU_ARAU] 
    2710                      .dwcfi  cfa_offset, -6
    2711                      .dwpsn  file "C:/ti/ccs1271/ccs/tools/compiler/ti-cgt-c2000_22.6.1.LTS/include/_defs.h",line 348,colu
    2712 00000001 C5C4          MOVL      XAR7,*+XAR4[0]        ; [CPU_ALU] |348| 
    2713 00000002 06D4          MOVL      ACC,*+XAR4[2]         ; [CPU_ALU] |348| 
    2714 00000003 28AC          MOV       T,#48                 ; [CPU_ALU] |348| 
         00000004 0030 
    2715 00000005 1EA6          MOVL      XAR6,ACC              ; [CPU_ALU] |348| 
    2716 00000006 A3A7          MOVL      P,XAR7                ; [CPU_ALU] |348| 
    2717 00000007 D400          MOVB      XAR4,#0               ; [CPU_ALU] |348| 
    2718 00000008 565B          LSR64     ACC:P,T               ; [CPU_ALU] |348| 
    2719 00000009 2BAA          MOV       PH,#0                 ; [CPU_ALU] |348| 
    2720 0000000a 18AB          AND       PL,#0x7ff0            ; [CPU_ALU] |348| 
         0000000b 7FF0 
    2721 0000000c FF20          MOV       ACC,#32752            ; [CPU_ALU] |348| 
         0000000d 7FF0 
    2722 0000000e 0FAB          CMPL      ACC,P                 ; [CPU_ALU] |348| 
    2723 0000000f 6013          B         ||$C$L11||,NEQ        ; [CPU_ALU] |348| 
    2724                      ; branchcc occurs ; [] |348| 
    2725 00000010 06A6          MOVL      ACC,XAR6              ; [CPU_ALU] |348| 
    2726 00000011 A3A7          MOVL      P,XAR7                ; [CPU_ALU] |348| 
    2727 00000012 BE00          MOVB      XAR6,#0               ; [CPU_ALU] |348| 
    2728 00000013 18A9          AND       AL,#65535             ; [CPU_ALU] |348| 
         00000014 FFFF 
    2729 00000015 910F          ANDB      AH,#15                ; [CPU_ALU] |348| 
    2730 00000016 18AB          AND       PL,#65535             ; [CPU_ALU] |348| 
         00000017 FFFF 
    2731 00000018 18AA          AND       PH,#65535             ; [CPU_ALU] |348| 
         00000019 FFFF 
    2732 0000001a C244          MOVL      *-SP[4],XAR6          ; [CPU_FPU] |348| 
    2733 0000001b 2B42          MOV       *-SP[2],#0            ; [CPU_FPU] |348| 
    2734 0000001c 2B41          MOV       *-SP[1],#0            ; [CPU_FPU] |348| 
    2735              $C$DW$181       .dwtag  DW_TAG_TI_branch
    2736                      .dwattr $C$DW$181, DW_AT_low_pc(0x00)
    2737                      .dwattr $C$DW$181, DW_AT_name("__c28xabi_cmpull")
    2738                      .dwattr $C$DW$181, DW_AT_TI_call
    2739              
    2740 0000001d 7640!         LCR       #||__c28xabi_cmpull|| ; [CPU_ALU] |348| 
         0000001e 0000 
    2741                      ; call occurs [#||__c28xabi_cmpull||] ; [] |348| 
    2742 0000001f 5200          CMPB      AL,#0                 ; [CPU_ALU] |348| 
    2743 00000020 56B0          MOVB      XAR4,#1,NEQ           ; [CPU_ALU] |348| 
         00000021 01A4 
    2744 00000022       ||$C$L11||:    
    2745 00000022 FE84          SUBB      SP,#4                 ; [CPU_ARAU] 
    2746                      .dwcfi  cfa_offset, -2
    2747 00000023 92A4          MOV       AL,AR4                ; [CPU_ALU] |348| 
    2748              $C$DW$182       .dwtag  DW_TAG_TI_branch
TMS320C2000 Assembler PC v22.6.1 Tue Aug 13 19:46:08 2024

Copyright (c) 1996-2018 Texas Instruments Incorporated
bts.asm                                                              PAGE   57

    2749                      .dwattr $C$DW$182, DW_AT_low_pc(0x00)
    2750                      .dwattr $C$DW$182, DW_AT_TI_return
    2751              
    2752 00000024 0006          LRETR     ; [CPU_ALU] 
    2753                      ; return occurs ; [] 
    2754                      .dwattr $C$DW$178, DW_AT_TI_end_file("C:/ti/ccs1271/ccs/tools/compiler/ti-cgt-c2000_22.6.1.LTS/includ
    2755                      .dwattr $C$DW$178, DW_AT_TI_end_line(0x15d)
    2756                      .dwattr $C$DW$178, DW_AT_TI_end_column(0x30)
    2757                      .dwendentry
    2758                      .dwendtag $C$DW$178
    2759              
    2760 00000000               .sect   ".text:__isnanf"
    2761                      .clink
    2762                      .global ||__isnanf||
    2763              
    2764              $C$DW$183       .dwtag  DW_TAG_subprogram
    2765                      .dwattr $C$DW$183, DW_AT_name("__isnanf")
    2766                      .dwattr $C$DW$183, DW_AT_low_pc(||__isnanf||)
    2767                      .dwattr $C$DW$183, DW_AT_high_pc(0x00)
    2768                      .dwattr $C$DW$183, DW_AT_linkage_name("__isnanf")
    2769                      .dwattr $C$DW$183, DW_AT_external
    2770                      .dwattr $C$DW$183, DW_AT_type(*$C$DW$T$10)
    2771                      .dwattr $C$DW$183, DW_AT_decl_file("C:/ti/ccs1271/ccs/tools/compiler/ti-cgt-c2000_22.6.1.LTS/include/
    2772                      .dwattr $C$DW$183, DW_AT_decl_line(0x158)
    2773                      .dwattr $C$DW$183, DW_AT_decl_column(0x18)
    2774                      .dwattr $C$DW$183, DW_AT_TI_max_frame_size(-2)
    2775                      .dwpsn  file "C:/ti/ccs1271/ccs/tools/compiler/ti-cgt-c2000_22.6.1.LTS/include/_defs.h",line 345,colu
    2776              
    2777                      .dwfde $C$DW$CIE, ||__isnanf||
    2778              $C$DW$184       .dwtag  DW_TAG_formal_parameter
    2779                      .dwattr $C$DW$184, DW_AT_name("f")
    2780                      .dwattr $C$DW$184, DW_AT_type(*$C$DW$T$16)
    2781                      .dwattr $C$DW$184, DW_AT_location[DW_OP_regx 0x2b]
    2782              
    2783              
    2784              ;***************************************************************
    2785              ;* FNAME: __isnanf                      FR SIZE:   0           *
    2786              ;*                                                             *
    2787              ;* FUNCTION ENVIRONMENT                                        *
    2788              ;*                                                             *
    2789              ;* FUNCTION PROPERTIES                                         *
    2790              ;*                            0 Parameter,  0 Auto,  0 SOE     *
    2791              ;***************************************************************
    2792              
    2793              ||__isnanf||:
    2794              ;* PL    assigned to $O$K3
    2795              ;* AR6   assigned to $O$S1
    2796              ;* R0    assigned to f
    2797              $C$DW$185       .dwtag  DW_TAG_variable
    2798                      .dwattr $C$DW$185, DW_AT_name("f")
    2799                      .dwattr $C$DW$185, DW_AT_type(*$C$DW$T$141)
    2800                      .dwattr $C$DW$185, DW_AT_location[DW_OP_regx 0x2b]
    2801              
    2802                      .dwcfi  cfa_offset, -2
    2803                      .dwcfi  save_reg_to_mem, 26, 0
TMS320C2000 Assembler PC v22.6.1 Tue Aug 13 19:46:08 2024

Copyright (c) 1996-2018 Texas Instruments Incorporated
bts.asm                                                              PAGE   58

    2804                      .dwpsn  file "C:/ti/ccs1271/ccs/tools/compiler/ti-cgt-c2000_22.6.1.LTS/include/_defs.h",line 345,colu
    2805 00000000 BFAB          MOV32     P,R0H                 ; [CPU_FPU] |345| 
         00000001 0F12 
    2806 00000002 CCAA          AND       AL,PH,#0x7f80         ; [CPU_ALU] |345| 
         00000003 7F80 
    2807 00000004 80A9          MOVZ      AR7,AL                ; [CPU_ALU] |345| 
    2808 00000005 BE00          MOVB      XAR6,#0               ; [CPU_ALU] |345| 
    2809 00000006 FF20          MOV       ACC,#32640            ; [CPU_ALU] |345| 
         00000007 7F80 
    2810 00000008 0FA7          CMPL      ACC,XAR7              ; [CPU_ALU] |345| 
    2811 00000009 6006          B         ||$C$L12||,NEQ        ; [CPU_ALU] |345| 
    2812                      ; branchcc occurs ; [] |345| 
    2813 0000000a A9A9          MOVL      ACC,P                 ; [CPU_ALU] |345| 
    2814 0000000b 917F          ANDB      AH,#127               ; [CPU_ALU] |345| 
    2815 0000000c FF58          TEST      ACC                   ; [CPU_ALU] |345| 
    2816 0000000d 56B0          MOVB      XAR6,#1,NEQ           ; [CPU_ALU] |345| 
         0000000e 01A6 
    2817 0000000f       ||$C$L12||:    
    2818 0000000f 92A6          MOV       AL,AR6                ; [CPU_ALU] |345| 
    2819              $C$DW$186       .dwtag  DW_TAG_TI_branch
    2820                      .dwattr $C$DW$186, DW_AT_low_pc(0x00)
    2821                      .dwattr $C$DW$186, DW_AT_TI_return
    2822              
    2823 00000010 0006          LRETR     ; [CPU_ALU] 
    2824                      ; return occurs ; [] 
    2825                      .dwattr $C$DW$183, DW_AT_TI_end_file("C:/ti/ccs1271/ccs/tools/compiler/ti-cgt-c2000_22.6.1.LTS/includ
    2826                      .dwattr $C$DW$183, DW_AT_TI_end_line(0x15a)
    2827                      .dwattr $C$DW$183, DW_AT_TI_end_column(0x2e)
    2828                      .dwendentry
    2829                      .dwendtag $C$DW$183
    2830              
    2831 00000000               .sect   ".text:__isnan"
    2832                      .clink
    2833                      .global ||__isnan||
    2834              
    2835              $C$DW$187       .dwtag  DW_TAG_subprogram
    2836                      .dwattr $C$DW$187, DW_AT_name("__isnan")
    2837                      .dwattr $C$DW$187, DW_AT_low_pc(||__isnan||)
    2838                      .dwattr $C$DW$187, DW_AT_high_pc(0x00)
    2839                      .dwattr $C$DW$187, DW_AT_linkage_name("__isnan")
    2840                      .dwattr $C$DW$187, DW_AT_external
    2841                      .dwattr $C$DW$187, DW_AT_type(*$C$DW$T$10)
    2842                      .dwattr $C$DW$187, DW_AT_decl_file("C:/ti/ccs1271/ccs/tools/compiler/ti-cgt-c2000_22.6.1.LTS/include/
    2843                      .dwattr $C$DW$187, DW_AT_decl_line(0x155)
    2844                      .dwattr $C$DW$187, DW_AT_decl_column(0x18)
    2845                      .dwattr $C$DW$187, DW_AT_TI_max_frame_size(-6)
    2846                      .dwpsn  file "C:/ti/ccs1271/ccs/tools/compiler/ti-cgt-c2000_22.6.1.LTS/include/_defs.h",line 342,colu
    2847              
    2848                      .dwfde $C$DW$CIE, ||__isnan||
    2849              $C$DW$188       .dwtag  DW_TAG_formal_parameter
    2850                      .dwattr $C$DW$188, DW_AT_name("d")
    2851                      .dwattr $C$DW$188, DW_AT_type(*$C$DW$T$144)
    2852                      .dwattr $C$DW$188, DW_AT_location[DW_OP_reg12]
    2853              
    2854              
TMS320C2000 Assembler PC v22.6.1 Tue Aug 13 19:46:08 2024

Copyright (c) 1996-2018 Texas Instruments Incorporated
bts.asm                                                              PAGE   59

    2855              ;***************************************************************
    2856              ;* FNAME: __isnan                       FR SIZE:   4           *
    2857              ;*                                                             *
    2858              ;* FUNCTION ENVIRONMENT                                        *
    2859              ;*                                                             *
    2860              ;* FUNCTION PROPERTIES                                         *
    2861              ;*                            4 Parameter,  0 Auto,  0 SOE     *
    2862              ;***************************************************************
    2863              
    2864              ||__isnan||:
    2865              ;* AR7   assigned to $O$C2
    2866              ;* AR4   assigned to $O$S1
    2867              ;* AR4   assigned to d
    2868              $C$DW$189       .dwtag  DW_TAG_variable
    2869                      .dwattr $C$DW$189, DW_AT_name("d")
    2870                      .dwattr $C$DW$189, DW_AT_type(*$C$DW$T$145)
    2871                      .dwattr $C$DW$189, DW_AT_location[DW_OP_reg12]
    2872              
    2873                      .dwcfi  cfa_offset, -2
    2874                      .dwcfi  save_reg_to_mem, 26, 0
    2875 00000000 FE04          ADDB      SP,#4                 ; [CPU_ARAU] 
    2876                      .dwcfi  cfa_offset, -6
    2877                      .dwpsn  file "C:/ti/ccs1271/ccs/tools/compiler/ti-cgt-c2000_22.6.1.LTS/include/_defs.h",line 342,colu
    2878 00000001 C5C4          MOVL      XAR7,*+XAR4[0]        ; [CPU_ALU] |342| 
    2879 00000002 06D4          MOVL      ACC,*+XAR4[2]         ; [CPU_ALU] |342| 
    2880 00000003 28AC          MOV       T,#48                 ; [CPU_ALU] |342| 
         00000004 0030 
    2881 00000005 1EA6          MOVL      XAR6,ACC              ; [CPU_ALU] |342| 
    2882 00000006 A3A7          MOVL      P,XAR7                ; [CPU_ALU] |342| 
    2883 00000007 D400          MOVB      XAR4,#0               ; [CPU_ALU] |342| 
    2884 00000008 565B          LSR64     ACC:P,T               ; [CPU_ALU] |342| 
    2885 00000009 2BAA          MOV       PH,#0                 ; [CPU_ALU] |342| 
    2886 0000000a 18AB          AND       PL,#0x7ff0            ; [CPU_ALU] |342| 
         0000000b 7FF0 
    2887 0000000c FF20          MOV       ACC,#32752            ; [CPU_ALU] |342| 
         0000000d 7FF0 
    2888 0000000e 0FAB          CMPL      ACC,P                 ; [CPU_ALU] |342| 
    2889 0000000f 6013          B         ||$C$L13||,NEQ        ; [CPU_ALU] |342| 
    2890                      ; branchcc occurs ; [] |342| 
    2891 00000010 06A6          MOVL      ACC,XAR6              ; [CPU_ALU] |342| 
    2892 00000011 A3A7          MOVL      P,XAR7                ; [CPU_ALU] |342| 
    2893 00000012 BE00          MOVB      XAR6,#0               ; [CPU_ALU] |342| 
    2894 00000013 18A9          AND       AL,#65535             ; [CPU_ALU] |342| 
         00000014 FFFF 
    2895 00000015 910F          ANDB      AH,#15                ; [CPU_ALU] |342| 
    2896 00000016 18AB          AND       PL,#65535             ; [CPU_ALU] |342| 
         00000017 FFFF 
    2897 00000018 18AA          AND       PH,#65535             ; [CPU_ALU] |342| 
         00000019 FFFF 
    2898 0000001a C244          MOVL      *-SP[4],XAR6          ; [CPU_FPU] |342| 
    2899 0000001b 2B42          MOV       *-SP[2],#0            ; [CPU_FPU] |342| 
    2900 0000001c 2B41          MOV       *-SP[1],#0            ; [CPU_FPU] |342| 
    2901              $C$DW$190       .dwtag  DW_TAG_TI_branch
    2902                      .dwattr $C$DW$190, DW_AT_low_pc(0x00)
    2903                      .dwattr $C$DW$190, DW_AT_name("__c28xabi_cmpull")
TMS320C2000 Assembler PC v22.6.1 Tue Aug 13 19:46:08 2024

Copyright (c) 1996-2018 Texas Instruments Incorporated
bts.asm                                                              PAGE   60

    2904                      .dwattr $C$DW$190, DW_AT_TI_call
    2905              
    2906 0000001d 7640!         LCR       #||__c28xabi_cmpull|| ; [CPU_ALU] |342| 
         0000001e 0000 
    2907                      ; call occurs [#||__c28xabi_cmpull||] ; [] |342| 
    2908 0000001f 5200          CMPB      AL,#0                 ; [CPU_ALU] |342| 
    2909 00000020 56B0          MOVB      XAR4,#1,NEQ           ; [CPU_ALU] |342| 
         00000021 01A4 
    2910 00000022       ||$C$L13||:    
    2911 00000022 FE84          SUBB      SP,#4                 ; [CPU_ARAU] 
    2912                      .dwcfi  cfa_offset, -2
    2913 00000023 92A4          MOV       AL,AR4                ; [CPU_ALU] |342| 
    2914              $C$DW$191       .dwtag  DW_TAG_TI_branch
    2915                      .dwattr $C$DW$191, DW_AT_low_pc(0x00)
    2916                      .dwattr $C$DW$191, DW_AT_TI_return
    2917              
    2918 00000024 0006          LRETR     ; [CPU_ALU] 
    2919                      ; return occurs ; [] 
    2920                      .dwattr $C$DW$187, DW_AT_TI_end_file("C:/ti/ccs1271/ccs/tools/compiler/ti-cgt-c2000_22.6.1.LTS/includ
    2921                      .dwattr $C$DW$187, DW_AT_TI_end_line(0x157)
    2922                      .dwattr $C$DW$187, DW_AT_TI_end_column(0x2f)
    2923                      .dwendentry
    2924                      .dwendtag $C$DW$187
    2925              
    2926 00000000               .sect   ".text:__isinfl"
    2927                      .clink
    2928                      .global ||__isinfl||
    2929              
    2930              $C$DW$192       .dwtag  DW_TAG_subprogram
    2931                      .dwattr $C$DW$192, DW_AT_name("__isinfl")
    2932                      .dwattr $C$DW$192, DW_AT_low_pc(||__isinfl||)
    2933                      .dwattr $C$DW$192, DW_AT_high_pc(0x00)
    2934                      .dwattr $C$DW$192, DW_AT_linkage_name("__isinfl")
    2935                      .dwattr $C$DW$192, DW_AT_external
    2936                      .dwattr $C$DW$192, DW_AT_type(*$C$DW$T$10)
    2937                      .dwattr $C$DW$192, DW_AT_decl_file("C:/ti/ccs1271/ccs/tools/compiler/ti-cgt-c2000_22.6.1.LTS/include/
    2938                      .dwattr $C$DW$192, DW_AT_decl_line(0x17a)
    2939                      .dwattr $C$DW$192, DW_AT_decl_column(0x18)
    2940                      .dwattr $C$DW$192, DW_AT_TI_max_frame_size(-6)
    2941                      .dwpsn  file "C:/ti/ccs1271/ccs/tools/compiler/ti-cgt-c2000_22.6.1.LTS/include/_defs.h",line 379,colu
    2942              
    2943                      .dwfde $C$DW$CIE, ||__isinfl||
    2944              $C$DW$193       .dwtag  DW_TAG_formal_parameter
    2945                      .dwattr $C$DW$193, DW_AT_name("e")
    2946                      .dwattr $C$DW$193, DW_AT_type(*$C$DW$T$147)
    2947                      .dwattr $C$DW$193, DW_AT_location[DW_OP_reg12]
    2948              
    2949              
    2950              ;***************************************************************
    2951              ;* FNAME: __isinfl                      FR SIZE:   4           *
    2952              ;*                                                             *
    2953              ;* FUNCTION ENVIRONMENT                                        *
    2954              ;*                                                             *
    2955              ;* FUNCTION PROPERTIES                                         *
    2956              ;*                            4 Parameter,  0 Auto,  0 SOE     *
TMS320C2000 Assembler PC v22.6.1 Tue Aug 13 19:46:08 2024

Copyright (c) 1996-2018 Texas Instruments Incorporated
bts.asm                                                              PAGE   61

    2957              ;***************************************************************
    2958              
    2959              ||__isinfl||:
    2960              ;* AR7   assigned to $O$C2
    2961              ;* AR4   assigned to $O$S1
    2962              ;* AR4   assigned to e
    2963              $C$DW$194       .dwtag  DW_TAG_variable
    2964                      .dwattr $C$DW$194, DW_AT_name("e")
    2965                      .dwattr $C$DW$194, DW_AT_type(*$C$DW$T$148)
    2966                      .dwattr $C$DW$194, DW_AT_location[DW_OP_reg12]
    2967              
    2968                      .dwcfi  cfa_offset, -2
    2969                      .dwcfi  save_reg_to_mem, 26, 0
    2970 00000000 FE04          ADDB      SP,#4                 ; [CPU_ARAU] 
    2971                      .dwcfi  cfa_offset, -6
    2972                      .dwpsn  file "C:/ti/ccs1271/ccs/tools/compiler/ti-cgt-c2000_22.6.1.LTS/include/_defs.h",line 379,colu
    2973 00000001 C5C4          MOVL      XAR7,*+XAR4[0]        ; [CPU_ALU] |379| 
    2974 00000002 06D4          MOVL      ACC,*+XAR4[2]         ; [CPU_ALU] |379| 
    2975 00000003 28AC          MOV       T,#48                 ; [CPU_ALU] |379| 
         00000004 0030 
    2976 00000005 1EA6          MOVL      XAR6,ACC              ; [CPU_ALU] |379| 
    2977 00000006 A3A7          MOVL      P,XAR7                ; [CPU_ALU] |379| 
    2978 00000007 D400          MOVB      XAR4,#0               ; [CPU_ALU] |379| 
    2979 00000008 565B          LSR64     ACC:P,T               ; [CPU_ALU] |379| 
    2980 00000009 2BAA          MOV       PH,#0                 ; [CPU_ALU] |379| 
    2981 0000000a 18AB          AND       PL,#0x7ff0            ; [CPU_ALU] |379| 
         0000000b 7FF0 
    2982 0000000c FF20          MOV       ACC,#32752            ; [CPU_ALU] |379| 
         0000000d 7FF0 
    2983 0000000e 0FAB          CMPL      ACC,P                 ; [CPU_ALU] |379| 
    2984 0000000f 6013          B         ||$C$L14||,NEQ        ; [CPU_ALU] |379| 
    2985                      ; branchcc occurs ; [] |379| 
    2986 00000010 06A6          MOVL      ACC,XAR6              ; [CPU_ALU] |379| 
    2987 00000011 A3A7          MOVL      P,XAR7                ; [CPU_ALU] |379| 
    2988 00000012 BE00          MOVB      XAR6,#0               ; [CPU_ALU] |379| 
    2989 00000013 18A9          AND       AL,#65535             ; [CPU_ALU] |379| 
         00000014 FFFF 
    2990 00000015 910F          ANDB      AH,#15                ; [CPU_ALU] |379| 
    2991 00000016 18AB          AND       PL,#65535             ; [CPU_ALU] |379| 
         00000017 FFFF 
    2992 00000018 18AA          AND       PH,#65535             ; [CPU_ALU] |379| 
         00000019 FFFF 
    2993 0000001a C244          MOVL      *-SP[4],XAR6          ; [CPU_FPU] |379| 
    2994 0000001b 2B42          MOV       *-SP[2],#0            ; [CPU_FPU] |379| 
    2995 0000001c 2B41          MOV       *-SP[1],#0            ; [CPU_FPU] |379| 
    2996              $C$DW$195       .dwtag  DW_TAG_TI_branch
    2997                      .dwattr $C$DW$195, DW_AT_low_pc(0x00)
    2998                      .dwattr $C$DW$195, DW_AT_name("__c28xabi_cmpull")
    2999                      .dwattr $C$DW$195, DW_AT_TI_call
    3000              
    3001 0000001d 7640!         LCR       #||__c28xabi_cmpull|| ; [CPU_ALU] |379| 
         0000001e 0000 
    3002                      ; call occurs [#||__c28xabi_cmpull||] ; [] |379| 
    3003 0000001f 5200          CMPB      AL,#0                 ; [CPU_ALU] |379| 
    3004 00000020 56B1          MOVB      XAR4,#1,EQ            ; [CPU_ALU] |379| 
TMS320C2000 Assembler PC v22.6.1 Tue Aug 13 19:46:08 2024

Copyright (c) 1996-2018 Texas Instruments Incorporated
bts.asm                                                              PAGE   62

         00000021 01A4 
    3005 00000022       ||$C$L14||:    
    3006 00000022 FE84          SUBB      SP,#4                 ; [CPU_ARAU] 
    3007                      .dwcfi  cfa_offset, -2
    3008 00000023 92A4          MOV       AL,AR4                ; [CPU_ALU] |379| 
    3009              $C$DW$196       .dwtag  DW_TAG_TI_branch
    3010                      .dwattr $C$DW$196, DW_AT_low_pc(0x00)
    3011                      .dwattr $C$DW$196, DW_AT_TI_return
    3012              
    3013 00000024 0006          LRETR     ; [CPU_ALU] 
    3014                      ; return occurs ; [] 
    3015                      .dwattr $C$DW$192, DW_AT_TI_end_file("C:/ti/ccs1271/ccs/tools/compiler/ti-cgt-c2000_22.6.1.LTS/includ
    3016                      .dwattr $C$DW$192, DW_AT_TI_end_line(0x17b)
    3017                      .dwattr $C$DW$192, DW_AT_TI_end_column(0x4c)
    3018                      .dwendentry
    3019                      .dwendtag $C$DW$192
    3020              
    3021 00000000               .sect   ".text:__isinff"
    3022                      .clink
    3023                      .global ||__isinff||
    3024              
    3025              $C$DW$197       .dwtag  DW_TAG_subprogram
    3026                      .dwattr $C$DW$197, DW_AT_name("__isinff")
    3027                      .dwattr $C$DW$197, DW_AT_low_pc(||__isinff||)
    3028                      .dwattr $C$DW$197, DW_AT_high_pc(0x00)
    3029                      .dwattr $C$DW$197, DW_AT_linkage_name("__isinff")
    3030                      .dwattr $C$DW$197, DW_AT_external
    3031                      .dwattr $C$DW$197, DW_AT_type(*$C$DW$T$10)
    3032                      .dwattr $C$DW$197, DW_AT_decl_file("C:/ti/ccs1271/ccs/tools/compiler/ti-cgt-c2000_22.6.1.LTS/include/
    3033                      .dwattr $C$DW$197, DW_AT_decl_line(0x176)
    3034                      .dwattr $C$DW$197, DW_AT_decl_column(0x18)
    3035                      .dwattr $C$DW$197, DW_AT_TI_max_frame_size(-2)
    3036                      .dwpsn  file "C:/ti/ccs1271/ccs/tools/compiler/ti-cgt-c2000_22.6.1.LTS/include/_defs.h",line 375,colu
    3037              
    3038                      .dwfde $C$DW$CIE, ||__isinff||
    3039              $C$DW$198       .dwtag  DW_TAG_formal_parameter
    3040                      .dwattr $C$DW$198, DW_AT_name("f")
    3041                      .dwattr $C$DW$198, DW_AT_type(*$C$DW$T$16)
    3042                      .dwattr $C$DW$198, DW_AT_location[DW_OP_regx 0x2b]
    3043              
    3044              
    3045              ;***************************************************************
    3046              ;* FNAME: __isinff                      FR SIZE:   0           *
    3047              ;*                                                             *
    3048              ;* FUNCTION ENVIRONMENT                                        *
    3049              ;*                                                             *
    3050              ;* FUNCTION PROPERTIES                                         *
    3051              ;*                            0 Parameter,  0 Auto,  0 SOE     *
    3052              ;***************************************************************
    3053              
    3054              ||__isinff||:
    3055              ;* PL    assigned to $O$K3
    3056              ;* AR6   assigned to $O$S1
    3057              ;* R0    assigned to f
    3058              $C$DW$199       .dwtag  DW_TAG_variable
TMS320C2000 Assembler PC v22.6.1 Tue Aug 13 19:46:08 2024

Copyright (c) 1996-2018 Texas Instruments Incorporated
bts.asm                                                              PAGE   63

    3059                      .dwattr $C$DW$199, DW_AT_name("f")
    3060                      .dwattr $C$DW$199, DW_AT_type(*$C$DW$T$141)
    3061                      .dwattr $C$DW$199, DW_AT_location[DW_OP_regx 0x2b]
    3062              
    3063                      .dwcfi  cfa_offset, -2
    3064                      .dwcfi  save_reg_to_mem, 26, 0
    3065                      .dwpsn  file "C:/ti/ccs1271/ccs/tools/compiler/ti-cgt-c2000_22.6.1.LTS/include/_defs.h",line 375,colu
    3066 00000000 BFAB          MOV32     P,R0H                 ; [CPU_FPU] |375| 
         00000001 0F12 
    3067 00000002 CCAA          AND       AL,PH,#0x7f80         ; [CPU_ALU] |375| 
         00000003 7F80 
    3068 00000004 80A9          MOVZ      AR7,AL                ; [CPU_ALU] |375| 
    3069 00000005 BE00          MOVB      XAR6,#0               ; [CPU_ALU] |375| 
    3070 00000006 FF20          MOV       ACC,#32640            ; [CPU_ALU] |375| 
         00000007 7F80 
    3071 00000008 0FA7          CMPL      ACC,XAR7              ; [CPU_ALU] |375| 
    3072 00000009 6006          B         ||$C$L15||,NEQ        ; [CPU_ALU] |375| 
    3073                      ; branchcc occurs ; [] |375| 
    3074 0000000a A9A9          MOVL      ACC,P                 ; [CPU_ALU] |375| 
    3075 0000000b 917F          ANDB      AH,#127               ; [CPU_ALU] |375| 
    3076 0000000c FF58          TEST      ACC                   ; [CPU_ALU] |375| 
    3077 0000000d 56B1          MOVB      XAR6,#1,EQ            ; [CPU_ALU] |375| 
         0000000e 01A6 
    3078 0000000f       ||$C$L15||:    
    3079 0000000f 92A6          MOV       AL,AR6                ; [CPU_ALU] |375| 
    3080              $C$DW$200       .dwtag  DW_TAG_TI_branch
    3081                      .dwattr $C$DW$200, DW_AT_low_pc(0x00)
    3082                      .dwattr $C$DW$200, DW_AT_TI_return
    3083              
    3084 00000010 0006          LRETR     ; [CPU_ALU] 
    3085                      ; return occurs ; [] 
    3086                      .dwattr $C$DW$197, DW_AT_TI_end_file("C:/ti/ccs1271/ccs/tools/compiler/ti-cgt-c2000_22.6.1.LTS/includ
    3087                      .dwattr $C$DW$197, DW_AT_TI_end_line(0x177)
    3088                      .dwattr $C$DW$197, DW_AT_TI_end_column(0x48)
    3089                      .dwendentry
    3090                      .dwendtag $C$DW$197
    3091              
    3092 00000000               .sect   ".text:__isinf"
    3093                      .clink
    3094                      .global ||__isinf||
    3095              
    3096              $C$DW$201       .dwtag  DW_TAG_subprogram
    3097                      .dwattr $C$DW$201, DW_AT_name("__isinf")
    3098                      .dwattr $C$DW$201, DW_AT_low_pc(||__isinf||)
    3099                      .dwattr $C$DW$201, DW_AT_high_pc(0x00)
    3100                      .dwattr $C$DW$201, DW_AT_linkage_name("__isinf")
    3101                      .dwattr $C$DW$201, DW_AT_external
    3102                      .dwattr $C$DW$201, DW_AT_type(*$C$DW$T$10)
    3103                      .dwattr $C$DW$201, DW_AT_decl_file("C:/ti/ccs1271/ccs/tools/compiler/ti-cgt-c2000_22.6.1.LTS/include/
    3104                      .dwattr $C$DW$201, DW_AT_decl_line(0x178)
    3105                      .dwattr $C$DW$201, DW_AT_decl_column(0x18)
    3106                      .dwattr $C$DW$201, DW_AT_TI_max_frame_size(-6)
    3107                      .dwpsn  file "C:/ti/ccs1271/ccs/tools/compiler/ti-cgt-c2000_22.6.1.LTS/include/_defs.h",line 377,colu
    3108              
    3109                      .dwfde $C$DW$CIE, ||__isinf||
TMS320C2000 Assembler PC v22.6.1 Tue Aug 13 19:46:08 2024

Copyright (c) 1996-2018 Texas Instruments Incorporated
bts.asm                                                              PAGE   64

    3110              $C$DW$202       .dwtag  DW_TAG_formal_parameter
    3111                      .dwattr $C$DW$202, DW_AT_name("d")
    3112                      .dwattr $C$DW$202, DW_AT_type(*$C$DW$T$144)
    3113                      .dwattr $C$DW$202, DW_AT_location[DW_OP_reg12]
    3114              
    3115              
    3116              ;***************************************************************
    3117              ;* FNAME: __isinf                       FR SIZE:   4           *
    3118              ;*                                                             *
    3119              ;* FUNCTION ENVIRONMENT                                        *
    3120              ;*                                                             *
    3121              ;* FUNCTION PROPERTIES                                         *
    3122              ;*                            4 Parameter,  0 Auto,  0 SOE     *
    3123              ;***************************************************************
    3124              
    3125              ||__isinf||:
    3126              ;* AR7   assigned to $O$C2
    3127              ;* AR4   assigned to $O$S1
    3128              ;* AR4   assigned to d
    3129              $C$DW$203       .dwtag  DW_TAG_variable
    3130                      .dwattr $C$DW$203, DW_AT_name("d")
    3131                      .dwattr $C$DW$203, DW_AT_type(*$C$DW$T$145)
    3132                      .dwattr $C$DW$203, DW_AT_location[DW_OP_reg12]
    3133              
    3134                      .dwcfi  cfa_offset, -2
    3135                      .dwcfi  save_reg_to_mem, 26, 0
    3136 00000000 FE04          ADDB      SP,#4                 ; [CPU_ARAU] 
    3137                      .dwcfi  cfa_offset, -6
    3138                      .dwpsn  file "C:/ti/ccs1271/ccs/tools/compiler/ti-cgt-c2000_22.6.1.LTS/include/_defs.h",line 377,colu
    3139 00000001 C5C4          MOVL      XAR7,*+XAR4[0]        ; [CPU_ALU] |377| 
    3140 00000002 06D4          MOVL      ACC,*+XAR4[2]         ; [CPU_ALU] |377| 
    3141 00000003 28AC          MOV       T,#48                 ; [CPU_ALU] |377| 
         00000004 0030 
    3142 00000005 1EA6          MOVL      XAR6,ACC              ; [CPU_ALU] |377| 
    3143 00000006 A3A7          MOVL      P,XAR7                ; [CPU_ALU] |377| 
    3144 00000007 D400          MOVB      XAR4,#0               ; [CPU_ALU] |377| 
    3145 00000008 565B          LSR64     ACC:P,T               ; [CPU_ALU] |377| 
    3146 00000009 2BAA          MOV       PH,#0                 ; [CPU_ALU] |377| 
    3147 0000000a 18AB          AND       PL,#0x7ff0            ; [CPU_ALU] |377| 
         0000000b 7FF0 
    3148 0000000c FF20          MOV       ACC,#32752            ; [CPU_ALU] |377| 
         0000000d 7FF0 
    3149 0000000e 0FAB          CMPL      ACC,P                 ; [CPU_ALU] |377| 
    3150 0000000f 6013          B         ||$C$L16||,NEQ        ; [CPU_ALU] |377| 
    3151                      ; branchcc occurs ; [] |377| 
    3152 00000010 06A6          MOVL      ACC,XAR6              ; [CPU_ALU] |377| 
    3153 00000011 A3A7          MOVL      P,XAR7                ; [CPU_ALU] |377| 
    3154 00000012 BE00          MOVB      XAR6,#0               ; [CPU_ALU] |377| 
    3155 00000013 18A9          AND       AL,#65535             ; [CPU_ALU] |377| 
         00000014 FFFF 
    3156 00000015 910F          ANDB      AH,#15                ; [CPU_ALU] |377| 
    3157 00000016 18AB          AND       PL,#65535             ; [CPU_ALU] |377| 
         00000017 FFFF 
    3158 00000018 18AA          AND       PH,#65535             ; [CPU_ALU] |377| 
         00000019 FFFF 
TMS320C2000 Assembler PC v22.6.1 Tue Aug 13 19:46:08 2024

Copyright (c) 1996-2018 Texas Instruments Incorporated
bts.asm                                                              PAGE   65

    3159 0000001a C244          MOVL      *-SP[4],XAR6          ; [CPU_FPU] |377| 
    3160 0000001b 2B42          MOV       *-SP[2],#0            ; [CPU_FPU] |377| 
    3161 0000001c 2B41          MOV       *-SP[1],#0            ; [CPU_FPU] |377| 
    3162              $C$DW$204       .dwtag  DW_TAG_TI_branch
    3163                      .dwattr $C$DW$204, DW_AT_low_pc(0x00)
    3164                      .dwattr $C$DW$204, DW_AT_name("__c28xabi_cmpull")
    3165                      .dwattr $C$DW$204, DW_AT_TI_call
    3166              
    3167 0000001d 7640!         LCR       #||__c28xabi_cmpull|| ; [CPU_ALU] |377| 
         0000001e 0000 
    3168                      ; call occurs [#||__c28xabi_cmpull||] ; [] |377| 
    3169 0000001f 5200          CMPB      AL,#0                 ; [CPU_ALU] |377| 
    3170 00000020 56B1          MOVB      XAR4,#1,EQ            ; [CPU_ALU] |377| 
         00000021 01A4 
    3171 00000022       ||$C$L16||:    
    3172 00000022 FE84          SUBB      SP,#4                 ; [CPU_ARAU] 
    3173                      .dwcfi  cfa_offset, -2
    3174 00000023 92A4          MOV       AL,AR4                ; [CPU_ALU] |377| 
    3175              $C$DW$205       .dwtag  DW_TAG_TI_branch
    3176                      .dwattr $C$DW$205, DW_AT_low_pc(0x00)
    3177                      .dwattr $C$DW$205, DW_AT_TI_return
    3178              
    3179 00000024 0006          LRETR     ; [CPU_ALU] 
    3180                      ; return occurs ; [] 
    3181                      .dwattr $C$DW$201, DW_AT_TI_end_file("C:/ti/ccs1271/ccs/tools/compiler/ti-cgt-c2000_22.6.1.LTS/includ
    3182                      .dwattr $C$DW$201, DW_AT_TI_end_line(0x179)
    3183                      .dwattr $C$DW$201, DW_AT_TI_end_column(0x4a)
    3184                      .dwendentry
    3185                      .dwendtag $C$DW$201
    3186              
    3187 00000000               .sect   ".text:__isfinitel"
    3188                      .clink
    3189                      .global ||__isfinitel||
    3190              
    3191              $C$DW$206       .dwtag  DW_TAG_subprogram
    3192                      .dwattr $C$DW$206, DW_AT_name("__isfinitel")
    3193                      .dwattr $C$DW$206, DW_AT_low_pc(||__isfinitel||)
    3194                      .dwattr $C$DW$206, DW_AT_high_pc(0x00)
    3195                      .dwattr $C$DW$206, DW_AT_linkage_name("__isfinitel")
    3196                      .dwattr $C$DW$206, DW_AT_external
    3197                      .dwattr $C$DW$206, DW_AT_type(*$C$DW$T$10)
    3198                      .dwattr $C$DW$206, DW_AT_decl_file("C:/ti/ccs1271/ccs/tools/compiler/ti-cgt-c2000_22.6.1.LTS/include/
    3199                      .dwattr $C$DW$206, DW_AT_decl_line(0x152)
    3200                      .dwattr $C$DW$206, DW_AT_decl_column(0x18)
    3201                      .dwattr $C$DW$206, DW_AT_TI_max_frame_size(-2)
    3202                      .dwpsn  file "C:/ti/ccs1271/ccs/tools/compiler/ti-cgt-c2000_22.6.1.LTS/include/_defs.h",line 339,colu
    3203              
    3204                      .dwfde $C$DW$CIE, ||__isfinitel||
    3205              $C$DW$207       .dwtag  DW_TAG_formal_parameter
    3206                      .dwattr $C$DW$207, DW_AT_name("e")
    3207                      .dwattr $C$DW$207, DW_AT_type(*$C$DW$T$147)
    3208                      .dwattr $C$DW$207, DW_AT_location[DW_OP_reg12]
    3209              
    3210              
    3211              ;***************************************************************
TMS320C2000 Assembler PC v22.6.1 Tue Aug 13 19:46:08 2024

Copyright (c) 1996-2018 Texas Instruments Incorporated
bts.asm                                                              PAGE   66

    3212              ;* FNAME: __isfinitel                   FR SIZE:   0           *
    3213              ;*                                                             *
    3214              ;* FUNCTION ENVIRONMENT                                        *
    3215              ;*                                                             *
    3216              ;* FUNCTION PROPERTIES                                         *
    3217              ;*                            0 Parameter,  0 Auto,  0 SOE     *
    3218              ;***************************************************************
    3219              
    3220              ||__isfinitel||:
    3221              ;* AR4   assigned to e
    3222              $C$DW$208       .dwtag  DW_TAG_variable
    3223                      .dwattr $C$DW$208, DW_AT_name("e")
    3224                      .dwattr $C$DW$208, DW_AT_type(*$C$DW$T$148)
    3225                      .dwattr $C$DW$208, DW_AT_location[DW_OP_reg12]
    3226              
    3227                      .dwcfi  cfa_offset, -2
    3228                      .dwcfi  save_reg_to_mem, 26, 0
    3229                      .dwpsn  file "C:/ti/ccs1271/ccs/tools/compiler/ti-cgt-c2000_22.6.1.LTS/include/_defs.h",line 339,colu
    3230 00000000 A3C4          MOVL      P,*+XAR4[0]           ; [CPU_ALU] |339| 
    3231 00000001 06D4          MOVL      ACC,*+XAR4[2]         ; [CPU_ALU] |339| 
    3232 00000002 28AC          MOV       T,#48                 ; [CPU_ALU] |339| 
         00000003 0030 
    3233 00000004 565B          LSR64     ACC:P,T               ; [CPU_ALU] |339| 
    3234 00000005 18AB          AND       PL,#0x7ff0            ; [CPU_ALU] |339| 
         00000006 7FF0 
    3235 00000007 80AB          MOVZ      AR7,PL                ; [CPU_ALU] |339| 
    3236 00000008 FF20          MOV       ACC,#32752            ; [CPU_ALU] |339| 
         00000009 7FF0 
    3237 0000000a BE00          MOVB      XAR6,#0               ; [CPU_ALU] |339| 
    3238 0000000b 0FA7          CMPL      ACC,XAR7              ; [CPU_ALU] |339| 
    3239 0000000c 56B0          MOVB      XAR6,#1,NEQ           ; [CPU_ALU] |339| 
         0000000d 01A6 
    3240 0000000e 92A6          MOV       AL,AR6                ; [CPU_ALU] |339| 
    3241              $C$DW$209       .dwtag  DW_TAG_TI_branch
    3242                      .dwattr $C$DW$209, DW_AT_low_pc(0x00)
    3243                      .dwattr $C$DW$209, DW_AT_TI_return
    3244              
    3245 0000000f 0006          LRETR     ; [CPU_ALU] 
    3246                      ; return occurs ; [] 
    3247                      .dwattr $C$DW$206, DW_AT_TI_end_file("C:/ti/ccs1271/ccs/tools/compiler/ti-cgt-c2000_22.6.1.LTS/includ
    3248                      .dwattr $C$DW$206, DW_AT_TI_end_line(0x153)
    3249                      .dwattr $C$DW$206, DW_AT_TI_end_column(0x2f)
    3250                      .dwendentry
    3251                      .dwendtag $C$DW$206
    3252              
    3253 00000000               .sect   ".text:__isfinitef"
    3254                      .clink
    3255                      .global ||__isfinitef||
    3256              
    3257              $C$DW$210       .dwtag  DW_TAG_subprogram
    3258                      .dwattr $C$DW$210, DW_AT_name("__isfinitef")
    3259                      .dwattr $C$DW$210, DW_AT_low_pc(||__isfinitef||)
    3260                      .dwattr $C$DW$210, DW_AT_high_pc(0x00)
    3261                      .dwattr $C$DW$210, DW_AT_linkage_name("__isfinitef")
    3262                      .dwattr $C$DW$210, DW_AT_external
TMS320C2000 Assembler PC v22.6.1 Tue Aug 13 19:46:08 2024

Copyright (c) 1996-2018 Texas Instruments Incorporated
bts.asm                                                              PAGE   67

    3263                      .dwattr $C$DW$210, DW_AT_type(*$C$DW$T$10)
    3264                      .dwattr $C$DW$210, DW_AT_decl_file("C:/ti/ccs1271/ccs/tools/compiler/ti-cgt-c2000_22.6.1.LTS/include/
    3265                      .dwattr $C$DW$210, DW_AT_decl_line(0x150)
    3266                      .dwattr $C$DW$210, DW_AT_decl_column(0x18)
    3267                      .dwattr $C$DW$210, DW_AT_TI_max_frame_size(-2)
    3268                      .dwpsn  file "C:/ti/ccs1271/ccs/tools/compiler/ti-cgt-c2000_22.6.1.LTS/include/_defs.h",line 337,colu
    3269              
    3270                      .dwfde $C$DW$CIE, ||__isfinitef||
    3271              $C$DW$211       .dwtag  DW_TAG_formal_parameter
    3272                      .dwattr $C$DW$211, DW_AT_name("f")
    3273                      .dwattr $C$DW$211, DW_AT_type(*$C$DW$T$16)
    3274                      .dwattr $C$DW$211, DW_AT_location[DW_OP_regx 0x2b]
    3275              
    3276              
    3277              ;***************************************************************
    3278              ;* FNAME: __isfinitef                   FR SIZE:   0           *
    3279              ;*                                                             *
    3280              ;* FUNCTION ENVIRONMENT                                        *
    3281              ;*                                                             *
    3282              ;* FUNCTION PROPERTIES                                         *
    3283              ;*                            0 Parameter,  0 Auto,  0 SOE     *
    3284              ;***************************************************************
    3285              
    3286              ||__isfinitef||:
    3287              ;* R0    assigned to f
    3288              $C$DW$212       .dwtag  DW_TAG_variable
    3289                      .dwattr $C$DW$212, DW_AT_name("f")
    3290                      .dwattr $C$DW$212, DW_AT_type(*$C$DW$T$141)
    3291                      .dwattr $C$DW$212, DW_AT_location[DW_OP_regx 0x2b]
    3292              
    3293                      .dwcfi  cfa_offset, -2
    3294                      .dwcfi  save_reg_to_mem, 26, 0
    3295                      .dwpsn  file "C:/ti/ccs1271/ccs/tools/compiler/ti-cgt-c2000_22.6.1.LTS/include/_defs.h",line 337,colu
    3296 00000000 BFAB          MOV32     P,R0H                 ; [CPU_FPU] |337| 
         00000001 0F12 
    3297 00000002 18AA          AND       PH,#0x7f80            ; [CPU_ALU] |337| 
         00000003 7F80 
    3298 00000004 80AA          MOVZ      AR7,PH                ; [CPU_ALU] |337| 
    3299 00000005 FF20          MOV       ACC,#32640            ; [CPU_ALU] |337| 
         00000006 7F80 
    3300 00000007 BE00          MOVB      XAR6,#0               ; [CPU_ALU] |337| 
    3301 00000008 0FA7          CMPL      ACC,XAR7              ; [CPU_ALU] |337| 
    3302 00000009 56B0          MOVB      XAR6,#1,NEQ           ; [CPU_ALU] |337| 
         0000000a 01A6 
    3303 0000000b 92A6          MOV       AL,AR6                ; [CPU_ALU] |337| 
    3304              $C$DW$213       .dwtag  DW_TAG_TI_branch
    3305                      .dwattr $C$DW$213, DW_AT_low_pc(0x00)
    3306                      .dwattr $C$DW$213, DW_AT_TI_return
    3307              
    3308 0000000c 0006          LRETR     ; [CPU_ALU] 
    3309                      ; return occurs ; [] 
    3310                      .dwattr $C$DW$210, DW_AT_TI_end_file("C:/ti/ccs1271/ccs/tools/compiler/ti-cgt-c2000_22.6.1.LTS/includ
    3311                      .dwattr $C$DW$210, DW_AT_TI_end_line(0x151)
    3312                      .dwattr $C$DW$210, DW_AT_TI_end_column(0x2d)
    3313                      .dwendentry
TMS320C2000 Assembler PC v22.6.1 Tue Aug 13 19:46:08 2024

Copyright (c) 1996-2018 Texas Instruments Incorporated
bts.asm                                                              PAGE   68

    3314                      .dwendtag $C$DW$210
    3315              
