TMS320C2000 Assembler PC v22.6.1 Tue Aug 13 19:46:08 2024

Copyright (c) 1996-2018 Texas Instruments Incorporated
bts.asm                                                              PAGE    1

       1              ;***************************************************************
       2              ;* TMS320C2000 G3 C/C++ Codegen                               PC v22.6.1.LTS *
       3              ;* Date/Time created: Tue Aug 13 19:46:07 2024                 *
       4              ;***************************************************************
       5                      .compiler_opts --abi=eabi --cla_support=cla1 --diag_wrap=off --float_support=fpu32 --hll_source=on --
       6                      .asg    XAR2, FP
       7              
       8              $C$DW$CU        .dwtag  DW_TAG_compile_unit
       9                      .dwattr $C$DW$CU, DW_AT_name("../bts.c")
      10                      .dwattr $C$DW$CU, DW_AT_producer("TI TMS320C2000 G3 C/C++ Codegen PC v22.6.1.LTS Copyright (c) 1996-2
      11                      .dwattr $C$DW$CU, DW_AT_TI_version(0x01)
      12                      .dwattr $C$DW$CU, DW_AT_comp_dir("C:\sandbox\github\Lion-IRVT\Hardware\source\tida-010086\bts_F2837xD
      13              
      14              $C$DW$1 .dwtag  DW_TAG_subprogram
      15                      .dwattr $C$DW$1, DW_AT_name("SFRA_F32_reset")
      16                      .dwattr $C$DW$1, DW_AT_linkage_name("SFRA_F32_reset")
      17                      .dwattr $C$DW$1, DW_AT_declaration
      18                      .dwattr $C$DW$1, DW_AT_external
      19                      .dwattr $C$DW$1, DW_AT_decl_file("C:/ti/c2000/C2000Ware_DigitalPower_SDK_5_03_00_00/libraries/sfra/in
      20                      .dwattr $C$DW$1, DW_AT_decl_line(0x5a)
      21                      .dwattr $C$DW$1, DW_AT_decl_column(0x0d)
      22              $C$DW$2 .dwtag  DW_TAG_formal_parameter
      23                      .dwattr $C$DW$2, DW_AT_type(*$C$DW$T$59)
      24              
      25                      .dwendtag $C$DW$1
      26              
      27              
      28              $C$DW$3 .dwtag  DW_TAG_subprogram
      29                      .dwattr $C$DW$3, DW_AT_name("SFRA_F32_config")
      30                      .dwattr $C$DW$3, DW_AT_linkage_name("SFRA_F32_config")
      31                      .dwattr $C$DW$3, DW_AT_declaration
      32                      .dwattr $C$DW$3, DW_AT_external
      33                      .dwattr $C$DW$3, DW_AT_decl_file("C:/ti/c2000/C2000Ware_DigitalPower_SDK_5_03_00_00/libraries/sfra/in
      34                      .dwattr $C$DW$3, DW_AT_decl_line(0x6e)
      35                      .dwattr $C$DW$3, DW_AT_decl_column(0x0d)
      36              $C$DW$4 .dwtag  DW_TAG_formal_parameter
      37                      .dwattr $C$DW$4, DW_AT_type(*$C$DW$T$59)
      38              
      39              $C$DW$5 .dwtag  DW_TAG_formal_parameter
      40                      .dwattr $C$DW$5, DW_AT_type(*$C$DW$T$19)
      41              
      42              $C$DW$6 .dwtag  DW_TAG_formal_parameter
      43                      .dwattr $C$DW$6, DW_AT_type(*$C$DW$T$19)
      44              
      45              $C$DW$7 .dwtag  DW_TAG_formal_parameter
      46                      .dwattr $C$DW$7, DW_AT_type(*$C$DW$T$22)
      47              
      48              $C$DW$8 .dwtag  DW_TAG_formal_parameter
      49                      .dwattr $C$DW$8, DW_AT_type(*$C$DW$T$19)
      50              
      51              $C$DW$9 .dwtag  DW_TAG_formal_parameter
      52                      .dwattr $C$DW$9, DW_AT_type(*$C$DW$T$19)
      53              
      54              $C$DW$10        .dwtag  DW_TAG_formal_parameter
      55                      .dwattr $C$DW$10, DW_AT_type(*$C$DW$T$20)
TMS320C2000 Assembler PC v22.6.1 Tue Aug 13 19:46:08 2024

Copyright (c) 1996-2018 Texas Instruments Incorporated
bts.asm                                                              PAGE    2

      56              
      57              $C$DW$11        .dwtag  DW_TAG_formal_parameter
      58                      .dwattr $C$DW$11, DW_AT_type(*$C$DW$T$20)
      59              
      60              $C$DW$12        .dwtag  DW_TAG_formal_parameter
      61                      .dwattr $C$DW$12, DW_AT_type(*$C$DW$T$20)
      62              
      63              $C$DW$13        .dwtag  DW_TAG_formal_parameter
      64                      .dwattr $C$DW$13, DW_AT_type(*$C$DW$T$20)
      65              
      66              $C$DW$14        .dwtag  DW_TAG_formal_parameter
      67                      .dwattr $C$DW$14, DW_AT_type(*$C$DW$T$20)
      68              
      69              $C$DW$15        .dwtag  DW_TAG_formal_parameter
      70                      .dwattr $C$DW$15, DW_AT_type(*$C$DW$T$20)
      71              
      72              $C$DW$16        .dwtag  DW_TAG_formal_parameter
      73                      .dwattr $C$DW$16, DW_AT_type(*$C$DW$T$20)
      74              
      75              $C$DW$17        .dwtag  DW_TAG_formal_parameter
      76                      .dwattr $C$DW$17, DW_AT_type(*$C$DW$T$22)
      77              
      78                      .dwendtag $C$DW$3
      79              
      80              
      81              $C$DW$18        .dwtag  DW_TAG_subprogram
      82                      .dwattr $C$DW$18, DW_AT_name("SFRA_F32_resetFreqRespArray")
      83                      .dwattr $C$DW$18, DW_AT_linkage_name("SFRA_F32_resetFreqRespArray")
      84                      .dwattr $C$DW$18, DW_AT_declaration
      85                      .dwattr $C$DW$18, DW_AT_external
      86                      .dwattr $C$DW$18, DW_AT_decl_file("C:/ti/c2000/C2000Ware_DigitalPower_SDK_5_03_00_00/libraries/sfra/i
      87                      .dwattr $C$DW$18, DW_AT_decl_line(0x8c)
      88                      .dwattr $C$DW$18, DW_AT_decl_column(0x0d)
      89              $C$DW$19        .dwtag  DW_TAG_formal_parameter
      90                      .dwattr $C$DW$19, DW_AT_type(*$C$DW$T$59)
      91              
      92                      .dwendtag $C$DW$18
      93              
      94              
      95              $C$DW$20        .dwtag  DW_TAG_subprogram
      96                      .dwattr $C$DW$20, DW_AT_name("SFRA_F32_initFreqArrayWithLogSteps")
      97                      .dwattr $C$DW$20, DW_AT_linkage_name("SFRA_F32_initFreqArrayWithLogSteps")
      98                      .dwattr $C$DW$20, DW_AT_declaration
      99                      .dwattr $C$DW$20, DW_AT_external
     100                      .dwattr $C$DW$20, DW_AT_decl_file("C:/ti/c2000/C2000Ware_DigitalPower_SDK_5_03_00_00/libraries/sfra/i
     101                      .dwattr $C$DW$20, DW_AT_decl_line(0x83)
     102                      .dwattr $C$DW$20, DW_AT_decl_column(0x0d)
     103              $C$DW$21        .dwtag  DW_TAG_formal_parameter
     104                      .dwattr $C$DW$21, DW_AT_type(*$C$DW$T$59)
     105              
     106              $C$DW$22        .dwtag  DW_TAG_formal_parameter
     107                      .dwattr $C$DW$22, DW_AT_type(*$C$DW$T$19)
     108              
     109              $C$DW$23        .dwtag  DW_TAG_formal_parameter
     110                      .dwattr $C$DW$23, DW_AT_type(*$C$DW$T$19)
TMS320C2000 Assembler PC v22.6.1 Tue Aug 13 19:46:08 2024

Copyright (c) 1996-2018 Texas Instruments Incorporated
bts.asm                                                              PAGE    3

     111              
     112                      .dwendtag $C$DW$20
     113              
     114              
     115              $C$DW$24        .dwtag  DW_TAG_subprogram
     116                      .dwattr $C$DW$24, DW_AT_name("SFRA_GUI_config")
     117                      .dwattr $C$DW$24, DW_AT_linkage_name("SFRA_GUI_config")
     118                      .dwattr $C$DW$24, DW_AT_declaration
     119                      .dwattr $C$DW$24, DW_AT_external
     120                      .dwattr $C$DW$24, DW_AT_decl_file("C:/ti/c2000/C2000Ware_DigitalPower_SDK_5_03_00_00/libraries/sfra/g
     121                      .dwattr $C$DW$24, DW_AT_decl_line(0x3b)
     122                      .dwattr $C$DW$24, DW_AT_decl_column(0x06)
     123              $C$DW$25        .dwtag  DW_TAG_formal_parameter
     124                      .dwattr $C$DW$25, DW_AT_type(*$C$DW$T$102)
     125              
     126              $C$DW$26        .dwtag  DW_TAG_formal_parameter
     127                      .dwattr $C$DW$26, DW_AT_type(*$C$DW$T$37)
     128              
     129              $C$DW$27        .dwtag  DW_TAG_formal_parameter
     130                      .dwattr $C$DW$27, DW_AT_type(*$C$DW$T$37)
     131              
     132              $C$DW$28        .dwtag  DW_TAG_formal_parameter
     133                      .dwattr $C$DW$28, DW_AT_type(*$C$DW$T$26)
     134              
     135              $C$DW$29        .dwtag  DW_TAG_formal_parameter
     136                      .dwattr $C$DW$29, DW_AT_type(*$C$DW$T$37)
     137              
     138              $C$DW$30        .dwtag  DW_TAG_formal_parameter
     139                      .dwattr $C$DW$30, DW_AT_type(*$C$DW$T$26)
     140              
     141              $C$DW$31        .dwtag  DW_TAG_formal_parameter
     142                      .dwattr $C$DW$31, DW_AT_type(*$C$DW$T$37)
     143              
     144              $C$DW$32        .dwtag  DW_TAG_formal_parameter
     145                      .dwattr $C$DW$32, DW_AT_type(*$C$DW$T$26)
     146              
     147              $C$DW$33        .dwtag  DW_TAG_formal_parameter
     148                      .dwattr $C$DW$33, DW_AT_type(*$C$DW$T$26)
     149              
     150              $C$DW$34        .dwtag  DW_TAG_formal_parameter
     151                      .dwattr $C$DW$34, DW_AT_type(*$C$DW$T$37)
     152              
     153              $C$DW$35        .dwtag  DW_TAG_formal_parameter
     154                      .dwattr $C$DW$35, DW_AT_type(*$C$DW$T$59)
     155              
     156              $C$DW$36        .dwtag  DW_TAG_formal_parameter
     157                      .dwattr $C$DW$36, DW_AT_type(*$C$DW$T$26)
     158              
     159                      .dwendtag $C$DW$24
     160              
     161              
     162              $C$DW$37        .dwtag  DW_TAG_subprogram
     163                      .dwattr $C$DW$37, DW_AT_name("handleI2C_ErrorCondition")
     164                      .dwattr $C$DW$37, DW_AT_linkage_name("handleI2C_ErrorCondition")
     165                      .dwattr $C$DW$37, DW_AT_declaration
TMS320C2000 Assembler PC v22.6.1 Tue Aug 13 19:46:08 2024

Copyright (c) 1996-2018 Texas Instruments Incorporated
bts.asm                                                              PAGE    4

     166                      .dwattr $C$DW$37, DW_AT_external
     167                      .dwattr $C$DW$37, DW_AT_decl_file("C:\sandbox\github\Lion-IRVT\Hardware\source\tida-010086\bts_F2837x
     168                      .dwattr $C$DW$37, DW_AT_decl_line(0x65)
     169                      .dwattr $C$DW$37, DW_AT_decl_column(0x0d)
     170              $C$DW$38        .dwtag  DW_TAG_formal_parameter
     171                      .dwattr $C$DW$38, DW_AT_type(*$C$DW$T$40)
     172              
     173                      .dwendtag $C$DW$37
     174              
     175              
     176              $C$DW$39        .dwtag  DW_TAG_subprogram
     177                      .dwattr $C$DW$39, DW_AT_name("Write_Read_TX_RX_FIFO")
     178                      .dwattr $C$DW$39, DW_AT_linkage_name("Write_Read_TX_RX_FIFO")
     179                      .dwattr $C$DW$39, DW_AT_declaration
     180                      .dwattr $C$DW$39, DW_AT_external
     181                      .dwattr $C$DW$39, DW_AT_decl_file("C:\sandbox\github\Lion-IRVT\Hardware\source\tida-010086\bts_F2837x
     182                      .dwattr $C$DW$39, DW_AT_decl_line(0x66)
     183                      .dwattr $C$DW$39, DW_AT_decl_column(0x0d)
     184              $C$DW$40        .dwtag  DW_TAG_formal_parameter
     185                      .dwattr $C$DW$40, DW_AT_type(*$C$DW$T$40)
     186              
     187                      .dwendtag $C$DW$39
     188              
     189              
     190              $C$DW$41        .dwtag  DW_TAG_subprogram
     191                      .dwattr $C$DW$41, DW_AT_name("I2C_disableInterrupt")
     192                      .dwattr $C$DW$41, DW_AT_linkage_name("I2C_disableInterrupt")
     193                      .dwattr $C$DW$41, DW_AT_declaration
     194                      .dwattr $C$DW$41, DW_AT_external
     195                      .dwattr $C$DW$41, DW_AT_decl_file("C:/ti/c2000/C2000Ware_DigitalPower_SDK_5_03_00_00/c2000ware/driver
     196                      .dwattr $C$DW$41, DW_AT_decl_line(0x4f8)
     197                      .dwattr $C$DW$41, DW_AT_decl_column(0x01)
     198              $C$DW$42        .dwtag  DW_TAG_formal_parameter
     199                      .dwattr $C$DW$42, DW_AT_type(*$C$DW$T$37)
     200              
     201              $C$DW$43        .dwtag  DW_TAG_formal_parameter
     202                      .dwattr $C$DW$43, DW_AT_type(*$C$DW$T$37)
     203              
     204                      .dwendtag $C$DW$41
     205              
     206              
     207              $C$DW$44        .dwtag  DW_TAG_subprogram
     208                      .dwattr $C$DW$44, DW_AT_name("I2C_enableInterrupt")
     209                      .dwattr $C$DW$44, DW_AT_linkage_name("I2C_enableInterrupt")
     210                      .dwattr $C$DW$44, DW_AT_declaration
     211                      .dwattr $C$DW$44, DW_AT_external
     212                      .dwattr $C$DW$44, DW_AT_decl_file("C:/ti/c2000/C2000Ware_DigitalPower_SDK_5_03_00_00/c2000ware/driver
     213                      .dwattr $C$DW$44, DW_AT_decl_line(0x4e4)
     214                      .dwattr $C$DW$44, DW_AT_decl_column(0x01)
     215              $C$DW$45        .dwtag  DW_TAG_formal_parameter
     216                      .dwattr $C$DW$45, DW_AT_type(*$C$DW$T$37)
     217              
     218              $C$DW$46        .dwtag  DW_TAG_formal_parameter
     219                      .dwattr $C$DW$46, DW_AT_type(*$C$DW$T$37)
     220              
TMS320C2000 Assembler PC v22.6.1 Tue Aug 13 19:46:08 2024

Copyright (c) 1996-2018 Texas Instruments Incorporated
bts.asm                                                              PAGE    5

     221                      .dwendtag $C$DW$44
     222              
     223              
     224              $C$DW$47        .dwtag  DW_TAG_subprogram
     225                      .dwattr $C$DW$47, DW_AT_name("I2C_clearInterruptStatus")
     226                      .dwattr $C$DW$47, DW_AT_linkage_name("I2C_clearInterruptStatus")
     227                      .dwattr $C$DW$47, DW_AT_declaration
     228                      .dwattr $C$DW$47, DW_AT_external
     229                      .dwattr $C$DW$47, DW_AT_decl_file("C:/ti/c2000/C2000Ware_DigitalPower_SDK_5_03_00_00/c2000ware/driver
     230                      .dwattr $C$DW$47, DW_AT_decl_line(0x52e)
     231                      .dwattr $C$DW$47, DW_AT_decl_column(0x01)
     232              $C$DW$48        .dwtag  DW_TAG_formal_parameter
     233                      .dwattr $C$DW$48, DW_AT_type(*$C$DW$T$37)
     234              
     235              $C$DW$49        .dwtag  DW_TAG_formal_parameter
     236                      .dwattr $C$DW$49, DW_AT_type(*$C$DW$T$37)
     237              
     238                      .dwendtag $C$DW$47
     239              
     240                      .global ||BUCK_sfoStatus||
     241 00000000               .bss    ||BUCK_sfoStatus||,1,1,0
     242              $C$DW$50        .dwtag  DW_TAG_variable
     243                      .dwattr $C$DW$50, DW_AT_name("BUCK_sfoStatus")
     244                      .dwattr $C$DW$50, DW_AT_linkage_name("BUCK_sfoStatus")
     245                      .dwattr $C$DW$50, DW_AT_location[DW_OP_addr ||BUCK_sfoStatus||]
     246                      .dwattr $C$DW$50, DW_AT_type(*$C$DW$T$26)
     247                      .dwattr $C$DW$50, DW_AT_external
     248                      .dwattr $C$DW$50, DW_AT_decl_file("../bts.c")
     249                      .dwattr $C$DW$50, DW_AT_decl_line(0x43)
     250                      .dwattr $C$DW$50, DW_AT_decl_column(0x16)
     251              
     252                      .global ||BTS_sfoStatus||
     253 00000001               .bss    ||BTS_sfoStatus||,1,1,0
     254              $C$DW$51        .dwtag  DW_TAG_variable
     255                      .dwattr $C$DW$51, DW_AT_name("BTS_sfoStatus")
     256                      .dwattr $C$DW$51, DW_AT_linkage_name("BTS_sfoStatus")
     257                      .dwattr $C$DW$51, DW_AT_location[DW_OP_addr ||BTS_sfoStatus||]
     258                      .dwattr $C$DW$51, DW_AT_type(*$C$DW$T$26)
     259                      .dwattr $C$DW$51, DW_AT_external
     260                      .dwattr $C$DW$51, DW_AT_decl_file("../bts.c")
     261                      .dwattr $C$DW$51, DW_AT_decl_line(0x44)
     262                      .dwattr $C$DW$51, DW_AT_decl_column(0x16)
     263              
     264              
     265              $C$DW$52        .dwtag  DW_TAG_subprogram
     266                      .dwattr $C$DW$52, DW_AT_name("I2CBusScan")
     267                      .dwattr $C$DW$52, DW_AT_linkage_name("I2CBusScan")
     268                      .dwattr $C$DW$52, DW_AT_type(*$C$DW$T$26)
     269                      .dwattr $C$DW$52, DW_AT_declaration
     270                      .dwattr $C$DW$52, DW_AT_external
     271                      .dwattr $C$DW$52, DW_AT_decl_file("C:\sandbox\github\Lion-IRVT\Hardware\source\tida-010086\bts_F2837x
     272                      .dwattr $C$DW$52, DW_AT_decl_line(0x5a)
     273                      .dwattr $C$DW$52, DW_AT_decl_column(0x0a)
     274              $C$DW$53        .dwtag  DW_TAG_formal_parameter
     275                      .dwattr $C$DW$53, DW_AT_type(*$C$DW$T$37)
TMS320C2000 Assembler PC v22.6.1 Tue Aug 13 19:46:08 2024

Copyright (c) 1996-2018 Texas Instruments Incorporated
bts.asm                                                              PAGE    6

     276              
     277              $C$DW$54        .dwtag  DW_TAG_formal_parameter
     278                      .dwattr $C$DW$54, DW_AT_type(*$C$DW$T$39)
     279              
     280                      .dwendtag $C$DW$52
     281              
     282              
     283              $C$DW$55        .dwtag  DW_TAG_subprogram
     284                      .dwattr $C$DW$55, DW_AT_name("I2C_MasterReceiver")
     285                      .dwattr $C$DW$55, DW_AT_linkage_name("I2C_MasterReceiver")
     286                      .dwattr $C$DW$55, DW_AT_type(*$C$DW$T$26)
     287                      .dwattr $C$DW$55, DW_AT_declaration
     288                      .dwattr $C$DW$55, DW_AT_external
     289                      .dwattr $C$DW$55, DW_AT_decl_file("C:\sandbox\github\Lion-IRVT\Hardware\source\tida-010086\bts_F2837x
     290                      .dwattr $C$DW$55, DW_AT_decl_line(0x5d)
     291                      .dwattr $C$DW$55, DW_AT_decl_column(0x0a)
     292              $C$DW$56        .dwtag  DW_TAG_formal_parameter
     293                      .dwattr $C$DW$56, DW_AT_type(*$C$DW$T$40)
     294              
     295                      .dwendtag $C$DW$55
     296              
     297              
     298              $C$DW$57        .dwtag  DW_TAG_subprogram
     299                      .dwattr $C$DW$57, DW_AT_name("SFO")
     300                      .dwattr $C$DW$57, DW_AT_linkage_name("SFO")
     301                      .dwattr $C$DW$57, DW_AT_type(*$C$DW$T$10)
     302                      .dwattr $C$DW$57, DW_AT_declaration
     303                      .dwattr $C$DW$57, DW_AT_external
     304                      .dwattr $C$DW$57, DW_AT_decl_file("C:/sandbox/github/Lion-IRVT/Hardware/source/tida-010086/bts_F2837x
     305                      .dwattr $C$DW$57, DW_AT_decl_line(0x40)
     306                      .dwattr $C$DW$57, DW_AT_decl_column(0x05)
     307                      .dwendtag $C$DW$57
     308              
     309                      .global ||MEP_ScaleFactor||
     310 00000002               .bss    ||MEP_ScaleFactor||,2,1,1
     311              $C$DW$58        .dwtag  DW_TAG_variable
     312                      .dwattr $C$DW$58, DW_AT_name("MEP_ScaleFactor")
     313                      .dwattr $C$DW$58, DW_AT_linkage_name("MEP_ScaleFactor")
     314                      .dwattr $C$DW$58, DW_AT_location[DW_OP_addr ||MEP_ScaleFactor||]
     315                      .dwattr $C$DW$58, DW_AT_type(*$C$DW$T$37)
     316                      .dwattr $C$DW$58, DW_AT_external
     317                      .dwattr $C$DW$58, DW_AT_decl_file("../bts.c")
     318                      .dwattr $C$DW$58, DW_AT_decl_line(0x42)
     319                      .dwattr $C$DW$58, DW_AT_decl_column(0x16)
     320              
     321                      .global ||i2c_int_crnt_responderPtr||
     322 00000004               .bss    ||i2c_int_crnt_responderPtr||,2,1,1
     323              $C$DW$59        .dwtag  DW_TAG_variable
     324                      .dwattr $C$DW$59, DW_AT_name("i2c_int_crnt_responderPtr")
     325                      .dwattr $C$DW$59, DW_AT_linkage_name("i2c_int_crnt_responderPtr")
     326                      .dwattr $C$DW$59, DW_AT_location[DW_OP_addr ||i2c_int_crnt_responderPtr||]
     327                      .dwattr $C$DW$59, DW_AT_type(*$C$DW$T$40)
     328                      .dwattr $C$DW$59, DW_AT_external
     329                      .dwattr $C$DW$59, DW_AT_decl_file("../bts.c")
     330                      .dwattr $C$DW$59, DW_AT_decl_line(0x7e)
TMS320C2000 Assembler PC v22.6.1 Tue Aug 13 19:46:08 2024

Copyright (c) 1996-2018 Texas Instruments Incorporated
bts.asm                                                              PAGE    7

     331                      .dwattr $C$DW$59, DW_AT_decl_column(0x13)
     332              
     333                      .global ||I2CA_ControlAddr||
     334 00000006               .bss    ||I2CA_ControlAddr||,2,1,1
     335              $C$DW$60        .dwtag  DW_TAG_variable
     336                      .dwattr $C$DW$60, DW_AT_name("I2CA_ControlAddr")
     337                      .dwattr $C$DW$60, DW_AT_linkage_name("I2CA_ControlAddr")
     338                      .dwattr $C$DW$60, DW_AT_location[DW_OP_addr ||I2CA_ControlAddr||]
     339                      .dwattr $C$DW$60, DW_AT_type(*$C$DW$T$37)
     340                      .dwattr $C$DW$60, DW_AT_external
     341                      .dwattr $C$DW$60, DW_AT_decl_file("../bts.c")
     342                      .dwattr $C$DW$60, DW_AT_decl_line(0x88)
     343                      .dwattr $C$DW$60, DW_AT_decl_column(0x0a)
     344              
     345                      .global ||I2CB_ControlAddr||
     346 00000008               .bss    ||I2CB_ControlAddr||,2,1,1
     347              $C$DW$61        .dwtag  DW_TAG_variable
     348                      .dwattr $C$DW$61, DW_AT_name("I2CB_ControlAddr")
     349                      .dwattr $C$DW$61, DW_AT_linkage_name("I2CB_ControlAddr")
     350                      .dwattr $C$DW$61, DW_AT_location[DW_OP_addr ||I2CB_ControlAddr||]
     351                      .dwattr $C$DW$61, DW_AT_type(*$C$DW$T$37)
     352                      .dwattr $C$DW$61, DW_AT_external
     353                      .dwattr $C$DW$61, DW_AT_decl_file("../bts.c")
     354                      .dwattr $C$DW$61, DW_AT_decl_line(0x89)
     355                      .dwattr $C$DW$61, DW_AT_decl_column(0x0a)
     356              
     357              
     358              $C$DW$62        .dwtag  DW_TAG_subprogram
     359                      .dwattr $C$DW$62, DW_AT_name("SysCtl_getLowSpeedClock")
     360                      .dwattr $C$DW$62, DW_AT_linkage_name("SysCtl_getLowSpeedClock")
     361                      .dwattr $C$DW$62, DW_AT_type(*$C$DW$T$37)
     362                      .dwattr $C$DW$62, DW_AT_declaration
     363                      .dwattr $C$DW$62, DW_AT_external
     364                      .dwattr $C$DW$62, DW_AT_decl_file("C:\ti\c2000\C2000Ware_DigitalPower_SDK_5_03_00_00\c2000ware\driver
     365                      .dwattr $C$DW$62, DW_AT_decl_line(0xd73)
     366                      .dwattr $C$DW$62, DW_AT_decl_column(0x01)
     367              $C$DW$63        .dwtag  DW_TAG_formal_parameter
     368                      .dwattr $C$DW$63, DW_AT_type(*$C$DW$T$37)
     369              
     370                      .dwendtag $C$DW$62
     371              
     372                      .global ||BTS_ctrl_ch1||
     373 00000000               .data
     374                      .align  2
     375                      .elfsym ||BTS_ctrl_ch1||,SYM_SIZE(18),SYM_BLOCKED(1)
     376 00000000       ||BTS_ctrl_ch1||:
     377 00000000 0000          .xfloat $strtod("0x1p+0")               ; BTS_ctrl_ch1.b0 @ 0
         00000001 3F80 
     378 00000002 0000          .xfloat $strtod("0x0p+0")               ; BTS_ctrl_ch1.b1 @ 32
         00000003 0000 
     379 00000004 0000          .xfloat $strtod("0x0p+0")               ; BTS_ctrl_ch1.b2 @ 64
         00000005 0000 
     380 00000006 0000          .xfloat $strtod("0x0p+0")               ; BTS_ctrl_ch1.a1 @ 96
         00000007 0000 
     381 00000008 0000          .xfloat $strtod("0x0p+0")               ; BTS_ctrl_ch1.a2 @ 128
TMS320C2000 Assembler PC v22.6.1 Tue Aug 13 19:46:08 2024

Copyright (c) 1996-2018 Texas Instruments Incorporated
bts.asm                                                              PAGE    8

         00000009 0000 
     382 0000000a 0000          .xfloat $strtod("0x0p+0")               ; BTS_ctrl_ch1.x1 @ 160
         0000000b 0000 
     383 0000000c 0000          .xfloat $strtod("0x0p+0")               ; BTS_ctrl_ch1.x2 @ 192
         0000000d 0000 
     384 0000000e 0000          .bits           0,32
         0000000f 0000 
     385                                      ; BTS_ctrl_ch1.sps @ 224
     386 00000010 0000          .bits           0,32
         00000011 0000 
     387                                      ; BTS_ctrl_ch1.css @ 256
     388              
     389              $C$DW$64        .dwtag  DW_TAG_variable
     390                      .dwattr $C$DW$64, DW_AT_name("BTS_ctrl_ch1")
     391                      .dwattr $C$DW$64, DW_AT_linkage_name("BTS_ctrl_ch1")
     392                      .dwattr $C$DW$64, DW_AT_location[DW_OP_addr ||BTS_ctrl_ch1||]
     393                      .dwattr $C$DW$64, DW_AT_type(*$C$DW$T$151)
     394                      .dwattr $C$DW$64, DW_AT_external
     395                      .dwattr $C$DW$64, DW_AT_decl_file("../bts.c")
     396                      .dwattr $C$DW$64, DW_AT_decl_line(0x56)
     397                      .dwattr $C$DW$64, DW_AT_decl_column(0x1e)
     398              
     399                      .global ||BTS_ctrl_ch2||
     400 00000012               .data
     401                      .align  2
     402                      .elfsym ||BTS_ctrl_ch2||,SYM_SIZE(18),SYM_BLOCKED(1)
     403 00000012       ||BTS_ctrl_ch2||:
     404 00000012 0000          .xfloat $strtod("0x1p+0")               ; BTS_ctrl_ch2.b0 @ 0
         00000013 3F80 
     405 00000014 0000          .xfloat $strtod("0x0p+0")               ; BTS_ctrl_ch2.b1 @ 32
         00000015 0000 
     406 00000016 0000          .xfloat $strtod("0x0p+0")               ; BTS_ctrl_ch2.b2 @ 64
         00000017 0000 
     407 00000018 0000          .xfloat $strtod("0x0p+0")               ; BTS_ctrl_ch2.a1 @ 96
         00000019 0000 
     408 0000001a 0000          .xfloat $strtod("0x0p+0")               ; BTS_ctrl_ch2.a2 @ 128
         0000001b 0000 
     409 0000001c 0000          .xfloat $strtod("0x0p+0")               ; BTS_ctrl_ch2.x1 @ 160
         0000001d 0000 
     410 0000001e 0000          .xfloat $strtod("0x0p+0")               ; BTS_ctrl_ch2.x2 @ 192
         0000001f 0000 
     411 00000020 0000          .bits           0,32
         00000021 0000 
     412                                      ; BTS_ctrl_ch2.sps @ 224
     413 00000022 0000          .bits           0,32
         00000023 0000 
     414                                      ; BTS_ctrl_ch2.css @ 256
     415              
     416              $C$DW$65        .dwtag  DW_TAG_variable
     417                      .dwattr $C$DW$65, DW_AT_name("BTS_ctrl_ch2")
     418                      .dwattr $C$DW$65, DW_AT_linkage_name("BTS_ctrl_ch2")
     419                      .dwattr $C$DW$65, DW_AT_location[DW_OP_addr ||BTS_ctrl_ch2||]
     420                      .dwattr $C$DW$65, DW_AT_type(*$C$DW$T$151)
     421                      .dwattr $C$DW$65, DW_AT_external
     422                      .dwattr $C$DW$65, DW_AT_decl_file("../bts.c")
TMS320C2000 Assembler PC v22.6.1 Tue Aug 13 19:46:08 2024

Copyright (c) 1996-2018 Texas Instruments Incorporated
bts.asm                                                              PAGE    9

     423                      .dwattr $C$DW$65, DW_AT_decl_line(0x57)
     424                      .dwattr $C$DW$65, DW_AT_decl_column(0x1e)
     425              
     426                      .global ||BTS_ctrl_ch3||
     427 00000024               .data
     428                      .align  2
     429                      .elfsym ||BTS_ctrl_ch3||,SYM_SIZE(18),SYM_BLOCKED(1)
     430 00000024       ||BTS_ctrl_ch3||:
     431 00000024 0000          .xfloat $strtod("0x1p+0")               ; BTS_ctrl_ch3.b0 @ 0
         00000025 3F80 
     432 00000026 0000          .xfloat $strtod("0x0p+0")               ; BTS_ctrl_ch3.b1 @ 32
         00000027 0000 
     433 00000028 0000          .xfloat $strtod("0x0p+0")               ; BTS_ctrl_ch3.b2 @ 64
         00000029 0000 
     434 0000002a 0000          .xfloat $strtod("0x0p+0")               ; BTS_ctrl_ch3.a1 @ 96
         0000002b 0000 
     435 0000002c 0000          .xfloat $strtod("0x0p+0")               ; BTS_ctrl_ch3.a2 @ 128
         0000002d 0000 
     436 0000002e 0000          .xfloat $strtod("0x0p+0")               ; BTS_ctrl_ch3.x1 @ 160
         0000002f 0000 
     437 00000030 0000          .xfloat $strtod("0x0p+0")               ; BTS_ctrl_ch3.x2 @ 192
         00000031 0000 
     438 00000032 0000          .bits           0,32
         00000033 0000 
     439                                      ; BTS_ctrl_ch3.sps @ 224
     440 00000034 0000          .bits           0,32
         00000035 0000 
     441                                      ; BTS_ctrl_ch3.css @ 256
     442              
     443              $C$DW$66        .dwtag  DW_TAG_variable
     444                      .dwattr $C$DW$66, DW_AT_name("BTS_ctrl_ch3")
     445                      .dwattr $C$DW$66, DW_AT_linkage_name("BTS_ctrl_ch3")
     446                      .dwattr $C$DW$66, DW_AT_location[DW_OP_addr ||BTS_ctrl_ch3||]
     447                      .dwattr $C$DW$66, DW_AT_type(*$C$DW$T$151)
     448                      .dwattr $C$DW$66, DW_AT_external
     449                      .dwattr $C$DW$66, DW_AT_decl_file("../bts.c")
     450                      .dwattr $C$DW$66, DW_AT_decl_line(0x58)
     451                      .dwattr $C$DW$66, DW_AT_decl_column(0x1e)
     452              
     453                      .global ||BTS_ctrl_ch4||
     454 00000036               .data
     455                      .align  2
     456                      .elfsym ||BTS_ctrl_ch4||,SYM_SIZE(18),SYM_BLOCKED(1)
     457 00000040       ||BTS_ctrl_ch4||:
     458 00000040 0000          .xfloat $strtod("0x1p+0")               ; BTS_ctrl_ch4.b0 @ 0
         00000041 3F80 
     459 00000042 0000          .xfloat $strtod("0x0p+0")               ; BTS_ctrl_ch4.b1 @ 32
         00000043 0000 
     460 00000044 0000          .xfloat $strtod("0x0p+0")               ; BTS_ctrl_ch4.b2 @ 64
         00000045 0000 
     461 00000046 0000          .xfloat $strtod("0x0p+0")               ; BTS_ctrl_ch4.a1 @ 96
         00000047 0000 
     462 00000048 0000          .xfloat $strtod("0x0p+0")               ; BTS_ctrl_ch4.a2 @ 128
         00000049 0000 
     463 0000004a 0000          .xfloat $strtod("0x0p+0")               ; BTS_ctrl_ch4.x1 @ 160
TMS320C2000 Assembler PC v22.6.1 Tue Aug 13 19:46:08 2024

Copyright (c) 1996-2018 Texas Instruments Incorporated
bts.asm                                                              PAGE   10

         0000004b 0000 
     464 0000004c 0000          .xfloat $strtod("0x0p+0")               ; BTS_ctrl_ch4.x2 @ 192
         0000004d 0000 
     465 0000004e 0000          .bits           0,32
         0000004f 0000 
     466                                      ; BTS_ctrl_ch4.sps @ 224
     467 00000050 0000          .bits           0,32
         00000051 0000 
     468                                      ; BTS_ctrl_ch4.css @ 256
     469              
     470              $C$DW$67        .dwtag  DW_TAG_variable
     471                      .dwattr $C$DW$67, DW_AT_name("BTS_ctrl_ch4")
     472                      .dwattr $C$DW$67, DW_AT_linkage_name("BTS_ctrl_ch4")
     473                      .dwattr $C$DW$67, DW_AT_location[DW_OP_addr ||BTS_ctrl_ch4||]
     474                      .dwattr $C$DW$67, DW_AT_type(*$C$DW$T$151)
     475                      .dwattr $C$DW$67, DW_AT_external
     476                      .dwattr $C$DW$67, DW_AT_decl_file("../bts.c")
     477                      .dwattr $C$DW$67, DW_AT_decl_line(0x59)
     478                      .dwattr $C$DW$67, DW_AT_decl_column(0x1e)
     479              
     480                      .global ||BTS_ctrl_ch5||
     481 00000052               .data
     482                      .align  2
     483                      .elfsym ||BTS_ctrl_ch5||,SYM_SIZE(18),SYM_BLOCKED(1)
     484 00000052       ||BTS_ctrl_ch5||:
     485 00000052 0000          .xfloat $strtod("0x1p+0")               ; BTS_ctrl_ch5.b0 @ 0
         00000053 3F80 
     486 00000054 0000          .xfloat $strtod("0x0p+0")               ; BTS_ctrl_ch5.b1 @ 32
         00000055 0000 
     487 00000056 0000          .xfloat $strtod("0x0p+0")               ; BTS_ctrl_ch5.b2 @ 64
         00000057 0000 
     488 00000058 0000          .xfloat $strtod("0x0p+0")               ; BTS_ctrl_ch5.a1 @ 96
         00000059 0000 
     489 0000005a 0000          .xfloat $strtod("0x0p+0")               ; BTS_ctrl_ch5.a2 @ 128
         0000005b 0000 
     490 0000005c 0000          .xfloat $strtod("0x0p+0")               ; BTS_ctrl_ch5.x1 @ 160
         0000005d 0000 
     491 0000005e 0000          .xfloat $strtod("0x0p+0")               ; BTS_ctrl_ch5.x2 @ 192
         0000005f 0000 
     492 00000060 0000          .bits           0,32
         00000061 0000 
     493                                      ; BTS_ctrl_ch5.sps @ 224
     494 00000062 0000          .bits           0,32
         00000063 0000 
     495                                      ; BTS_ctrl_ch5.css @ 256
     496              
     497              $C$DW$68        .dwtag  DW_TAG_variable
     498                      .dwattr $C$DW$68, DW_AT_name("BTS_ctrl_ch5")
     499                      .dwattr $C$DW$68, DW_AT_linkage_name("BTS_ctrl_ch5")
     500                      .dwattr $C$DW$68, DW_AT_location[DW_OP_addr ||BTS_ctrl_ch5||]
     501                      .dwattr $C$DW$68, DW_AT_type(*$C$DW$T$151)
     502                      .dwattr $C$DW$68, DW_AT_external
     503                      .dwattr $C$DW$68, DW_AT_decl_file("../bts.c")
     504                      .dwattr $C$DW$68, DW_AT_decl_line(0x5a)
     505                      .dwattr $C$DW$68, DW_AT_decl_column(0x1e)
TMS320C2000 Assembler PC v22.6.1 Tue Aug 13 19:46:08 2024

Copyright (c) 1996-2018 Texas Instruments Incorporated
bts.asm                                                              PAGE   11

     506              
     507                      .global ||BTS_ctrl_ch6||
     508 00000064               .data
     509                      .align  2
     510                      .elfsym ||BTS_ctrl_ch6||,SYM_SIZE(18),SYM_BLOCKED(1)
     511 00000064       ||BTS_ctrl_ch6||:
     512 00000064 0000          .xfloat $strtod("0x1p+0")               ; BTS_ctrl_ch6.b0 @ 0
         00000065 3F80 
     513 00000066 0000          .xfloat $strtod("0x0p+0")               ; BTS_ctrl_ch6.b1 @ 32
         00000067 0000 
     514 00000068 0000          .xfloat $strtod("0x0p+0")               ; BTS_ctrl_ch6.b2 @ 64
         00000069 0000 
     515 0000006a 0000          .xfloat $strtod("0x0p+0")               ; BTS_ctrl_ch6.a1 @ 96
         0000006b 0000 
     516 0000006c 0000          .xfloat $strtod("0x0p+0")               ; BTS_ctrl_ch6.a2 @ 128
         0000006d 0000 
     517 0000006e 0000          .xfloat $strtod("0x0p+0")               ; BTS_ctrl_ch6.x1 @ 160
         0000006f 0000 
     518 00000070 0000          .xfloat $strtod("0x0p+0")               ; BTS_ctrl_ch6.x2 @ 192
         00000071 0000 
     519 00000072 0000          .bits           0,32
         00000073 0000 
     520                                      ; BTS_ctrl_ch6.sps @ 224
     521 00000074 0000          .bits           0,32
         00000075 0000 
     522                                      ; BTS_ctrl_ch6.css @ 256
     523              
     524              $C$DW$69        .dwtag  DW_TAG_variable
     525                      .dwattr $C$DW$69, DW_AT_name("BTS_ctrl_ch6")
     526                      .dwattr $C$DW$69, DW_AT_linkage_name("BTS_ctrl_ch6")
     527                      .dwattr $C$DW$69, DW_AT_location[DW_OP_addr ||BTS_ctrl_ch6||]
     528                      .dwattr $C$DW$69, DW_AT_type(*$C$DW$T$151)
     529                      .dwattr $C$DW$69, DW_AT_external
     530                      .dwattr $C$DW$69, DW_AT_decl_file("../bts.c")
     531                      .dwattr $C$DW$69, DW_AT_decl_line(0x5b)
     532                      .dwattr $C$DW$69, DW_AT_decl_column(0x1e)
     533              
     534                      .global ||BTS_ctrl_ch7||
     535 00000076               .data
     536                      .align  2
     537                      .elfsym ||BTS_ctrl_ch7||,SYM_SIZE(18),SYM_BLOCKED(1)
     538 00000080       ||BTS_ctrl_ch7||:
     539 00000080 0000          .xfloat $strtod("0x1p+0")               ; BTS_ctrl_ch7.b0 @ 0
         00000081 3F80 
     540 00000082 0000          .xfloat $strtod("0x0p+0")               ; BTS_ctrl_ch7.b1 @ 32
         00000083 0000 
     541 00000084 0000          .xfloat $strtod("0x0p+0")               ; BTS_ctrl_ch7.b2 @ 64
         00000085 0000 
     542 00000086 0000          .xfloat $strtod("0x0p+0")               ; BTS_ctrl_ch7.a1 @ 96
         00000087 0000 
     543 00000088 0000          .xfloat $strtod("0x0p+0")               ; BTS_ctrl_ch7.a2 @ 128
         00000089 0000 
     544 0000008a 0000          .xfloat $strtod("0x0p+0")               ; BTS_ctrl_ch7.x1 @ 160
         0000008b 0000 
     545 0000008c 0000          .xfloat $strtod("0x0p+0")               ; BTS_ctrl_ch7.x2 @ 192
TMS320C2000 Assembler PC v22.6.1 Tue Aug 13 19:46:08 2024

Copyright (c) 1996-2018 Texas Instruments Incorporated
bts.asm                                                              PAGE   12

         0000008d 0000 
     546 0000008e 0000          .bits           0,32
         0000008f 0000 
     547                                      ; BTS_ctrl_ch7.sps @ 224
     548 00000090 0000          .bits           0,32
         00000091 0000 
     549                                      ; BTS_ctrl_ch7.css @ 256
     550              
     551              $C$DW$70        .dwtag  DW_TAG_variable
     552                      .dwattr $C$DW$70, DW_AT_name("BTS_ctrl_ch7")
     553                      .dwattr $C$DW$70, DW_AT_linkage_name("BTS_ctrl_ch7")
     554                      .dwattr $C$DW$70, DW_AT_location[DW_OP_addr ||BTS_ctrl_ch7||]
     555                      .dwattr $C$DW$70, DW_AT_type(*$C$DW$T$151)
     556                      .dwattr $C$DW$70, DW_AT_external
     557                      .dwattr $C$DW$70, DW_AT_decl_file("../bts.c")
     558                      .dwattr $C$DW$70, DW_AT_decl_line(0x5c)
     559                      .dwattr $C$DW$70, DW_AT_decl_column(0x1e)
     560              
     561                      .global ||BTS_ctrl_ch8||
     562 00000092               .data
     563                      .align  2
     564                      .elfsym ||BTS_ctrl_ch8||,SYM_SIZE(18),SYM_BLOCKED(1)
     565 00000092       ||BTS_ctrl_ch8||:
     566 00000092 0000          .xfloat $strtod("0x1p+0")               ; BTS_ctrl_ch8.b0 @ 0
         00000093 3F80 
     567 00000094 0000          .xfloat $strtod("0x0p+0")               ; BTS_ctrl_ch8.b1 @ 32
         00000095 0000 
     568 00000096 0000          .xfloat $strtod("0x0p+0")               ; BTS_ctrl_ch8.b2 @ 64
         00000097 0000 
     569 00000098 0000          .xfloat $strtod("0x0p+0")               ; BTS_ctrl_ch8.a1 @ 96
         00000099 0000 
     570 0000009a 0000          .xfloat $strtod("0x0p+0")               ; BTS_ctrl_ch8.a2 @ 128
         0000009b 0000 
     571 0000009c 0000          .xfloat $strtod("0x0p+0")               ; BTS_ctrl_ch8.x1 @ 160
         0000009d 0000 
     572 0000009e 0000          .xfloat $strtod("0x0p+0")               ; BTS_ctrl_ch8.x2 @ 192
         0000009f 0000 
     573 000000a0 0000          .bits           0,32
         000000a1 0000 
     574                                      ; BTS_ctrl_ch8.sps @ 224
     575 000000a2 0000          .bits           0,32
         000000a3 0000 
     576                                      ; BTS_ctrl_ch8.css @ 256
     577              
     578              $C$DW$71        .dwtag  DW_TAG_variable
     579                      .dwattr $C$DW$71, DW_AT_name("BTS_ctrl_ch8")
     580                      .dwattr $C$DW$71, DW_AT_linkage_name("BTS_ctrl_ch8")
     581                      .dwattr $C$DW$71, DW_AT_location[DW_OP_addr ||BTS_ctrl_ch8||]
     582                      .dwattr $C$DW$71, DW_AT_type(*$C$DW$T$151)
     583                      .dwattr $C$DW$71, DW_AT_external
     584                      .dwattr $C$DW$71, DW_AT_decl_file("../bts.c")
     585                      .dwattr $C$DW$71, DW_AT_decl_line(0x5d)
     586                      .dwattr $C$DW$71, DW_AT_decl_column(0x1e)
     587              
     588                      .global ||EEPROM||
TMS320C2000 Assembler PC v22.6.1 Tue Aug 13 19:46:08 2024

Copyright (c) 1996-2018 Texas Instruments Incorporated
bts.asm                                                              PAGE   13

     589 0000000a               .bss    ||EEPROM||,20,1,1
     590              $C$DW$72        .dwtag  DW_TAG_variable
     591                      .dwattr $C$DW$72, DW_AT_name("EEPROM")
     592                      .dwattr $C$DW$72, DW_AT_linkage_name("EEPROM")
     593                      .dwattr $C$DW$72, DW_AT_location[DW_OP_addr ||EEPROM||]
     594                      .dwattr $C$DW$72, DW_AT_type(*$C$DW$T$41)
     595                      .dwattr $C$DW$72, DW_AT_external
     596                      .dwattr $C$DW$72, DW_AT_decl_file("../bts.c")
     597                      .dwattr $C$DW$72, DW_AT_decl_line(0x6f)
     598                      .dwattr $C$DW$72, DW_AT_decl_column(0x13)
     599              
     600                      .global ||I2CA||
     601 0000001e               .bss    ||I2CA||,20,1,1
     602              $C$DW$73        .dwtag  DW_TAG_variable
     603                      .dwattr $C$DW$73, DW_AT_name("I2CA")
     604                      .dwattr $C$DW$73, DW_AT_linkage_name("I2CA")
     605                      .dwattr $C$DW$73, DW_AT_location[DW_OP_addr ||I2CA||]
     606                      .dwattr $C$DW$73, DW_AT_type(*$C$DW$T$41)
     607                      .dwattr $C$DW$73, DW_AT_external
     608                      .dwattr $C$DW$73, DW_AT_decl_file("../bts.c")
     609                      .dwattr $C$DW$73, DW_AT_decl_line(0x70)
     610                      .dwattr $C$DW$73, DW_AT_decl_column(0x12)
     611              
     612                      .global ||I2CB||
     613 00000040               .bss    ||I2CB||,20,1,1
     614              $C$DW$74        .dwtag  DW_TAG_variable
     615                      .dwattr $C$DW$74, DW_AT_name("I2CB")
     616                      .dwattr $C$DW$74, DW_AT_linkage_name("I2CB")
     617                      .dwattr $C$DW$74, DW_AT_location[DW_OP_addr ||I2CB||]
     618                      .dwattr $C$DW$74, DW_AT_type(*$C$DW$T$41)
     619                      .dwattr $C$DW$74, DW_AT_external
     620                      .dwattr $C$DW$74, DW_AT_decl_file("../bts.c")
     621                      .dwattr $C$DW$74, DW_AT_decl_line(0x71)
     622                      .dwattr $C$DW$74, DW_AT_decl_column(0x12)
     623              
     624                      .global ||AvailableI2C_slaves||
     625 00000000       ||AvailableI2C_slaves||:        .usect  ".bss:AvailableI2C_slaves",20,0,0
     626              $C$DW$75        .dwtag  DW_TAG_variable
     627                      .dwattr $C$DW$75, DW_AT_name("AvailableI2C_slaves")
     628                      .dwattr $C$DW$75, DW_AT_linkage_name("AvailableI2C_slaves")
     629                      .dwattr $C$DW$75, DW_AT_location[DW_OP_addr ||AvailableI2C_slaves||]
     630                      .dwattr $C$DW$75, DW_AT_type(*$C$DW$T$129)
     631                      .dwattr $C$DW$75, DW_AT_external
     632                      .dwattr $C$DW$75, DW_AT_decl_file("../bts.c")
     633                      .dwattr $C$DW$75, DW_AT_decl_line(0x80)
     634                      .dwattr $C$DW$75, DW_AT_decl_column(0x0a)
     635              
     636                      .global ||BTS_sfra||
     637 00000054               .bss    ||BTS_sfra||,32,1,1
     638              $C$DW$76        .dwtag  DW_TAG_variable
     639                      .dwattr $C$DW$76, DW_AT_name("BTS_sfra")
     640                      .dwattr $C$DW$76, DW_AT_linkage_name("BTS_sfra")
     641                      .dwattr $C$DW$76, DW_AT_location[DW_OP_addr ||BTS_sfra||]
     642                      .dwattr $C$DW$76, DW_AT_type(*$C$DW$T$58)
     643                      .dwattr $C$DW$76, DW_AT_external
TMS320C2000 Assembler PC v22.6.1 Tue Aug 13 19:46:08 2024

Copyright (c) 1996-2018 Texas Instruments Incorporated
bts.asm                                                              PAGE   14

     644                      .dwattr $C$DW$76, DW_AT_decl_file("../bts.c")
     645                      .dwattr $C$DW$76, DW_AT_decl_line(0x92)
     646                      .dwattr $C$DW$76, DW_AT_decl_column(0x16)
     647              
     648                      .global ||I2CA_TXdata||
     649 00000000       ||I2CA_TXdata||:        .usect  ".bss:I2CA_TXdata",64,0,0
     650              $C$DW$77        .dwtag  DW_TAG_variable
     651                      .dwattr $C$DW$77, DW_AT_name("I2CA_TXdata")
     652                      .dwattr $C$DW$77, DW_AT_linkage_name("I2CA_TXdata")
     653                      .dwattr $C$DW$77, DW_AT_location[DW_OP_addr ||I2CA_TXdata||]
     654                      .dwattr $C$DW$77, DW_AT_type(*$C$DW$T$130)
     655                      .dwattr $C$DW$77, DW_AT_external
     656                      .dwattr $C$DW$77, DW_AT_decl_file("../bts.c")
     657                      .dwattr $C$DW$77, DW_AT_decl_line(0x82)
     658                      .dwattr $C$DW$77, DW_AT_decl_column(0x0a)
     659              
     660                      .global ||I2CB_TXdata||
     661 00000000       ||I2CB_TXdata||:        .usect  ".bss:I2CB_TXdata",64,0,0
     662              $C$DW$78        .dwtag  DW_TAG_variable
     663                      .dwattr $C$DW$78, DW_AT_name("I2CB_TXdata")
     664                      .dwattr $C$DW$78, DW_AT_linkage_name("I2CB_TXdata")
     665                      .dwattr $C$DW$78, DW_AT_location[DW_OP_addr ||I2CB_TXdata||]
     666                      .dwattr $C$DW$78, DW_AT_type(*$C$DW$T$130)
     667                      .dwattr $C$DW$78, DW_AT_external
     668                      .dwattr $C$DW$78, DW_AT_decl_file("../bts.c")
     669                      .dwattr $C$DW$78, DW_AT_decl_line(0x83)
     670                      .dwattr $C$DW$78, DW_AT_decl_column(0x0a)
     671              
     672                      .global ||I2CA_RXdata||
     673 00000000       ||I2CA_RXdata||:        .usect  ".bss:I2CA_RXdata",64,0,0
     674              $C$DW$79        .dwtag  DW_TAG_variable
     675                      .dwattr $C$DW$79, DW_AT_name("I2CA_RXdata")
     676                      .dwattr $C$DW$79, DW_AT_linkage_name("I2CA_RXdata")
     677                      .dwattr $C$DW$79, DW_AT_location[DW_OP_addr ||I2CA_RXdata||]
     678                      .dwattr $C$DW$79, DW_AT_type(*$C$DW$T$130)
     679                      .dwattr $C$DW$79, DW_AT_external
     680                      .dwattr $C$DW$79, DW_AT_decl_file("../bts.c")
     681                      .dwattr $C$DW$79, DW_AT_decl_line(0x85)
     682                      .dwattr $C$DW$79, DW_AT_decl_column(0x0a)
     683              
     684                      .global ||I2CB_RXdata||
     685 00000000       ||I2CB_RXdata||:        .usect  ".bss:I2CB_RXdata",64,0,0
     686              $C$DW$80        .dwtag  DW_TAG_variable
     687                      .dwattr $C$DW$80, DW_AT_name("I2CB_RXdata")
     688                      .dwattr $C$DW$80, DW_AT_linkage_name("I2CB_RXdata")
     689                      .dwattr $C$DW$80, DW_AT_location[DW_OP_addr ||I2CB_RXdata||]
     690                      .dwattr $C$DW$80, DW_AT_type(*$C$DW$T$130)
     691                      .dwattr $C$DW$80, DW_AT_external
     692                      .dwattr $C$DW$80, DW_AT_decl_file("../bts.c")
     693                      .dwattr $C$DW$80, DW_AT_decl_line(0x86)
     694                      .dwattr $C$DW$80, DW_AT_decl_column(0x0a)
     695              
     696                      .global ||BTS_ctrl_cc||
     697 00000000               .sect   ".data:BTS_ctrl_cc", RW
     698                      .align  2
TMS320C2000 Assembler PC v22.6.1 Tue Aug 13 19:46:08 2024

Copyright (c) 1996-2018 Texas Instruments Incorporated
bts.asm                                                              PAGE   15

     699                      .elfsym ||BTS_ctrl_cc||,SYM_SIZE(144)
     700 00000000       ||BTS_ctrl_cc||:
     701 00000000 0000          .xfloat $strtod("0x1p+0")               ; BTS_ctrl_cc[0].b0 @ 0
         00000001 3F80 
     702 00000002 0000          .xfloat $strtod("0x0p+0")               ; BTS_ctrl_cc[0].b1 @ 32
         00000003 0000 
     703 00000004 0000          .xfloat $strtod("0x0p+0")               ; BTS_ctrl_cc[0].b2 @ 64
         00000005 0000 
     704 00000006 0000          .xfloat $strtod("0x0p+0")               ; BTS_ctrl_cc[0].a1 @ 96
         00000007 0000 
     705 00000008 0000          .xfloat $strtod("0x0p+0")               ; BTS_ctrl_cc[0].a2 @ 128
         00000009 0000 
     706 0000000a 0000          .xfloat $strtod("0x0p+0")               ; BTS_ctrl_cc[0].x1 @ 160
         0000000b 0000 
     707 0000000c 0000          .xfloat $strtod("0x0p+0")               ; BTS_ctrl_cc[0].x2 @ 192
         0000000d 0000 
     708 0000000e 0000          .bits           0,32
         0000000f 0000 
     709                                      ; BTS_ctrl_cc[0].sps @ 224
     710 00000010 0000          .bits           0,32
         00000011 0000 
     711                                      ; BTS_ctrl_cc[0].css @ 256
     712 00000012 0000          .xfloat $strtod("0x1p+0")               ; BTS_ctrl_cc[1].b0 @ 288
         00000013 3F80 
     713 00000014 0000          .xfloat $strtod("0x0p+0")               ; BTS_ctrl_cc[1].b1 @ 320
         00000015 0000 
     714 00000016 0000          .xfloat $strtod("0x0p+0")               ; BTS_ctrl_cc[1].b2 @ 352
         00000017 0000 
     715 00000018 0000          .xfloat $strtod("0x0p+0")               ; BTS_ctrl_cc[1].a1 @ 384
         00000019 0000 
     716 0000001a 0000          .xfloat $strtod("0x0p+0")               ; BTS_ctrl_cc[1].a2 @ 416
         0000001b 0000 
     717 0000001c 0000          .xfloat $strtod("0x0p+0")               ; BTS_ctrl_cc[1].x1 @ 448
         0000001d 0000 
     718 0000001e 0000          .xfloat $strtod("0x0p+0")               ; BTS_ctrl_cc[1].x2 @ 480
         0000001f 0000 
     719 00000020 0000          .bits           0,32
         00000021 0000 
     720                                      ; BTS_ctrl_cc[1].sps @ 512
     721 00000022 0000          .bits           0,32
         00000023 0000 
     722                                      ; BTS_ctrl_cc[1].css @ 544
     723 00000024 0000          .xfloat $strtod("0x1p+0")               ; BTS_ctrl_cc[2].b0 @ 576
         00000025 3F80 
     724 00000026 0000          .xfloat $strtod("0x0p+0")               ; BTS_ctrl_cc[2].b1 @ 608
         00000027 0000 
     725 00000028 0000          .xfloat $strtod("0x0p+0")               ; BTS_ctrl_cc[2].b2 @ 640
         00000029 0000 
     726 0000002a 0000          .xfloat $strtod("0x0p+0")               ; BTS_ctrl_cc[2].a1 @ 672
         0000002b 0000 
     727 0000002c 0000          .xfloat $strtod("0x0p+0")               ; BTS_ctrl_cc[2].a2 @ 704
         0000002d 0000 
     728 0000002e 0000          .xfloat $strtod("0x0p+0")               ; BTS_ctrl_cc[2].x1 @ 736
         0000002f 0000 
     729 00000030 0000          .xfloat $strtod("0x0p+0")               ; BTS_ctrl_cc[2].x2 @ 768
TMS320C2000 Assembler PC v22.6.1 Tue Aug 13 19:46:08 2024

Copyright (c) 1996-2018 Texas Instruments Incorporated
bts.asm                                                              PAGE   16

         00000031 0000 
     730 00000032 0000          .bits           0,32
         00000033 0000 
     731                                      ; BTS_ctrl_cc[2].sps @ 800
     732 00000034 0000          .bits           0,32
         00000035 0000 
     733                                      ; BTS_ctrl_cc[2].css @ 832
     734 00000036 0000          .xfloat $strtod("0x1p+0")               ; BTS_ctrl_cc[3].b0 @ 864
         00000037 3F80 
     735 00000038 0000          .xfloat $strtod("0x0p+0")               ; BTS_ctrl_cc[3].b1 @ 896
         00000039 0000 
     736 0000003a 0000          .xfloat $strtod("0x0p+0")               ; BTS_ctrl_cc[3].b2 @ 928
         0000003b 0000 
     737 0000003c 0000          .xfloat $strtod("0x0p+0")               ; BTS_ctrl_cc[3].a1 @ 960
         0000003d 0000 
     738 0000003e 0000          .xfloat $strtod("0x0p+0")               ; BTS_ctrl_cc[3].a2 @ 992
         0000003f 0000 
     739 00000040 0000          .xfloat $strtod("0x0p+0")               ; BTS_ctrl_cc[3].x1 @ 1024
         00000041 0000 
     740 00000042 0000          .xfloat $strtod("0x0p+0")               ; BTS_ctrl_cc[3].x2 @ 1056
         00000043 0000 
     741 00000044 0000          .bits           0,32
         00000045 0000 
     742                                      ; BTS_ctrl_cc[3].sps @ 1088
     743 00000046 0000          .bits           0,32
         00000047 0000 
     744                                      ; BTS_ctrl_cc[3].css @ 1120
     745 00000048 0000          .xfloat $strtod("0x1p+0")               ; BTS_ctrl_cc[4].b0 @ 1152
         00000049 3F80 
     746 0000004a 0000          .xfloat $strtod("0x0p+0")               ; BTS_ctrl_cc[4].b1 @ 1184
         0000004b 0000 
     747 0000004c 0000          .xfloat $strtod("0x0p+0")               ; BTS_ctrl_cc[4].b2 @ 1216
         0000004d 0000 
     748 0000004e 0000          .xfloat $strtod("0x0p+0")               ; BTS_ctrl_cc[4].a1 @ 1248
         0000004f 0000 
     749 00000050 0000          .xfloat $strtod("0x0p+0")               ; BTS_ctrl_cc[4].a2 @ 1280
         00000051 0000 
     750 00000052 0000          .xfloat $strtod("0x0p+0")               ; BTS_ctrl_cc[4].x1 @ 1312
         00000053 0000 
     751 00000054 0000          .xfloat $strtod("0x0p+0")               ; BTS_ctrl_cc[4].x2 @ 1344
         00000055 0000 
     752 00000056 0000          .bits           0,32
         00000057 0000 
     753                                      ; BTS_ctrl_cc[4].sps @ 1376
     754 00000058 0000          .bits           0,32
         00000059 0000 
     755                                      ; BTS_ctrl_cc[4].css @ 1408
     756 0000005a 0000          .xfloat $strtod("0x1p+0")               ; BTS_ctrl_cc[5].b0 @ 1440
         0000005b 3F80 
     757 0000005c 0000          .xfloat $strtod("0x0p+0")               ; BTS_ctrl_cc[5].b1 @ 1472
         0000005d 0000 
     758 0000005e 0000          .xfloat $strtod("0x0p+0")               ; BTS_ctrl_cc[5].b2 @ 1504
         0000005f 0000 
     759 00000060 0000          .xfloat $strtod("0x0p+0")               ; BTS_ctrl_cc[5].a1 @ 1536
         00000061 0000 
TMS320C2000 Assembler PC v22.6.1 Tue Aug 13 19:46:08 2024

Copyright (c) 1996-2018 Texas Instruments Incorporated
bts.asm                                                              PAGE   17

     760 00000062 0000          .xfloat $strtod("0x0p+0")               ; BTS_ctrl_cc[5].a2 @ 1568
         00000063 0000 
     761 00000064 0000          .xfloat $strtod("0x0p+0")               ; BTS_ctrl_cc[5].x1 @ 1600
         00000065 0000 
     762 00000066 0000          .xfloat $strtod("0x0p+0")               ; BTS_ctrl_cc[5].x2 @ 1632
         00000067 0000 
     763 00000068 0000          .bits           0,32
         00000069 0000 
     764                                      ; BTS_ctrl_cc[5].sps @ 1664
     765 0000006a 0000          .bits           0,32
         0000006b 0000 
     766                                      ; BTS_ctrl_cc[5].css @ 1696
     767 0000006c 0000          .xfloat $strtod("0x1p+0")               ; BTS_ctrl_cc[6].b0 @ 1728
         0000006d 3F80 
     768 0000006e 0000          .xfloat $strtod("0x0p+0")               ; BTS_ctrl_cc[6].b1 @ 1760
         0000006f 0000 
     769 00000070 0000          .xfloat $strtod("0x0p+0")               ; BTS_ctrl_cc[6].b2 @ 1792
         00000071 0000 
     770 00000072 0000          .xfloat $strtod("0x0p+0")               ; BTS_ctrl_cc[6].a1 @ 1824
         00000073 0000 
     771 00000074 0000          .xfloat $strtod("0x0p+0")               ; BTS_ctrl_cc[6].a2 @ 1856
         00000075 0000 
     772 00000076 0000          .xfloat $strtod("0x0p+0")               ; BTS_ctrl_cc[6].x1 @ 1888
         00000077 0000 
     773 00000078 0000          .xfloat $strtod("0x0p+0")               ; BTS_ctrl_cc[6].x2 @ 1920
         00000079 0000 
     774 0000007a 0000          .bits           0,32
         0000007b 0000 
     775                                      ; BTS_ctrl_cc[6].sps @ 1952
     776 0000007c 0000          .bits           0,32
         0000007d 0000 
     777                                      ; BTS_ctrl_cc[6].css @ 1984
     778 0000007e 0000          .xfloat $strtod("0x1p+0")               ; BTS_ctrl_cc[7].b0 @ 2016
         0000007f 3F80 
     779 00000080 0000          .xfloat $strtod("0x0p+0")               ; BTS_ctrl_cc[7].b1 @ 2048
         00000081 0000 
     780 00000082 0000          .xfloat $strtod("0x0p+0")               ; BTS_ctrl_cc[7].b2 @ 2080
         00000083 0000 
     781 00000084 0000          .xfloat $strtod("0x0p+0")               ; BTS_ctrl_cc[7].a1 @ 2112
         00000085 0000 
     782 00000086 0000          .xfloat $strtod("0x0p+0")               ; BTS_ctrl_cc[7].a2 @ 2144
         00000087 0000 
     783 00000088 0000          .xfloat $strtod("0x0p+0")               ; BTS_ctrl_cc[7].x1 @ 2176
         00000089 0000 
     784 0000008a 0000          .xfloat $strtod("0x0p+0")               ; BTS_ctrl_cc[7].x2 @ 2208
         0000008b 0000 
     785 0000008c 0000          .bits           0,32
         0000008d 0000 
     786                                      ; BTS_ctrl_cc[7].sps @ 2240
     787 0000008e 0000          .bits           0,32
         0000008f 0000 
     788                                      ; BTS_ctrl_cc[7].css @ 2272
     789              
     790              $C$DW$81        .dwtag  DW_TAG_variable
     791                      .dwattr $C$DW$81, DW_AT_name("BTS_ctrl_cc")
TMS320C2000 Assembler PC v22.6.1 Tue Aug 13 19:46:08 2024

Copyright (c) 1996-2018 Texas Instruments Incorporated
bts.asm                                                              PAGE   18

     792                      .dwattr $C$DW$81, DW_AT_linkage_name("BTS_ctrl_cc")
     793                      .dwattr $C$DW$81, DW_AT_location[DW_OP_addr ||BTS_ctrl_cc||]
     794                      .dwattr $C$DW$81, DW_AT_type(*$C$DW$T$152)
     795                      .dwattr $C$DW$81, DW_AT_external
     796                      .dwattr $C$DW$81, DW_AT_decl_file("../bts.c")
     797                      .dwattr $C$DW$81, DW_AT_decl_line(0x22)
     798                      .dwattr $C$DW$81, DW_AT_decl_column(0x15)
     799              
     800                      .global ||BTS_ctrl_cv||
     801 00000000               .sect   ".data:BTS_ctrl_cv", RW
     802                      .align  2
     803                      .elfsym ||BTS_ctrl_cv||,SYM_SIZE(144)
     804 00000000       ||BTS_ctrl_cv||:
     805 00000000 0000          .xfloat $strtod("0x1p+0")               ; BTS_ctrl_cv[0].b0 @ 0
         00000001 3F80 
     806 00000002 0000          .xfloat $strtod("0x0p+0")               ; BTS_ctrl_cv[0].b1 @ 32
         00000003 0000 
     807 00000004 0000          .xfloat $strtod("0x0p+0")               ; BTS_ctrl_cv[0].b2 @ 64
         00000005 0000 
     808 00000006 0000          .xfloat $strtod("0x0p+0")               ; BTS_ctrl_cv[0].a1 @ 96
         00000007 0000 
     809 00000008 0000          .xfloat $strtod("0x0p+0")               ; BTS_ctrl_cv[0].a2 @ 128
         00000009 0000 
     810 0000000a 0000          .xfloat $strtod("0x0p+0")               ; BTS_ctrl_cv[0].x1 @ 160
         0000000b 0000 
     811 0000000c 0000          .xfloat $strtod("0x0p+0")               ; BTS_ctrl_cv[0].x2 @ 192
         0000000d 0000 
     812 0000000e 0000          .bits           0,32
         0000000f 0000 
     813                                      ; BTS_ctrl_cv[0].sps @ 224
     814 00000010 0000          .bits           0,32
         00000011 0000 
     815                                      ; BTS_ctrl_cv[0].css @ 256
     816 00000012 0000          .xfloat $strtod("0x1p+0")               ; BTS_ctrl_cv[1].b0 @ 288
         00000013 3F80 
     817 00000014 0000          .xfloat $strtod("0x0p+0")               ; BTS_ctrl_cv[1].b1 @ 320
         00000015 0000 
     818 00000016 0000          .xfloat $strtod("0x0p+0")               ; BTS_ctrl_cv[1].b2 @ 352
         00000017 0000 
     819 00000018 0000          .xfloat $strtod("0x0p+0")               ; BTS_ctrl_cv[1].a1 @ 384
         00000019 0000 
     820 0000001a 0000          .xfloat $strtod("0x0p+0")               ; BTS_ctrl_cv[1].a2 @ 416
         0000001b 0000 
     821 0000001c 0000          .xfloat $strtod("0x0p+0")               ; BTS_ctrl_cv[1].x1 @ 448
         0000001d 0000 
     822 0000001e 0000          .xfloat $strtod("0x0p+0")               ; BTS_ctrl_cv[1].x2 @ 480
         0000001f 0000 
     823 00000020 0000          .bits           0,32
         00000021 0000 
     824                                      ; BTS_ctrl_cv[1].sps @ 512
     825 00000022 0000          .bits           0,32
         00000023 0000 
     826                                      ; BTS_ctrl_cv[1].css @ 544
     827 00000024 0000          .xfloat $strtod("0x1p+0")               ; BTS_ctrl_cv[2].b0 @ 576
         00000025 3F80 
TMS320C2000 Assembler PC v22.6.1 Tue Aug 13 19:46:08 2024

Copyright (c) 1996-2018 Texas Instruments Incorporated
bts.asm                                                              PAGE   19

     828 00000026 0000          .xfloat $strtod("0x0p+0")               ; BTS_ctrl_cv[2].b1 @ 608
         00000027 0000 
     829 00000028 0000          .xfloat $strtod("0x0p+0")               ; BTS_ctrl_cv[2].b2 @ 640
         00000029 0000 
     830 0000002a 0000          .xfloat $strtod("0x0p+0")               ; BTS_ctrl_cv[2].a1 @ 672
         0000002b 0000 
     831 0000002c 0000          .xfloat $strtod("0x0p+0")               ; BTS_ctrl_cv[2].a2 @ 704
         0000002d 0000 
     832 0000002e 0000          .xfloat $strtod("0x0p+0")               ; BTS_ctrl_cv[2].x1 @ 736
         0000002f 0000 
     833 00000030 0000          .xfloat $strtod("0x0p+0")               ; BTS_ctrl_cv[2].x2 @ 768
         00000031 0000 
     834 00000032 0000          .bits           0,32
         00000033 0000 
     835                                      ; BTS_ctrl_cv[2].sps @ 800
     836 00000034 0000          .bits           0,32
         00000035 0000 
     837                                      ; BTS_ctrl_cv[2].css @ 832
     838 00000036 0000          .xfloat $strtod("0x1p+0")               ; BTS_ctrl_cv[3].b0 @ 864
         00000037 3F80 
     839 00000038 0000          .xfloat $strtod("0x0p+0")               ; BTS_ctrl_cv[3].b1 @ 896
         00000039 0000 
     840 0000003a 0000          .xfloat $strtod("0x0p+0")               ; BTS_ctrl_cv[3].b2 @ 928
         0000003b 0000 
     841 0000003c 0000          .xfloat $strtod("0x0p+0")               ; BTS_ctrl_cv[3].a1 @ 960
         0000003d 0000 
     842 0000003e 0000          .xfloat $strtod("0x0p+0")               ; BTS_ctrl_cv[3].a2 @ 992
         0000003f 0000 
     843 00000040 0000          .xfloat $strtod("0x0p+0")               ; BTS_ctrl_cv[3].x1 @ 1024
         00000041 0000 
     844 00000042 0000          .xfloat $strtod("0x0p+0")               ; BTS_ctrl_cv[3].x2 @ 1056
         00000043 0000 
     845 00000044 0000          .bits           0,32
         00000045 0000 
     846                                      ; BTS_ctrl_cv[3].sps @ 1088
     847 00000046 0000          .bits           0,32
         00000047 0000 
     848                                      ; BTS_ctrl_cv[3].css @ 1120
     849 00000048 0000          .xfloat $strtod("0x1p+0")               ; BTS_ctrl_cv[4].b0 @ 1152
         00000049 3F80 
     850 0000004a 0000          .xfloat $strtod("0x0p+0")               ; BTS_ctrl_cv[4].b1 @ 1184
         0000004b 0000 
     851 0000004c 0000          .xfloat $strtod("0x0p+0")               ; BTS_ctrl_cv[4].b2 @ 1216
         0000004d 0000 
     852 0000004e 0000          .xfloat $strtod("0x0p+0")               ; BTS_ctrl_cv[4].a1 @ 1248
         0000004f 0000 
     853 00000050 0000          .xfloat $strtod("0x0p+0")               ; BTS_ctrl_cv[4].a2 @ 1280
         00000051 0000 
     854 00000052 0000          .xfloat $strtod("0x0p+0")               ; BTS_ctrl_cv[4].x1 @ 1312
         00000053 0000 
     855 00000054 0000          .xfloat $strtod("0x0p+0")               ; BTS_ctrl_cv[4].x2 @ 1344
         00000055 0000 
     856 00000056 0000          .bits           0,32
         00000057 0000 
     857                                      ; BTS_ctrl_cv[4].sps @ 1376
TMS320C2000 Assembler PC v22.6.1 Tue Aug 13 19:46:08 2024

Copyright (c) 1996-2018 Texas Instruments Incorporated
bts.asm                                                              PAGE   20

     858 00000058 0000          .bits           0,32
         00000059 0000 
     859                                      ; BTS_ctrl_cv[4].css @ 1408
     860 0000005a 0000          .xfloat $strtod("0x1p+0")               ; BTS_ctrl_cv[5].b0 @ 1440
         0000005b 3F80 
     861 0000005c 0000          .xfloat $strtod("0x0p+0")               ; BTS_ctrl_cv[5].b1 @ 1472
         0000005d 0000 
     862 0000005e 0000          .xfloat $strtod("0x0p+0")               ; BTS_ctrl_cv[5].b2 @ 1504
         0000005f 0000 
     863 00000060 0000          .xfloat $strtod("0x0p+0")               ; BTS_ctrl_cv[5].a1 @ 1536
         00000061 0000 
     864 00000062 0000          .xfloat $strtod("0x0p+0")               ; BTS_ctrl_cv[5].a2 @ 1568
         00000063 0000 
     865 00000064 0000          .xfloat $strtod("0x0p+0")               ; BTS_ctrl_cv[5].x1 @ 1600
         00000065 0000 
     866 00000066 0000          .xfloat $strtod("0x0p+0")               ; BTS_ctrl_cv[5].x2 @ 1632
         00000067 0000 
     867 00000068 0000          .bits           0,32
         00000069 0000 
     868                                      ; BTS_ctrl_cv[5].sps @ 1664
     869 0000006a 0000          .bits           0,32
         0000006b 0000 
     870                                      ; BTS_ctrl_cv[5].css @ 1696
     871 0000006c 0000          .xfloat $strtod("0x1p+0")               ; BTS_ctrl_cv[6].b0 @ 1728
         0000006d 3F80 
     872 0000006e 0000          .xfloat $strtod("0x0p+0")               ; BTS_ctrl_cv[6].b1 @ 1760
         0000006f 0000 
     873 00000070 0000          .xfloat $strtod("0x0p+0")               ; BTS_ctrl_cv[6].b2 @ 1792
         00000071 0000 
     874 00000072 0000          .xfloat $strtod("0x0p+0")               ; BTS_ctrl_cv[6].a1 @ 1824
         00000073 0000 
     875 00000074 0000          .xfloat $strtod("0x0p+0")               ; BTS_ctrl_cv[6].a2 @ 1856
         00000075 0000 
     876 00000076 0000          .xfloat $strtod("0x0p+0")               ; BTS_ctrl_cv[6].x1 @ 1888
         00000077 0000 
     877 00000078 0000          .xfloat $strtod("0x0p+0")               ; BTS_ctrl_cv[6].x2 @ 1920
         00000079 0000 
     878 0000007a 0000          .bits           0,32
         0000007b 0000 
     879                                      ; BTS_ctrl_cv[6].sps @ 1952
     880 0000007c 0000          .bits           0,32
         0000007d 0000 
     881                                      ; BTS_ctrl_cv[6].css @ 1984
     882 0000007e 0000          .xfloat $strtod("0x1p+0")               ; BTS_ctrl_cv[7].b0 @ 2016
         0000007f 3F80 
     883 00000080 0000          .xfloat $strtod("0x0p+0")               ; BTS_ctrl_cv[7].b1 @ 2048
         00000081 0000 
     884 00000082 0000          .xfloat $strtod("0x0p+0")               ; BTS_ctrl_cv[7].b2 @ 2080
         00000083 0000 
     885 00000084 0000          .xfloat $strtod("0x0p+0")               ; BTS_ctrl_cv[7].a1 @ 2112
         00000085 0000 
     886 00000086 0000          .xfloat $strtod("0x0p+0")               ; BTS_ctrl_cv[7].a2 @ 2144
         00000087 0000 
     887 00000088 0000          .xfloat $strtod("0x0p+0")               ; BTS_ctrl_cv[7].x1 @ 2176
         00000089 0000 
TMS320C2000 Assembler PC v22.6.1 Tue Aug 13 19:46:08 2024

Copyright (c) 1996-2018 Texas Instruments Incorporated
bts.asm                                                              PAGE   21

     888 0000008a 0000          .xfloat $strtod("0x0p+0")               ; BTS_ctrl_cv[7].x2 @ 2208
         0000008b 0000 
     889 0000008c 0000          .bits           0,32
         0000008d 0000 
     890                                      ; BTS_ctrl_cv[7].sps @ 2240
     891 0000008e 0000          .bits           0,32
         0000008f 0000 
     892                                      ; BTS_ctrl_cv[7].css @ 2272
     893              
     894              $C$DW$82        .dwtag  DW_TAG_variable
     895                      .dwattr $C$DW$82, DW_AT_name("BTS_ctrl_cv")
     896                      .dwattr $C$DW$82, DW_AT_linkage_name("BTS_ctrl_cv")
     897                      .dwattr $C$DW$82, DW_AT_location[DW_OP_addr ||BTS_ctrl_cv||]
     898                      .dwattr $C$DW$82, DW_AT_type(*$C$DW$T$152)
     899                      .dwattr $C$DW$82, DW_AT_external
     900                      .dwattr $C$DW$82, DW_AT_decl_file("../bts.c")
     901                      .dwattr $C$DW$82, DW_AT_decl_line(0x28)
     902                      .dwattr $C$DW$82, DW_AT_decl_column(0x15)
     903              
     904                      .global ||BTS_userInputs||
     905 00000000       ||BTS_userInputs||:     .usect  ".bss:BTS_userInputs",256,0,1
     906              $C$DW$83        .dwtag  DW_TAG_variable
     907                      .dwattr $C$DW$83, DW_AT_name("BTS_userInputs")
     908                      .dwattr $C$DW$83, DW_AT_linkage_name("BTS_userInputs")
     909                      .dwattr $C$DW$83, DW_AT_location[DW_OP_addr ||BTS_userInputs||]
     910                      .dwattr $C$DW$83, DW_AT_type(*$C$DW$T$64)
     911                      .dwattr $C$DW$83, DW_AT_external
     912                      .dwattr $C$DW$83, DW_AT_decl_file("../bts.c")
     913                      .dwattr $C$DW$83, DW_AT_decl_line(0x20)
     914                      .dwattr $C$DW$83, DW_AT_decl_column(0x0f)
     915              
     916                      .global ||BTS_ctrlLoopVariables||
     917 00000000       ||BTS_ctrlLoopVariables||:      .usect  ".bss:BTS_ctrlLoopVariables",288,0,1
     918              $C$DW$84        .dwtag  DW_TAG_variable
     919                      .dwattr $C$DW$84, DW_AT_name("BTS_ctrlLoopVariables")
     920                      .dwattr $C$DW$84, DW_AT_linkage_name("BTS_ctrlLoopVariables")
     921                      .dwattr $C$DW$84, DW_AT_location[DW_OP_addr ||BTS_ctrlLoopVariables||]
     922                      .dwattr $C$DW$84, DW_AT_type(*$C$DW$T$71)
     923                      .dwattr $C$DW$84, DW_AT_external
     924                      .dwattr $C$DW$84, DW_AT_decl_file("../bts.c")
     925                      .dwattr $C$DW$84, DW_AT_decl_line(0x64)
     926                      .dwattr $C$DW$84, DW_AT_decl_column(0x16)
     927              
     928                      .global ||BTS_measValues||
     929 00000000       ||BTS_measValues||:     .usect  ".bss:BTS_measValues",656,0,1
     930              $C$DW$85        .dwtag  DW_TAG_variable
     931                      .dwattr $C$DW$85, DW_AT_name("BTS_measValues")
     932                      .dwattr $C$DW$85, DW_AT_linkage_name("BTS_measValues")
     933                      .dwattr $C$DW$85, DW_AT_location[DW_OP_addr ||BTS_measValues||]
     934                      .dwattr $C$DW$85, DW_AT_type(*$C$DW$T$78)
     935                      .dwattr $C$DW$85, DW_AT_external
     936                      .dwattr $C$DW$85, DW_AT_decl_file("../bts.c")
     937                      .dwattr $C$DW$85, DW_AT_decl_line(0x1e)
     938                      .dwattr $C$DW$85, DW_AT_decl_column(0x0f)
     939              
TMS320C2000 Assembler PC v22.6.1 Tue Aug 13 19:46:08 2024

Copyright (c) 1996-2018 Texas Instruments Incorporated
bts.asm                                                              PAGE   22

     940                      .global ||BTS_sfraData||
     941 00000080               .bss    ||BTS_sfraData||,1030,1,1
     942              $C$DW$86        .dwtag  DW_TAG_variable
     943                      .dwattr $C$DW$86, DW_AT_name("BTS_sfraData")
     944                      .dwattr $C$DW$86, DW_AT_linkage_name("BTS_sfraData")
     945                      .dwattr $C$DW$86, DW_AT_location[DW_OP_addr ||BTS_sfraData||]
     946                      .dwattr $C$DW$86, DW_AT_type(*$C$DW$T$82)
     947                      .dwattr $C$DW$86, DW_AT_external
     948                      .dwattr $C$DW$86, DW_AT_decl_file("../bts.c")
     949                      .dwattr $C$DW$86, DW_AT_decl_line(0x93)
     950                      .dwattr $C$DW$86, DW_AT_decl_column(0x15)
     951              
     952                      .sblock ".bss"
     953                      .sblock ".data"
     954              ;       C:\ti\ccs1271\ccs\tools\compiler\ti-cgt-c2000_22.6.1.LTS\bin\opt2000.exe C:\\Users\\lucas\\AppData\\L
     955              ;       C:\ti\ccs1271\ccs\tools\compiler\ti-cgt-c2000_22.6.1.LTS\bin\acia2000.exe -@C:\\Users\\lucas\\AppData
     956 00000000               .sect   "isrcodefuncs:retain"
     957                      .retain
     958                      .retainrefs
     959                      .global ||i2cBISR||
     960              
     961              $C$DW$87        .dwtag  DW_TAG_subprogram
     962                      .dwattr $C$DW$87, DW_AT_name("i2cBISR")
     963                      .dwattr $C$DW$87, DW_AT_low_pc(||i2cBISR||)
     964                      .dwattr $C$DW$87, DW_AT_high_pc(0x00)
     965                      .dwattr $C$DW$87, DW_AT_linkage_name("i2cBISR")
     966                      .dwattr $C$DW$87, DW_AT_external
     967                      .dwattr $C$DW$87, DW_AT_decl_file("../bts.c")
     968                      .dwattr $C$DW$87, DW_AT_decl_line(0x269)
     969                      .dwattr $C$DW$87, DW_AT_decl_column(0x12)
     970                      .dwattr $C$DW$87, DW_AT_TI_interrupt
     971                      .dwattr $C$DW$87, DW_AT_TI_max_frame_size(-16)
     972                      .dwpsn  file "../bts.c",line 618,column 1,is_stmt,address ||i2cBISR||,isa 0
     973              
     974                      .dwfde $C$DW$CIE, ||i2cBISR||
     975              
     976              ;***************************************************************
     977              ;* FNAME: i2cBISR                       FR SIZE:  14           *
     978              ;*                                                             *
     979              ;* FUNCTION ENVIRONMENT                                        *
     980              ;*                                                             *
     981              ;* FUNCTION PROPERTIES                                         *
     982              ;*                            0 Parameter,  0 Auto, 14 SOE     *
     983              ;***************************************************************
     984              
     985 00000000       ||i2cBISR||:
     986                      .dwcfi  cfa_offset, -2
     987                      .dwcfi  save_reg_to_mem, 26, 0
     988 00000000 761B          ASP       ; [CPU_ALU] 
     989 00000001 0005          PUSH      AR1H:AR0H             ; [CPU_ALU] 
     990                      .dwcfi  save_reg_to_mem, 5, 2
     991                      .dwcfi  save_reg_to_mem, 7, 3
     992                      .dwcfi  cfa_offset, -4
     993 00000002 ABBD          MOVL      *SP++,XT              ; [CPU_ALU] 
     994                      .dwcfi  save_reg_to_mem, 21, 4
TMS320C2000 Assembler PC v22.6.1 Tue Aug 13 19:46:08 2024

Copyright (c) 1996-2018 Texas Instruments Incorporated
bts.asm                                                              PAGE   23

     995                      .dwcfi  save_reg_to_mem, 22, 5
     996                      .dwcfi  cfa_offset, -6
     997 00000003 A8BD          MOVL      *SP++,XAR4            ; [CPU_ALU] 
     998                      .dwcfi  save_reg_to_mem, 12, 6
     999                      .dwcfi  save_reg_to_mem, 13, 7
    1000                      .dwcfi  cfa_offset, -8
    1001 00000004 A0BD          MOVL      *SP++,XAR5            ; [CPU_ALU] 
    1002                      .dwcfi  save_reg_to_mem, 14, 8
    1003                      .dwcfi  save_reg_to_mem, 15, 9
    1004                      .dwcfi  cfa_offset, -10
    1005 00000005 C2BD          MOVL      *SP++,XAR6            ; [CPU_ALU] 
    1006                      .dwcfi  save_reg_to_mem, 16, 10
    1007                      .dwcfi  save_reg_to_mem, 17, 11
    1008                      .dwcfi  cfa_offset, -12
    1009 00000006 C3BD          MOVL      *SP++,XAR7            ; [CPU_ALU] 
    1010                      .dwcfi  save_reg_to_mem, 18, 12
    1011                      .dwcfi  save_reg_to_mem, 19, 13
    1012                      .dwcfi  cfa_offset, -14
    1013 00000007 FFF0          PUSH      RB                    ; [CPU_FPU] 
    1014                      .dwcfi  save_reg_to_mem, 74, 16
    1015                      .dwcfi  cfa_offset, -16
    1016 00000008 E670          SAVE      RNDF32=1, RNDF64=1    ; [CPU_FPU] 
         00000009 0600 
    1017 0000000a FF69          SPM       0                     ; [CPU_ALU] 
    1018 0000000b 2942          CLRC      PAGE0,OVM             ; [CPU_ALU] 
    1019 0000000c 5616          CLRC      AMODE                 ; [CPU_ALU] 
    1020 0000000d 761F!         MOVW      DP,#||I2CB||          ; [CPU_ARAU] 
         0000000e 0000 
    1021                      .dwpsn  file "C:/ti/c2000/C2000Ware_DigitalPower_SDK_5_03_00_00/c2000ware/driverlib/f2837xd/driverlib
    1022 0000000f 8A00!         MOVL      XAR4,@$BLOCKED(||I2CB||) ; [CPU_ALU] |684| 
    1023 00000010 92D4          MOV       AL,*+XAR4[2]          ; [CPU_ALU] |684| 
    1024                      .dwpsn  file "../bts.c",line 621,column 4,is_stmt,isa 0
    1025 00000011 8F00!         MOVL      XAR4,#||I2CB||        ; [CPU_ARAU] |621| 
         00000012 0000 
    1026              $C$DW$88        .dwtag  DW_TAG_TI_branch
    1027                      .dwattr $C$DW$88, DW_AT_low_pc(0x00)
    1028                      .dwattr $C$DW$88, DW_AT_name("handleI2C_ErrorCondition")
    1029                      .dwattr $C$DW$88, DW_AT_TI_call
    1030              
    1031 00000013 7640!         LCR       #||handleI2C_ErrorCondition|| ; [CPU_ALU] |621| 
         00000014 0000 
    1032                      ; call occurs [#||handleI2C_ErrorCondition||] ; [] |621| 
    1033                      .dwpsn  file "C:\ti\c2000\C2000Ware_DigitalPower_SDK_5_03_00_00\c2000ware\driverlib\f2837xd\driverlib
    1034 00000015 9A80          MOVB      AL,#128               ; [CPU_ALU] |377| 
    1035 00000016 F4A9          MOV       *(0:0x0ce1),AL        ; [CPU_ALU] |377| 
         00000017 0CE1 
    1036 00000018 E562          RESTORE   ; [CPU_FPU] 
    1037 00000019 FFF1          POP       RB                    ; [CPU_FPU] 
    1038                      .dwcfi  cfa_offset, -14
    1039                      .dwcfi  restore_reg, 74
    1040 0000001a C5BE          MOVL      XAR7,*--SP            ; [CPU_ALU] 
    1041                      .dwcfi  cfa_offset, -12
    1042                      .dwcfi  restore_reg, 18
    1043 0000001b C4BE          MOVL      XAR6,*--SP            ; [CPU_ALU] 
    1044                      .dwcfi  cfa_offset, -10
TMS320C2000 Assembler PC v22.6.1 Tue Aug 13 19:46:08 2024

Copyright (c) 1996-2018 Texas Instruments Incorporated
bts.asm                                                              PAGE   24

    1045                      .dwcfi  restore_reg, 16
    1046 0000001c 83BE          MOVL      XAR5,*--SP            ; [CPU_ALU] 
    1047                      .dwcfi  cfa_offset, -8
    1048                      .dwcfi  restore_reg, 14
    1049 0000001d 8ABE          MOVL      XAR4,*--SP            ; [CPU_ALU] 
    1050                      .dwcfi  cfa_offset, -6
    1051                      .dwcfi  restore_reg, 12
    1052 0000001e 87BE          MOVL      XT,*--SP              ; [CPU_ALU] 
    1053                      .dwcfi  cfa_offset, -4
    1054                      .dwcfi  restore_reg, 22
    1055                      .dwcfi  restore_reg, 21
    1056 0000001f 0003          POP       AR1H:AR0H             ; [CPU_ALU] 
    1057                      .dwcfi  cfa_offset, -2
    1058                      .dwcfi  restore_reg, 5
    1059                      .dwcfi  restore_reg, 7
    1060 00000020 7617          NASP      ; [CPU_ALU] 
    1061              $C$DW$89        .dwtag  DW_TAG_TI_branch
    1062                      .dwattr $C$DW$89, DW_AT_low_pc(0x00)
    1063                      .dwattr $C$DW$89, DW_AT_TI_return
    1064              
    1065 00000021 7602          IRET      ; [CPU_ALU] 
    1066                      ; return occurs ; [] 
    1067                      .dwattr $C$DW$87, DW_AT_TI_end_file("../bts.c")
    1068                      .dwattr $C$DW$87, DW_AT_TI_end_line(0x270)
    1069                      .dwattr $C$DW$87, DW_AT_TI_end_column(0x01)
    1070                      .dwendentry
    1071                      .dwendtag $C$DW$87
    1072              
    1073 00000022               .sect   "isrcodefuncs:retain"
    1074                      .retain
    1075                      .retainrefs
    1076                      .global ||i2cBFIFOISR||
    1077              
    1078              $C$DW$90        .dwtag  DW_TAG_subprogram
    1079                      .dwattr $C$DW$90, DW_AT_name("i2cBFIFOISR")
    1080                      .dwattr $C$DW$90, DW_AT_low_pc(||i2cBFIFOISR||)
    1081                      .dwattr $C$DW$90, DW_AT_high_pc(0x00)
    1082                      .dwattr $C$DW$90, DW_AT_linkage_name("i2cBFIFOISR")
    1083                      .dwattr $C$DW$90, DW_AT_external
    1084                      .dwattr $C$DW$90, DW_AT_decl_file("../bts.c")
    1085                      .dwattr $C$DW$90, DW_AT_decl_line(0x277)
    1086                      .dwattr $C$DW$90, DW_AT_decl_column(0x12)
    1087                      .dwattr $C$DW$90, DW_AT_TI_interrupt
    1088                      .dwattr $C$DW$90, DW_AT_TI_max_frame_size(-18)
    1089                      .dwpsn  file "../bts.c",line 632,column 1,is_stmt,address ||i2cBFIFOISR||,isa 0
    1090              
    1091                      .dwfde $C$DW$CIE, ||i2cBFIFOISR||
    1092              
    1093              ;***************************************************************
    1094              ;* FNAME: i2cBFIFOISR                   FR SIZE:  16           *
    1095              ;*                                                             *
    1096              ;* FUNCTION ENVIRONMENT                                        *
    1097              ;*                                                             *
    1098              ;* FUNCTION PROPERTIES                                         *
    1099              ;*                            2 Parameter,  0 Auto, 14 SOE     *
TMS320C2000 Assembler PC v22.6.1 Tue Aug 13 19:46:08 2024

Copyright (c) 1996-2018 Texas Instruments Incorporated
bts.asm                                                              PAGE   25

    1100              ;***************************************************************
    1101              
    1102              ||i2cBFIFOISR||:
    1103              ;* AR4   assigned to $O$C1
    1104              ;* AL    assigned to MasterSlave
    1105              $C$DW$91        .dwtag  DW_TAG_variable
    1106                      .dwattr $C$DW$91, DW_AT_name("MasterSlave")
    1107                      .dwattr $C$DW$91, DW_AT_type(*$C$DW$T$26)
    1108                      .dwattr $C$DW$91, DW_AT_location[DW_OP_reg0]
    1109              
    1110                      .dwcfi  cfa_offset, -2
    1111                      .dwcfi  save_reg_to_mem, 26, 0
    1112 00000022 761B          ASP       ; [CPU_ALU] 
    1113 00000023 0005          PUSH      AR1H:AR0H             ; [CPU_ALU] 
    1114                      .dwcfi  save_reg_to_mem, 5, 2
    1115                      .dwcfi  save_reg_to_mem, 7, 3
    1116                      .dwcfi  cfa_offset, -4
    1117 00000024 ABBD          MOVL      *SP++,XT              ; [CPU_ALU] 
    1118                      .dwcfi  save_reg_to_mem, 21, 4
    1119                      .dwcfi  save_reg_to_mem, 22, 5
    1120                      .dwcfi  cfa_offset, -6
    1121 00000025 A8BD          MOVL      *SP++,XAR4            ; [CPU_ALU] 
    1122                      .dwcfi  save_reg_to_mem, 12, 6
    1123                      .dwcfi  save_reg_to_mem, 13, 7
    1124                      .dwcfi  cfa_offset, -8
    1125 00000026 A0BD          MOVL      *SP++,XAR5            ; [CPU_ALU] 
    1126                      .dwcfi  save_reg_to_mem, 14, 8
    1127                      .dwcfi  save_reg_to_mem, 15, 9
    1128                      .dwcfi  cfa_offset, -10
    1129 00000027 C2BD          MOVL      *SP++,XAR6            ; [CPU_ALU] 
    1130                      .dwcfi  save_reg_to_mem, 16, 10
    1131                      .dwcfi  save_reg_to_mem, 17, 11
    1132                      .dwcfi  cfa_offset, -12
    1133 00000028 C3BD          MOVL      *SP++,XAR7            ; [CPU_ALU] 
    1134                      .dwcfi  save_reg_to_mem, 18, 12
    1135                      .dwcfi  save_reg_to_mem, 19, 13
    1136                      .dwcfi  cfa_offset, -14
    1137 00000029 FFF0          PUSH      RB                    ; [CPU_FPU] 
    1138                      .dwcfi  save_reg_to_mem, 74, 16
    1139                      .dwcfi  cfa_offset, -16
    1140 0000002a E670          SAVE      RNDF32=1, RNDF64=1    ; [CPU_FPU] 
         0000002b 0600 
    1141 0000002c FE02          ADDB      SP,#2                 ; [CPU_ARAU] 
    1142                      .dwcfi  cfa_offset, -18
    1143 0000002d FF69          SPM       0                     ; [CPU_ALU] 
    1144 0000002e 2942          CLRC      PAGE0,OVM             ; [CPU_ALU] 
    1145 0000002f 5616          CLRC      AMODE                 ; [CPU_ALU] 
    1146                      .dwpsn  file "../bts.c",line 633,column 5,is_stmt,isa 0
    1147 00000030 8F00!         MOVL      XAR4,#||I2CB||        ; [CPU_ARAU] |633| 
         00000031 0000 
    1148              $C$DW$92        .dwtag  DW_TAG_TI_branch
    1149                      .dwattr $C$DW$92, DW_AT_low_pc(0x00)
    1150                      .dwattr $C$DW$92, DW_AT_name("Write_Read_TX_RX_FIFO")
    1151                      .dwattr $C$DW$92, DW_AT_TI_call
    1152              
TMS320C2000 Assembler PC v22.6.1 Tue Aug 13 19:46:08 2024

Copyright (c) 1996-2018 Texas Instruments Incorporated
bts.asm                                                              PAGE   26

    1153 00000032 7640!         LCR       #||Write_Read_TX_RX_FIFO|| ; [CPU_ALU] |633| 
         00000033 0000 
    1154                      ; call occurs [#||Write_Read_TX_RX_FIFO||] ; [] |633| 
    1155 00000034 761F!         MOVW      DP,#||I2CB||          ; [CPU_ARAU] 
         00000035 0000 
    1156                      .dwpsn  file "../bts.c",line 635,column 26,is_stmt,isa 0
    1157 00000036 8A00!         MOVL      XAR4,@$BLOCKED(||I2CB||) ; [CPU_ALU] |635| 
    1158 00000037 D009          MOVB      XAR0,#9               ; [CPU_ALU] |635| 
    1159 00000038 9294          MOV       AL,*+XAR4[AR0]        ; [CPU_ALU] |635| 
    1160                      .dwpsn  file "../bts.c",line 638,column 5,is_stmt,isa 0
    1161 00000039 49A9          TBIT      AL,#9                 ; [CPU_ALU] |638| 
    1162 0000003a 6C07          B         ||$C$L1||,NTC         ; [CPU_ALU] |638| 
    1163                      ; branchcc occurs ; [] |638| 
    1164                      .dwpsn  file "../bts.c",line 641,column 8,is_stmt,isa 0
    1165 0000003b 8F42          MOVL      XAR5,#131072          ; [CPU_ARAU] |641| 
         0000003c 0000 
    1166 0000003d A8A9          MOVL      ACC,XAR4              ; [CPU_ALU] |641| 
    1167 0000003e A042          MOVL      *-SP[2],XAR5          ; [CPU_ALU] |641| 
    1168              $C$DW$93        .dwtag  DW_TAG_TI_branch
    1169                      .dwattr $C$DW$93, DW_AT_low_pc(0x00)
    1170                      .dwattr $C$DW$93, DW_AT_name("I2C_disableInterrupt")
    1171                      .dwattr $C$DW$93, DW_AT_TI_call
    1172              
    1173 0000003f 7640!         LCR       #||I2C_disableInterrupt|| ; [CPU_ALU] |641| 
         00000040 0000 
    1174                      ; call occurs [#||I2C_disableInterrupt||] ; [] |641| 
    1175 00000041       ||$C$L1||:    
    1176                      .dwpsn  file "C:\ti\c2000\C2000Ware_DigitalPower_SDK_5_03_00_00\c2000ware\driverlib\f2837xd\driverlib
    1177 00000041 9A80          MOVB      AL,#128               ; [CPU_ALU] |377| 
    1178 00000042 F4A9          MOV       *(0:0x0ce1),AL        ; [CPU_ALU] |377| 
         00000043 0CE1 
    1179 00000044 FE82          SUBB      SP,#2                 ; [CPU_ARAU] 
    1180                      .dwcfi  cfa_offset, -16
    1181 00000045 E562          RESTORE   ; [CPU_FPU] 
    1182 00000046 FFF1          POP       RB                    ; [CPU_FPU] 
    1183                      .dwcfi  cfa_offset, -14
    1184                      .dwcfi  restore_reg, 74
    1185 00000047 C5BE          MOVL      XAR7,*--SP            ; [CPU_ALU] 
    1186                      .dwcfi  cfa_offset, -12
    1187                      .dwcfi  restore_reg, 18
    1188 00000048 C4BE          MOVL      XAR6,*--SP            ; [CPU_ALU] 
    1189                      .dwcfi  cfa_offset, -10
    1190                      .dwcfi  restore_reg, 16
    1191 00000049 83BE          MOVL      XAR5,*--SP            ; [CPU_ALU] 
    1192                      .dwcfi  cfa_offset, -8
    1193                      .dwcfi  restore_reg, 14
    1194 0000004a 8ABE          MOVL      XAR4,*--SP            ; [CPU_ALU] 
    1195                      .dwcfi  cfa_offset, -6
    1196                      .dwcfi  restore_reg, 12
    1197 0000004b 87BE          MOVL      XT,*--SP              ; [CPU_ALU] 
    1198                      .dwcfi  cfa_offset, -4
    1199                      .dwcfi  restore_reg, 22
    1200                      .dwcfi  restore_reg, 21
    1201 0000004c 0003          POP       AR1H:AR0H             ; [CPU_ALU] 
    1202                      .dwcfi  cfa_offset, -2
TMS320C2000 Assembler PC v22.6.1 Tue Aug 13 19:46:08 2024

Copyright (c) 1996-2018 Texas Instruments Incorporated
bts.asm                                                              PAGE   27

    1203                      .dwcfi  restore_reg, 5
    1204                      .dwcfi  restore_reg, 7
    1205 0000004d 7617          NASP      ; [CPU_ALU] 
    1206              $C$DW$94        .dwtag  DW_TAG_TI_branch
    1207                      .dwattr $C$DW$94, DW_AT_low_pc(0x00)
    1208                      .dwattr $C$DW$94, DW_AT_TI_return
    1209              
    1210 0000004e 7602          IRET      ; [CPU_ALU] 
    1211                      ; return occurs ; [] 
    1212                      .dwattr $C$DW$90, DW_AT_TI_end_file("../bts.c")
    1213                      .dwattr $C$DW$90, DW_AT_TI_end_line(0x28e)
    1214                      .dwattr $C$DW$90, DW_AT_TI_end_column(0x01)
    1215                      .dwendentry
    1216                      .dwendtag $C$DW$90
    1217              
    1218 0000004f               .sect   "isrcodefuncs:retain"
    1219                      .retain
    1220                      .retainrefs
    1221                      .global ||i2cAISR||
    1222              
    1223              $C$DW$95        .dwtag  DW_TAG_subprogram
    1224                      .dwattr $C$DW$95, DW_AT_name("i2cAISR")
    1225                      .dwattr $C$DW$95, DW_AT_low_pc(||i2cAISR||)
    1226                      .dwattr $C$DW$95, DW_AT_high_pc(0x00)
    1227                      .dwattr $C$DW$95, DW_AT_linkage_name("i2cAISR")
    1228                      .dwattr $C$DW$95, DW_AT_external
    1229                      .dwattr $C$DW$95, DW_AT_decl_file("../bts.c")
    1230                      .dwattr $C$DW$95, DW_AT_decl_line(0x295)
    1231                      .dwattr $C$DW$95, DW_AT_decl_column(0x12)
    1232                      .dwattr $C$DW$95, DW_AT_TI_interrupt
    1233                      .dwattr $C$DW$95, DW_AT_TI_max_frame_size(-16)
    1234                      .dwpsn  file "../bts.c",line 662,column 1,is_stmt,address ||i2cAISR||,isa 0
    1235              
    1236                      .dwfde $C$DW$CIE, ||i2cAISR||
    1237              
    1238              ;***************************************************************
    1239              ;* FNAME: i2cAISR                       FR SIZE:  14           *
    1240              ;*                                                             *
    1241              ;* FUNCTION ENVIRONMENT                                        *
    1242              ;*                                                             *
    1243              ;* FUNCTION PROPERTIES                                         *
    1244              ;*                            0 Parameter,  0 Auto, 14 SOE     *
    1245              ;***************************************************************
    1246              
    1247 0000004f       ||i2cAISR||:
    1248                      .dwcfi  cfa_offset, -2
    1249                      .dwcfi  save_reg_to_mem, 26, 0
    1250 0000004f 761B          ASP       ; [CPU_ALU] 
    1251 00000050 0005          PUSH      AR1H:AR0H             ; [CPU_ALU] 
    1252                      .dwcfi  save_reg_to_mem, 5, 2
    1253                      .dwcfi  save_reg_to_mem, 7, 3
    1254                      .dwcfi  cfa_offset, -4
    1255 00000051 ABBD          MOVL      *SP++,XT              ; [CPU_ALU] 
    1256                      .dwcfi  save_reg_to_mem, 21, 4
    1257                      .dwcfi  save_reg_to_mem, 22, 5
TMS320C2000 Assembler PC v22.6.1 Tue Aug 13 19:46:08 2024

Copyright (c) 1996-2018 Texas Instruments Incorporated
bts.asm                                                              PAGE   28

    1258                      .dwcfi  cfa_offset, -6
    1259 00000052 A8BD          MOVL      *SP++,XAR4            ; [CPU_ALU] 
    1260                      .dwcfi  save_reg_to_mem, 12, 6
    1261                      .dwcfi  save_reg_to_mem, 13, 7
    1262                      .dwcfi  cfa_offset, -8
    1263 00000053 A0BD          MOVL      *SP++,XAR5            ; [CPU_ALU] 
    1264                      .dwcfi  save_reg_to_mem, 14, 8
    1265                      .dwcfi  save_reg_to_mem, 15, 9
    1266                      .dwcfi  cfa_offset, -10
    1267 00000054 C2BD          MOVL      *SP++,XAR6            ; [CPU_ALU] 
    1268                      .dwcfi  save_reg_to_mem, 16, 10
    1269                      .dwcfi  save_reg_to_mem, 17, 11
    1270                      .dwcfi  cfa_offset, -12
    1271 00000055 C3BD          MOVL      *SP++,XAR7            ; [CPU_ALU] 
    1272                      .dwcfi  save_reg_to_mem, 18, 12
    1273                      .dwcfi  save_reg_to_mem, 19, 13
    1274                      .dwcfi  cfa_offset, -14
    1275 00000056 FFF0          PUSH      RB                    ; [CPU_FPU] 
    1276                      .dwcfi  save_reg_to_mem, 74, 16
    1277                      .dwcfi  cfa_offset, -16
    1278 00000057 E670          SAVE      RNDF32=1, RNDF64=1    ; [CPU_FPU] 
         00000058 0600 
    1279 00000059 FF69          SPM       0                     ; [CPU_ALU] 
    1280 0000005a 2942          CLRC      PAGE0,OVM             ; [CPU_ALU] 
    1281 0000005b 5616          CLRC      AMODE                 ; [CPU_ALU] 
    1282 0000005c 761F!         MOVW      DP,#||I2CA||          ; [CPU_ARAU] 
         0000005d 0000 
    1283                      .dwpsn  file "C:/ti/c2000/C2000Ware_DigitalPower_SDK_5_03_00_00/c2000ware/driverlib/f2837xd/driverlib
    1284 0000005e 8A00!         MOVL      XAR4,@$BLOCKED(||I2CA||) ; [CPU_ALU] |684| 
    1285 0000005f 92D4          MOV       AL,*+XAR4[2]          ; [CPU_ALU] |684| 
    1286                      .dwpsn  file "../bts.c",line 665,column 5,is_stmt,isa 0
    1287 00000060 8F00!         MOVL      XAR4,#||I2CA||        ; [CPU_ARAU] |665| 
         00000061 0000 
    1288              $C$DW$96        .dwtag  DW_TAG_TI_branch
    1289                      .dwattr $C$DW$96, DW_AT_low_pc(0x00)
    1290                      .dwattr $C$DW$96, DW_AT_name("handleI2C_ErrorCondition")
    1291                      .dwattr $C$DW$96, DW_AT_TI_call
    1292              
    1293 00000062 7640!         LCR       #||handleI2C_ErrorCondition|| ; [CPU_ALU] |665| 
         00000063 0000 
    1294                      ; call occurs [#||handleI2C_ErrorCondition||] ; [] |665| 
    1295                      .dwpsn  file "C:\ti\c2000\C2000Ware_DigitalPower_SDK_5_03_00_00\c2000ware\driverlib\f2837xd\driverlib
    1296 00000064 9A80          MOVB      AL,#128               ; [CPU_ALU] |377| 
    1297 00000065 F4A9          MOV       *(0:0x0ce1),AL        ; [CPU_ALU] |377| 
         00000066 0CE1 
    1298 00000067 E562          RESTORE   ; [CPU_FPU] 
    1299 00000068 FFF1          POP       RB                    ; [CPU_FPU] 
    1300                      .dwcfi  cfa_offset, -14
    1301                      .dwcfi  restore_reg, 74
    1302 00000069 C5BE          MOVL      XAR7,*--SP            ; [CPU_ALU] 
    1303                      .dwcfi  cfa_offset, -12
    1304                      .dwcfi  restore_reg, 18
    1305 0000006a C4BE          MOVL      XAR6,*--SP            ; [CPU_ALU] 
    1306                      .dwcfi  cfa_offset, -10
    1307                      .dwcfi  restore_reg, 16
TMS320C2000 Assembler PC v22.6.1 Tue Aug 13 19:46:08 2024

Copyright (c) 1996-2018 Texas Instruments Incorporated
bts.asm                                                              PAGE   29

    1308 0000006b 83BE          MOVL      XAR5,*--SP            ; [CPU_ALU] 
    1309                      .dwcfi  cfa_offset, -8
    1310                      .dwcfi  restore_reg, 14
    1311 0000006c 8ABE          MOVL      XAR4,*--SP            ; [CPU_ALU] 
    1312                      .dwcfi  cfa_offset, -6
    1313                      .dwcfi  restore_reg, 12
    1314 0000006d 87BE          MOVL      XT,*--SP              ; [CPU_ALU] 
    1315                      .dwcfi  cfa_offset, -4
    1316                      .dwcfi  restore_reg, 22
    1317                      .dwcfi  restore_reg, 21
    1318 0000006e 0003          POP       AR1H:AR0H             ; [CPU_ALU] 
    1319                      .dwcfi  cfa_offset, -2
    1320                      .dwcfi  restore_reg, 5
    1321                      .dwcfi  restore_reg, 7
    1322 0000006f 7617          NASP      ; [CPU_ALU] 
    1323              $C$DW$97        .dwtag  DW_TAG_TI_branch
    1324                      .dwattr $C$DW$97, DW_AT_low_pc(0x00)
    1325                      .dwattr $C$DW$97, DW_AT_TI_return
    1326              
    1327 00000070 7602          IRET      ; [CPU_ALU] 
    1328                      ; return occurs ; [] 
    1329                      .dwattr $C$DW$95, DW_AT_TI_end_file("../bts.c")
    1330                      .dwattr $C$DW$95, DW_AT_TI_end_line(0x29b)
    1331                      .dwattr $C$DW$95, DW_AT_TI_end_column(0x01)
    1332                      .dwendentry
    1333                      .dwendtag $C$DW$95
    1334              
    1335 00000071               .sect   "isrcodefuncs:retain"
    1336                      .retain
    1337                      .retainrefs
    1338                      .global ||i2cAFIFOISR||
    1339              
    1340              $C$DW$98        .dwtag  DW_TAG_subprogram
    1341                      .dwattr $C$DW$98, DW_AT_name("i2cAFIFOISR")
    1342                      .dwattr $C$DW$98, DW_AT_low_pc(||i2cAFIFOISR||)
    1343                      .dwattr $C$DW$98, DW_AT_high_pc(0x00)
    1344                      .dwattr $C$DW$98, DW_AT_linkage_name("i2cAFIFOISR")
    1345                      .dwattr $C$DW$98, DW_AT_external
    1346                      .dwattr $C$DW$98, DW_AT_decl_file("../bts.c")
    1347                      .dwattr $C$DW$98, DW_AT_decl_line(0x2a2)
    1348                      .dwattr $C$DW$98, DW_AT_decl_column(0x12)
    1349                      .dwattr $C$DW$98, DW_AT_TI_interrupt
    1350                      .dwattr $C$DW$98, DW_AT_TI_max_frame_size(-18)
    1351                      .dwpsn  file "../bts.c",line 675,column 1,is_stmt,address ||i2cAFIFOISR||,isa 0
    1352              
    1353                      .dwfde $C$DW$CIE, ||i2cAFIFOISR||
    1354              
    1355              ;***************************************************************
    1356              ;* FNAME: i2cAFIFOISR                   FR SIZE:  16           *
    1357              ;*                                                             *
    1358              ;* FUNCTION ENVIRONMENT                                        *
    1359              ;*                                                             *
    1360              ;* FUNCTION PROPERTIES                                         *
    1361              ;*                            2 Parameter,  0 Auto, 14 SOE     *
    1362              ;***************************************************************
TMS320C2000 Assembler PC v22.6.1 Tue Aug 13 19:46:08 2024

Copyright (c) 1996-2018 Texas Instruments Incorporated
bts.asm                                                              PAGE   30

    1363              
    1364              ||i2cAFIFOISR||:
    1365              ;* AR4   assigned to $O$C1
    1366              ;* AR4   assigned to $O$v2
    1367              ;* AR4   assigned to $O$v1
    1368              ;* AL    assigned to MasterSlave
    1369              $C$DW$99        .dwtag  DW_TAG_variable
    1370                      .dwattr $C$DW$99, DW_AT_name("MasterSlave")
    1371                      .dwattr $C$DW$99, DW_AT_type(*$C$DW$T$26)
    1372                      .dwattr $C$DW$99, DW_AT_location[DW_OP_reg0]
    1373              
    1374                      .dwcfi  cfa_offset, -2
    1375                      .dwcfi  save_reg_to_mem, 26, 0
    1376 00000071 761B          ASP       ; [CPU_ALU] 
    1377 00000072 0005          PUSH      AR1H:AR0H             ; [CPU_ALU] 
    1378                      .dwcfi  save_reg_to_mem, 5, 2
    1379                      .dwcfi  save_reg_to_mem, 7, 3
    1380                      .dwcfi  cfa_offset, -4
    1381 00000073 ABBD          MOVL      *SP++,XT              ; [CPU_ALU] 
    1382                      .dwcfi  save_reg_to_mem, 21, 4
    1383                      .dwcfi  save_reg_to_mem, 22, 5
    1384                      .dwcfi  cfa_offset, -6
    1385 00000074 A8BD          MOVL      *SP++,XAR4            ; [CPU_ALU] 
    1386                      .dwcfi  save_reg_to_mem, 12, 6
    1387                      .dwcfi  save_reg_to_mem, 13, 7
    1388                      .dwcfi  cfa_offset, -8
    1389 00000075 A0BD          MOVL      *SP++,XAR5            ; [CPU_ALU] 
    1390                      .dwcfi  save_reg_to_mem, 14, 8
    1391                      .dwcfi  save_reg_to_mem, 15, 9
    1392                      .dwcfi  cfa_offset, -10
    1393 00000076 C2BD          MOVL      *SP++,XAR6            ; [CPU_ALU] 
    1394                      .dwcfi  save_reg_to_mem, 16, 10
    1395                      .dwcfi  save_reg_to_mem, 17, 11
    1396                      .dwcfi  cfa_offset, -12
    1397 00000077 C3BD          MOVL      *SP++,XAR7            ; [CPU_ALU] 
    1398                      .dwcfi  save_reg_to_mem, 18, 12
    1399                      .dwcfi  save_reg_to_mem, 19, 13
    1400                      .dwcfi  cfa_offset, -14
    1401 00000078 FFF0          PUSH      RB                    ; [CPU_FPU] 
    1402                      .dwcfi  save_reg_to_mem, 74, 16
    1403                      .dwcfi  cfa_offset, -16
    1404 00000079 E670          SAVE      RNDF32=1, RNDF64=1    ; [CPU_FPU] 
         0000007a 0600 
    1405 0000007b FE02          ADDB      SP,#2                 ; [CPU_ARAU] 
    1406                      .dwcfi  cfa_offset, -18
    1407 0000007c FF69          SPM       0                     ; [CPU_ALU] 
    1408 0000007d 2942          CLRC      PAGE0,OVM             ; [CPU_ALU] 
    1409 0000007e 5616          CLRC      AMODE                 ; [CPU_ALU] 
    1410                      .dwpsn  file "../bts.c",line 676,column 5,is_stmt,isa 0
    1411 0000007f 8F00!         MOVL      XAR4,#||I2CA||        ; [CPU_ARAU] |676| 
         00000080 0000 
    1412              $C$DW$100       .dwtag  DW_TAG_TI_branch
    1413                      .dwattr $C$DW$100, DW_AT_low_pc(0x00)
    1414                      .dwattr $C$DW$100, DW_AT_name("Write_Read_TX_RX_FIFO")
    1415                      .dwattr $C$DW$100, DW_AT_TI_call
TMS320C2000 Assembler PC v22.6.1 Tue Aug 13 19:46:08 2024

Copyright (c) 1996-2018 Texas Instruments Incorporated
bts.asm                                                              PAGE   31

    1416              
    1417 00000081 7640!         LCR       #||Write_Read_TX_RX_FIFO|| ; [CPU_ALU] |676| 
         00000082 0000 
    1418                      ; call occurs [#||Write_Read_TX_RX_FIFO||] ; [] |676| 
    1419 00000083 761F!         MOVW      DP,#||I2CA||          ; [CPU_ARAU] 
         00000084 0000 
    1420                      .dwpsn  file "../bts.c",line 678,column 26,is_stmt,isa 0
    1421 00000085 8A00!         MOVL      XAR4,@$BLOCKED(||I2CA||) ; [CPU_ALU] |678| 
    1422 00000086 D009          MOVB      XAR0,#9               ; [CPU_ALU] |678| 
    1423 00000087 9294          MOV       AL,*+XAR4[AR0]        ; [CPU_ALU] |678| 
    1424                      .dwpsn  file "../bts.c",line 680,column 5,is_stmt,isa 0
    1425 00000088 4AA9          TBIT      AL,#10                ; [CPU_ALU] |680| 
    1426 00000089 6D58          B         ||$C$L4||,TC          ; [CPU_ALU] |680| 
    1427                      ; branchcc occurs ; [] |680| 
    1428                      .dwpsn  file "../bts.c",line 698,column 9,is_stmt,isa 0
    1429 0000008a 49A9          TBIT      AL,#9                 ; [CPU_ALU] |698| 
    1430 0000008b 6D37          B         ||$C$L3||,TC          ; [CPU_ALU] |698| 
    1431                      ; branchcc occurs ; [] |698| 
    1432 0000008c 761F!         MOVW      DP,#||I2CB||          ; [CPU_ARAU] 
         0000008d 0000 
    1433                      .dwpsn  file "../bts.c",line 712,column 12,is_stmt,isa 0
    1434 0000008e 8A00!         MOVL      XAR4,@$BLOCKED(||I2CB||) ; [CPU_ALU] |712| 
    1435 0000008f 88EC          MOVZ      AR6,*+XAR4[5]         ; [CPU_ALU] |712| 
    1436 00000090 0E06!         MOVU      ACC,@$BLOCKED(||I2CB||)+6 ; [CPU_ALU] |712| 
    1437 00000091 0FA6          CMPL      ACC,XAR6              ; [CPU_ALU] |712| 
    1438 00000092 6121          B         ||$C$L2||,EQ          ; [CPU_ALU] |712| 
    1439                      ; branchcc occurs ; [] |712| 
    1440                      .dwpsn  file "../bts.c",line 726,column 16,is_stmt,isa 0
    1441 00000093 8F42          MOVL      XAR5,#131072          ; [CPU_ARAU] |726| 
         00000094 0000 
    1442 00000095 A8A9          MOVL      ACC,XAR4              ; [CPU_ALU] |726| 
    1443 00000096 A042          MOVL      *-SP[2],XAR5          ; [CPU_ALU] |726| 
    1444              $C$DW$101       .dwtag  DW_TAG_TI_branch
    1445                      .dwattr $C$DW$101, DW_AT_low_pc(0x00)
    1446                      .dwattr $C$DW$101, DW_AT_name("I2C_enableInterrupt")
    1447                      .dwattr $C$DW$101, DW_AT_TI_call
    1448              
    1449 00000097 7640!         LCR       #||I2C_enableInterrupt|| ; [CPU_ALU] |726| 
         00000098 0000 
    1450                      ; call occurs [#||I2C_enableInterrupt||] ; [] |726| 
    1451 00000099 761F!         MOVW      DP,#||I2CB||          ; [CPU_ARAU] 
         0000009a 0000 
    1452                      .dwpsn  file "../bts.c",line 727,column 16,is_stmt,isa 0
    1453 0000009b 8F01          MOVL      XAR4,#65536           ; [CPU_ARAU] |727| 
         0000009c 0000 
    1454 0000009d A842          MOVL      *-SP[2],XAR4          ; [CPU_ALU] |727| 
    1455 0000009e 0600!         MOVL      ACC,@$BLOCKED(||I2CB||) ; [CPU_ALU] |727| 
    1456              $C$DW$102       .dwtag  DW_TAG_TI_branch
    1457                      .dwattr $C$DW$102, DW_AT_low_pc(0x00)
    1458                      .dwattr $C$DW$102, DW_AT_name("I2C_disableInterrupt")
    1459                      .dwattr $C$DW$102, DW_AT_TI_call
    1460              
    1461 0000009f 7640!         LCR       #||I2C_disableInterrupt|| ; [CPU_ALU] |727| 
         000000a0 0000 
    1462                      ; call occurs [#||I2C_disableInterrupt||] ; [] |727| 
TMS320C2000 Assembler PC v22.6.1 Tue Aug 13 19:46:08 2024

Copyright (c) 1996-2018 Texas Instruments Incorporated
bts.asm                                                              PAGE   32

    1463 000000a1 761F!         MOVW      DP,#||I2CB||          ; [CPU_ARAU] 
         000000a2 0000 
    1464                      .dwpsn  file "../bts.c",line 728,column 16,is_stmt,isa 0
    1465 000000a3 8F03          MOVL      XAR4,#196608          ; [CPU_ARAU] |728| 
         000000a4 0000 
    1466 000000a5 A842          MOVL      *-SP[2],XAR4          ; [CPU_ALU] |728| 
    1467 000000a6 0600!         MOVL      ACC,@$BLOCKED(||I2CB||) ; [CPU_ALU] |728| 
    1468              $C$DW$103       .dwtag  DW_TAG_TI_branch
    1469                      .dwattr $C$DW$103, DW_AT_low_pc(0x00)
    1470                      .dwattr $C$DW$103, DW_AT_name("I2C_clearInterruptStatus")
    1471                      .dwattr $C$DW$103, DW_AT_TI_call
    1472              
    1473 000000a7 7640!         LCR       #||I2C_clearInterruptStatus|| ; [CPU_ALU] |728| 
         000000a8 0000 
    1474                      ; call occurs [#||I2C_clearInterruptStatus||] ; [] |728| 
    1475 000000a9 761F!         MOVW      DP,#||I2CA||+10       ; [CPU_ARAU] 
         000000aa 0000 
    1476                      .dwpsn  file "../bts.c",line 729,column 16,is_stmt,isa 0
    1477 000000ab 060A!         MOVL      ACC,@$BLOCKED(||I2CA||)+10 ; [CPU_ALU] |729| 
    1478 000000ac 604E          B         ||$C$L7||,NEQ         ; [CPU_ALU] |729| 
    1479                      ; branchcc occurs ; [] |729| 
    1480                      .dwpsn  file "../bts.c",line 732,column 20,is_stmt,isa 0
    1481 000000ad BE00          MOVB      XAR6,#0               ; [CPU_ALU] |732| 
    1482                      .dwpsn  file "../bts.c",line 731,column 20,is_stmt,isa 0
    1483 000000ae 0604!         MOVL      ACC,@$BLOCKED(||I2CA||)+4 ; [CPU_ALU] |731| 
    1484 000000af 91FF          ANDB      AH,#255               ; [CPU_ALU] |731| 
    1485 000000b0 1E0A!         MOVL      @$BLOCKED(||I2CA||)+10,ACC ; [CPU_ALU] |731| 
    1486                      .dwpsn  file "../bts.c",line 732,column 20,is_stmt,isa 0
    1487 000000b1 C208!         MOVL      @$BLOCKED(||I2CA||)+8,XAR6 ; [CPU_ALU] |732| 
    1488 000000b2 6F48          B         ||$C$L7||,UNC         ; [CPU_ALU] |732| 
    1489                      ; branch occurs ; [] |732| 
    1490 000000b3       ||$C$L2||:    
    1491                      .dwpsn  file "../bts.c",line 716,column 16,is_stmt,isa 0
    1492 000000b3 0204          MOVB      ACC,#4                ; [CPU_ALU] |716| 
    1493 000000b4 1E42          MOVL      *-SP[2],ACC           ; [CPU_ALU] |716| 
    1494 000000b5 A8A9          MOVL      ACC,XAR4              ; [CPU_ALU] |716| 
    1495              $C$DW$104       .dwtag  DW_TAG_TI_branch
    1496                      .dwattr $C$DW$104, DW_AT_low_pc(0x00)
    1497                      .dwattr $C$DW$104, DW_AT_name("I2C_enableInterrupt")
    1498                      .dwattr $C$DW$104, DW_AT_TI_call
    1499              
    1500 000000b6 7640!         LCR       #||I2C_enableInterrupt|| ; [CPU_ALU] |716| 
         000000b7 0000 
    1501                      ; call occurs [#||I2C_enableInterrupt||] ; [] |716| 
    1502 000000b8 761F!         MOVW      DP,#||I2CA||+8        ; [CPU_ARAU] 
         000000b9 0000 
    1503                      .dwpsn  file "../bts.c",line 717,column 16,is_stmt,isa 0
    1504 000000ba 0608!         MOVL      ACC,@$BLOCKED(||I2CA||)+8 ; [CPU_ALU] |717| 
    1505 000000bb 603F          B         ||$C$L7||,NEQ         ; [CPU_ALU] |717| 
    1506                      ; branchcc occurs ; [] |717| 
    1507                      .dwpsn  file "../bts.c",line 720,column 21,is_stmt,isa 0
    1508 000000bc BE00          MOVB      XAR6,#0               ; [CPU_ALU] |720| 
    1509                      .dwpsn  file "../bts.c",line 719,column 21,is_stmt,isa 0
    1510 000000bd 0604!         MOVL      ACC,@$BLOCKED(||I2CA||)+4 ; [CPU_ALU] |719| 
    1511 000000be 91FF          ANDB      AH,#255               ; [CPU_ALU] |719| 
TMS320C2000 Assembler PC v22.6.1 Tue Aug 13 19:46:08 2024

Copyright (c) 1996-2018 Texas Instruments Incorporated
bts.asm                                                              PAGE   33

    1512 000000bf 1E08!         MOVL      @$BLOCKED(||I2CA||)+8,ACC ; [CPU_ALU] |719| 
    1513                      .dwpsn  file "../bts.c",line 720,column 21,is_stmt,isa 0
    1514 000000c0 C20A!         MOVL      @$BLOCKED(||I2CA||)+10,XAR6 ; [CPU_ALU] |720| 
    1515 000000c1 6F39          B         ||$C$L7||,UNC         ; [CPU_ALU] |720| 
    1516                      ; branch occurs ; [] |720| 
    1517 000000c2       ||$C$L3||:    
    1518 000000c2 761F!         MOVW      DP,#||I2CB||          ; [CPU_ARAU] 
         000000c3 0000 
    1519                      .dwpsn  file "../bts.c",line 703,column 13,is_stmt,isa 0
    1520 000000c4 8F01          MOVL      XAR4,#65536           ; [CPU_ARAU] |703| 
         000000c5 0000 
    1521 000000c6 0600!         MOVL      ACC,@$BLOCKED(||I2CB||) ; [CPU_ALU] |703| 
    1522 000000c7 A842          MOVL      *-SP[2],XAR4          ; [CPU_ALU] |703| 
    1523              $C$DW$105       .dwtag  DW_TAG_TI_branch
    1524                      .dwattr $C$DW$105, DW_AT_low_pc(0x00)
    1525                      .dwattr $C$DW$105, DW_AT_name("I2C_enableInterrupt")
    1526                      .dwattr $C$DW$105, DW_AT_TI_call
    1527              
    1528 000000c8 7640!         LCR       #||I2C_enableInterrupt|| ; [CPU_ALU] |703| 
         000000c9 0000 
    1529                      ; call occurs [#||I2C_enableInterrupt||] ; [] |703| 
    1530 000000ca 761F!         MOVW      DP,#||I2CB||          ; [CPU_ARAU] 
         000000cb 0000 
    1531                      .dwpsn  file "../bts.c",line 704,column 13,is_stmt,isa 0
    1532 000000cc 8F02          MOVL      XAR4,#131072          ; [CPU_ARAU] |704| 
         000000cd 0000 
    1533 000000ce A842          MOVL      *-SP[2],XAR4          ; [CPU_ALU] |704| 
    1534 000000cf 0600!         MOVL      ACC,@$BLOCKED(||I2CB||) ; [CPU_ALU] |704| 
    1535              $C$DW$106       .dwtag  DW_TAG_TI_branch
    1536                      .dwattr $C$DW$106, DW_AT_low_pc(0x00)
    1537                      .dwattr $C$DW$106, DW_AT_name("I2C_disableInterrupt")
    1538                      .dwattr $C$DW$106, DW_AT_TI_call
    1539              
    1540 000000d0 7640!         LCR       #||I2C_disableInterrupt|| ; [CPU_ALU] |704| 
         000000d1 0000 
    1541                      ; call occurs [#||I2C_disableInterrupt||] ; [] |704| 
    1542 000000d2 761F!         MOVW      DP,#||I2CB||          ; [CPU_ARAU] 
         000000d3 0000 
    1543                      .dwpsn  file "../bts.c",line 705,column 13,is_stmt,isa 0
    1544 000000d4 8F01          MOVL      XAR4,#65536           ; [CPU_ARAU] |705| 
         000000d5 0000 
    1545 000000d6 A842          MOVL      *-SP[2],XAR4          ; [CPU_ALU] |705| 
    1546 000000d7 0600!         MOVL      ACC,@$BLOCKED(||I2CB||) ; [CPU_ALU] |705| 
    1547              $C$DW$107       .dwtag  DW_TAG_TI_branch
    1548                      .dwattr $C$DW$107, DW_AT_low_pc(0x00)
    1549                      .dwattr $C$DW$107, DW_AT_name("I2C_clearInterruptStatus")
    1550                      .dwattr $C$DW$107, DW_AT_TI_call
    1551              
    1552 000000d8 7640!         LCR       #||I2C_clearInterruptStatus|| ; [CPU_ALU] |705| 
         000000d9 0000 
    1553                      ; call occurs [#||I2C_clearInterruptStatus||] ; [] |705| 
    1554 000000da 761F!         MOVW      DP,#||I2CA||          ; [CPU_ARAU] 
         000000db 0000 
    1555                      .dwpsn  file "../bts.c",line 707,column 13,is_stmt,isa 0
    1556 000000dc 8F02          MOVL      XAR4,#131072          ; [CPU_ARAU] |707| 
TMS320C2000 Assembler PC v22.6.1 Tue Aug 13 19:46:08 2024

Copyright (c) 1996-2018 Texas Instruments Incorporated
bts.asm                                                              PAGE   34

         000000dd 0000 
    1557 000000de A842          MOVL      *-SP[2],XAR4          ; [CPU_ALU] |707| 
    1558 000000df 0600!         MOVL      ACC,@$BLOCKED(||I2CA||) ; [CPU_ALU] |707| 
    1559 000000e0 6F18          B         ||$C$L6||,UNC         ; [CPU_ALU] 
    1560                      ; branch occurs ; [] 
    1561 000000e1       ||$C$L4||:    
    1562                      .dwpsn  file "../bts.c",line 683,column 9,is_stmt,isa 0
    1563 000000e1 49A9          TBIT      AL,#9                 ; [CPU_ALU] |683| 
    1564 000000e2 6D12          B         ||$C$L5||,TC          ; [CPU_ALU] |683| 
    1565                      ; branchcc occurs ; [] |683| 
    1566 000000e3 761F!         MOVW      DP,#||I2CB||          ; [CPU_ARAU] 
         000000e4 0000 
    1567                      .dwpsn  file "../bts.c",line 691,column 11,is_stmt,isa 0
    1568 000000e5 8F02          MOVL      XAR4,#131072          ; [CPU_ARAU] |691| 
         000000e6 0000 
    1569 000000e7 0600!         MOVL      ACC,@$BLOCKED(||I2CB||) ; [CPU_ALU] |691| 
    1570 000000e8 A842          MOVL      *-SP[2],XAR4          ; [CPU_ALU] |691| 
    1571              $C$DW$108       .dwtag  DW_TAG_TI_branch
    1572                      .dwattr $C$DW$108, DW_AT_low_pc(0x00)
    1573                      .dwattr $C$DW$108, DW_AT_name("I2C_enableInterrupt")
    1574                      .dwattr $C$DW$108, DW_AT_TI_call
    1575              
    1576 000000e9 7640!         LCR       #||I2C_enableInterrupt|| ; [CPU_ALU] |691| 
         000000ea 0000 
    1577                      ; call occurs [#||I2C_enableInterrupt||] ; [] |691| 
    1578 000000eb 761F!         MOVW      DP,#||I2CB||          ; [CPU_ARAU] 
         000000ec 0000 
    1579                      .dwpsn  file "../bts.c",line 692,column 11,is_stmt,isa 0
    1580 000000ed 8F02          MOVL      XAR4,#131072          ; [CPU_ARAU] |692| 
         000000ee 0000 
    1581 000000ef A842          MOVL      *-SP[2],XAR4          ; [CPU_ALU] |692| 
    1582 000000f0 0600!         MOVL      ACC,@$BLOCKED(||I2CB||) ; [CPU_ALU] |692| 
    1583              $C$DW$109       .dwtag  DW_TAG_TI_branch
    1584                      .dwattr $C$DW$109, DW_AT_low_pc(0x00)
    1585                      .dwattr $C$DW$109, DW_AT_name("I2C_clearInterruptStatus")
    1586                      .dwattr $C$DW$109, DW_AT_TI_call
    1587              
    1588 000000f1 7640!         LCR       #||I2C_clearInterruptStatus|| ; [CPU_ALU] |692| 
         000000f2 0000 
    1589                      ; call occurs [#||I2C_clearInterruptStatus||] ; [] |692| 
    1590 000000f3 6F07          B         ||$C$L7||,UNC         ; [CPU_ALU] |692| 
    1591                      ; branch occurs ; [] |692| 
    1592 000000f4       ||$C$L5||:    
    1593                      .dwpsn  file "../bts.c",line 686,column 11,is_stmt,isa 0
    1594 000000f4 8F42          MOVL      XAR5,#131072          ; [CPU_ARAU] |686| 
         000000f5 0000 
    1595 000000f6 A8A9          MOVL      ACC,XAR4              ; [CPU_ALU] |686| 
    1596 000000f7 A042          MOVL      *-SP[2],XAR5          ; [CPU_ALU] |686| 
    1597              ||$C$L6||:    
    1598              $C$DW$110       .dwtag  DW_TAG_TI_branch
    1599                      .dwattr $C$DW$110, DW_AT_low_pc(0x00)
    1600                      .dwattr $C$DW$110, DW_AT_name("I2C_disableInterrupt")
    1601                      .dwattr $C$DW$110, DW_AT_TI_call
    1602              
    1603 000000f8 7640!         LCR       #||I2C_disableInterrupt|| ; [CPU_ALU] |686| 
TMS320C2000 Assembler PC v22.6.1 Tue Aug 13 19:46:08 2024

Copyright (c) 1996-2018 Texas Instruments Incorporated
bts.asm                                                              PAGE   35

         000000f9 0000 
    1604                      ; call occurs [#||I2C_disableInterrupt||] ; [] |686| 
    1605 000000fa       ||$C$L7||:    
    1606                      .dwpsn  file "C:\ti\c2000\C2000Ware_DigitalPower_SDK_5_03_00_00\c2000ware\driverlib\f2837xd\driverlib
    1607 000000fa 9A80          MOVB      AL,#128               ; [CPU_ALU] |377| 
    1608 000000fb F4A9          MOV       *(0:0x0ce1),AL        ; [CPU_ALU] |377| 
         000000fc 0CE1 
    1609 000000fd FE82          SUBB      SP,#2                 ; [CPU_ARAU] 
    1610                      .dwcfi  cfa_offset, -16
    1611 000000fe E562          RESTORE   ; [CPU_FPU] 
    1612 000000ff FFF1          POP       RB                    ; [CPU_FPU] 
    1613                      .dwcfi  cfa_offset, -14
    1614                      .dwcfi  restore_reg, 74
    1615 00000100 C5BE          MOVL      XAR7,*--SP            ; [CPU_ALU] 
    1616                      .dwcfi  cfa_offset, -12
    1617                      .dwcfi  restore_reg, 18
    1618 00000101 C4BE          MOVL      XAR6,*--SP            ; [CPU_ALU] 
    1619                      .dwcfi  cfa_offset, -10
    1620                      .dwcfi  restore_reg, 16
    1621 00000102 83BE          MOVL      XAR5,*--SP            ; [CPU_ALU] 
    1622                      .dwcfi  cfa_offset, -8
    1623                      .dwcfi  restore_reg, 14
    1624 00000103 8ABE          MOVL      XAR4,*--SP            ; [CPU_ALU] 
    1625                      .dwcfi  cfa_offset, -6
    1626                      .dwcfi  restore_reg, 12
    1627 00000104 87BE          MOVL      XT,*--SP              ; [CPU_ALU] 
    1628                      .dwcfi  cfa_offset, -4
    1629                      .dwcfi  restore_reg, 22
    1630                      .dwcfi  restore_reg, 21
    1631 00000105 0003          POP       AR1H:AR0H             ; [CPU_ALU] 
    1632                      .dwcfi  cfa_offset, -2
    1633                      .dwcfi  restore_reg, 5
    1634                      .dwcfi  restore_reg, 7
    1635 00000106 7617          NASP      ; [CPU_ALU] 
    1636              $C$DW$111       .dwtag  DW_TAG_TI_branch
    1637                      .dwattr $C$DW$111, DW_AT_low_pc(0x00)
    1638                      .dwattr $C$DW$111, DW_AT_TI_return
    1639              
    1640 00000107 7602          IRET      ; [CPU_ALU] 
    1641                      ; return occurs ; [] 
    1642                      .dwattr $C$DW$98, DW_AT_TI_end_file("../bts.c")
    1643                      .dwattr $C$DW$98, DW_AT_TI_end_line(0x2e3)
    1644                      .dwattr $C$DW$98, DW_AT_TI_end_column(0x01)
    1645                      .dwendentry
    1646                      .dwendtag $C$DW$98
    1647              
    1648 00000000               .sect   ".text:__signbitl"
    1649                      .clink
    1650                      .global ||__signbitl||
    1651              
    1652              $C$DW$112       .dwtag  DW_TAG_subprogram
    1653                      .dwattr $C$DW$112, DW_AT_name("__signbitl")
    1654                      .dwattr $C$DW$112, DW_AT_low_pc(||__signbitl||)
    1655                      .dwattr $C$DW$112, DW_AT_high_pc(0x00)
    1656                      .dwattr $C$DW$112, DW_AT_linkage_name("__signbitl")
TMS320C2000 Assembler PC v22.6.1 Tue Aug 13 19:46:08 2024

Copyright (c) 1996-2018 Texas Instruments Incorporated
bts.asm                                                              PAGE   36

    1657                      .dwattr $C$DW$112, DW_AT_external
    1658                      .dwattr $C$DW$112, DW_AT_type(*$C$DW$T$10)
    1659                      .dwattr $C$DW$112, DW_AT_decl_file("C:/ti/ccs1271/ccs/tools/compiler/ti-cgt-c2000_22.6.1.LTS/include/
    1660                      .dwattr $C$DW$112, DW_AT_decl_line(0x16f)
    1661                      .dwattr $C$DW$112, DW_AT_decl_column(0x18)
    1662                      .dwattr $C$DW$112, DW_AT_TI_max_frame_size(-6)
    1663                      .dwpsn  file "C:/ti/ccs1271/ccs/tools/compiler/ti-cgt-c2000_22.6.1.LTS/include/_defs.h",line 368,colu
    1664              
    1665                      .dwfde $C$DW$CIE, ||__signbitl||
    1666              $C$DW$113       .dwtag  DW_TAG_formal_parameter
    1667                      .dwattr $C$DW$113, DW_AT_name("e")
    1668                      .dwattr $C$DW$113, DW_AT_type(*$C$DW$T$147)
    1669                      .dwattr $C$DW$113, DW_AT_location[DW_OP_reg12]
    1670              
    1671              
    1672              ;***************************************************************
    1673              ;* FNAME: __signbitl                    FR SIZE:   4           *
    1674              ;*                                                             *
    1675              ;* FUNCTION ENVIRONMENT                                        *
    1676              ;*                                                             *
    1677              ;* FUNCTION PROPERTIES                                         *
    1678              ;*                            4 Parameter,  0 Auto,  0 SOE     *
    1679              ;***************************************************************
    1680              
    1681              ||__signbitl||:
    1682              ;* AR4   assigned to e
    1683              $C$DW$114       .dwtag  DW_TAG_variable
    1684                      .dwattr $C$DW$114, DW_AT_name("e")
    1685                      .dwattr $C$DW$114, DW_AT_type(*$C$DW$T$148)
    1686                      .dwattr $C$DW$114, DW_AT_location[DW_OP_reg12]
    1687              
    1688                      .dwcfi  cfa_offset, -2
    1689                      .dwcfi  save_reg_to_mem, 26, 0
    1690 00000000 FE04          ADDB      SP,#4                 ; [CPU_ARAU] 
    1691                      .dwcfi  cfa_offset, -6
    1692                      .dwpsn  file "C:/ti/ccs1271/ccs/tools/compiler/ti-cgt-c2000_22.6.1.LTS/include/_defs.h",line 368,colu
    1693 00000001 0200          MOVB      ACC,#0                ; [CPU_ALU] |368| 
    1694 00000002 1E44          MOVL      *-SP[4],ACC           ; [CPU_ALU] |368| 
    1695 00000003 2B42          MOV       *-SP[2],#0            ; [CPU_ALU] |368| 
    1696 00000004 2B41          MOV       *-SP[1],#0            ; [CPU_ALU] |368| 
    1697 00000005 A3C4          MOVL      P,*+XAR4[0]           ; [CPU_ALU] |368| 
    1698 00000006 06D4          MOVL      ACC,*+XAR4[2]         ; [CPU_ALU] |368| 
    1699 00000007 18AB          AND       PL,#0                 ; [CPU_ALU] |368| 
         00000008 0000 
    1700 00000009 18AA          AND       PH,#0                 ; [CPU_ALU] |368| 
         0000000a 0000 
    1701 0000000b 9000          ANDB      AL,#0                 ; [CPU_ALU] |368| 
    1702 0000000c 18A8          AND       AH,#32768             ; [CPU_ALU] |368| 
         0000000d 8000 
    1703              $C$DW$115       .dwtag  DW_TAG_TI_branch
    1704                      .dwattr $C$DW$115, DW_AT_low_pc(0x00)
    1705                      .dwattr $C$DW$115, DW_AT_name("__c28xabi_cmpull")
    1706                      .dwattr $C$DW$115, DW_AT_TI_call
    1707              
    1708 0000000e 7640!         LCR       #||__c28xabi_cmpull|| ; [CPU_ALU] |368| 
TMS320C2000 Assembler PC v22.6.1 Tue Aug 13 19:46:08 2024

Copyright (c) 1996-2018 Texas Instruments Incorporated
bts.asm                                                              PAGE   37

         0000000f 0000 
    1709                      ; call occurs [#||__c28xabi_cmpull||] ; [] |368| 
    1710 00000010 9B00          MOVB      AH,#0                 ; [CPU_ALU] |368| 
    1711 00000011 5200          CMPB      AL,#0                 ; [CPU_ALU] |368| 
    1712 00000012 56B0          MOVB      AH,#1,NEQ             ; [CPU_ALU] |368| 
         00000013 01A8 
    1713 00000014 92A8          MOV       AL,AH                 ; [CPU_ALU] |368| 
    1714 00000015 FE84          SUBB      SP,#4                 ; [CPU_ARAU] 
    1715                      .dwcfi  cfa_offset, -2
    1716              $C$DW$116       .dwtag  DW_TAG_TI_branch
    1717                      .dwattr $C$DW$116, DW_AT_low_pc(0x00)
    1718                      .dwattr $C$DW$116, DW_AT_TI_return
    1719              
    1720 00000016 0006          LRETR     ; [CPU_ALU] 
    1721                      ; return occurs ; [] 
    1722                      .dwattr $C$DW$112, DW_AT_TI_end_file("C:/ti/ccs1271/ccs/tools/compiler/ti-cgt-c2000_22.6.1.LTS/includ
    1723                      .dwattr $C$DW$112, DW_AT_TI_end_line(0x170)
    1724                      .dwattr $C$DW$112, DW_AT_TI_end_column(0x2b)
    1725                      .dwendentry
    1726                      .dwendtag $C$DW$112
    1727              
    1728 00000000               .sect   ".text:__signbitf"
    1729                      .clink
    1730                      .global ||__signbitf||
    1731              
    1732              $C$DW$117       .dwtag  DW_TAG_subprogram
    1733                      .dwattr $C$DW$117, DW_AT_name("__signbitf")
    1734                      .dwattr $C$DW$117, DW_AT_low_pc(||__signbitf||)
    1735                      .dwattr $C$DW$117, DW_AT_high_pc(0x00)
    1736                      .dwattr $C$DW$117, DW_AT_linkage_name("__signbitf")
    1737                      .dwattr $C$DW$117, DW_AT_external
    1738                      .dwattr $C$DW$117, DW_AT_type(*$C$DW$T$10)
    1739                      .dwattr $C$DW$117, DW_AT_decl_file("C:/ti/ccs1271/ccs/tools/compiler/ti-cgt-c2000_22.6.1.LTS/include/
    1740                      .dwattr $C$DW$117, DW_AT_decl_line(0x16d)
    1741                      .dwattr $C$DW$117, DW_AT_decl_column(0x18)
    1742                      .dwattr $C$DW$117, DW_AT_TI_max_frame_size(-2)
    1743                      .dwpsn  file "C:/ti/ccs1271/ccs/tools/compiler/ti-cgt-c2000_22.6.1.LTS/include/_defs.h",line 366,colu
    1744              
    1745                      .dwfde $C$DW$CIE, ||__signbitf||
    1746              $C$DW$118       .dwtag  DW_TAG_formal_parameter
    1747                      .dwattr $C$DW$118, DW_AT_name("f")
    1748                      .dwattr $C$DW$118, DW_AT_type(*$C$DW$T$16)
    1749                      .dwattr $C$DW$118, DW_AT_location[DW_OP_regx 0x2b]
    1750              
    1751              
    1752              ;***************************************************************
    1753              ;* FNAME: __signbitf                    FR SIZE:   0           *
    1754              ;*                                                             *
    1755              ;* FUNCTION ENVIRONMENT                                        *
    1756              ;*                                                             *
    1757              ;* FUNCTION PROPERTIES                                         *
    1758              ;*                            0 Parameter,  0 Auto,  0 SOE     *
    1759              ;***************************************************************
    1760              
    1761              ||__signbitf||:
TMS320C2000 Assembler PC v22.6.1 Tue Aug 13 19:46:08 2024

Copyright (c) 1996-2018 Texas Instruments Incorporated
bts.asm                                                              PAGE   38

    1762              ;* R0    assigned to f
    1763              $C$DW$119       .dwtag  DW_TAG_variable
    1764                      .dwattr $C$DW$119, DW_AT_name("f")
    1765                      .dwattr $C$DW$119, DW_AT_type(*$C$DW$T$141)
    1766                      .dwattr $C$DW$119, DW_AT_location[DW_OP_regx 0x2b]
    1767              
    1768                      .dwcfi  cfa_offset, -2
    1769                      .dwcfi  save_reg_to_mem, 26, 0
    1770                      .dwpsn  file "C:/ti/ccs1271/ccs/tools/compiler/ti-cgt-c2000_22.6.1.LTS/include/_defs.h",line 366,colu
    1771 00000000 BFA9          MOV32     ACC,R0H               ; [CPU_FPU] |366| 
         00000001 0F12 
    1772 00000002 BE00          MOVB      XAR6,#0               ; [CPU_ALU] |366| 
    1773 00000003 9000          ANDB      AL,#0                 ; [CPU_ALU] |366| 
    1774 00000004 18A8          AND       AH,#32768             ; [CPU_ALU] |366| 
         00000005 8000 
    1775 00000006 FF58          TEST      ACC                   ; [CPU_ALU] |366| 
    1776 00000007 56B0          MOVB      XAR6,#1,NEQ           ; [CPU_ALU] |366| 
         00000008 01A6 
    1777 00000009 92A6          MOV       AL,AR6                ; [CPU_ALU] |366| 
    1778              $C$DW$120       .dwtag  DW_TAG_TI_branch
    1779                      .dwattr $C$DW$120, DW_AT_low_pc(0x00)
    1780                      .dwattr $C$DW$120, DW_AT_TI_return
    1781              
    1782 0000000a 0006          LRETR     ; [CPU_ALU] 
    1783                      ; return occurs ; [] 
    1784                      .dwattr $C$DW$117, DW_AT_TI_end_file("C:/ti/ccs1271/ccs/tools/compiler/ti-cgt-c2000_22.6.1.LTS/includ
    1785                      .dwattr $C$DW$117, DW_AT_TI_end_line(0x16e)
    1786                      .dwattr $C$DW$117, DW_AT_TI_end_column(0x29)
    1787                      .dwendentry
    1788                      .dwendtag $C$DW$117
    1789              
    1790 00000000               .sect   ".text:__signbit"
    1791                      .clink
    1792                      .global ||__signbit||
    1793              
    1794              $C$DW$121       .dwtag  DW_TAG_subprogram
    1795                      .dwattr $C$DW$121, DW_AT_name("__signbit")
    1796                      .dwattr $C$DW$121, DW_AT_low_pc(||__signbit||)
    1797                      .dwattr $C$DW$121, DW_AT_high_pc(0x00)
    1798                      .dwattr $C$DW$121, DW_AT_linkage_name("__signbit")
    1799                      .dwattr $C$DW$121, DW_AT_external
    1800                      .dwattr $C$DW$121, DW_AT_type(*$C$DW$T$10)
    1801                      .dwattr $C$DW$121, DW_AT_decl_file("C:/ti/ccs1271/ccs/tools/compiler/ti-cgt-c2000_22.6.1.LTS/include/
    1802                      .dwattr $C$DW$121, DW_AT_decl_line(0x16b)
    1803                      .dwattr $C$DW$121, DW_AT_decl_column(0x18)
    1804                      .dwattr $C$DW$121, DW_AT_TI_max_frame_size(-6)
    1805                      .dwpsn  file "C:/ti/ccs1271/ccs/tools/compiler/ti-cgt-c2000_22.6.1.LTS/include/_defs.h",line 364,colu
    1806              
    1807                      .dwfde $C$DW$CIE, ||__signbit||
    1808              $C$DW$122       .dwtag  DW_TAG_formal_parameter
    1809                      .dwattr $C$DW$122, DW_AT_name("d")
    1810                      .dwattr $C$DW$122, DW_AT_type(*$C$DW$T$144)
    1811                      .dwattr $C$DW$122, DW_AT_location[DW_OP_reg12]
    1812              
    1813              
TMS320C2000 Assembler PC v22.6.1 Tue Aug 13 19:46:08 2024

Copyright (c) 1996-2018 Texas Instruments Incorporated
bts.asm                                                              PAGE   39

    1814              ;***************************************************************
    1815              ;* FNAME: __signbit                     FR SIZE:   4           *
    1816              ;*                                                             *
    1817              ;* FUNCTION ENVIRONMENT                                        *
    1818              ;*                                                             *
    1819              ;* FUNCTION PROPERTIES                                         *
    1820              ;*                            4 Parameter,  0 Auto,  0 SOE     *
    1821              ;***************************************************************
    1822              
    1823              ||__signbit||:
    1824              ;* AR4   assigned to d
    1825              $C$DW$123       .dwtag  DW_TAG_variable
    1826                      .dwattr $C$DW$123, DW_AT_name("d")
    1827                      .dwattr $C$DW$123, DW_AT_type(*$C$DW$T$145)
    1828                      .dwattr $C$DW$123, DW_AT_location[DW_OP_reg12]
    1829              
    1830                      .dwcfi  cfa_offset, -2
    1831                      .dwcfi  save_reg_to_mem, 26, 0
    1832 00000000 FE04          ADDB      SP,#4                 ; [CPU_ARAU] 
    1833                      .dwcfi  cfa_offset, -6
    1834                      .dwpsn  file "C:/ti/ccs1271/ccs/tools/compiler/ti-cgt-c2000_22.6.1.LTS/include/_defs.h",line 364,colu
    1835 00000001 0200          MOVB      ACC,#0                ; [CPU_ALU] |364| 
    1836 00000002 1E44          MOVL      *-SP[4],ACC           ; [CPU_ALU] |364| 
    1837 00000003 2B42          MOV       *-SP[2],#0            ; [CPU_ALU] |364| 
    1838 00000004 2B41          MOV       *-SP[1],#0            ; [CPU_ALU] |364| 
    1839 00000005 A3C4          MOVL      P,*+XAR4[0]           ; [CPU_ALU] |364| 
    1840 00000006 06D4          MOVL      ACC,*+XAR4[2]         ; [CPU_ALU] |364| 
    1841 00000007 18AB          AND       PL,#0                 ; [CPU_ALU] |364| 
         00000008 0000 
    1842 00000009 18AA          AND       PH,#0                 ; [CPU_ALU] |364| 
         0000000a 0000 
    1843 0000000b 9000          ANDB      AL,#0                 ; [CPU_ALU] |364| 
    1844 0000000c 18A8          AND       AH,#32768             ; [CPU_ALU] |364| 
         0000000d 8000 
    1845              $C$DW$124       .dwtag  DW_TAG_TI_branch
    1846                      .dwattr $C$DW$124, DW_AT_low_pc(0x00)
    1847                      .dwattr $C$DW$124, DW_AT_name("__c28xabi_cmpull")
    1848                      .dwattr $C$DW$124, DW_AT_TI_call
    1849              
    1850 0000000e 7640!         LCR       #||__c28xabi_cmpull|| ; [CPU_ALU] |364| 
         0000000f 0000 
    1851                      ; call occurs [#||__c28xabi_cmpull||] ; [] |364| 
    1852 00000010 9B00          MOVB      AH,#0                 ; [CPU_ALU] |364| 
    1853 00000011 5200          CMPB      AL,#0                 ; [CPU_ALU] |364| 
    1854 00000012 56B0          MOVB      AH,#1,NEQ             ; [CPU_ALU] |364| 
         00000013 01A8 
    1855 00000014 92A8          MOV       AL,AH                 ; [CPU_ALU] |364| 
    1856 00000015 FE84          SUBB      SP,#4                 ; [CPU_ARAU] 
    1857                      .dwcfi  cfa_offset, -2
    1858              $C$DW$125       .dwtag  DW_TAG_TI_branch
    1859                      .dwattr $C$DW$125, DW_AT_low_pc(0x00)
    1860                      .dwattr $C$DW$125, DW_AT_TI_return
    1861              
    1862 00000016 0006          LRETR     ; [CPU_ALU] 
    1863                      ; return occurs ; [] 
TMS320C2000 Assembler PC v22.6.1 Tue Aug 13 19:46:08 2024

Copyright (c) 1996-2018 Texas Instruments Incorporated
bts.asm                                                              PAGE   40

    1864                      .dwattr $C$DW$121, DW_AT_TI_end_file("C:/ti/ccs1271/ccs/tools/compiler/ti-cgt-c2000_22.6.1.LTS/includ
    1865                      .dwattr $C$DW$121, DW_AT_TI_end_line(0x16c)
    1866                      .dwattr $C$DW$121, DW_AT_TI_end_column(0x2a)
    1867                      .dwendentry
    1868                      .dwendtag $C$DW$121
    1869              
    1870 00000000               .sect   ".text:__relaxed_sqrtf"
    1871                      .clink
    1872                      .global ||__relaxed_sqrtf||
    1873              
    1874              $C$DW$126       .dwtag  DW_TAG_subprogram
    1875                      .dwattr $C$DW$126, DW_AT_name("__relaxed_sqrtf")
    1876                      .dwattr $C$DW$126, DW_AT_low_pc(||__relaxed_sqrtf||)
    1877                      .dwattr $C$DW$126, DW_AT_high_pc(0x00)
    1878                      .dwattr $C$DW$126, DW_AT_linkage_name("__relaxed_sqrtf")
    1879                      .dwattr $C$DW$126, DW_AT_external
    1880                      .dwattr $C$DW$126, DW_AT_type(*$C$DW$T$16)
    1881                      .dwattr $C$DW$126, DW_AT_decl_file("C:/ti/ccs1271/ccs/tools/compiler/ti-cgt-c2000_22.6.1.LTS/include/
    1882                      .dwattr $C$DW$126, DW_AT_decl_line(0x103)
    1883                      .dwattr $C$DW$126, DW_AT_decl_column(0x10)
    1884                      .dwattr $C$DW$126, DW_AT_TI_max_frame_size(-2)
    1885                      .dwpsn  file "C:/ti/ccs1271/ccs/tools/compiler/ti-cgt-c2000_22.6.1.LTS/include/math.h",line 260,colum
    1886              
    1887                      .dwfde $C$DW$CIE, ||__relaxed_sqrtf||
    1888              $C$DW$127       .dwtag  DW_TAG_formal_parameter
    1889                      .dwattr $C$DW$127, DW_AT_name("x")
    1890                      .dwattr $C$DW$127, DW_AT_type(*$C$DW$T$16)
    1891                      .dwattr $C$DW$127, DW_AT_location[DW_OP_regx 0x2b]
    1892              
    1893              
    1894              ;***************************************************************
    1895              ;* FNAME: __relaxed_sqrtf               FR SIZE:   0           *
    1896              ;*                                                             *
    1897              ;* FUNCTION ENVIRONMENT                                        *
    1898              ;*                                                             *
    1899              ;* FUNCTION PROPERTIES                                         *
    1900              ;*                            0 Parameter,  0 Auto,  0 SOE     *
    1901              ;***************************************************************
    1902              
    1903              ||__relaxed_sqrtf||:
    1904              ;* R0    assigned to x
    1905              $C$DW$128       .dwtag  DW_TAG_variable
    1906                      .dwattr $C$DW$128, DW_AT_name("x")
    1907                      .dwattr $C$DW$128, DW_AT_type(*$C$DW$T$141)
    1908                      .dwattr $C$DW$128, DW_AT_location[DW_OP_regx 0x2b]
    1909              
    1910                      .dwcfi  cfa_offset, -2
    1911                      .dwcfi  save_reg_to_mem, 26, 0
    1912                      .dwpsn  file "C:/ti/ccs1271/ccs/tools/compiler/ti-cgt-c2000_22.6.1.LTS/include/math.h",line 261,colum
    1913 00000000 E277          SQRTF32   R0H,R0H               ; [CPU_FPU] |261| 
         00000001 0000 
    1914 00000002 7700          NOP       ; [CPU_ALU] 
    1915 00000003 7700          NOP       ; [CPU_ALU] 
    1916 00000004 7700          NOP       ; [CPU_ALU] 
    1917              $C$DW$129       .dwtag  DW_TAG_TI_branch
TMS320C2000 Assembler PC v22.6.1 Tue Aug 13 19:46:08 2024

Copyright (c) 1996-2018 Texas Instruments Incorporated
bts.asm                                                              PAGE   41

    1918                      .dwattr $C$DW$129, DW_AT_low_pc(0x00)
    1919                      .dwattr $C$DW$129, DW_AT_TI_return
    1920              
    1921 00000005 0006          LRETR     ; [CPU_ALU] 
    1922                      ; return occurs ; [] 
    1923                      .dwattr $C$DW$126, DW_AT_TI_end_file("C:/ti/ccs1271/ccs/tools/compiler/ti-cgt-c2000_22.6.1.LTS/includ
    1924                      .dwattr $C$DW$126, DW_AT_TI_end_line(0x106)
    1925                      .dwattr $C$DW$126, DW_AT_TI_end_column(0x01)
    1926                      .dwendentry
    1927                      .dwendtag $C$DW$126
    1928              
    1929 00000000               .sect   ".text:__relaxed_sinf"
    1930                      .clink
    1931                      .global ||__relaxed_sinf||
    1932              
    1933              $C$DW$130       .dwtag  DW_TAG_subprogram
    1934                      .dwattr $C$DW$130, DW_AT_name("__relaxed_sinf")
    1935                      .dwattr $C$DW$130, DW_AT_low_pc(||__relaxed_sinf||)
    1936                      .dwattr $C$DW$130, DW_AT_high_pc(0x00)
    1937                      .dwattr $C$DW$130, DW_AT_linkage_name("__relaxed_sinf")
    1938                      .dwattr $C$DW$130, DW_AT_external
    1939                      .dwattr $C$DW$130, DW_AT_type(*$C$DW$T$16)
    1940                      .dwattr $C$DW$130, DW_AT_decl_file("C:/ti/ccs1271/ccs/tools/compiler/ti-cgt-c2000_22.6.1.LTS/include/
    1941                      .dwattr $C$DW$130, DW_AT_decl_line(0x108)
    1942                      .dwattr $C$DW$130, DW_AT_decl_column(0x10)
    1943                      .dwattr $C$DW$130, DW_AT_TI_max_frame_size(-2)
    1944                      .dwpsn  file "C:/ti/ccs1271/ccs/tools/compiler/ti-cgt-c2000_22.6.1.LTS/include/math.h",line 265,colum
    1945              
    1946                      .dwfde $C$DW$CIE, ||__relaxed_sinf||
    1947              $C$DW$131       .dwtag  DW_TAG_formal_parameter
    1948                      .dwattr $C$DW$131, DW_AT_name("x")
    1949                      .dwattr $C$DW$131, DW_AT_type(*$C$DW$T$16)
    1950                      .dwattr $C$DW$131, DW_AT_location[DW_OP_regx 0x2b]
    1951              
    1952              
    1953              ;***************************************************************
    1954              ;* FNAME: __relaxed_sinf                FR SIZE:   0           *
    1955              ;*                                                             *
    1956              ;* FUNCTION ENVIRONMENT                                        *
    1957              ;*                                                             *
    1958              ;* FUNCTION PROPERTIES                                         *
    1959              ;*                            0 Parameter,  0 Auto,  0 SOE     *
    1960              ;***************************************************************
    1961              
    1962              ||__relaxed_sinf||:
    1963              ;* R0    assigned to x
    1964              $C$DW$132       .dwtag  DW_TAG_variable
    1965                      .dwattr $C$DW$132, DW_AT_name("x")
    1966                      .dwattr $C$DW$132, DW_AT_type(*$C$DW$T$141)
    1967                      .dwattr $C$DW$132, DW_AT_location[DW_OP_regx 0x2b]
    1968              
    1969                      .dwcfi  cfa_offset, -2
    1970                      .dwcfi  save_reg_to_mem, 26, 0
    1971                      .dwpsn  file "C:/ti/ccs1271/ccs/tools/compiler/ti-cgt-c2000_22.6.1.LTS/include/math.h",line 266,colum
    1972 00000000 E271          DIV2PIF32 R0H,R0H               ; [CPU_FPU] |266| 
TMS320C2000 Assembler PC v22.6.1 Tue Aug 13 19:46:08 2024

Copyright (c) 1996-2018 Texas Instruments Incorporated
bts.asm                                                              PAGE   42

         00000001 0000 
    1973 00000002 7700          NOP       ; [CPU_ALU] 
    1974 00000003 E278          SINPUF32  R0H,R0H               ; [CPU_FPU] |266| 
         00000004 0000 
    1975 00000005 7700          NOP       ; [CPU_ALU] 
    1976 00000006 7700          NOP       ; [CPU_ALU] 
    1977              $C$DW$133       .dwtag  DW_TAG_TI_branch
    1978                      .dwattr $C$DW$133, DW_AT_low_pc(0x00)
    1979                      .dwattr $C$DW$133, DW_AT_TI_return
    1980              
    1981 00000007 0006          LRETR     ; [CPU_ALU] 
    1982                      ; return occurs ; [] 
    1983                      .dwattr $C$DW$130, DW_AT_TI_end_file("C:/ti/ccs1271/ccs/tools/compiler/ti-cgt-c2000_22.6.1.LTS/includ
    1984                      .dwattr $C$DW$130, DW_AT_TI_end_line(0x10b)
    1985                      .dwattr $C$DW$130, DW_AT_TI_end_column(0x01)
    1986                      .dwendentry
    1987                      .dwendtag $C$DW$130
    1988              
    1989 00000000               .sect   ".text:__relaxed_fmodf"
    1990                      .clink
    1991                      .global ||__relaxed_fmodf||
    1992              
    1993              $C$DW$134       .dwtag  DW_TAG_subprogram
    1994                      .dwattr $C$DW$134, DW_AT_name("__relaxed_fmodf")
    1995                      .dwattr $C$DW$134, DW_AT_low_pc(||__relaxed_fmodf||)
    1996                      .dwattr $C$DW$134, DW_AT_high_pc(0x00)
    1997                      .dwattr $C$DW$134, DW_AT_linkage_name("__relaxed_fmodf")
    1998                      .dwattr $C$DW$134, DW_AT_external
    1999                      .dwattr $C$DW$134, DW_AT_type(*$C$DW$T$16)
    2000                      .dwattr $C$DW$134, DW_AT_decl_file("C:/ti/ccs1271/ccs/tools/compiler/ti-cgt-c2000_22.6.1.LTS/include/
    2001                      .dwattr $C$DW$134, DW_AT_decl_line(0x11c)
    2002                      .dwattr $C$DW$134, DW_AT_decl_column(0x10)
    2003                      .dwattr $C$DW$134, DW_AT_TI_max_frame_size(-2)
    2004                      .dwpsn  file "C:/ti/ccs1271/ccs/tools/compiler/ti-cgt-c2000_22.6.1.LTS/include/math.h",line 285,colum
    2005              
    2006                      .dwfde $C$DW$CIE, ||__relaxed_fmodf||
    2007              $C$DW$135       .dwtag  DW_TAG_formal_parameter
    2008                      .dwattr $C$DW$135, DW_AT_name("y")
    2009                      .dwattr $C$DW$135, DW_AT_type(*$C$DW$T$16)
    2010                      .dwattr $C$DW$135, DW_AT_location[DW_OP_regx 0x2b]
    2011              
    2012              $C$DW$136       .dwtag  DW_TAG_formal_parameter
    2013                      .dwattr $C$DW$136, DW_AT_name("x")
    2014                      .dwattr $C$DW$136, DW_AT_type(*$C$DW$T$16)
    2015                      .dwattr $C$DW$136, DW_AT_location[DW_OP_regx 0x2f]
    2016              
    2017              
    2018              ;***************************************************************
    2019              ;* FNAME: __relaxed_fmodf               FR SIZE:   0           *
    2020              ;*                                                             *
    2021              ;* FUNCTION ENVIRONMENT                                        *
    2022              ;*                                                             *
    2023              ;* FUNCTION PROPERTIES                                         *
    2024              ;*                            0 Parameter,  0 Auto,  0 SOE     *
    2025              ;***************************************************************
TMS320C2000 Assembler PC v22.6.1 Tue Aug 13 19:46:08 2024

Copyright (c) 1996-2018 Texas Instruments Incorporated
bts.asm                                                              PAGE   43

    2026              
    2027              ||__relaxed_fmodf||:
    2028              ;* R0    assigned to y
    2029              $C$DW$137       .dwtag  DW_TAG_variable
    2030                      .dwattr $C$DW$137, DW_AT_name("y")
    2031                      .dwattr $C$DW$137, DW_AT_type(*$C$DW$T$141)
    2032                      .dwattr $C$DW$137, DW_AT_location[DW_OP_regx 0x2b]
    2033              
    2034              ;* R1    assigned to x
    2035              $C$DW$138       .dwtag  DW_TAG_variable
    2036                      .dwattr $C$DW$138, DW_AT_name("x")
    2037                      .dwattr $C$DW$138, DW_AT_type(*$C$DW$T$141)
    2038                      .dwattr $C$DW$138, DW_AT_location[DW_OP_regx 0x2f]
    2039              
    2040                      .dwcfi  cfa_offset, -2
    2041                      .dwcfi  save_reg_to_mem, 26, 0
    2042                      .dwpsn  file "C:/ti/ccs1271/ccs/tools/compiler/ti-cgt-c2000_22.6.1.LTS/include/math.h",line 286,colum
    2043 00000000 E274          DIVF32    R2H,R0H,R1H           ; [CPU_FPU] |286| 
         00000001 0042 
    2044 00000002 7700          NOP       ; [CPU_ALU] 
    2045 00000003 7700          NOP       ; [CPU_ALU] 
    2046 00000004 7700          NOP       ; [CPU_ALU] 
    2047 00000005 7700          NOP       ; [CPU_ALU] 
    2048 00000006 E688          F32TOI32  R2H,R2H               ; [CPU_FPU] |286| 
         00000007 0012 
    2049 00000008 7700          NOP       ; [CPU_ALU] 
    2050 00000009 E689          I32TOF32  R2H,R2H               ; [CPU_FPU] |286| 
         0000000a 0012 
    2051 0000000b 7700          NOP       ; [CPU_ALU] 
    2052 0000000c E700          MPYF32    R1H,R1H,R2H           ; [CPU_FPU] |286| 
         0000000d 0089 
    2053 0000000e 7700          NOP       ; [CPU_ALU] 
    2054 0000000f E720          SUBF32    R0H,R0H,R1H           ; [CPU_FPU] |286| 
         00000010 0040 
    2055              $C$DW$139       .dwtag  DW_TAG_TI_branch
    2056                      .dwattr $C$DW$139, DW_AT_low_pc(0x00)
    2057                      .dwattr $C$DW$139, DW_AT_TI_return
    2058              
    2059 00000011 0006          LRETR     ; [CPU_ALU] 
    2060                      ; return occurs ; [] 
    2061                      .dwattr $C$DW$134, DW_AT_TI_end_file("C:/ti/ccs1271/ccs/tools/compiler/ti-cgt-c2000_22.6.1.LTS/includ
    2062                      .dwattr $C$DW$134, DW_AT_TI_end_line(0x11f)
    2063                      .dwattr $C$DW$134, DW_AT_TI_end_column(0x01)
    2064                      .dwendentry
    2065                      .dwendtag $C$DW$134
    2066              
    2067 00000000               .sect   ".text:__relaxed_fminf"
    2068                      .clink
    2069                      .global ||__relaxed_fminf||
    2070              
    2071              $C$DW$140       .dwtag  DW_TAG_subprogram
    2072                      .dwattr $C$DW$140, DW_AT_name("__relaxed_fminf")
    2073                      .dwattr $C$DW$140, DW_AT_low_pc(||__relaxed_fminf||)
    2074                      .dwattr $C$DW$140, DW_AT_high_pc(0x00)
    2075                      .dwattr $C$DW$140, DW_AT_linkage_name("__relaxed_fminf")
TMS320C2000 Assembler PC v22.6.1 Tue Aug 13 19:46:08 2024

Copyright (c) 1996-2018 Texas Instruments Incorporated
bts.asm                                                              PAGE   44

    2076                      .dwattr $C$DW$140, DW_AT_external
    2077                      .dwattr $C$DW$140, DW_AT_type(*$C$DW$T$16)
    2078                      .dwattr $C$DW$140, DW_AT_decl_file("C:/ti/ccs1271/ccs/tools/compiler/ti-cgt-c2000_22.6.1.LTS/include/
    2079                      .dwattr $C$DW$140, DW_AT_decl_line(0xee)
    2080                      .dwattr $C$DW$140, DW_AT_decl_column(0x10)
    2081                      .dwattr $C$DW$140, DW_AT_TI_max_frame_size(-2)
    2082                      .dwpsn  file "C:/ti/ccs1271/ccs/tools/compiler/ti-cgt-c2000_22.6.1.LTS/include/math.h",line 239,colum
    2083              
    2084                      .dwfde $C$DW$CIE, ||__relaxed_fminf||
    2085              $C$DW$141       .dwtag  DW_TAG_formal_parameter
    2086                      .dwattr $C$DW$141, DW_AT_name("x")
    2087                      .dwattr $C$DW$141, DW_AT_type(*$C$DW$T$16)
    2088                      .dwattr $C$DW$141, DW_AT_location[DW_OP_regx 0x2b]
    2089              
    2090              $C$DW$142       .dwtag  DW_TAG_formal_parameter
    2091                      .dwattr $C$DW$142, DW_AT_name("y")
    2092                      .dwattr $C$DW$142, DW_AT_type(*$C$DW$T$16)
    2093                      .dwattr $C$DW$142, DW_AT_location[DW_OP_regx 0x2f]
    2094              
    2095              
    2096              ;***************************************************************
    2097              ;* FNAME: __relaxed_fminf               FR SIZE:   0           *
    2098              ;*                                                             *
    2099              ;* FUNCTION ENVIRONMENT                                        *
    2100              ;*                                                             *
    2101              ;* FUNCTION PROPERTIES                                         *
    2102              ;*                            0 Parameter,  0 Auto,  0 SOE     *
    2103              ;***************************************************************
    2104              
    2105              ||__relaxed_fminf||:
    2106              ;* R1    assigned to y
    2107              $C$DW$143       .dwtag  DW_TAG_variable
    2108                      .dwattr $C$DW$143, DW_AT_name("y")
    2109                      .dwattr $C$DW$143, DW_AT_type(*$C$DW$T$141)
    2110                      .dwattr $C$DW$143, DW_AT_location[DW_OP_regx 0x2f]
    2111              
    2112                      .dwcfi  cfa_offset, -2
    2113                      .dwcfi  save_reg_to_mem, 26, 0
    2114                      .dwpsn  file "C:/ti/ccs1271/ccs/tools/compiler/ti-cgt-c2000_22.6.1.LTS/include/math.h",line 240,colum
    2115 00000000 E697          MINF32    R0H,R1H               ; [CPU_FPU] |240| 
         00000001 0008 
    2116              $C$DW$144       .dwtag  DW_TAG_TI_branch
    2117                      .dwattr $C$DW$144, DW_AT_low_pc(0x00)
    2118                      .dwattr $C$DW$144, DW_AT_TI_return
    2119              
    2120 00000002 0006          LRETR     ; [CPU_ALU] 
    2121                      ; return occurs ; [] 
    2122                      .dwattr $C$DW$140, DW_AT_TI_end_file("C:/ti/ccs1271/ccs/tools/compiler/ti-cgt-c2000_22.6.1.LTS/includ
    2123                      .dwattr $C$DW$140, DW_AT_TI_end_line(0xf1)
    2124                      .dwattr $C$DW$140, DW_AT_TI_end_column(0x01)
    2125                      .dwendentry
    2126                      .dwendtag $C$DW$140
    2127              
    2128 00000000               .sect   ".text:__relaxed_fmaxf"
    2129                      .clink
TMS320C2000 Assembler PC v22.6.1 Tue Aug 13 19:46:08 2024

Copyright (c) 1996-2018 Texas Instruments Incorporated
bts.asm                                                              PAGE   45

    2130                      .global ||__relaxed_fmaxf||
    2131              
    2132              $C$DW$145       .dwtag  DW_TAG_subprogram
    2133                      .dwattr $C$DW$145, DW_AT_name("__relaxed_fmaxf")
    2134                      .dwattr $C$DW$145, DW_AT_low_pc(||__relaxed_fmaxf||)
    2135                      .dwattr $C$DW$145, DW_AT_high_pc(0x00)
    2136                      .dwattr $C$DW$145, DW_AT_linkage_name("__relaxed_fmaxf")
    2137                      .dwattr $C$DW$145, DW_AT_external
    2138                      .dwattr $C$DW$145, DW_AT_type(*$C$DW$T$16)
    2139                      .dwattr $C$DW$145, DW_AT_decl_file("C:/ti/ccs1271/ccs/tools/compiler/ti-cgt-c2000_22.6.1.LTS/include/
    2140                      .dwattr $C$DW$145, DW_AT_decl_line(0xe8)
    2141                      .dwattr $C$DW$145, DW_AT_decl_column(0x10)
    2142                      .dwattr $C$DW$145, DW_AT_TI_max_frame_size(-2)
    2143                      .dwpsn  file "C:/ti/ccs1271/ccs/tools/compiler/ti-cgt-c2000_22.6.1.LTS/include/math.h",line 233,colum
    2144              
    2145                      .dwfde $C$DW$CIE, ||__relaxed_fmaxf||
    2146              $C$DW$146       .dwtag  DW_TAG_formal_parameter
    2147                      .dwattr $C$DW$146, DW_AT_name("x")
    2148                      .dwattr $C$DW$146, DW_AT_type(*$C$DW$T$16)
    2149                      .dwattr $C$DW$146, DW_AT_location[DW_OP_regx 0x2b]
    2150              
    2151              $C$DW$147       .dwtag  DW_TAG_formal_parameter
    2152                      .dwattr $C$DW$147, DW_AT_name("y")
    2153                      .dwattr $C$DW$147, DW_AT_type(*$C$DW$T$16)
    2154                      .dwattr $C$DW$147, DW_AT_location[DW_OP_regx 0x2f]
    2155              
    2156              
    2157              ;***************************************************************
    2158              ;* FNAME: __relaxed_fmaxf               FR SIZE:   0           *
    2159              ;*                                                             *
    2160              ;* FUNCTION ENVIRONMENT                                        *
    2161              ;*                                                             *
    2162              ;* FUNCTION PROPERTIES                                         *
    2163              ;*                            0 Parameter,  0 Auto,  0 SOE     *
    2164              ;***************************************************************
    2165              
    2166              ||__relaxed_fmaxf||:
    2167              ;* R1    assigned to y
    2168              $C$DW$148       .dwtag  DW_TAG_variable
    2169                      .dwattr $C$DW$148, DW_AT_name("y")
    2170                      .dwattr $C$DW$148, DW_AT_type(*$C$DW$T$141)
    2171                      .dwattr $C$DW$148, DW_AT_location[DW_OP_regx 0x2f]
    2172              
    2173                      .dwcfi  cfa_offset, -2
    2174                      .dwcfi  save_reg_to_mem, 26, 0
    2175                      .dwpsn  file "C:/ti/ccs1271/ccs/tools/compiler/ti-cgt-c2000_22.6.1.LTS/include/math.h",line 234,colum
    2176 00000000 E696          MAXF32    R0H,R1H               ; [CPU_FPU] |234| 
         00000001 0008 
    2177              $C$DW$149       .dwtag  DW_TAG_TI_branch
    2178                      .dwattr $C$DW$149, DW_AT_low_pc(0x00)
    2179                      .dwattr $C$DW$149, DW_AT_TI_return
    2180              
    2181 00000002 0006          LRETR     ; [CPU_ALU] 
    2182                      ; return occurs ; [] 
    2183                      .dwattr $C$DW$145, DW_AT_TI_end_file("C:/ti/ccs1271/ccs/tools/compiler/ti-cgt-c2000_22.6.1.LTS/includ
TMS320C2000 Assembler PC v22.6.1 Tue Aug 13 19:46:08 2024

Copyright (c) 1996-2018 Texas Instruments Incorporated
bts.asm                                                              PAGE   46

    2184                      .dwattr $C$DW$145, DW_AT_TI_end_line(0xeb)
    2185                      .dwattr $C$DW$145, DW_AT_TI_end_column(0x01)
    2186                      .dwendentry
    2187                      .dwendtag $C$DW$145
    2188              
    2189 00000000               .sect   ".text:__relaxed_cosf"
    2190                      .clink
    2191                      .global ||__relaxed_cosf||
    2192              
    2193              $C$DW$150       .dwtag  DW_TAG_subprogram
    2194                      .dwattr $C$DW$150, DW_AT_name("__relaxed_cosf")
    2195                      .dwattr $C$DW$150, DW_AT_low_pc(||__relaxed_cosf||)
    2196                      .dwattr $C$DW$150, DW_AT_high_pc(0x00)
    2197                      .dwattr $C$DW$150, DW_AT_linkage_name("__relaxed_cosf")
    2198                      .dwattr $C$DW$150, DW_AT_external
    2199                      .dwattr $C$DW$150, DW_AT_type(*$C$DW$T$16)
    2200                      .dwattr $C$DW$150, DW_AT_decl_file("C:/ti/ccs1271/ccs/tools/compiler/ti-cgt-c2000_22.6.1.LTS/include/
    2201                      .dwattr $C$DW$150, DW_AT_decl_line(0x10d)
    2202                      .dwattr $C$DW$150, DW_AT_decl_column(0x10)
    2203                      .dwattr $C$DW$150, DW_AT_TI_max_frame_size(-2)
    2204                      .dwpsn  file "C:/ti/ccs1271/ccs/tools/compiler/ti-cgt-c2000_22.6.1.LTS/include/math.h",line 270,colum
    2205              
    2206                      .dwfde $C$DW$CIE, ||__relaxed_cosf||
    2207              $C$DW$151       .dwtag  DW_TAG_formal_parameter
    2208                      .dwattr $C$DW$151, DW_AT_name("x")
    2209                      .dwattr $C$DW$151, DW_AT_type(*$C$DW$T$16)
    2210                      .dwattr $C$DW$151, DW_AT_location[DW_OP_regx 0x2b]
    2211              
    2212              
    2213              ;***************************************************************
    2214              ;* FNAME: __relaxed_cosf                FR SIZE:   0           *
    2215              ;*                                                             *
    2216              ;* FUNCTION ENVIRONMENT                                        *
    2217              ;*                                                             *
    2218              ;* FUNCTION PROPERTIES                                         *
    2219              ;*                            0 Parameter,  0 Auto,  0 SOE     *
    2220              ;***************************************************************
    2221              
    2222              ||__relaxed_cosf||:
    2223              ;* R0    assigned to x
    2224              $C$DW$152       .dwtag  DW_TAG_variable
    2225                      .dwattr $C$DW$152, DW_AT_name("x")
    2226                      .dwattr $C$DW$152, DW_AT_type(*$C$DW$T$141)
    2227                      .dwattr $C$DW$152, DW_AT_location[DW_OP_regx 0x2b]
    2228              
    2229                      .dwcfi  cfa_offset, -2
    2230                      .dwcfi  save_reg_to_mem, 26, 0
    2231                      .dwpsn  file "C:/ti/ccs1271/ccs/tools/compiler/ti-cgt-c2000_22.6.1.LTS/include/math.h",line 271,colum
    2232 00000000 E271          DIV2PIF32 R0H,R0H               ; [CPU_FPU] |271| 
         00000001 0000 
    2233 00000002 7700          NOP       ; [CPU_ALU] 
    2234 00000003 E279          COSPUF32  R0H,R0H               ; [CPU_FPU] |271| 
         00000004 0000 
    2235 00000005 7700          NOP       ; [CPU_ALU] 
    2236 00000006 7700          NOP       ; [CPU_ALU] 
TMS320C2000 Assembler PC v22.6.1 Tue Aug 13 19:46:08 2024

Copyright (c) 1996-2018 Texas Instruments Incorporated
bts.asm                                                              PAGE   47

    2237              $C$DW$153       .dwtag  DW_TAG_TI_branch
    2238                      .dwattr $C$DW$153, DW_AT_low_pc(0x00)
    2239                      .dwattr $C$DW$153, DW_AT_TI_return
    2240              
    2241 00000007 0006          LRETR     ; [CPU_ALU] 
    2242                      ; return occurs ; [] 
    2243                      .dwattr $C$DW$150, DW_AT_TI_end_file("C:/ti/ccs1271/ccs/tools/compiler/ti-cgt-c2000_22.6.1.LTS/includ
    2244                      .dwattr $C$DW$150, DW_AT_TI_end_line(0x110)
    2245                      .dwattr $C$DW$150, DW_AT_TI_end_column(0x01)
    2246                      .dwendentry
    2247                      .dwendtag $C$DW$150
    2248              
    2249 00000000               .sect   ".text:__relaxed_atanf"
    2250                      .clink
    2251                      .global ||__relaxed_atanf||
    2252              
    2253              $C$DW$154       .dwtag  DW_TAG_subprogram
    2254                      .dwattr $C$DW$154, DW_AT_name("__relaxed_atanf")
    2255                      .dwattr $C$DW$154, DW_AT_low_pc(||__relaxed_atanf||)
    2256                      .dwattr $C$DW$154, DW_AT_high_pc(0x00)
    2257                      .dwattr $C$DW$154, DW_AT_linkage_name("__relaxed_atanf")
    2258                      .dwattr $C$DW$154, DW_AT_external
    2259                      .dwattr $C$DW$154, DW_AT_type(*$C$DW$T$16)
    2260                      .dwattr $C$DW$154, DW_AT_decl_file("C:/ti/ccs1271/ccs/tools/compiler/ti-cgt-c2000_22.6.1.LTS/include/
    2261                      .dwattr $C$DW$154, DW_AT_decl_line(0x112)
    2262                      .dwattr $C$DW$154, DW_AT_decl_column(0x10)
    2263                      .dwattr $C$DW$154, DW_AT_TI_max_frame_size(-2)
    2264                      .dwpsn  file "C:/ti/ccs1271/ccs/tools/compiler/ti-cgt-c2000_22.6.1.LTS/include/math.h",line 275,colum
    2265              
    2266                      .dwfde $C$DW$CIE, ||__relaxed_atanf||
    2267              $C$DW$155       .dwtag  DW_TAG_formal_parameter
    2268                      .dwattr $C$DW$155, DW_AT_name("x")
    2269                      .dwattr $C$DW$155, DW_AT_type(*$C$DW$T$16)
    2270                      .dwattr $C$DW$155, DW_AT_location[DW_OP_regx 0x2b]
    2271              
    2272              
    2273              ;***************************************************************
    2274              ;* FNAME: __relaxed_atanf               FR SIZE:   0           *
    2275              ;*                                                             *
    2276              ;* FUNCTION ENVIRONMENT                                        *
    2277              ;*                                                             *
    2278              ;* FUNCTION PROPERTIES                                         *
    2279              ;*                            0 Parameter,  0 Auto,  0 SOE     *
    2280              ;***************************************************************
    2281              
    2282              ||__relaxed_atanf||:
    2283              ;* R0    assigned to x
    2284              $C$DW$156       .dwtag  DW_TAG_variable
    2285                      .dwattr $C$DW$156, DW_AT_name("x")
    2286                      .dwattr $C$DW$156, DW_AT_type(*$C$DW$T$141)
    2287                      .dwattr $C$DW$156, DW_AT_location[DW_OP_regx 0x2b]
    2288              
    2289                      .dwcfi  cfa_offset, -2
    2290                      .dwcfi  save_reg_to_mem, 26, 0
    2291                      .dwpsn  file "C:/ti/ccs1271/ccs/tools/compiler/ti-cgt-c2000_22.6.1.LTS/include/math.h",line 276,colum
TMS320C2000 Assembler PC v22.6.1 Tue Aug 13 19:46:08 2024

Copyright (c) 1996-2018 Texas Instruments Incorporated
bts.asm                                                              PAGE   48

    2292 00000000 E801          MOVIZ     R1H,#16256            ; [CPU_FPU] |276| 
         00000001 FC01 
    2293 00000002 E27C          QUADF32   R1H,R0H,R0H,R1H       ; [CPU_FPU] |276| 
         00000003 0201 
    2294 00000004 7700          NOP       ; [CPU_ALU] 
    2295 00000005 7700          NOP       ; [CPU_ALU] 
    2296 00000006 7700          NOP       ; [CPU_ALU] 
    2297 00000007 7700          NOP       ; [CPU_ALU] 
    2298 00000008 E27A          ATANPUF32 R0H,R0H               ; [CPU_FPU] |276| 
         00000009 0000 
    2299 0000000a 7700          NOP       ; [CPU_ALU] 
    2300 0000000b 7700          NOP       ; [CPU_ALU] 
    2301 0000000c 7700          NOP       ; [CPU_ALU] 
    2302 0000000d E710          ADDF32    R0H,R0H,R1H           ; [CPU_FPU] |276| 
         0000000e 0040 
    2303 0000000f 7700          NOP       ; [CPU_ALU] 
    2304 00000010 7700          NOP       ; [CPU_ALU] 
    2305 00000011 E270          MPY2PIF32 R0H,R0H               ; [CPU_FPU] |276| 
         00000012 0000 
    2306 00000013 7700          NOP       ; [CPU_ALU] 
    2307              $C$DW$157       .dwtag  DW_TAG_TI_branch
    2308                      .dwattr $C$DW$157, DW_AT_low_pc(0x00)
    2309                      .dwattr $C$DW$157, DW_AT_TI_return
    2310              
    2311 00000014 0006          LRETR     ; [CPU_ALU] 
    2312                      ; return occurs ; [] 
    2313                      .dwattr $C$DW$154, DW_AT_TI_end_file("C:/ti/ccs1271/ccs/tools/compiler/ti-cgt-c2000_22.6.1.LTS/includ
    2314                      .dwattr $C$DW$154, DW_AT_TI_end_line(0x115)
    2315                      .dwattr $C$DW$154, DW_AT_TI_end_column(0x01)
    2316                      .dwendentry
    2317                      .dwendtag $C$DW$154
    2318              
    2319 00000000               .sect   ".text:__relaxed_atan2f"
    2320                      .clink
    2321                      .global ||__relaxed_atan2f||
    2322              
    2323              $C$DW$158       .dwtag  DW_TAG_subprogram
    2324                      .dwattr $C$DW$158, DW_AT_name("__relaxed_atan2f")
    2325                      .dwattr $C$DW$158, DW_AT_low_pc(||__relaxed_atan2f||)
    2326                      .dwattr $C$DW$158, DW_AT_high_pc(0x00)
    2327                      .dwattr $C$DW$158, DW_AT_linkage_name("__relaxed_atan2f")
    2328                      .dwattr $C$DW$158, DW_AT_external
    2329                      .dwattr $C$DW$158, DW_AT_type(*$C$DW$T$16)
    2330                      .dwattr $C$DW$158, DW_AT_decl_file("C:/ti/ccs1271/ccs/tools/compiler/ti-cgt-c2000_22.6.1.LTS/include/
    2331                      .dwattr $C$DW$158, DW_AT_decl_line(0x117)
    2332                      .dwattr $C$DW$158, DW_AT_decl_column(0x10)
    2333                      .dwattr $C$DW$158, DW_AT_TI_max_frame_size(-2)
    2334                      .dwpsn  file "C:/ti/ccs1271/ccs/tools/compiler/ti-cgt-c2000_22.6.1.LTS/include/math.h",line 280,colum
    2335              
    2336                      .dwfde $C$DW$CIE, ||__relaxed_atan2f||
    2337              $C$DW$159       .dwtag  DW_TAG_formal_parameter
    2338                      .dwattr $C$DW$159, DW_AT_name("y")
    2339                      .dwattr $C$DW$159, DW_AT_type(*$C$DW$T$16)
    2340                      .dwattr $C$DW$159, DW_AT_location[DW_OP_regx 0x2b]
    2341              
TMS320C2000 Assembler PC v22.6.1 Tue Aug 13 19:46:08 2024

Copyright (c) 1996-2018 Texas Instruments Incorporated
bts.asm                                                              PAGE   49

    2342              $C$DW$160       .dwtag  DW_TAG_formal_parameter
    2343                      .dwattr $C$DW$160, DW_AT_name("x")
    2344                      .dwattr $C$DW$160, DW_AT_type(*$C$DW$T$16)
    2345                      .dwattr $C$DW$160, DW_AT_location[DW_OP_regx 0x2f]
    2346              
    2347              
    2348              ;***************************************************************
    2349              ;* FNAME: __relaxed_atan2f              FR SIZE:   0           *
    2350              ;*                                                             *
    2351              ;* FUNCTION ENVIRONMENT                                        *
    2352              ;*                                                             *
    2353              ;* FUNCTION PROPERTIES                                         *
    2354              ;*                            0 Parameter,  0 Auto,  0 SOE     *
    2355              ;***************************************************************
    2356              
    2357              ||__relaxed_atan2f||:
    2358              ;* R0    assigned to y
    2359              $C$DW$161       .dwtag  DW_TAG_variable
    2360                      .dwattr $C$DW$161, DW_AT_name("y")
    2361                      .dwattr $C$DW$161, DW_AT_type(*$C$DW$T$141)
    2362                      .dwattr $C$DW$161, DW_AT_location[DW_OP_regx 0x2b]
    2363              
    2364              ;* R1    assigned to x
    2365              $C$DW$162       .dwtag  DW_TAG_variable
    2366                      .dwattr $C$DW$162, DW_AT_name("x")
    2367                      .dwattr $C$DW$162, DW_AT_type(*$C$DW$T$141)
    2368                      .dwattr $C$DW$162, DW_AT_location[DW_OP_regx 0x2f]
    2369              
    2370                      .dwcfi  cfa_offset, -2
    2371                      .dwcfi  save_reg_to_mem, 26, 0
    2372                      .dwpsn  file "C:/ti/ccs1271/ccs/tools/compiler/ti-cgt-c2000_22.6.1.LTS/include/math.h",line 281,colum
    2373 00000000 E27C          QUADF32   R1H,R0H,R0H,R1H       ; [CPU_FPU] |281| 
         00000001 0201 
    2374 00000002 7700          NOP       ; [CPU_ALU] 
    2375 00000003 7700          NOP       ; [CPU_ALU] 
    2376 00000004 7700          NOP       ; [CPU_ALU] 
    2377 00000005 7700          NOP       ; [CPU_ALU] 
    2378 00000006 E27A          ATANPUF32 R0H,R0H               ; [CPU_FPU] |281| 
         00000007 0000 
    2379 00000008 7700          NOP       ; [CPU_ALU] 
    2380 00000009 7700          NOP       ; [CPU_ALU] 
    2381 0000000a 7700          NOP       ; [CPU_ALU] 
    2382 0000000b E710          ADDF32    R0H,R0H,R1H           ; [CPU_FPU] |281| 
         0000000c 0040 
    2383 0000000d 7700          NOP       ; [CPU_ALU] 
    2384 0000000e 7700          NOP       ; [CPU_ALU] 
    2385 0000000f E270          MPY2PIF32 R0H,R0H               ; [CPU_FPU] |281| 
         00000010 0000 
    2386 00000011 7700          NOP       ; [CPU_ALU] 
    2387              $C$DW$163       .dwtag  DW_TAG_TI_branch
    2388                      .dwattr $C$DW$163, DW_AT_low_pc(0x00)
    2389                      .dwattr $C$DW$163, DW_AT_TI_return
    2390              
    2391 00000012 0006          LRETR     ; [CPU_ALU] 
    2392                      ; return occurs ; [] 
TMS320C2000 Assembler PC v22.6.1 Tue Aug 13 19:46:08 2024

Copyright (c) 1996-2018 Texas Instruments Incorporated
bts.asm                                                              PAGE   50

    2393                      .dwattr $C$DW$158, DW_AT_TI_end_file("C:/ti/ccs1271/ccs/tools/compiler/ti-cgt-c2000_22.6.1.LTS/includ
    2394                      .dwattr $C$DW$158, DW_AT_TI_end_line(0x11a)
    2395                      .dwattr $C$DW$158, DW_AT_TI_end_column(0x01)
    2396                      .dwendentry
    2397                      .dwendtag $C$DW$158
    2398              
    2399 00000000               .sect   ".text:__isnormall"
    2400                      .clink
    2401                      .global ||__isnormall||
    2402              
    2403              $C$DW$164       .dwtag  DW_TAG_subprogram
    2404                      .dwattr $C$DW$164, DW_AT_name("__isnormall")
    2405                      .dwattr $C$DW$164, DW_AT_low_pc(||__isnormall||)
    2406                      .dwattr $C$DW$164, DW_AT_high_pc(0x00)
    2407                      .dwattr $C$DW$164, DW_AT_linkage_name("__isnormall")
    2408                      .dwattr $C$DW$164, DW_AT_external
    2409                      .dwattr $C$DW$164, DW_AT_type(*$C$DW$T$10)
    2410                      .dwattr $C$DW$164, DW_AT_decl_file("C:/ti/ccs1271/ccs/tools/compiler/ti-cgt-c2000_22.6.1.LTS/include/
    2411                      .dwattr $C$DW$164, DW_AT_decl_line(0x167)
    2412                      .dwattr $C$DW$164, DW_AT_decl_column(0x18)
    2413                      .dwattr $C$DW$164, DW_AT_TI_max_frame_size(-6)
    2414                      .dwpsn  file "C:/ti/ccs1271/ccs/tools/compiler/ti-cgt-c2000_22.6.1.LTS/include/_defs.h",line 360,colu
    2415              
    2416                      .dwfde $C$DW$CIE, ||__isnormall||
    2417              $C$DW$165       .dwtag  DW_TAG_formal_parameter
    2418                      .dwattr $C$DW$165, DW_AT_name("e")
    2419                      .dwattr $C$DW$165, DW_AT_type(*$C$DW$T$147)
    2420                      .dwattr $C$DW$165, DW_AT_location[DW_OP_reg12]
    2421              
    2422              
    2423              ;***************************************************************
    2424              ;* FNAME: __isnormall                   FR SIZE:   4           *
    2425              ;*                                                             *
    2426              ;* FUNCTION ENVIRONMENT                                        *
    2427              ;*                                                             *
    2428              ;* FUNCTION PROPERTIES                                         *
    2429              ;*                            4 Parameter,  0 Auto,  0 SOE     *
    2430              ;***************************************************************
    2431              
    2432              ||__isnormall||:
    2433              ;* AR5   assigned to $O$C2
    2434              ;* AR6   assigned to $O$S1
    2435              ;* AR4   assigned to e
    2436              $C$DW$166       .dwtag  DW_TAG_variable
    2437                      .dwattr $C$DW$166, DW_AT_name("e")
    2438                      .dwattr $C$DW$166, DW_AT_type(*$C$DW$T$148)
    2439                      .dwattr $C$DW$166, DW_AT_location[DW_OP_reg12]
    2440              
    2441                      .dwcfi  cfa_offset, -2
    2442                      .dwcfi  save_reg_to_mem, 26, 0
    2443 00000000 FE04          ADDB      SP,#4                 ; [CPU_ARAU] 
    2444                      .dwcfi  cfa_offset, -6
    2445                      .dwpsn  file "C:/ti/ccs1271/ccs/tools/compiler/ti-cgt-c2000_22.6.1.LTS/include/_defs.h",line 360,colu
    2446 00000001 83C4          MOVL      XAR5,*+XAR4[0]        ; [CPU_ALU] |360| 
    2447 00000002 8AD4          MOVL      XAR4,*+XAR4[2]        ; [CPU_ALU] |360| 
TMS320C2000 Assembler PC v22.6.1 Tue Aug 13 19:46:08 2024

Copyright (c) 1996-2018 Texas Instruments Incorporated
bts.asm                                                              PAGE   51

    2448 00000003 BE00          MOVB      XAR6,#0               ; [CPU_ALU] |360| 
    2449 00000004 28AC          MOV       T,#52                 ; [CPU_ALU] |360| 
         00000005 0034 
    2450 00000006 A0AB          MOVL      P,XAR5                ; [CPU_ALU] |360| 
    2451 00000007 A8A9          MOVL      ACC,XAR4              ; [CPU_ALU] |360| 
    2452 00000008 C244          MOVL      *-SP[4],XAR6          ; [CPU_ALU] |360| 
    2453 00000009 2B42          MOV       *-SP[2],#0            ; [CPU_ALU] |360| 
    2454 0000000a 565B          LSR64     ACC:P,T               ; [CPU_ALU] |360| 
    2455 0000000b 2B41          MOV       *-SP[1],#0            ; [CPU_FPU] |360| 
    2456 0000000c 9000          ANDB      AL,#0                 ; [CPU_ALU] |360| 
    2457 0000000d 9100          ANDB      AH,#0                 ; [CPU_ALU] |360| 
    2458 0000000e 18AB          AND       PL,#2047              ; [CPU_ALU] |360| 
         0000000f 07FF 
    2459 00000010 18AA          AND       PH,#0                 ; [CPU_ALU] |360| 
         00000011 0000 
    2460              $C$DW$167       .dwtag  DW_TAG_TI_branch
    2461                      .dwattr $C$DW$167, DW_AT_low_pc(0x00)
    2462                      .dwattr $C$DW$167, DW_AT_name("__c28xabi_cmpull")
    2463                      .dwattr $C$DW$167, DW_AT_TI_call
    2464              
    2465 00000012 7640!         LCR       #||__c28xabi_cmpull|| ; [CPU_ALU] |360| 
         00000013 0000 
    2466                      ; call occurs [#||__c28xabi_cmpull||] ; [] |360| 
    2467 00000014 BE00          MOVB      XAR6,#0               ; [CPU_ALU] |360| 
    2468 00000015 5200          CMPB      AL,#0                 ; [CPU_ALU] |360| 
    2469 00000016 610E          B         ||$C$L8||,EQ          ; [CPU_ALU] |360| 
    2470                      ; branchcc occurs ; [] |360| 
    2471 00000017 A0AB          MOVL      P,XAR5                ; [CPU_ALU] |360| 
    2472 00000018 A8A9          MOVL      ACC,XAR4              ; [CPU_ALU] |360| 
    2473 00000019 28AC          MOV       T,#48                 ; [CPU_ALU] |360| 
         0000001a 0030 
    2474 0000001b 565B          LSR64     ACC:P,T               ; [CPU_ALU] |360| 
    2475 0000001c 18AB          AND       PL,#0x7ff0            ; [CPU_ALU] |360| 
         0000001d 7FF0 
    2476 0000001e 80AB          MOVZ      AR7,PL                ; [CPU_ALU] |360| 
    2477 0000001f FF20          MOV       ACC,#32752            ; [CPU_ALU] |360| 
         00000020 7FF0 
    2478 00000021 0FA7          CMPL      ACC,XAR7              ; [CPU_ALU] |360| 
    2479 00000022 56B0          MOVB      XAR6,#1,NEQ           ; [CPU_ALU] |360| 
         00000023 01A6 
    2480 00000024       ||$C$L8||:    
    2481 00000024 FE84          SUBB      SP,#4                 ; [CPU_ARAU] 
    2482                      .dwcfi  cfa_offset, -2
    2483 00000025 92A6          MOV       AL,AR6                ; [CPU_ALU] |360| 
    2484              $C$DW$168       .dwtag  DW_TAG_TI_branch
    2485                      .dwattr $C$DW$168, DW_AT_low_pc(0x00)
    2486                      .dwattr $C$DW$168, DW_AT_TI_return
    2487              
    2488 00000026 0006          LRETR     ; [CPU_ALU] 
    2489                      ; return occurs ; [] 
    2490                      .dwattr $C$DW$164, DW_AT_TI_end_file("C:/ti/ccs1271/ccs/tools/compiler/ti-cgt-c2000_22.6.1.LTS/includ
    2491                      .dwattr $C$DW$164, DW_AT_TI_end_line(0x169)
    2492                      .dwattr $C$DW$164, DW_AT_TI_end_column(0x31)
    2493                      .dwendentry
    2494                      .dwendtag $C$DW$164
TMS320C2000 Assembler PC v22.6.1 Tue Aug 13 19:46:08 2024

Copyright (c) 1996-2018 Texas Instruments Incorporated
bts.asm                                                              PAGE   52

    2495              
    2496 00000000               .sect   ".text:__isnormalf"
    2497                      .clink
    2498                      .global ||__isnormalf||
    2499              
    2500              $C$DW$169       .dwtag  DW_TAG_subprogram
    2501                      .dwattr $C$DW$169, DW_AT_name("__isnormalf")
    2502                      .dwattr $C$DW$169, DW_AT_low_pc(||__isnormalf||)
    2503                      .dwattr $C$DW$169, DW_AT_high_pc(0x00)
    2504                      .dwattr $C$DW$169, DW_AT_linkage_name("__isnormalf")
    2505                      .dwattr $C$DW$169, DW_AT_external
    2506                      .dwattr $C$DW$169, DW_AT_type(*$C$DW$T$10)
    2507                      .dwattr $C$DW$169, DW_AT_decl_file("C:/ti/ccs1271/ccs/tools/compiler/ti-cgt-c2000_22.6.1.LTS/include/
    2508                      .dwattr $C$DW$169, DW_AT_decl_line(0x163)
    2509                      .dwattr $C$DW$169, DW_AT_decl_column(0x18)
    2510                      .dwattr $C$DW$169, DW_AT_TI_max_frame_size(-2)
    2511                      .dwpsn  file "C:/ti/ccs1271/ccs/tools/compiler/ti-cgt-c2000_22.6.1.LTS/include/_defs.h",line 356,colu
    2512              
    2513                      .dwfde $C$DW$CIE, ||__isnormalf||
    2514              $C$DW$170       .dwtag  DW_TAG_formal_parameter
    2515                      .dwattr $C$DW$170, DW_AT_name("f")
    2516                      .dwattr $C$DW$170, DW_AT_type(*$C$DW$T$16)
    2517                      .dwattr $C$DW$170, DW_AT_location[DW_OP_regx 0x2b]
    2518              
    2519              
    2520              ;***************************************************************
    2521              ;* FNAME: __isnormalf                   FR SIZE:   0           *
    2522              ;*                                                             *
    2523              ;* FUNCTION ENVIRONMENT                                        *
    2524              ;*                                                             *
    2525              ;* FUNCTION PROPERTIES                                         *
    2526              ;*                            0 Parameter,  0 Auto,  0 SOE     *
    2527              ;***************************************************************
    2528              
    2529              ||__isnormalf||:
    2530              ;* PL    assigned to $O$K3
    2531              ;* AR6   assigned to $O$S1
    2532              ;* R0    assigned to f
    2533              $C$DW$171       .dwtag  DW_TAG_variable
    2534                      .dwattr $C$DW$171, DW_AT_name("f")
    2535                      .dwattr $C$DW$171, DW_AT_type(*$C$DW$T$141)
    2536                      .dwattr $C$DW$171, DW_AT_location[DW_OP_regx 0x2b]
    2537              
    2538                      .dwcfi  cfa_offset, -2
    2539                      .dwcfi  save_reg_to_mem, 26, 0
    2540                      .dwpsn  file "C:/ti/ccs1271/ccs/tools/compiler/ti-cgt-c2000_22.6.1.LTS/include/_defs.h",line 356,colu
    2541 00000000 BFAB          MOV32     P,R0H                 ; [CPU_FPU] |356| 
         00000001 0F12 
    2542 00000002 28AC          MOV       T,#23                 ; [CPU_ALU] |356| 
         00000003 0017 
    2543 00000004 A9A9          MOVL      ACC,P                 ; [CPU_ALU] |356| 
    2544 00000005 BE00          MOVB      XAR6,#0               ; [CPU_ALU] |356| 
    2545 00000006 5622          LSRL      ACC,T                 ; [CPU_ALU] |356| 
    2546 00000007 90FF          ANDB      AL,#0xff              ; [CPU_ALU] |356| 
    2547 00000008 6109          B         ||$C$L9||,EQ          ; [CPU_ALU] |356| 
TMS320C2000 Assembler PC v22.6.1 Tue Aug 13 19:46:08 2024

Copyright (c) 1996-2018 Texas Instruments Incorporated
bts.asm                                                              PAGE   53

    2548                      ; branchcc occurs ; [] |356| 
    2549 00000009 CCAA          AND       AL,PH,#0x7f80         ; [CPU_ALU] |356| 
         0000000a 7F80 
    2550 0000000b 80A9          MOVZ      AR7,AL                ; [CPU_ALU] |356| 
    2551 0000000c FF20          MOV       ACC,#32640            ; [CPU_ALU] |356| 
         0000000d 7F80 
    2552 0000000e 0FA7          CMPL      ACC,XAR7              ; [CPU_ALU] |356| 
    2553 0000000f 56B0          MOVB      XAR6,#1,NEQ           ; [CPU_ALU] |356| 
         00000010 01A6 
    2554 00000011       ||$C$L9||:    
    2555 00000011 92A6          MOV       AL,AR6                ; [CPU_ALU] |356| 
    2556              $C$DW$172       .dwtag  DW_TAG_TI_branch
    2557                      .dwattr $C$DW$172, DW_AT_low_pc(0x00)
    2558                      .dwattr $C$DW$172, DW_AT_TI_return
    2559              
    2560 00000012 0006          LRETR     ; [CPU_ALU] 
    2561                      ; return occurs ; [] 
    2562                      .dwattr $C$DW$169, DW_AT_TI_end_file("C:/ti/ccs1271/ccs/tools/compiler/ti-cgt-c2000_22.6.1.LTS/includ
    2563                      .dwattr $C$DW$169, DW_AT_TI_end_line(0x165)
    2564                      .dwattr $C$DW$169, DW_AT_TI_end_column(0x2f)
    2565                      .dwendentry
    2566                      .dwendtag $C$DW$169
    2567              
    2568 00000000               .sect   ".text:__isnormal"
    2569                      .clink
    2570                      .global ||__isnormal||
    2571              
    2572              $C$DW$173       .dwtag  DW_TAG_subprogram
    2573                      .dwattr $C$DW$173, DW_AT_name("__isnormal")
    2574                      .dwattr $C$DW$173, DW_AT_low_pc(||__isnormal||)
    2575                      .dwattr $C$DW$173, DW_AT_high_pc(0x00)
    2576                      .dwattr $C$DW$173, DW_AT_linkage_name("__isnormal")
    2577                      .dwattr $C$DW$173, DW_AT_external
    2578                      .dwattr $C$DW$173, DW_AT_type(*$C$DW$T$10)
    2579                      .dwattr $C$DW$173, DW_AT_decl_file("C:/ti/ccs1271/ccs/tools/compiler/ti-cgt-c2000_22.6.1.LTS/include/
    2580                      .dwattr $C$DW$173, DW_AT_decl_line(0x15f)
    2581                      .dwattr $C$DW$173, DW_AT_decl_column(0x18)
    2582                      .dwattr $C$DW$173, DW_AT_TI_max_frame_size(-6)
    2583                      .dwpsn  file "C:/ti/ccs1271/ccs/tools/compiler/ti-cgt-c2000_22.6.1.LTS/include/_defs.h",line 352,colu
    2584              
    2585                      .dwfde $C$DW$CIE, ||__isnormal||
    2586              $C$DW$174       .dwtag  DW_TAG_formal_parameter
    2587                      .dwattr $C$DW$174, DW_AT_name("d")
    2588                      .dwattr $C$DW$174, DW_AT_type(*$C$DW$T$144)
    2589                      .dwattr $C$DW$174, DW_AT_location[DW_OP_reg12]
    2590              
    2591              
    2592              ;***************************************************************
    2593              ;* FNAME: __isnormal                    FR SIZE:   4           *
    2594              ;*                                                             *
    2595              ;* FUNCTION ENVIRONMENT                                        *
    2596              ;*                                                             *
    2597              ;* FUNCTION PROPERTIES                                         *
    2598              ;*                            4 Parameter,  0 Auto,  0 SOE     *
    2599              ;***************************************************************
TMS320C2000 Assembler PC v22.6.1 Tue Aug 13 19:46:08 2024

Copyright (c) 1996-2018 Texas Instruments Incorporated
bts.asm                                                              PAGE   54

    2600              
    2601              ||__isnormal||:
    2602              ;* AR5   assigned to $O$C2
    2603              ;* AR6   assigned to $O$S1
    2604              ;* AR4   assigned to d
    2605              $C$DW$175       .dwtag  DW_TAG_variable
    2606                      .dwattr $C$DW$175, DW_AT_name("d")
    2607                      .dwattr $C$DW$175, DW_AT_type(*$C$DW$T$145)
    2608                      .dwattr $C$DW$175, DW_AT_location[DW_OP_reg12]
    2609              
    2610                      .dwcfi  cfa_offset, -2
    2611                      .dwcfi  save_reg_to_mem, 26, 0
    2612 00000000 FE04          ADDB      SP,#4                 ; [CPU_ARAU] 
    2613                      .dwcfi  cfa_offset, -6
    2614                      .dwpsn  file "C:/ti/ccs1271/ccs/tools/compiler/ti-cgt-c2000_22.6.1.LTS/include/_defs.h",line 352,colu
    2615 00000001 83C4          MOVL      XAR5,*+XAR4[0]        ; [CPU_ALU] |352| 
    2616 00000002 8AD4          MOVL      XAR4,*+XAR4[2]        ; [CPU_ALU] |352| 
    2617 00000003 BE00          MOVB      XAR6,#0               ; [CPU_ALU] |352| 
    2618 00000004 28AC          MOV       T,#52                 ; [CPU_ALU] |352| 
         00000005 0034 
    2619 00000006 A0AB          MOVL      P,XAR5                ; [CPU_ALU] |352| 
    2620 00000007 A8A9          MOVL      ACC,XAR4              ; [CPU_ALU] |352| 
    2621 00000008 C244          MOVL      *-SP[4],XAR6          ; [CPU_ALU] |352| 
    2622 00000009 2B42          MOV       *-SP[2],#0            ; [CPU_ALU] |352| 
    2623 0000000a 565B          LSR64     ACC:P,T               ; [CPU_ALU] |352| 
    2624 0000000b 2B41          MOV       *-SP[1],#0            ; [CPU_FPU] |352| 
    2625 0000000c 9000          ANDB      AL,#0                 ; [CPU_ALU] |352| 
    2626 0000000d 9100          ANDB      AH,#0                 ; [CPU_ALU] |352| 
    2627 0000000e 18AB          AND       PL,#2047              ; [CPU_ALU] |352| 
         0000000f 07FF 
    2628 00000010 18AA          AND       PH,#0                 ; [CPU_ALU] |352| 
         00000011 0000 
    2629              $C$DW$176       .dwtag  DW_TAG_TI_branch
    2630                      .dwattr $C$DW$176, DW_AT_low_pc(0x00)
    2631                      .dwattr $C$DW$176, DW_AT_name("__c28xabi_cmpull")
    2632                      .dwattr $C$DW$176, DW_AT_TI_call
    2633              
    2634 00000012 7640!         LCR       #||__c28xabi_cmpull|| ; [CPU_ALU] |352| 
         00000013 0000 
    2635                      ; call occurs [#||__c28xabi_cmpull||] ; [] |352| 
    2636 00000014 BE00          MOVB      XAR6,#0               ; [CPU_ALU] |352| 
    2637 00000015 5200          CMPB      AL,#0                 ; [CPU_ALU] |352| 
    2638 00000016 610E          B         ||$C$L10||,EQ         ; [CPU_ALU] |352| 
    2639                      ; branchcc occurs ; [] |352| 
    2640 00000017 A0AB          MOVL      P,XAR5                ; [CPU_ALU] |352| 
    2641 00000018 A8A9          MOVL      ACC,XAR4              ; [CPU_ALU] |352| 
    2642 00000019 28AC          MOV       T,#48                 ; [CPU_ALU] |352| 
         0000001a 0030 
    2643 0000001b 565B          LSR64     ACC:P,T               ; [CPU_ALU] |352| 
    2644 0000001c 18AB          AND       PL,#0x7ff0            ; [CPU_ALU] |352| 
         0000001d 7FF0 
    2645 0000001e 80AB          MOVZ      AR7,PL                ; [CPU_ALU] |352| 
    2646 0000001f FF20          MOV       ACC,#32752            ; [CPU_ALU] |352| 
         00000020 7FF0 
    2647 00000021 0FA7          CMPL      ACC,XAR7              ; [CPU_ALU] |352| 
TMS320C2000 Assembler PC v22.6.1 Tue Aug 13 19:46:08 2024

Copyright (c) 1996-2018 Texas Instruments Incorporated
bts.asm                                                              PAGE   55

    2648 00000022 56B0          MOVB      XAR6,#1,NEQ           ; [CPU_ALU] |352| 
         00000023 01A6 
    2649 00000024       ||$C$L10||:    
    2650 00000024 FE84          SUBB      SP,#4                 ; [CPU_ARAU] 
    2651                      .dwcfi  cfa_offset, -2
    2652 00000025 92A6          MOV       AL,AR6                ; [CPU_ALU] |352| 
    2653              $C$DW$177       .dwtag  DW_TAG_TI_branch
    2654                      .dwattr $C$DW$177, DW_AT_low_pc(0x00)
    2655                      .dwattr $C$DW$177, DW_AT_TI_return
    2656              
    2657 00000026 0006          LRETR     ; [CPU_ALU] 
    2658                      ; return occurs ; [] 
    2659                      .dwattr $C$DW$173, DW_AT_TI_end_file("C:/ti/ccs1271/ccs/tools/compiler/ti-cgt-c2000_22.6.1.LTS/includ
    2660                      .dwattr $C$DW$173, DW_AT_TI_end_line(0x161)
    2661                      .dwattr $C$DW$173, DW_AT_TI_end_column(0x30)
    2662                      .dwendentry
    2663                      .dwendtag $C$DW$173
    2664              
    2665 00000000               .sect   ".text:__isnanl"
    2666                      .clink
    2667                      .global ||__isnanl||
    2668              
    2669              $C$DW$178       .dwtag  DW_TAG_subprogram
    2670                      .dwattr $C$DW$178, DW_AT_name("__isnanl")
    2671                      .dwattr $C$DW$178, DW_AT_low_pc(||__isnanl||)
    2672                      .dwattr $C$DW$178, DW_AT_high_pc(0x00)
    2673                      .dwattr $C$DW$178, DW_AT_linkage_name("__isnanl")
    2674                      .dwattr $C$DW$178, DW_AT_external
    2675                      .dwattr $C$DW$178, DW_AT_type(*$C$DW$T$10)
    2676                      .dwattr $C$DW$178, DW_AT_decl_file("C:/ti/ccs1271/ccs/tools/compiler/ti-cgt-c2000_22.6.1.LTS/include/
    2677                      .dwattr $C$DW$178, DW_AT_decl_line(0x15b)
    2678                      .dwattr $C$DW$178, DW_AT_decl_column(0x18)
    2679                      .dwattr $C$DW$178, DW_AT_TI_max_frame_size(-6)
    2680                      .dwpsn  file "C:/ti/ccs1271/ccs/tools/compiler/ti-cgt-c2000_22.6.1.LTS/include/_defs.h",line 348,colu
    2681              
    2682                      .dwfde $C$DW$CIE, ||__isnanl||
    2683              $C$DW$179       .dwtag  DW_TAG_formal_parameter
    2684                      .dwattr $C$DW$179, DW_AT_name("e")
    2685                      .dwattr $C$DW$179, DW_AT_type(*$C$DW$T$147)
    2686                      .dwattr $C$DW$179, DW_AT_location[DW_OP_reg12]
    2687              
    2688              
    2689              ;***************************************************************
    2690              ;* FNAME: __isnanl                      FR SIZE:   4           *
    2691              ;*                                                             *
    2692              ;* FUNCTION ENVIRONMENT                                        *
    2693              ;*                                                             *
    2694              ;* FUNCTION PROPERTIES                                         *
    2695              ;*                            4 Parameter,  0 Auto,  0 SOE     *
    2696              ;***************************************************************
    2697              
    2698              ||__isnanl||:
    2699              ;* AR7   assigned to $O$C2
    2700              ;* AR4   assigned to $O$S1
    2701              ;* AR4   assigned to e
TMS320C2000 Assembler PC v22.6.1 Tue Aug 13 19:46:08 2024

Copyright (c) 1996-2018 Texas Instruments Incorporated
bts.asm                                                              PAGE   56

    2702              $C$DW$180       .dwtag  DW_TAG_variable
    2703                      .dwattr $C$DW$180, DW_AT_name("e")
    2704                      .dwattr $C$DW$180, DW_AT_type(*$C$DW$T$148)
    2705                      .dwattr $C$DW$180, DW_AT_location[DW_OP_reg12]
    2706              
    2707                      .dwcfi  cfa_offset, -2
    2708                      .dwcfi  save_reg_to_mem, 26, 0
    2709 00000000 FE04          ADDB      SP,#4                 ; [CPU_ARAU] 
    2710                      .dwcfi  cfa_offset, -6
    2711                      .dwpsn  file "C:/ti/ccs1271/ccs/tools/compiler/ti-cgt-c2000_22.6.1.LTS/include/_defs.h",line 348,colu
    2712 00000001 C5C4          MOVL      XAR7,*+XAR4[0]        ; [CPU_ALU] |348| 
    2713 00000002 06D4          MOVL      ACC,*+XAR4[2]         ; [CPU_ALU] |348| 
    2714 00000003 28AC          MOV       T,#48                 ; [CPU_ALU] |348| 
         00000004 0030 
    2715 00000005 1EA6          MOVL      XAR6,ACC              ; [CPU_ALU] |348| 
    2716 00000006 A3A7          MOVL      P,XAR7                ; [CPU_ALU] |348| 
    2717 00000007 D400          MOVB      XAR4,#0               ; [CPU_ALU] |348| 
    2718 00000008 565B          LSR64     ACC:P,T               ; [CPU_ALU] |348| 
    2719 00000009 2BAA          MOV       PH,#0                 ; [CPU_ALU] |348| 
    2720 0000000a 18AB          AND       PL,#0x7ff0            ; [CPU_ALU] |348| 
         0000000b 7FF0 
    2721 0000000c FF20          MOV       ACC,#32752            ; [CPU_ALU] |348| 
         0000000d 7FF0 
    2722 0000000e 0FAB          CMPL      ACC,P                 ; [CPU_ALU] |348| 
    2723 0000000f 6013          B         ||$C$L11||,NEQ        ; [CPU_ALU] |348| 
    2724                      ; branchcc occurs ; [] |348| 
    2725 00000010 06A6          MOVL      ACC,XAR6              ; [CPU_ALU] |348| 
    2726 00000011 A3A7          MOVL      P,XAR7                ; [CPU_ALU] |348| 
    2727 00000012 BE00          MOVB      XAR6,#0               ; [CPU_ALU] |348| 
    2728 00000013 18A9          AND       AL,#65535             ; [CPU_ALU] |348| 
         00000014 FFFF 
    2729 00000015 910F          ANDB      AH,#15                ; [CPU_ALU] |348| 
    2730 00000016 18AB          AND       PL,#65535             ; [CPU_ALU] |348| 
         00000017 FFFF 
    2731 00000018 18AA          AND       PH,#65535             ; [CPU_ALU] |348| 
         00000019 FFFF 
    2732 0000001a C244          MOVL      *-SP[4],XAR6          ; [CPU_FPU] |348| 
    2733 0000001b 2B42          MOV       *-SP[2],#0            ; [CPU_FPU] |348| 
    2734 0000001c 2B41          MOV       *-SP[1],#0            ; [CPU_FPU] |348| 
    2735              $C$DW$181       .dwtag  DW_TAG_TI_branch
    2736                      .dwattr $C$DW$181, DW_AT_low_pc(0x00)
    2737                      .dwattr $C$DW$181, DW_AT_name("__c28xabi_cmpull")
    2738                      .dwattr $C$DW$181, DW_AT_TI_call
    2739              
    2740 0000001d 7640!         LCR       #||__c28xabi_cmpull|| ; [CPU_ALU] |348| 
         0000001e 0000 
    2741                      ; call occurs [#||__c28xabi_cmpull||] ; [] |348| 
    2742 0000001f 5200          CMPB      AL,#0                 ; [CPU_ALU] |348| 
    2743 00000020 56B0          MOVB      XAR4,#1,NEQ           ; [CPU_ALU] |348| 
         00000021 01A4 
    2744 00000022       ||$C$L11||:    
    2745 00000022 FE84          SUBB      SP,#4                 ; [CPU_ARAU] 
    2746                      .dwcfi  cfa_offset, -2
    2747 00000023 92A4          MOV       AL,AR4                ; [CPU_ALU] |348| 
    2748              $C$DW$182       .dwtag  DW_TAG_TI_branch
TMS320C2000 Assembler PC v22.6.1 Tue Aug 13 19:46:08 2024

Copyright (c) 1996-2018 Texas Instruments Incorporated
bts.asm                                                              PAGE   57

    2749                      .dwattr $C$DW$182, DW_AT_low_pc(0x00)
    2750                      .dwattr $C$DW$182, DW_AT_TI_return
    2751              
    2752 00000024 0006          LRETR     ; [CPU_ALU] 
    2753                      ; return occurs ; [] 
    2754                      .dwattr $C$DW$178, DW_AT_TI_end_file("C:/ti/ccs1271/ccs/tools/compiler/ti-cgt-c2000_22.6.1.LTS/includ
    2755                      .dwattr $C$DW$178, DW_AT_TI_end_line(0x15d)
    2756                      .dwattr $C$DW$178, DW_AT_TI_end_column(0x30)
    2757                      .dwendentry
    2758                      .dwendtag $C$DW$178
    2759              
    2760 00000000               .sect   ".text:__isnanf"
    2761                      .clink
    2762                      .global ||__isnanf||
    2763              
    2764              $C$DW$183       .dwtag  DW_TAG_subprogram
    2765                      .dwattr $C$DW$183, DW_AT_name("__isnanf")
    2766                      .dwattr $C$DW$183, DW_AT_low_pc(||__isnanf||)
    2767                      .dwattr $C$DW$183, DW_AT_high_pc(0x00)
    2768                      .dwattr $C$DW$183, DW_AT_linkage_name("__isnanf")
    2769                      .dwattr $C$DW$183, DW_AT_external
    2770                      .dwattr $C$DW$183, DW_AT_type(*$C$DW$T$10)
    2771                      .dwattr $C$DW$183, DW_AT_decl_file("C:/ti/ccs1271/ccs/tools/compiler/ti-cgt-c2000_22.6.1.LTS/include/
    2772                      .dwattr $C$DW$183, DW_AT_decl_line(0x158)
    2773                      .dwattr $C$DW$183, DW_AT_decl_column(0x18)
    2774                      .dwattr $C$DW$183, DW_AT_TI_max_frame_size(-2)
    2775                      .dwpsn  file "C:/ti/ccs1271/ccs/tools/compiler/ti-cgt-c2000_22.6.1.LTS/include/_defs.h",line 345,colu
    2776              
    2777                      .dwfde $C$DW$CIE, ||__isnanf||
    2778              $C$DW$184       .dwtag  DW_TAG_formal_parameter
    2779                      .dwattr $C$DW$184, DW_AT_name("f")
    2780                      .dwattr $C$DW$184, DW_AT_type(*$C$DW$T$16)
    2781                      .dwattr $C$DW$184, DW_AT_location[DW_OP_regx 0x2b]
    2782              
    2783              
    2784              ;***************************************************************
    2785              ;* FNAME: __isnanf                      FR SIZE:   0           *
    2786              ;*                                                             *
    2787              ;* FUNCTION ENVIRONMENT                                        *
    2788              ;*                                                             *
    2789              ;* FUNCTION PROPERTIES                                         *
    2790              ;*                            0 Parameter,  0 Auto,  0 SOE     *
    2791              ;***************************************************************
    2792              
    2793              ||__isnanf||:
    2794              ;* PL    assigned to $O$K3
    2795              ;* AR6   assigned to $O$S1
    2796              ;* R0    assigned to f
    2797              $C$DW$185       .dwtag  DW_TAG_variable
    2798                      .dwattr $C$DW$185, DW_AT_name("f")
    2799                      .dwattr $C$DW$185, DW_AT_type(*$C$DW$T$141)
    2800                      .dwattr $C$DW$185, DW_AT_location[DW_OP_regx 0x2b]
    2801              
    2802                      .dwcfi  cfa_offset, -2
    2803                      .dwcfi  save_reg_to_mem, 26, 0
TMS320C2000 Assembler PC v22.6.1 Tue Aug 13 19:46:08 2024

Copyright (c) 1996-2018 Texas Instruments Incorporated
bts.asm                                                              PAGE   58

    2804                      .dwpsn  file "C:/ti/ccs1271/ccs/tools/compiler/ti-cgt-c2000_22.6.1.LTS/include/_defs.h",line 345,colu
    2805 00000000 BFAB          MOV32     P,R0H                 ; [CPU_FPU] |345| 
         00000001 0F12 
    2806 00000002 CCAA          AND       AL,PH,#0x7f80         ; [CPU_ALU] |345| 
         00000003 7F80 
    2807 00000004 80A9          MOVZ      AR7,AL                ; [CPU_ALU] |345| 
    2808 00000005 BE00          MOVB      XAR6,#0               ; [CPU_ALU] |345| 
    2809 00000006 FF20          MOV       ACC,#32640            ; [CPU_ALU] |345| 
         00000007 7F80 
    2810 00000008 0FA7          CMPL      ACC,XAR7              ; [CPU_ALU] |345| 
    2811 00000009 6006          B         ||$C$L12||,NEQ        ; [CPU_ALU] |345| 
    2812                      ; branchcc occurs ; [] |345| 
    2813 0000000a A9A9          MOVL      ACC,P                 ; [CPU_ALU] |345| 
    2814 0000000b 917F          ANDB      AH,#127               ; [CPU_ALU] |345| 
    2815 0000000c FF58          TEST      ACC                   ; [CPU_ALU] |345| 
    2816 0000000d 56B0          MOVB      XAR6,#1,NEQ           ; [CPU_ALU] |345| 
         0000000e 01A6 
    2817 0000000f       ||$C$L12||:    
    2818 0000000f 92A6          MOV       AL,AR6                ; [CPU_ALU] |345| 
    2819              $C$DW$186       .dwtag  DW_TAG_TI_branch
    2820                      .dwattr $C$DW$186, DW_AT_low_pc(0x00)
    2821                      .dwattr $C$DW$186, DW_AT_TI_return
    2822              
    2823 00000010 0006          LRETR     ; [CPU_ALU] 
    2824                      ; return occurs ; [] 
    2825                      .dwattr $C$DW$183, DW_AT_TI_end_file("C:/ti/ccs1271/ccs/tools/compiler/ti-cgt-c2000_22.6.1.LTS/includ
    2826                      .dwattr $C$DW$183, DW_AT_TI_end_line(0x15a)
    2827                      .dwattr $C$DW$183, DW_AT_TI_end_column(0x2e)
    2828                      .dwendentry
    2829                      .dwendtag $C$DW$183
    2830              
    2831 00000000               .sect   ".text:__isnan"
    2832                      .clink
    2833                      .global ||__isnan||
    2834              
    2835              $C$DW$187       .dwtag  DW_TAG_subprogram
    2836                      .dwattr $C$DW$187, DW_AT_name("__isnan")
    2837                      .dwattr $C$DW$187, DW_AT_low_pc(||__isnan||)
    2838                      .dwattr $C$DW$187, DW_AT_high_pc(0x00)
    2839                      .dwattr $C$DW$187, DW_AT_linkage_name("__isnan")
    2840                      .dwattr $C$DW$187, DW_AT_external
    2841                      .dwattr $C$DW$187, DW_AT_type(*$C$DW$T$10)
    2842                      .dwattr $C$DW$187, DW_AT_decl_file("C:/ti/ccs1271/ccs/tools/compiler/ti-cgt-c2000_22.6.1.LTS/include/
    2843                      .dwattr $C$DW$187, DW_AT_decl_line(0x155)
    2844                      .dwattr $C$DW$187, DW_AT_decl_column(0x18)
    2845                      .dwattr $C$DW$187, DW_AT_TI_max_frame_size(-6)
    2846                      .dwpsn  file "C:/ti/ccs1271/ccs/tools/compiler/ti-cgt-c2000_22.6.1.LTS/include/_defs.h",line 342,colu
    2847              
    2848                      .dwfde $C$DW$CIE, ||__isnan||
    2849              $C$DW$188       .dwtag  DW_TAG_formal_parameter
    2850                      .dwattr $C$DW$188, DW_AT_name("d")
    2851                      .dwattr $C$DW$188, DW_AT_type(*$C$DW$T$144)
    2852                      .dwattr $C$DW$188, DW_AT_location[DW_OP_reg12]
    2853              
    2854              
TMS320C2000 Assembler PC v22.6.1 Tue Aug 13 19:46:08 2024

Copyright (c) 1996-2018 Texas Instruments Incorporated
bts.asm                                                              PAGE   59

    2855              ;***************************************************************
    2856              ;* FNAME: __isnan                       FR SIZE:   4           *
    2857              ;*                                                             *
    2858              ;* FUNCTION ENVIRONMENT                                        *
    2859              ;*                                                             *
    2860              ;* FUNCTION PROPERTIES                                         *
    2861              ;*                            4 Parameter,  0 Auto,  0 SOE     *
    2862              ;***************************************************************
    2863              
    2864              ||__isnan||:
    2865              ;* AR7   assigned to $O$C2
    2866              ;* AR4   assigned to $O$S1
    2867              ;* AR4   assigned to d
    2868              $C$DW$189       .dwtag  DW_TAG_variable
    2869                      .dwattr $C$DW$189, DW_AT_name("d")
    2870                      .dwattr $C$DW$189, DW_AT_type(*$C$DW$T$145)
    2871                      .dwattr $C$DW$189, DW_AT_location[DW_OP_reg12]
    2872              
    2873                      .dwcfi  cfa_offset, -2
    2874                      .dwcfi  save_reg_to_mem, 26, 0
    2875 00000000 FE04          ADDB      SP,#4                 ; [CPU_ARAU] 
    2876                      .dwcfi  cfa_offset, -6
    2877                      .dwpsn  file "C:/ti/ccs1271/ccs/tools/compiler/ti-cgt-c2000_22.6.1.LTS/include/_defs.h",line 342,colu
    2878 00000001 C5C4          MOVL      XAR7,*+XAR4[0]        ; [CPU_ALU] |342| 
    2879 00000002 06D4          MOVL      ACC,*+XAR4[2]         ; [CPU_ALU] |342| 
    2880 00000003 28AC          MOV       T,#48                 ; [CPU_ALU] |342| 
         00000004 0030 
    2881 00000005 1EA6          MOVL      XAR6,ACC              ; [CPU_ALU] |342| 
    2882 00000006 A3A7          MOVL      P,XAR7                ; [CPU_ALU] |342| 
    2883 00000007 D400          MOVB      XAR4,#0               ; [CPU_ALU] |342| 
    2884 00000008 565B          LSR64     ACC:P,T               ; [CPU_ALU] |342| 
    2885 00000009 2BAA          MOV       PH,#0                 ; [CPU_ALU] |342| 
    2886 0000000a 18AB          AND       PL,#0x7ff0            ; [CPU_ALU] |342| 
         0000000b 7FF0 
    2887 0000000c FF20          MOV       ACC,#32752            ; [CPU_ALU] |342| 
         0000000d 7FF0 
    2888 0000000e 0FAB          CMPL      ACC,P                 ; [CPU_ALU] |342| 
    2889 0000000f 6013          B         ||$C$L13||,NEQ        ; [CPU_ALU] |342| 
    2890                      ; branchcc occurs ; [] |342| 
    2891 00000010 06A6          MOVL      ACC,XAR6              ; [CPU_ALU] |342| 
    2892 00000011 A3A7          MOVL      P,XAR7                ; [CPU_ALU] |342| 
    2893 00000012 BE00          MOVB      XAR6,#0               ; [CPU_ALU] |342| 
    2894 00000013 18A9          AND       AL,#65535             ; [CPU_ALU] |342| 
         00000014 FFFF 
    2895 00000015 910F          ANDB      AH,#15                ; [CPU_ALU] |342| 
    2896 00000016 18AB          AND       PL,#65535             ; [CPU_ALU] |342| 
         00000017 FFFF 
    2897 00000018 18AA          AND       PH,#65535             ; [CPU_ALU] |342| 
         00000019 FFFF 
    2898 0000001a C244          MOVL      *-SP[4],XAR6          ; [CPU_FPU] |342| 
    2899 0000001b 2B42          MOV       *-SP[2],#0            ; [CPU_FPU] |342| 
    2900 0000001c 2B41          MOV       *-SP[1],#0            ; [CPU_FPU] |342| 
    2901              $C$DW$190       .dwtag  DW_TAG_TI_branch
    2902                      .dwattr $C$DW$190, DW_AT_low_pc(0x00)
    2903                      .dwattr $C$DW$190, DW_AT_name("__c28xabi_cmpull")
TMS320C2000 Assembler PC v22.6.1 Tue Aug 13 19:46:08 2024

Copyright (c) 1996-2018 Texas Instruments Incorporated
bts.asm                                                              PAGE   60

    2904                      .dwattr $C$DW$190, DW_AT_TI_call
    2905              
    2906 0000001d 7640!         LCR       #||__c28xabi_cmpull|| ; [CPU_ALU] |342| 
         0000001e 0000 
    2907                      ; call occurs [#||__c28xabi_cmpull||] ; [] |342| 
    2908 0000001f 5200          CMPB      AL,#0                 ; [CPU_ALU] |342| 
    2909 00000020 56B0          MOVB      XAR4,#1,NEQ           ; [CPU_ALU] |342| 
         00000021 01A4 
    2910 00000022       ||$C$L13||:    
    2911 00000022 FE84          SUBB      SP,#4                 ; [CPU_ARAU] 
    2912                      .dwcfi  cfa_offset, -2
    2913 00000023 92A4          MOV       AL,AR4                ; [CPU_ALU] |342| 
    2914              $C$DW$191       .dwtag  DW_TAG_TI_branch
    2915                      .dwattr $C$DW$191, DW_AT_low_pc(0x00)
    2916                      .dwattr $C$DW$191, DW_AT_TI_return
    2917              
    2918 00000024 0006          LRETR     ; [CPU_ALU] 
    2919                      ; return occurs ; [] 
    2920                      .dwattr $C$DW$187, DW_AT_TI_end_file("C:/ti/ccs1271/ccs/tools/compiler/ti-cgt-c2000_22.6.1.LTS/includ
    2921                      .dwattr $C$DW$187, DW_AT_TI_end_line(0x157)
    2922                      .dwattr $C$DW$187, DW_AT_TI_end_column(0x2f)
    2923                      .dwendentry
    2924                      .dwendtag $C$DW$187
    2925              
    2926 00000000               .sect   ".text:__isinfl"
    2927                      .clink
    2928                      .global ||__isinfl||
    2929              
    2930              $C$DW$192       .dwtag  DW_TAG_subprogram
    2931                      .dwattr $C$DW$192, DW_AT_name("__isinfl")
    2932                      .dwattr $C$DW$192, DW_AT_low_pc(||__isinfl||)
    2933                      .dwattr $C$DW$192, DW_AT_high_pc(0x00)
    2934                      .dwattr $C$DW$192, DW_AT_linkage_name("__isinfl")
    2935                      .dwattr $C$DW$192, DW_AT_external
    2936                      .dwattr $C$DW$192, DW_AT_type(*$C$DW$T$10)
    2937                      .dwattr $C$DW$192, DW_AT_decl_file("C:/ti/ccs1271/ccs/tools/compiler/ti-cgt-c2000_22.6.1.LTS/include/
    2938                      .dwattr $C$DW$192, DW_AT_decl_line(0x17a)
    2939                      .dwattr $C$DW$192, DW_AT_decl_column(0x18)
    2940                      .dwattr $C$DW$192, DW_AT_TI_max_frame_size(-6)
    2941                      .dwpsn  file "C:/ti/ccs1271/ccs/tools/compiler/ti-cgt-c2000_22.6.1.LTS/include/_defs.h",line 379,colu
    2942              
    2943                      .dwfde $C$DW$CIE, ||__isinfl||
    2944              $C$DW$193       .dwtag  DW_TAG_formal_parameter
    2945                      .dwattr $C$DW$193, DW_AT_name("e")
    2946                      .dwattr $C$DW$193, DW_AT_type(*$C$DW$T$147)
    2947                      .dwattr $C$DW$193, DW_AT_location[DW_OP_reg12]
    2948              
    2949              
    2950              ;***************************************************************
    2951              ;* FNAME: __isinfl                      FR SIZE:   4           *
    2952              ;*                                                             *
    2953              ;* FUNCTION ENVIRONMENT                                        *
    2954              ;*                                                             *
    2955              ;* FUNCTION PROPERTIES                                         *
    2956              ;*                            4 Parameter,  0 Auto,  0 SOE     *
TMS320C2000 Assembler PC v22.6.1 Tue Aug 13 19:46:08 2024

Copyright (c) 1996-2018 Texas Instruments Incorporated
bts.asm                                                              PAGE   61

    2957              ;***************************************************************
    2958              
    2959              ||__isinfl||:
    2960              ;* AR7   assigned to $O$C2
    2961              ;* AR4   assigned to $O$S1
    2962              ;* AR4   assigned to e
    2963              $C$DW$194       .dwtag  DW_TAG_variable
    2964                      .dwattr $C$DW$194, DW_AT_name("e")
    2965                      .dwattr $C$DW$194, DW_AT_type(*$C$DW$T$148)
    2966                      .dwattr $C$DW$194, DW_AT_location[DW_OP_reg12]
    2967              
    2968                      .dwcfi  cfa_offset, -2
    2969                      .dwcfi  save_reg_to_mem, 26, 0
    2970 00000000 FE04          ADDB      SP,#4                 ; [CPU_ARAU] 
    2971                      .dwcfi  cfa_offset, -6
    2972                      .dwpsn  file "C:/ti/ccs1271/ccs/tools/compiler/ti-cgt-c2000_22.6.1.LTS/include/_defs.h",line 379,colu
    2973 00000001 C5C4          MOVL      XAR7,*+XAR4[0]        ; [CPU_ALU] |379| 
    2974 00000002 06D4          MOVL      ACC,*+XAR4[2]         ; [CPU_ALU] |379| 
    2975 00000003 28AC          MOV       T,#48                 ; [CPU_ALU] |379| 
         00000004 0030 
    2976 00000005 1EA6          MOVL      XAR6,ACC              ; [CPU_ALU] |379| 
    2977 00000006 A3A7          MOVL      P,XAR7                ; [CPU_ALU] |379| 
    2978 00000007 D400          MOVB      XAR4,#0               ; [CPU_ALU] |379| 
    2979 00000008 565B          LSR64     ACC:P,T               ; [CPU_ALU] |379| 
    2980 00000009 2BAA          MOV       PH,#0                 ; [CPU_ALU] |379| 
    2981 0000000a 18AB          AND       PL,#0x7ff0            ; [CPU_ALU] |379| 
         0000000b 7FF0 
    2982 0000000c FF20          MOV       ACC,#32752            ; [CPU_ALU] |379| 
         0000000d 7FF0 
    2983 0000000e 0FAB          CMPL      ACC,P                 ; [CPU_ALU] |379| 
    2984 0000000f 6013          B         ||$C$L14||,NEQ        ; [CPU_ALU] |379| 
    2985                      ; branchcc occurs ; [] |379| 
    2986 00000010 06A6          MOVL      ACC,XAR6              ; [CPU_ALU] |379| 
    2987 00000011 A3A7          MOVL      P,XAR7                ; [CPU_ALU] |379| 
    2988 00000012 BE00          MOVB      XAR6,#0               ; [CPU_ALU] |379| 
    2989 00000013 18A9          AND       AL,#65535             ; [CPU_ALU] |379| 
         00000014 FFFF 
    2990 00000015 910F          ANDB      AH,#15                ; [CPU_ALU] |379| 
    2991 00000016 18AB          AND       PL,#65535             ; [CPU_ALU] |379| 
         00000017 FFFF 
    2992 00000018 18AA          AND       PH,#65535             ; [CPU_ALU] |379| 
         00000019 FFFF 
    2993 0000001a C244          MOVL      *-SP[4],XAR6          ; [CPU_FPU] |379| 
    2994 0000001b 2B42          MOV       *-SP[2],#0            ; [CPU_FPU] |379| 
    2995 0000001c 2B41          MOV       *-SP[1],#0            ; [CPU_FPU] |379| 
    2996              $C$DW$195       .dwtag  DW_TAG_TI_branch
    2997                      .dwattr $C$DW$195, DW_AT_low_pc(0x00)
    2998                      .dwattr $C$DW$195, DW_AT_name("__c28xabi_cmpull")
    2999                      .dwattr $C$DW$195, DW_AT_TI_call
    3000              
    3001 0000001d 7640!         LCR       #||__c28xabi_cmpull|| ; [CPU_ALU] |379| 
         0000001e 0000 
    3002                      ; call occurs [#||__c28xabi_cmpull||] ; [] |379| 
    3003 0000001f 5200          CMPB      AL,#0                 ; [CPU_ALU] |379| 
    3004 00000020 56B1          MOVB      XAR4,#1,EQ            ; [CPU_ALU] |379| 
TMS320C2000 Assembler PC v22.6.1 Tue Aug 13 19:46:08 2024

Copyright (c) 1996-2018 Texas Instruments Incorporated
bts.asm                                                              PAGE   62

         00000021 01A4 
    3005 00000022       ||$C$L14||:    
    3006 00000022 FE84          SUBB      SP,#4                 ; [CPU_ARAU] 
    3007                      .dwcfi  cfa_offset, -2
    3008 00000023 92A4          MOV       AL,AR4                ; [CPU_ALU] |379| 
    3009              $C$DW$196       .dwtag  DW_TAG_TI_branch
    3010                      .dwattr $C$DW$196, DW_AT_low_pc(0x00)
    3011                      .dwattr $C$DW$196, DW_AT_TI_return
    3012              
    3013 00000024 0006          LRETR     ; [CPU_ALU] 
    3014                      ; return occurs ; [] 
    3015                      .dwattr $C$DW$192, DW_AT_TI_end_file("C:/ti/ccs1271/ccs/tools/compiler/ti-cgt-c2000_22.6.1.LTS/includ
    3016                      .dwattr $C$DW$192, DW_AT_TI_end_line(0x17b)
    3017                      .dwattr $C$DW$192, DW_AT_TI_end_column(0x4c)
    3018                      .dwendentry
    3019                      .dwendtag $C$DW$192
    3020              
    3021 00000000               .sect   ".text:__isinff"
    3022                      .clink
    3023                      .global ||__isinff||
    3024              
    3025              $C$DW$197       .dwtag  DW_TAG_subprogram
    3026                      .dwattr $C$DW$197, DW_AT_name("__isinff")
    3027                      .dwattr $C$DW$197, DW_AT_low_pc(||__isinff||)
    3028                      .dwattr $C$DW$197, DW_AT_high_pc(0x00)
    3029                      .dwattr $C$DW$197, DW_AT_linkage_name("__isinff")
    3030                      .dwattr $C$DW$197, DW_AT_external
    3031                      .dwattr $C$DW$197, DW_AT_type(*$C$DW$T$10)
    3032                      .dwattr $C$DW$197, DW_AT_decl_file("C:/ti/ccs1271/ccs/tools/compiler/ti-cgt-c2000_22.6.1.LTS/include/
    3033                      .dwattr $C$DW$197, DW_AT_decl_line(0x176)
    3034                      .dwattr $C$DW$197, DW_AT_decl_column(0x18)
    3035                      .dwattr $C$DW$197, DW_AT_TI_max_frame_size(-2)
    3036                      .dwpsn  file "C:/ti/ccs1271/ccs/tools/compiler/ti-cgt-c2000_22.6.1.LTS/include/_defs.h",line 375,colu
    3037              
    3038                      .dwfde $C$DW$CIE, ||__isinff||
    3039              $C$DW$198       .dwtag  DW_TAG_formal_parameter
    3040                      .dwattr $C$DW$198, DW_AT_name("f")
    3041                      .dwattr $C$DW$198, DW_AT_type(*$C$DW$T$16)
    3042                      .dwattr $C$DW$198, DW_AT_location[DW_OP_regx 0x2b]
    3043              
    3044              
    3045              ;***************************************************************
    3046              ;* FNAME: __isinff                      FR SIZE:   0           *
    3047              ;*                                                             *
    3048              ;* FUNCTION ENVIRONMENT                                        *
    3049              ;*                                                             *
    3050              ;* FUNCTION PROPERTIES                                         *
    3051              ;*                            0 Parameter,  0 Auto,  0 SOE     *
    3052              ;***************************************************************
    3053              
    3054              ||__isinff||:
    3055              ;* PL    assigned to $O$K3
    3056              ;* AR6   assigned to $O$S1
    3057              ;* R0    assigned to f
    3058              $C$DW$199       .dwtag  DW_TAG_variable
TMS320C2000 Assembler PC v22.6.1 Tue Aug 13 19:46:08 2024

Copyright (c) 1996-2018 Texas Instruments Incorporated
bts.asm                                                              PAGE   63

    3059                      .dwattr $C$DW$199, DW_AT_name("f")
    3060                      .dwattr $C$DW$199, DW_AT_type(*$C$DW$T$141)
    3061                      .dwattr $C$DW$199, DW_AT_location[DW_OP_regx 0x2b]
    3062              
    3063                      .dwcfi  cfa_offset, -2
    3064                      .dwcfi  save_reg_to_mem, 26, 0
    3065                      .dwpsn  file "C:/ti/ccs1271/ccs/tools/compiler/ti-cgt-c2000_22.6.1.LTS/include/_defs.h",line 375,colu
    3066 00000000 BFAB          MOV32     P,R0H                 ; [CPU_FPU] |375| 
         00000001 0F12 
    3067 00000002 CCAA          AND       AL,PH,#0x7f80         ; [CPU_ALU] |375| 
         00000003 7F80 
    3068 00000004 80A9          MOVZ      AR7,AL                ; [CPU_ALU] |375| 
    3069 00000005 BE00          MOVB      XAR6,#0               ; [CPU_ALU] |375| 
    3070 00000006 FF20          MOV       ACC,#32640            ; [CPU_ALU] |375| 
         00000007 7F80 
    3071 00000008 0FA7          CMPL      ACC,XAR7              ; [CPU_ALU] |375| 
    3072 00000009 6006          B         ||$C$L15||,NEQ        ; [CPU_ALU] |375| 
    3073                      ; branchcc occurs ; [] |375| 
    3074 0000000a A9A9          MOVL      ACC,P                 ; [CPU_ALU] |375| 
    3075 0000000b 917F          ANDB      AH,#127               ; [CPU_ALU] |375| 
    3076 0000000c FF58          TEST      ACC                   ; [CPU_ALU] |375| 
    3077 0000000d 56B1          MOVB      XAR6,#1,EQ            ; [CPU_ALU] |375| 
         0000000e 01A6 
    3078 0000000f       ||$C$L15||:    
    3079 0000000f 92A6          MOV       AL,AR6                ; [CPU_ALU] |375| 
    3080              $C$DW$200       .dwtag  DW_TAG_TI_branch
    3081                      .dwattr $C$DW$200, DW_AT_low_pc(0x00)
    3082                      .dwattr $C$DW$200, DW_AT_TI_return
    3083              
    3084 00000010 0006          LRETR     ; [CPU_ALU] 
    3085                      ; return occurs ; [] 
    3086                      .dwattr $C$DW$197, DW_AT_TI_end_file("C:/ti/ccs1271/ccs/tools/compiler/ti-cgt-c2000_22.6.1.LTS/includ
    3087                      .dwattr $C$DW$197, DW_AT_TI_end_line(0x177)
    3088                      .dwattr $C$DW$197, DW_AT_TI_end_column(0x48)
    3089                      .dwendentry
    3090                      .dwendtag $C$DW$197
    3091              
    3092 00000000               .sect   ".text:__isinf"
    3093                      .clink
    3094                      .global ||__isinf||
    3095              
    3096              $C$DW$201       .dwtag  DW_TAG_subprogram
    3097                      .dwattr $C$DW$201, DW_AT_name("__isinf")
    3098                      .dwattr $C$DW$201, DW_AT_low_pc(||__isinf||)
    3099                      .dwattr $C$DW$201, DW_AT_high_pc(0x00)
    3100                      .dwattr $C$DW$201, DW_AT_linkage_name("__isinf")
    3101                      .dwattr $C$DW$201, DW_AT_external
    3102                      .dwattr $C$DW$201, DW_AT_type(*$C$DW$T$10)
    3103                      .dwattr $C$DW$201, DW_AT_decl_file("C:/ti/ccs1271/ccs/tools/compiler/ti-cgt-c2000_22.6.1.LTS/include/
    3104                      .dwattr $C$DW$201, DW_AT_decl_line(0x178)
    3105                      .dwattr $C$DW$201, DW_AT_decl_column(0x18)
    3106                      .dwattr $C$DW$201, DW_AT_TI_max_frame_size(-6)
    3107                      .dwpsn  file "C:/ti/ccs1271/ccs/tools/compiler/ti-cgt-c2000_22.6.1.LTS/include/_defs.h",line 377,colu
    3108              
    3109                      .dwfde $C$DW$CIE, ||__isinf||
TMS320C2000 Assembler PC v22.6.1 Tue Aug 13 19:46:08 2024

Copyright (c) 1996-2018 Texas Instruments Incorporated
bts.asm                                                              PAGE   64

    3110              $C$DW$202       .dwtag  DW_TAG_formal_parameter
    3111                      .dwattr $C$DW$202, DW_AT_name("d")
    3112                      .dwattr $C$DW$202, DW_AT_type(*$C$DW$T$144)
    3113                      .dwattr $C$DW$202, DW_AT_location[DW_OP_reg12]
    3114              
    3115              
    3116              ;***************************************************************
    3117              ;* FNAME: __isinf                       FR SIZE:   4           *
    3118              ;*                                                             *
    3119              ;* FUNCTION ENVIRONMENT                                        *
    3120              ;*                                                             *
    3121              ;* FUNCTION PROPERTIES                                         *
    3122              ;*                            4 Parameter,  0 Auto,  0 SOE     *
    3123              ;***************************************************************
    3124              
    3125              ||__isinf||:
    3126              ;* AR7   assigned to $O$C2
    3127              ;* AR4   assigned to $O$S1
    3128              ;* AR4   assigned to d
    3129              $C$DW$203       .dwtag  DW_TAG_variable
    3130                      .dwattr $C$DW$203, DW_AT_name("d")
    3131                      .dwattr $C$DW$203, DW_AT_type(*$C$DW$T$145)
    3132                      .dwattr $C$DW$203, DW_AT_location[DW_OP_reg12]
    3133              
    3134                      .dwcfi  cfa_offset, -2
    3135                      .dwcfi  save_reg_to_mem, 26, 0
    3136 00000000 FE04          ADDB      SP,#4                 ; [CPU_ARAU] 
    3137                      .dwcfi  cfa_offset, -6
    3138                      .dwpsn  file "C:/ti/ccs1271/ccs/tools/compiler/ti-cgt-c2000_22.6.1.LTS/include/_defs.h",line 377,colu
    3139 00000001 C5C4          MOVL      XAR7,*+XAR4[0]        ; [CPU_ALU] |377| 
    3140 00000002 06D4          MOVL      ACC,*+XAR4[2]         ; [CPU_ALU] |377| 
    3141 00000003 28AC          MOV       T,#48                 ; [CPU_ALU] |377| 
         00000004 0030 
    3142 00000005 1EA6          MOVL      XAR6,ACC              ; [CPU_ALU] |377| 
    3143 00000006 A3A7          MOVL      P,XAR7                ; [CPU_ALU] |377| 
    3144 00000007 D400          MOVB      XAR4,#0               ; [CPU_ALU] |377| 
    3145 00000008 565B          LSR64     ACC:P,T               ; [CPU_ALU] |377| 
    3146 00000009 2BAA          MOV       PH,#0                 ; [CPU_ALU] |377| 
    3147 0000000a 18AB          AND       PL,#0x7ff0            ; [CPU_ALU] |377| 
         0000000b 7FF0 
    3148 0000000c FF20          MOV       ACC,#32752            ; [CPU_ALU] |377| 
         0000000d 7FF0 
    3149 0000000e 0FAB          CMPL      ACC,P                 ; [CPU_ALU] |377| 
    3150 0000000f 6013          B         ||$C$L16||,NEQ        ; [CPU_ALU] |377| 
    3151                      ; branchcc occurs ; [] |377| 
    3152 00000010 06A6          MOVL      ACC,XAR6              ; [CPU_ALU] |377| 
    3153 00000011 A3A7          MOVL      P,XAR7                ; [CPU_ALU] |377| 
    3154 00000012 BE00          MOVB      XAR6,#0               ; [CPU_ALU] |377| 
    3155 00000013 18A9          AND       AL,#65535             ; [CPU_ALU] |377| 
         00000014 FFFF 
    3156 00000015 910F          ANDB      AH,#15                ; [CPU_ALU] |377| 
    3157 00000016 18AB          AND       PL,#65535             ; [CPU_ALU] |377| 
         00000017 FFFF 
    3158 00000018 18AA          AND       PH,#65535             ; [CPU_ALU] |377| 
         00000019 FFFF 
TMS320C2000 Assembler PC v22.6.1 Tue Aug 13 19:46:08 2024

Copyright (c) 1996-2018 Texas Instruments Incorporated
bts.asm                                                              PAGE   65

    3159 0000001a C244          MOVL      *-SP[4],XAR6          ; [CPU_FPU] |377| 
    3160 0000001b 2B42          MOV       *-SP[2],#0            ; [CPU_FPU] |377| 
    3161 0000001c 2B41          MOV       *-SP[1],#0            ; [CPU_FPU] |377| 
    3162              $C$DW$204       .dwtag  DW_TAG_TI_branch
    3163                      .dwattr $C$DW$204, DW_AT_low_pc(0x00)
    3164                      .dwattr $C$DW$204, DW_AT_name("__c28xabi_cmpull")
    3165                      .dwattr $C$DW$204, DW_AT_TI_call
    3166              
    3167 0000001d 7640!         LCR       #||__c28xabi_cmpull|| ; [CPU_ALU] |377| 
         0000001e 0000 
    3168                      ; call occurs [#||__c28xabi_cmpull||] ; [] |377| 
    3169 0000001f 5200          CMPB      AL,#0                 ; [CPU_ALU] |377| 
    3170 00000020 56B1          MOVB      XAR4,#1,EQ            ; [CPU_ALU] |377| 
         00000021 01A4 
    3171 00000022       ||$C$L16||:    
    3172 00000022 FE84          SUBB      SP,#4                 ; [CPU_ARAU] 
    3173                      .dwcfi  cfa_offset, -2
    3174 00000023 92A4          MOV       AL,AR4                ; [CPU_ALU] |377| 
    3175              $C$DW$205       .dwtag  DW_TAG_TI_branch
    3176                      .dwattr $C$DW$205, DW_AT_low_pc(0x00)
    3177                      .dwattr $C$DW$205, DW_AT_TI_return
    3178              
    3179 00000024 0006          LRETR     ; [CPU_ALU] 
    3180                      ; return occurs ; [] 
    3181                      .dwattr $C$DW$201, DW_AT_TI_end_file("C:/ti/ccs1271/ccs/tools/compiler/ti-cgt-c2000_22.6.1.LTS/includ
    3182                      .dwattr $C$DW$201, DW_AT_TI_end_line(0x179)
    3183                      .dwattr $C$DW$201, DW_AT_TI_end_column(0x4a)
    3184                      .dwendentry
    3185                      .dwendtag $C$DW$201
    3186              
    3187 00000000               .sect   ".text:__isfinitel"
    3188                      .clink
    3189                      .global ||__isfinitel||
    3190              
    3191              $C$DW$206       .dwtag  DW_TAG_subprogram
    3192                      .dwattr $C$DW$206, DW_AT_name("__isfinitel")
    3193                      .dwattr $C$DW$206, DW_AT_low_pc(||__isfinitel||)
    3194                      .dwattr $C$DW$206, DW_AT_high_pc(0x00)
    3195                      .dwattr $C$DW$206, DW_AT_linkage_name("__isfinitel")
    3196                      .dwattr $C$DW$206, DW_AT_external
    3197                      .dwattr $C$DW$206, DW_AT_type(*$C$DW$T$10)
    3198                      .dwattr $C$DW$206, DW_AT_decl_file("C:/ti/ccs1271/ccs/tools/compiler/ti-cgt-c2000_22.6.1.LTS/include/
    3199                      .dwattr $C$DW$206, DW_AT_decl_line(0x152)
    3200                      .dwattr $C$DW$206, DW_AT_decl_column(0x18)
    3201                      .dwattr $C$DW$206, DW_AT_TI_max_frame_size(-2)
    3202                      .dwpsn  file "C:/ti/ccs1271/ccs/tools/compiler/ti-cgt-c2000_22.6.1.LTS/include/_defs.h",line 339,colu
    3203              
    3204                      .dwfde $C$DW$CIE, ||__isfinitel||
    3205              $C$DW$207       .dwtag  DW_TAG_formal_parameter
    3206                      .dwattr $C$DW$207, DW_AT_name("e")
    3207                      .dwattr $C$DW$207, DW_AT_type(*$C$DW$T$147)
    3208                      .dwattr $C$DW$207, DW_AT_location[DW_OP_reg12]
    3209              
    3210              
    3211              ;***************************************************************
TMS320C2000 Assembler PC v22.6.1 Tue Aug 13 19:46:08 2024

Copyright (c) 1996-2018 Texas Instruments Incorporated
bts.asm                                                              PAGE   66

    3212              ;* FNAME: __isfinitel                   FR SIZE:   0           *
    3213              ;*                                                             *
    3214              ;* FUNCTION ENVIRONMENT                                        *
    3215              ;*                                                             *
    3216              ;* FUNCTION PROPERTIES                                         *
    3217              ;*                            0 Parameter,  0 Auto,  0 SOE     *
    3218              ;***************************************************************
    3219              
    3220              ||__isfinitel||:
    3221              ;* AR4   assigned to e
    3222              $C$DW$208       .dwtag  DW_TAG_variable
    3223                      .dwattr $C$DW$208, DW_AT_name("e")
    3224                      .dwattr $C$DW$208, DW_AT_type(*$C$DW$T$148)
    3225                      .dwattr $C$DW$208, DW_AT_location[DW_OP_reg12]
    3226              
    3227                      .dwcfi  cfa_offset, -2
    3228                      .dwcfi  save_reg_to_mem, 26, 0
    3229                      .dwpsn  file "C:/ti/ccs1271/ccs/tools/compiler/ti-cgt-c2000_22.6.1.LTS/include/_defs.h",line 339,colu
    3230 00000000 A3C4          MOVL      P,*+XAR4[0]           ; [CPU_ALU] |339| 
    3231 00000001 06D4          MOVL      ACC,*+XAR4[2]         ; [CPU_ALU] |339| 
    3232 00000002 28AC          MOV       T,#48                 ; [CPU_ALU] |339| 
         00000003 0030 
    3233 00000004 565B          LSR64     ACC:P,T               ; [CPU_ALU] |339| 
    3234 00000005 18AB          AND       PL,#0x7ff0            ; [CPU_ALU] |339| 
         00000006 7FF0 
    3235 00000007 80AB          MOVZ      AR7,PL                ; [CPU_ALU] |339| 
    3236 00000008 FF20          MOV       ACC,#32752            ; [CPU_ALU] |339| 
         00000009 7FF0 
    3237 0000000a BE00          MOVB      XAR6,#0               ; [CPU_ALU] |339| 
    3238 0000000b 0FA7          CMPL      ACC,XAR7              ; [CPU_ALU] |339| 
    3239 0000000c 56B0          MOVB      XAR6,#1,NEQ           ; [CPU_ALU] |339| 
         0000000d 01A6 
    3240 0000000e 92A6          MOV       AL,AR6                ; [CPU_ALU] |339| 
    3241              $C$DW$209       .dwtag  DW_TAG_TI_branch
    3242                      .dwattr $C$DW$209, DW_AT_low_pc(0x00)
    3243                      .dwattr $C$DW$209, DW_AT_TI_return
    3244              
    3245 0000000f 0006          LRETR     ; [CPU_ALU] 
    3246                      ; return occurs ; [] 
    3247                      .dwattr $C$DW$206, DW_AT_TI_end_file("C:/ti/ccs1271/ccs/tools/compiler/ti-cgt-c2000_22.6.1.LTS/includ
    3248                      .dwattr $C$DW$206, DW_AT_TI_end_line(0x153)
    3249                      .dwattr $C$DW$206, DW_AT_TI_end_column(0x2f)
    3250                      .dwendentry
    3251                      .dwendtag $C$DW$206
    3252              
    3253 00000000               .sect   ".text:__isfinitef"
    3254                      .clink
    3255                      .global ||__isfinitef||
    3256              
    3257              $C$DW$210       .dwtag  DW_TAG_subprogram
    3258                      .dwattr $C$DW$210, DW_AT_name("__isfinitef")
    3259                      .dwattr $C$DW$210, DW_AT_low_pc(||__isfinitef||)
    3260                      .dwattr $C$DW$210, DW_AT_high_pc(0x00)
    3261                      .dwattr $C$DW$210, DW_AT_linkage_name("__isfinitef")
    3262                      .dwattr $C$DW$210, DW_AT_external
TMS320C2000 Assembler PC v22.6.1 Tue Aug 13 19:46:08 2024

Copyright (c) 1996-2018 Texas Instruments Incorporated
bts.asm                                                              PAGE   67

    3263                      .dwattr $C$DW$210, DW_AT_type(*$C$DW$T$10)
    3264                      .dwattr $C$DW$210, DW_AT_decl_file("C:/ti/ccs1271/ccs/tools/compiler/ti-cgt-c2000_22.6.1.LTS/include/
    3265                      .dwattr $C$DW$210, DW_AT_decl_line(0x150)
    3266                      .dwattr $C$DW$210, DW_AT_decl_column(0x18)
    3267                      .dwattr $C$DW$210, DW_AT_TI_max_frame_size(-2)
    3268                      .dwpsn  file "C:/ti/ccs1271/ccs/tools/compiler/ti-cgt-c2000_22.6.1.LTS/include/_defs.h",line 337,colu
    3269              
    3270                      .dwfde $C$DW$CIE, ||__isfinitef||
    3271              $C$DW$211       .dwtag  DW_TAG_formal_parameter
    3272                      .dwattr $C$DW$211, DW_AT_name("f")
    3273                      .dwattr $C$DW$211, DW_AT_type(*$C$DW$T$16)
    3274                      .dwattr $C$DW$211, DW_AT_location[DW_OP_regx 0x2b]
    3275              
    3276              
    3277              ;***************************************************************
    3278              ;* FNAME: __isfinitef                   FR SIZE:   0           *
    3279              ;*                                                             *
    3280              ;* FUNCTION ENVIRONMENT                                        *
    3281              ;*                                                             *
    3282              ;* FUNCTION PROPERTIES                                         *
    3283              ;*                            0 Parameter,  0 Auto,  0 SOE     *
    3284              ;***************************************************************
    3285              
    3286              ||__isfinitef||:
    3287              ;* R0    assigned to f
    3288              $C$DW$212       .dwtag  DW_TAG_variable
    3289                      .dwattr $C$DW$212, DW_AT_name("f")
    3290                      .dwattr $C$DW$212, DW_AT_type(*$C$DW$T$141)
    3291                      .dwattr $C$DW$212, DW_AT_location[DW_OP_regx 0x2b]
    3292              
    3293                      .dwcfi  cfa_offset, -2
    3294                      .dwcfi  save_reg_to_mem, 26, 0
    3295                      .dwpsn  file "C:/ti/ccs1271/ccs/tools/compiler/ti-cgt-c2000_22.6.1.LTS/include/_defs.h",line 337,colu
    3296 00000000 BFAB          MOV32     P,R0H                 ; [CPU_FPU] |337| 
         00000001 0F12 
    3297 00000002 18AA          AND       PH,#0x7f80            ; [CPU_ALU] |337| 
         00000003 7F80 
    3298 00000004 80AA          MOVZ      AR7,PH                ; [CPU_ALU] |337| 
    3299 00000005 FF20          MOV       ACC,#32640            ; [CPU_ALU] |337| 
         00000006 7F80 
    3300 00000007 BE00          MOVB      XAR6,#0               ; [CPU_ALU] |337| 
    3301 00000008 0FA7          CMPL      ACC,XAR7              ; [CPU_ALU] |337| 
    3302 00000009 56B0          MOVB      XAR6,#1,NEQ           ; [CPU_ALU] |337| 
         0000000a 01A6 
    3303 0000000b 92A6          MOV       AL,AR6                ; [CPU_ALU] |337| 
    3304              $C$DW$213       .dwtag  DW_TAG_TI_branch
    3305                      .dwattr $C$DW$213, DW_AT_low_pc(0x00)
    3306                      .dwattr $C$DW$213, DW_AT_TI_return
    3307              
    3308 0000000c 0006          LRETR     ; [CPU_ALU] 
    3309                      ; return occurs ; [] 
    3310                      .dwattr $C$DW$210, DW_AT_TI_end_file("C:/ti/ccs1271/ccs/tools/compiler/ti-cgt-c2000_22.6.1.LTS/includ
    3311                      .dwattr $C$DW$210, DW_AT_TI_end_line(0x151)
    3312                      .dwattr $C$DW$210, DW_AT_TI_end_column(0x2d)
    3313                      .dwendentry
TMS320C2000 Assembler PC v22.6.1 Tue Aug 13 19:46:08 2024

Copyright (c) 1996-2018 Texas Instruments Incorporated
bts.asm                                                              PAGE   68

    3314                      .dwendtag $C$DW$210
    3315              
    3316 00000000               .sect   ".text:__isfinite"
    3317                      .clink
    3318                      .global ||__isfinite||
    3319              
    3320              $C$DW$214       .dwtag  DW_TAG_subprogram
    3321                      .dwattr $C$DW$214, DW_AT_name("__isfinite")
    3322                      .dwattr $C$DW$214, DW_AT_low_pc(||__isfinite||)
    3323                      .dwattr $C$DW$214, DW_AT_high_pc(0x00)
    3324                      .dwattr $C$DW$214, DW_AT_linkage_name("__isfinite")
    3325                      .dwattr $C$DW$214, DW_AT_external
    3326                      .dwattr $C$DW$214, DW_AT_type(*$C$DW$T$10)
    3327                      .dwattr $C$DW$214, DW_AT_decl_file("C:/ti/ccs1271/ccs/tools/compiler/ti-cgt-c2000_22.6.1.LTS/include/
    3328                      .dwattr $C$DW$214, DW_AT_decl_line(0x14e)
    3329                      .dwattr $C$DW$214, DW_AT_decl_column(0x18)
    3330                      .dwattr $C$DW$214, DW_AT_TI_max_frame_size(-2)
    3331                      .dwpsn  file "C:/ti/ccs1271/ccs/tools/compiler/ti-cgt-c2000_22.6.1.LTS/include/_defs.h",line 335,colu
    3332              
    3333                      .dwfde $C$DW$CIE, ||__isfinite||
    3334              $C$DW$215       .dwtag  DW_TAG_formal_parameter
    3335                      .dwattr $C$DW$215, DW_AT_name("d")
    3336                      .dwattr $C$DW$215, DW_AT_type(*$C$DW$T$144)
    3337                      .dwattr $C$DW$215, DW_AT_location[DW_OP_reg12]
    3338              
    3339              
    3340              ;***************************************************************
    3341              ;* FNAME: __isfinite                    FR SIZE:   0           *
    3342              ;*                                                             *
    3343              ;* FUNCTION ENVIRONMENT                                        *
    3344              ;*                                                             *
    3345              ;* FUNCTION PROPERTIES                                         *
    3346              ;*                            0 Parameter,  0 Auto,  0 SOE     *
    3347              ;***************************************************************
    3348              
    3349              ||__isfinite||:
    3350              ;* AR4   assigned to d
    3351              $C$DW$216       .dwtag  DW_TAG_variable
    3352                      .dwattr $C$DW$216, DW_AT_name("d")
    3353                      .dwattr $C$DW$216, DW_AT_type(*$C$DW$T$145)
    3354                      .dwattr $C$DW$216, DW_AT_location[DW_OP_reg12]
    3355              
    3356                      .dwcfi  cfa_offset, -2
    3357                      .dwcfi  save_reg_to_mem, 26, 0
    3358                      .dwpsn  file "C:/ti/ccs1271/ccs/tools/compiler/ti-cgt-c2000_22.6.1.LTS/include/_defs.h",line 335,colu
    3359 00000000 A3C4          MOVL      P,*+XAR4[0]           ; [CPU_ALU] |335| 
    3360 00000001 06D4          MOVL      ACC,*+XAR4[2]         ; [CPU_ALU] |335| 
    3361 00000002 28AC          MOV       T,#48                 ; [CPU_ALU] |335| 
         00000003 0030 
    3362 00000004 565B          LSR64     ACC:P,T               ; [CPU_ALU] |335| 
    3363 00000005 18AB          AND       PL,#0x7ff0            ; [CPU_ALU] |335| 
         00000006 7FF0 
    3364 00000007 80AB          MOVZ      AR7,PL                ; [CPU_ALU] |335| 
    3365 00000008 FF20          MOV       ACC,#32752            ; [CPU_ALU] |335| 
         00000009 7FF0 
TMS320C2000 Assembler PC v22.6.1 Tue Aug 13 19:46:08 2024

Copyright (c) 1996-2018 Texas Instruments Incorporated
bts.asm                                                              PAGE   69

    3366 0000000a BE00          MOVB      XAR6,#0               ; [CPU_ALU] |335| 
    3367 0000000b 0FA7          CMPL      ACC,XAR7              ; [CPU_ALU] |335| 
    3368 0000000c 56B0          MOVB      XAR6,#1,NEQ           ; [CPU_ALU] |335| 
         0000000d 01A6 
    3369 0000000e 92A6          MOV       AL,AR6                ; [CPU_ALU] |335| 
    3370              $C$DW$217       .dwtag  DW_TAG_TI_branch
    3371                      .dwattr $C$DW$217, DW_AT_low_pc(0x00)
    3372                      .dwattr $C$DW$217, DW_AT_TI_return
    3373              
    3374 0000000f 0006          LRETR     ; [CPU_ALU] 
    3375                      ; return occurs ; [] 
    3376                      .dwattr $C$DW$214, DW_AT_TI_end_file("C:/ti/ccs1271/ccs/tools/compiler/ti-cgt-c2000_22.6.1.LTS/includ
    3377                      .dwattr $C$DW$214, DW_AT_TI_end_line(0x14f)
    3378                      .dwattr $C$DW$214, DW_AT_TI_end_column(0x2e)
    3379                      .dwendentry
    3380                      .dwendtag $C$DW$214
    3381              
    3382 00000000               .sect   ".text:__fpclassifyl"
    3383                      .clink
    3384                      .global ||__fpclassifyl||
    3385              
    3386              $C$DW$218       .dwtag  DW_TAG_subprogram
    3387                      .dwattr $C$DW$218, DW_AT_name("__fpclassifyl")
    3388                      .dwattr $C$DW$218, DW_AT_low_pc(||__fpclassifyl||)
    3389                      .dwattr $C$DW$218, DW_AT_high_pc(0x00)
    3390                      .dwattr $C$DW$218, DW_AT_linkage_name("__fpclassifyl")
    3391                      .dwattr $C$DW$218, DW_AT_external
    3392                      .dwattr $C$DW$218, DW_AT_type(*$C$DW$T$10)
    3393                      .dwattr $C$DW$218, DW_AT_decl_file("C:/ti/ccs1271/ccs/tools/compiler/ti-cgt-c2000_22.6.1.LTS/include/
    3394                      .dwattr $C$DW$218, DW_AT_decl_line(0x1ae)
    3395                      .dwattr $C$DW$218, DW_AT_decl_column(0x18)
    3396                      .dwattr $C$DW$218, DW_AT_TI_max_frame_size(-10)
    3397                      .dwpsn  file "C:/ti/ccs1271/ccs/tools/compiler/ti-cgt-c2000_22.6.1.LTS/include/_defs.h",line 431,colu
    3398              
    3399                      .dwfde $C$DW$CIE, ||__fpclassifyl||
    3400              $C$DW$219       .dwtag  DW_TAG_formal_parameter
    3401                      .dwattr $C$DW$219, DW_AT_name("e")
    3402                      .dwattr $C$DW$219, DW_AT_type(*$C$DW$T$147)
    3403                      .dwattr $C$DW$219, DW_AT_location[DW_OP_reg12]
    3404              
    3405              
    3406              ;***************************************************************
    3407              ;* FNAME: __fpclassifyl                 FR SIZE:   8           *
    3408              ;*                                                             *
    3409              ;* FUNCTION ENVIRONMENT                                        *
    3410              ;*                                                             *
    3411              ;* FUNCTION PROPERTIES                                         *
    3412              ;*                            4 Parameter,  4 Auto,  0 SOE     *
    3413              ;***************************************************************
    3414              
    3415              ||__fpclassifyl||:
    3416              $C$DW$220       .dwtag  DW_TAG_variable
    3417                      .dwattr $C$DW$220, DW_AT_name("e")
    3418                      .dwattr $C$DW$220, DW_AT_type(*$C$DW$T$18)
    3419                      .dwattr $C$DW$220, DW_AT_location[DW_OP_breg20 -8]
TMS320C2000 Assembler PC v22.6.1 Tue Aug 13 19:46:08 2024

Copyright (c) 1996-2018 Texas Instruments Incorporated
bts.asm                                                              PAGE   70

    3420              
    3421              ;* AR5   assigned to $O$C1
    3422              ;* AR4   assigned to e
    3423              $C$DW$221       .dwtag  DW_TAG_variable
    3424                      .dwattr $C$DW$221, DW_AT_name("e")
    3425                      .dwattr $C$DW$221, DW_AT_type(*$C$DW$T$148)
    3426                      .dwattr $C$DW$221, DW_AT_location[DW_OP_reg12]
    3427              
    3428                      .dwcfi  cfa_offset, -2
    3429                      .dwcfi  save_reg_to_mem, 26, 0
    3430 00000000 FE08          ADDB      SP,#8                 ; [CPU_ARAU] 
    3431                      .dwcfi  cfa_offset, -10
    3432 00000001 C4D4          MOVL      XAR6,*+XAR4[2]        ; [CPU_ALU] |431| 
    3433 00000002 06C4          MOVL      ACC,*+XAR4[0]         ; [CPU_ALU] |431| 
    3434 00000003 1E48          MOVL      *-SP[8],ACC           ; [CPU_ALU] |431| 
    3435 00000004 C246          MOVL      *-SP[6],XAR6          ; [CPU_ALU] |431| 
    3436                      .dwpsn  file "C:/ti/ccs1271/ccs/tools/compiler/ti-cgt-c2000_22.6.1.LTS/include/_defs.h",line 432,colu
    3437 00000005 8348          MOVL      XAR5,*-SP[8]          ; [CPU_ALU] |432| 
    3438 00000006 8A46          MOVL      XAR4,*-SP[6]          ; [CPU_ALU] |432| 
    3439                      .dwpsn  file "C:/ti/ccs1271/ccs/tools/compiler/ti-cgt-c2000_22.6.1.LTS/include/_defs.h",line 436,colu
    3440 00000007 28AC          MOV       T,#48                 ; [CPU_ALU] |436| 
         00000008 0030 
    3441 00000009 A0AB          MOVL      P,XAR5                ; [CPU_ALU] |436| 
    3442 0000000a A8A9          MOVL      ACC,XAR4              ; [CPU_ALU] |436| 
    3443 0000000b 565B          LSR64     ACC:P,T               ; [CPU_ALU] |436| 
    3444 0000000c 18AB          AND       PL,#0x7ff0            ; [CPU_ALU] |436| 
         0000000d 7FF0 
    3445 0000000e 88AB          MOVZ      AR6,PL                ; [CPU_ALU] |436| 
    3446 0000000f FF20          MOV       ACC,#32752            ; [CPU_ALU] |436| 
         00000010 7FF0 
    3447 00000011 0FA6          CMPL      ACC,XAR6              ; [CPU_ALU] |436| 
    3448 00000012 6016          B         ||$C$L18||,NEQ        ; [CPU_ALU] |436| 
    3449                      ; branchcc occurs ; [] |436| 
    3450 00000013 0200          MOVB      ACC,#0                ; [CPU_ALU] |436| 
    3451 00000014 1E44          MOVL      *-SP[4],ACC           ; [CPU_ALU] |436| 
    3452 00000015 2B42          MOV       *-SP[2],#0            ; [CPU_ALU] |436| 
    3453 00000016 2B41          MOV       *-SP[1],#0            ; [CPU_ALU] |436| 
    3454 00000017 A348          MOVL      P,*-SP[8]             ; [CPU_ALU] |436| 
    3455 00000018 0646          MOVL      ACC,*-SP[6]           ; [CPU_ALU] |436| 
    3456 00000019 18AB          AND       PL,#65535             ; [CPU_ALU] |436| 
         0000001a FFFF 
    3457 0000001b 18AA          AND       PH,#65535             ; [CPU_ALU] |436| 
         0000001c FFFF 
    3458 0000001d 18A9          AND       AL,#65535             ; [CPU_ALU] |436| 
         0000001e FFFF 
    3459 0000001f 910F          ANDB      AH,#15                ; [CPU_ALU] |436| 
    3460              $C$DW$222       .dwtag  DW_TAG_TI_branch
    3461                      .dwattr $C$DW$222, DW_AT_low_pc(0x00)
    3462                      .dwattr $C$DW$222, DW_AT_name("__c28xabi_cmpull")
    3463                      .dwattr $C$DW$222, DW_AT_TI_call
    3464              
    3465 00000020 7640!         LCR       #||__c28xabi_cmpull|| ; [CPU_ALU] |436| 
         00000021 0000 
    3466                      ; call occurs [#||__c28xabi_cmpull||] ; [] |436| 
    3467 00000022 5200          CMPB      AL,#0                 ; [CPU_ALU] |436| 
TMS320C2000 Assembler PC v22.6.1 Tue Aug 13 19:46:08 2024

Copyright (c) 1996-2018 Texas Instruments Incorporated
bts.asm                                                              PAGE   71

    3468 00000023 6103          B         ||$C$L17||,EQ         ; [CPU_ALU] |436| 
    3469                      ; branchcc occurs ; [] |436| 
    3470 00000024 9A02          MOVB      AL,#2                 ; [CPU_ALU] |436| 
    3471 00000025 6F2D          B         ||$C$L21||,UNC        ; [CPU_ALU] |436| 
    3472                      ; branch occurs ; [] |436| 
    3473 00000026       ||$C$L17||:    
    3474 00000026 9A01          MOVB      AL,#1                 ; [CPU_ALU] |436| 
    3475 00000027 6F2B          B         ||$C$L21||,UNC        ; [CPU_ALU] |436| 
    3476                      ; branch occurs ; [] |436| 
    3477 00000028       ||$C$L18||:    
    3478 00000028 BE00          MOVB      XAR6,#0               ; [CPU_ALU] |436| 
    3479 00000029 A0AB          MOVL      P,XAR5                ; [CPU_ALU] |436| 
    3480 0000002a A8A9          MOVL      ACC,XAR4              ; [CPU_ALU] |436| 
    3481 0000002b 28AC          MOV       T,#52                 ; [CPU_ALU] |436| 
         0000002c 0034 
    3482 0000002d C244          MOVL      *-SP[4],XAR6          ; [CPU_ALU] |436| 
    3483 0000002e 2B42          MOV       *-SP[2],#0            ; [CPU_ALU] |436| 
    3484 0000002f 565B          LSR64     ACC:P,T               ; [CPU_ALU] |436| 
    3485 00000030 2B41          MOV       *-SP[1],#0            ; [CPU_FPU] |436| 
    3486 00000031 9000          ANDB      AL,#0                 ; [CPU_ALU] |436| 
    3487 00000032 9100          ANDB      AH,#0                 ; [CPU_ALU] |436| 
    3488 00000033 18AB          AND       PL,#2047              ; [CPU_ALU] |436| 
         00000034 07FF 
    3489 00000035 18AA          AND       PH,#0                 ; [CPU_ALU] |436| 
         00000036 0000 
    3490              $C$DW$223       .dwtag  DW_TAG_TI_branch
    3491                      .dwattr $C$DW$223, DW_AT_low_pc(0x00)
    3492                      .dwattr $C$DW$223, DW_AT_name("__c28xabi_cmpull")
    3493                      .dwattr $C$DW$223, DW_AT_TI_call
    3494              
    3495 00000037 7640!         LCR       #||__c28xabi_cmpull|| ; [CPU_ALU] |436| 
         00000038 0000 
    3496                      ; call occurs [#||__c28xabi_cmpull||] ; [] |436| 
    3497 00000039 5200          CMPB      AL,#0                 ; [CPU_ALU] |436| 
    3498 0000003a 6104          B         ||$C$L19||,EQ         ; [CPU_ALU] |436| 
    3499                      ; branchcc occurs ; [] |436| 
    3500 0000003b 28A9          MOV       AL,#-1                ; [CPU_ALU] |436| 
         0000003c FFFF 
    3501 0000003d 6F15          B         ||$C$L21||,UNC        ; [CPU_ALU] |436| 
    3502                      ; branch occurs ; [] |436| 
    3503 0000003e       ||$C$L19||:    
    3504 0000003e C244          MOVL      *-SP[4],XAR6          ; [CPU_ALU] |436| 
    3505 0000003f A8A9          MOVL      ACC,XAR4              ; [CPU_ALU] |436| 
    3506 00000040 A0AB          MOVL      P,XAR5                ; [CPU_ALU] |436| 
    3507 00000041 2B42          MOV       *-SP[2],#0            ; [CPU_ALU] |436| 
    3508 00000042 18A9          AND       AL,#65535             ; [CPU_ALU] |436| 
         00000043 FFFF 
    3509 00000044 910F          ANDB      AH,#15                ; [CPU_ALU] |436| 
    3510 00000045 18AB          AND       PL,#65535             ; [CPU_ALU] |436| 
         00000046 FFFF 
    3511 00000047 18AA          AND       PH,#65535             ; [CPU_ALU] |436| 
         00000048 FFFF 
    3512 00000049 2B41          MOV       *-SP[1],#0            ; [CPU_FPU] |436| 
    3513              $C$DW$224       .dwtag  DW_TAG_TI_branch
    3514                      .dwattr $C$DW$224, DW_AT_low_pc(0x00)
TMS320C2000 Assembler PC v22.6.1 Tue Aug 13 19:46:08 2024

Copyright (c) 1996-2018 Texas Instruments Incorporated
bts.asm                                                              PAGE   72

    3515                      .dwattr $C$DW$224, DW_AT_name("__c28xabi_cmpull")
    3516                      .dwattr $C$DW$224, DW_AT_TI_call
    3517              
    3518 0000004a 7640!         LCR       #||__c28xabi_cmpull|| ; [CPU_ALU] |436| 
         0000004b 0000 
    3519                      ; call occurs [#||__c28xabi_cmpull||] ; [] |436| 
    3520 0000004c 5200          CMPB      AL,#0                 ; [CPU_ALU] |436| 
    3521 0000004d 6104          B         ||$C$L20||,EQ         ; [CPU_ALU] |436| 
    3522                      ; branchcc occurs ; [] |436| 
    3523 0000004e 28A9          MOV       AL,#-2                ; [CPU_ALU] |436| 
         0000004f FFFE 
    3524 00000050 6F02          B         ||$C$L21||,UNC        ; [CPU_ALU] |436| 
    3525                      ; branch occurs ; [] |436| 
    3526 00000051       ||$C$L20||:    
    3527 00000051 9A00          MOVB      AL,#0                 ; [CPU_ALU] |436| 
    3528 00000052       ||$C$L21||:    
    3529 00000052 FE88          SUBB      SP,#8                 ; [CPU_ARAU] 
    3530                      .dwcfi  cfa_offset, -2
    3531              $C$DW$225       .dwtag  DW_TAG_TI_branch
    3532                      .dwattr $C$DW$225, DW_AT_low_pc(0x00)
    3533                      .dwattr $C$DW$225, DW_AT_TI_return
    3534              
    3535 00000053 0006          LRETR     ; [CPU_ALU] 
    3536                      ; return occurs ; [] 
    3537                      .dwattr $C$DW$218, DW_AT_TI_end_file("C:/ti/ccs1271/ccs/tools/compiler/ti-cgt-c2000_22.6.1.LTS/includ
    3538                      .dwattr $C$DW$218, DW_AT_TI_end_line(0x1bd)
    3539                      .dwattr $C$DW$218, DW_AT_TI_end_column(0x01)
    3540                      .dwendentry
    3541                      .dwendtag $C$DW$218
    3542              
    3543 00000000               .sect   ".text:__fpclassifyf"
    3544                      .clink
    3545                      .global ||__fpclassifyf||
    3546              
    3547              $C$DW$226       .dwtag  DW_TAG_subprogram
    3548                      .dwattr $C$DW$226, DW_AT_name("__fpclassifyf")
    3549                      .dwattr $C$DW$226, DW_AT_low_pc(||__fpclassifyf||)
    3550                      .dwattr $C$DW$226, DW_AT_high_pc(0x00)
    3551                      .dwattr $C$DW$226, DW_AT_linkage_name("__fpclassifyf")
    3552                      .dwattr $C$DW$226, DW_AT_external
    3553                      .dwattr $C$DW$226, DW_AT_type(*$C$DW$T$10)
    3554                      .dwattr $C$DW$226, DW_AT_decl_file("C:/ti/ccs1271/ccs/tools/compiler/ti-cgt-c2000_22.6.1.LTS/include/
    3555                      .dwattr $C$DW$226, DW_AT_decl_line(0x18c)
    3556                      .dwattr $C$DW$226, DW_AT_decl_column(0x18)
    3557                      .dwattr $C$DW$226, DW_AT_TI_max_frame_size(-2)
    3558                      .dwpsn  file "C:/ti/ccs1271/ccs/tools/compiler/ti-cgt-c2000_22.6.1.LTS/include/_defs.h",line 397,colu
    3559              
    3560                      .dwfde $C$DW$CIE, ||__fpclassifyf||
    3561              $C$DW$227       .dwtag  DW_TAG_formal_parameter
    3562                      .dwattr $C$DW$227, DW_AT_name("f")
    3563                      .dwattr $C$DW$227, DW_AT_type(*$C$DW$T$16)
    3564                      .dwattr $C$DW$227, DW_AT_location[DW_OP_regx 0x2b]
    3565              
    3566              
    3567              ;***************************************************************
TMS320C2000 Assembler PC v22.6.1 Tue Aug 13 19:46:08 2024

Copyright (c) 1996-2018 Texas Instruments Incorporated
bts.asm                                                              PAGE   73

    3568              ;* FNAME: __fpclassifyf                 FR SIZE:   0           *
    3569              ;*                                                             *
    3570              ;* FUNCTION ENVIRONMENT                                        *
    3571              ;*                                                             *
    3572              ;* FUNCTION PROPERTIES                                         *
    3573              ;*                            0 Parameter,  0 Auto,  0 SOE     *
    3574              ;***************************************************************
    3575              
    3576              ||__fpclassifyf||:
    3577              ;* PL    assigned to $O$K1
    3578              ;* R0    assigned to f
    3579              $C$DW$228       .dwtag  DW_TAG_variable
    3580                      .dwattr $C$DW$228, DW_AT_name("f")
    3581                      .dwattr $C$DW$228, DW_AT_type(*$C$DW$T$141)
    3582                      .dwattr $C$DW$228, DW_AT_location[DW_OP_regx 0x2b]
    3583              
    3584                      .dwcfi  cfa_offset, -2
    3585                      .dwcfi  save_reg_to_mem, 26, 0
    3586                      .dwpsn  file "C:/ti/ccs1271/ccs/tools/compiler/ti-cgt-c2000_22.6.1.LTS/include/_defs.h",line 398,colu
    3587 00000000 BFAB          MOV32     P,R0H                 ; [CPU_FPU] |398| 
         00000001 0F12 
    3588                      .dwpsn  file "C:/ti/ccs1271/ccs/tools/compiler/ti-cgt-c2000_22.6.1.LTS/include/_defs.h",line 402,colu
    3589 00000002 CCAA          AND       AL,PH,#0x7f80         ; [CPU_ALU] |402| 
         00000003 7F80 
    3590 00000004 88A9          MOVZ      AR6,AL                ; [CPU_ALU] |402| 
    3591 00000005 FF20          MOV       ACC,#32640            ; [CPU_ALU] |402| 
         00000006 7F80 
    3592 00000007 0FA6          CMPL      ACC,XAR6              ; [CPU_ALU] |402| 
    3593 00000008 6009          B         ||$C$L23||,NEQ        ; [CPU_ALU] |402| 
    3594                      ; branchcc occurs ; [] |402| 
    3595 00000009 A9A9          MOVL      ACC,P                 ; [CPU_ALU] |402| 
    3596 0000000a 917F          ANDB      AH,#127               ; [CPU_ALU] |402| 
    3597 0000000b FF58          TEST      ACC                   ; [CPU_ALU] |402| 
    3598 0000000c 6103          B         ||$C$L22||,EQ         ; [CPU_ALU] |402| 
    3599                      ; branchcc occurs ; [] |402| 
    3600                      .dwcfi  remember_state
    3601 0000000d 9A02          MOVB      AL,#2                 ; [CPU_ALU] |402| 
    3602              $C$DW$229       .dwtag  DW_TAG_TI_branch
    3603                      .dwattr $C$DW$229, DW_AT_low_pc(0x00)
    3604                      .dwattr $C$DW$229, DW_AT_TI_return
    3605              
    3606 0000000e 0006          LRETR     ; [CPU_ALU] 
    3607                      ; return occurs ; [] 
    3608                      .dwcfi  restore_state
    3609 0000000f       ||$C$L22||:    
    3610                      .dwcfi  remember_state
    3611 0000000f 9A01          MOVB      AL,#1                 ; [CPU_ALU] |402| 
    3612              $C$DW$230       .dwtag  DW_TAG_TI_branch
    3613                      .dwattr $C$DW$230, DW_AT_low_pc(0x00)
    3614                      .dwattr $C$DW$230, DW_AT_TI_return
    3615              
    3616 00000010 0006          LRETR     ; [CPU_ALU] 
    3617                      ; return occurs ; [] 
    3618                      .dwcfi  restore_state
    3619 00000011       ||$C$L23||:    
TMS320C2000 Assembler PC v22.6.1 Tue Aug 13 19:46:08 2024

Copyright (c) 1996-2018 Texas Instruments Incorporated
bts.asm                                                              PAGE   74

    3620 00000011 A9A9          MOVL      ACC,P                 ; [CPU_ALU] |402| 
    3621 00000012 28AC          MOV       T,#23                 ; [CPU_ALU] |402| 
         00000013 0017 
    3622 00000014 5622          LSRL      ACC,T                 ; [CPU_ALU] |402| 
    3623 00000015 90FF          ANDB      AL,#0xff              ; [CPU_ALU] |402| 
    3624 00000016 6104          B         ||$C$L24||,EQ         ; [CPU_ALU] |402| 
    3625                      ; branchcc occurs ; [] |402| 
    3626                      .dwcfi  remember_state
    3627 00000017 28A9          MOV       AL,#-1                ; [CPU_ALU] |402| 
         00000018 FFFF 
    3628              $C$DW$231       .dwtag  DW_TAG_TI_branch
    3629                      .dwattr $C$DW$231, DW_AT_low_pc(0x00)
    3630                      .dwattr $C$DW$231, DW_AT_TI_return
    3631              
    3632 00000019 0006          LRETR     ; [CPU_ALU] 
    3633                      ; return occurs ; [] 
    3634                      .dwcfi  restore_state
    3635 0000001a       ||$C$L24||:    
    3636 0000001a A9A9          MOVL      ACC,P                 ; [CPU_ALU] |402| 
    3637 0000001b 917F          ANDB      AH,#127               ; [CPU_ALU] |402| 
    3638 0000001c FF58          TEST      ACC                   ; [CPU_ALU] |402| 
    3639 0000001d 6104          B         ||$C$L25||,EQ         ; [CPU_ALU] |402| 
    3640                      ; branchcc occurs ; [] |402| 
    3641                      .dwcfi  remember_state
    3642 0000001e 28A9          MOV       AL,#-2                ; [CPU_ALU] |402| 
         0000001f FFFE 
    3643              $C$DW$232       .dwtag  DW_TAG_TI_branch
    3644                      .dwattr $C$DW$232, DW_AT_low_pc(0x00)
    3645                      .dwattr $C$DW$232, DW_AT_TI_return
    3646              
    3647 00000020 0006          LRETR     ; [CPU_ALU] 
    3648                      ; return occurs ; [] 
    3649                      .dwcfi  restore_state
    3650 00000021       ||$C$L25||:    
    3651 00000021 9A00          MOVB      AL,#0                 ; [CPU_ALU] |402| 
    3652              $C$DW$233       .dwtag  DW_TAG_TI_branch
    3653                      .dwattr $C$DW$233, DW_AT_low_pc(0x00)
    3654                      .dwattr $C$DW$233, DW_AT_TI_return
    3655              
    3656 00000022 0006          LRETR     ; [CPU_ALU] 
    3657                      ; return occurs ; [] 
    3658                      .dwattr $C$DW$226, DW_AT_TI_end_file("C:/ti/ccs1271/ccs/tools/compiler/ti-cgt-c2000_22.6.1.LTS/includ
    3659                      .dwattr $C$DW$226, DW_AT_TI_end_line(0x19b)
    3660                      .dwattr $C$DW$226, DW_AT_TI_end_column(0x01)
    3661                      .dwendentry
    3662                      .dwendtag $C$DW$226
    3663              
    3664 00000000               .sect   ".text:__fpclassify"
    3665                      .clink
    3666                      .global ||__fpclassify||
    3667              
    3668              $C$DW$234       .dwtag  DW_TAG_subprogram
    3669                      .dwattr $C$DW$234, DW_AT_name("__fpclassify")
    3670                      .dwattr $C$DW$234, DW_AT_low_pc(||__fpclassify||)
    3671                      .dwattr $C$DW$234, DW_AT_high_pc(0x00)
TMS320C2000 Assembler PC v22.6.1 Tue Aug 13 19:46:08 2024

Copyright (c) 1996-2018 Texas Instruments Incorporated
bts.asm                                                              PAGE   75

    3672                      .dwattr $C$DW$234, DW_AT_linkage_name("__fpclassify")
    3673                      .dwattr $C$DW$234, DW_AT_external
    3674                      .dwattr $C$DW$234, DW_AT_type(*$C$DW$T$10)
    3675                      .dwattr $C$DW$234, DW_AT_decl_file("C:/ti/ccs1271/ccs/tools/compiler/ti-cgt-c2000_22.6.1.LTS/include/
    3676                      .dwattr $C$DW$234, DW_AT_decl_line(0x19d)
    3677                      .dwattr $C$DW$234, DW_AT_decl_column(0x18)
    3678                      .dwattr $C$DW$234, DW_AT_TI_max_frame_size(-10)
    3679                      .dwpsn  file "C:/ti/ccs1271/ccs/tools/compiler/ti-cgt-c2000_22.6.1.LTS/include/_defs.h",line 414,colu
    3680              
    3681                      .dwfde $C$DW$CIE, ||__fpclassify||
    3682              $C$DW$235       .dwtag  DW_TAG_formal_parameter
    3683                      .dwattr $C$DW$235, DW_AT_name("d")
    3684                      .dwattr $C$DW$235, DW_AT_type(*$C$DW$T$144)
    3685                      .dwattr $C$DW$235, DW_AT_location[DW_OP_reg12]
    3686              
    3687              
    3688              ;***************************************************************
    3689              ;* FNAME: __fpclassify                  FR SIZE:   8           *
    3690              ;*                                                             *
    3691              ;* FUNCTION ENVIRONMENT                                        *
    3692              ;*                                                             *
    3693              ;* FUNCTION PROPERTIES                                         *
    3694              ;*                            4 Parameter,  4 Auto,  0 SOE     *
    3695              ;***************************************************************
    3696              
    3697              ||__fpclassify||:
    3698              $C$DW$236       .dwtag  DW_TAG_variable
    3699                      .dwattr $C$DW$236, DW_AT_name("d")
    3700                      .dwattr $C$DW$236, DW_AT_type(*$C$DW$T$17)
    3701                      .dwattr $C$DW$236, DW_AT_location[DW_OP_breg20 -8]
    3702              
    3703              ;* AR5   assigned to $O$C1
    3704              ;* AR4   assigned to d
    3705              $C$DW$237       .dwtag  DW_TAG_variable
    3706                      .dwattr $C$DW$237, DW_AT_name("d")
    3707                      .dwattr $C$DW$237, DW_AT_type(*$C$DW$T$145)
    3708                      .dwattr $C$DW$237, DW_AT_location[DW_OP_reg12]
    3709              
    3710                      .dwcfi  cfa_offset, -2
    3711                      .dwcfi  save_reg_to_mem, 26, 0
    3712 00000000 FE08          ADDB      SP,#8                 ; [CPU_ARAU] 
    3713                      .dwcfi  cfa_offset, -10
    3714 00000001 C4D4          MOVL      XAR6,*+XAR4[2]        ; [CPU_ALU] |414| 
    3715 00000002 06C4          MOVL      ACC,*+XAR4[0]         ; [CPU_ALU] |414| 
    3716 00000003 1E48          MOVL      *-SP[8],ACC           ; [CPU_ALU] |414| 
    3717 00000004 C246          MOVL      *-SP[6],XAR6          ; [CPU_ALU] |414| 
    3718                      .dwpsn  file "C:/ti/ccs1271/ccs/tools/compiler/ti-cgt-c2000_22.6.1.LTS/include/_defs.h",line 415,colu
    3719 00000005 8348          MOVL      XAR5,*-SP[8]          ; [CPU_ALU] |415| 
    3720 00000006 8A46          MOVL      XAR4,*-SP[6]          ; [CPU_ALU] |415| 
    3721                      .dwpsn  file "C:/ti/ccs1271/ccs/tools/compiler/ti-cgt-c2000_22.6.1.LTS/include/_defs.h",line 419,colu
    3722 00000007 28AC          MOV       T,#48                 ; [CPU_ALU] |419| 
         00000008 0030 
    3723 00000009 A0AB          MOVL      P,XAR5                ; [CPU_ALU] |419| 
    3724 0000000a A8A9          MOVL      ACC,XAR4              ; [CPU_ALU] |419| 
    3725 0000000b 565B          LSR64     ACC:P,T               ; [CPU_ALU] |419| 
TMS320C2000 Assembler PC v22.6.1 Tue Aug 13 19:46:08 2024

Copyright (c) 1996-2018 Texas Instruments Incorporated
bts.asm                                                              PAGE   76

    3726 0000000c 18AB          AND       PL,#0x7ff0            ; [CPU_ALU] |419| 
         0000000d 7FF0 
    3727 0000000e 88AB          MOVZ      AR6,PL                ; [CPU_ALU] |419| 
    3728 0000000f FF20          MOV       ACC,#32752            ; [CPU_ALU] |419| 
         00000010 7FF0 
    3729 00000011 0FA6          CMPL      ACC,XAR6              ; [CPU_ALU] |419| 
    3730 00000012 6016          B         ||$C$L27||,NEQ        ; [CPU_ALU] |419| 
    3731                      ; branchcc occurs ; [] |419| 
    3732 00000013 0200          MOVB      ACC,#0                ; [CPU_ALU] |419| 
    3733 00000014 1E44          MOVL      *-SP[4],ACC           ; [CPU_ALU] |419| 
    3734 00000015 2B42          MOV       *-SP[2],#0            ; [CPU_ALU] |419| 
    3735 00000016 2B41          MOV       *-SP[1],#0            ; [CPU_ALU] |419| 
    3736 00000017 A348          MOVL      P,*-SP[8]             ; [CPU_ALU] |419| 
    3737 00000018 0646          MOVL      ACC,*-SP[6]           ; [CPU_ALU] |419| 
    3738 00000019 18AB          AND       PL,#65535             ; [CPU_ALU] |419| 
         0000001a FFFF 
    3739 0000001b 18AA          AND       PH,#65535             ; [CPU_ALU] |419| 
         0000001c FFFF 
    3740 0000001d 18A9          AND       AL,#65535             ; [CPU_ALU] |419| 
         0000001e FFFF 
    3741 0000001f 910F          ANDB      AH,#15                ; [CPU_ALU] |419| 
    3742              $C$DW$238       .dwtag  DW_TAG_TI_branch
    3743                      .dwattr $C$DW$238, DW_AT_low_pc(0x00)
    3744                      .dwattr $C$DW$238, DW_AT_name("__c28xabi_cmpull")
    3745                      .dwattr $C$DW$238, DW_AT_TI_call
    3746              
    3747 00000020 7640!         LCR       #||__c28xabi_cmpull|| ; [CPU_ALU] |419| 
         00000021 0000 
    3748                      ; call occurs [#||__c28xabi_cmpull||] ; [] |419| 
    3749 00000022 5200          CMPB      AL,#0                 ; [CPU_ALU] |419| 
    3750 00000023 6103          B         ||$C$L26||,EQ         ; [CPU_ALU] |419| 
    3751                      ; branchcc occurs ; [] |419| 
    3752 00000024 9A02          MOVB      AL,#2                 ; [CPU_ALU] |419| 
    3753 00000025 6F2D          B         ||$C$L30||,UNC        ; [CPU_ALU] |419| 
    3754                      ; branch occurs ; [] |419| 
    3755 00000026       ||$C$L26||:    
    3756 00000026 9A01          MOVB      AL,#1                 ; [CPU_ALU] |419| 
    3757 00000027 6F2B          B         ||$C$L30||,UNC        ; [CPU_ALU] |419| 
    3758                      ; branch occurs ; [] |419| 
    3759 00000028       ||$C$L27||:    
    3760 00000028 BE00          MOVB      XAR6,#0               ; [CPU_ALU] |419| 
    3761 00000029 A0AB          MOVL      P,XAR5                ; [CPU_ALU] |419| 
    3762 0000002a A8A9          MOVL      ACC,XAR4              ; [CPU_ALU] |419| 
    3763 0000002b 28AC          MOV       T,#52                 ; [CPU_ALU] |419| 
         0000002c 0034 
    3764 0000002d C244          MOVL      *-SP[4],XAR6          ; [CPU_ALU] |419| 
    3765 0000002e 2B42          MOV       *-SP[2],#0            ; [CPU_ALU] |419| 
    3766 0000002f 565B          LSR64     ACC:P,T               ; [CPU_ALU] |419| 
    3767 00000030 2B41          MOV       *-SP[1],#0            ; [CPU_FPU] |419| 
    3768 00000031 9000          ANDB      AL,#0                 ; [CPU_ALU] |419| 
    3769 00000032 9100          ANDB      AH,#0                 ; [CPU_ALU] |419| 
    3770 00000033 18AB          AND       PL,#2047              ; [CPU_ALU] |419| 
         00000034 07FF 
    3771 00000035 18AA          AND       PH,#0                 ; [CPU_ALU] |419| 
         00000036 0000 
TMS320C2000 Assembler PC v22.6.1 Tue Aug 13 19:46:08 2024

Copyright (c) 1996-2018 Texas Instruments Incorporated
bts.asm                                                              PAGE   77

    3772              $C$DW$239       .dwtag  DW_TAG_TI_branch
    3773                      .dwattr $C$DW$239, DW_AT_low_pc(0x00)
    3774                      .dwattr $C$DW$239, DW_AT_name("__c28xabi_cmpull")
    3775                      .dwattr $C$DW$239, DW_AT_TI_call
    3776              
    3777 00000037 7640!         LCR       #||__c28xabi_cmpull|| ; [CPU_ALU] |419| 
         00000038 0000 
    3778                      ; call occurs [#||__c28xabi_cmpull||] ; [] |419| 
    3779 00000039 5200          CMPB      AL,#0                 ; [CPU_ALU] |419| 
    3780 0000003a 6104          B         ||$C$L28||,EQ         ; [CPU_ALU] |419| 
    3781                      ; branchcc occurs ; [] |419| 
    3782 0000003b 28A9          MOV       AL,#-1                ; [CPU_ALU] |419| 
         0000003c FFFF 
    3783 0000003d 6F15          B         ||$C$L30||,UNC        ; [CPU_ALU] |419| 
    3784                      ; branch occurs ; [] |419| 
    3785 0000003e       ||$C$L28||:    
    3786 0000003e C244          MOVL      *-SP[4],XAR6          ; [CPU_ALU] |419| 
    3787 0000003f A8A9          MOVL      ACC,XAR4              ; [CPU_ALU] |419| 
    3788 00000040 A0AB          MOVL      P,XAR5                ; [CPU_ALU] |419| 
    3789 00000041 2B42          MOV       *-SP[2],#0            ; [CPU_ALU] |419| 
    3790 00000042 18A9          AND       AL,#65535             ; [CPU_ALU] |419| 
         00000043 FFFF 
    3791 00000044 910F          ANDB      AH,#15                ; [CPU_ALU] |419| 
    3792 00000045 18AB          AND       PL,#65535             ; [CPU_ALU] |419| 
         00000046 FFFF 
    3793 00000047 18AA          AND       PH,#65535             ; [CPU_ALU] |419| 
         00000048 FFFF 
    3794 00000049 2B41          MOV       *-SP[1],#0            ; [CPU_FPU] |419| 
    3795              $C$DW$240       .dwtag  DW_TAG_TI_branch
    3796                      .dwattr $C$DW$240, DW_AT_low_pc(0x00)
    3797                      .dwattr $C$DW$240, DW_AT_name("__c28xabi_cmpull")
    3798                      .dwattr $C$DW$240, DW_AT_TI_call
    3799              
    3800 0000004a 7640!         LCR       #||__c28xabi_cmpull|| ; [CPU_ALU] |419| 
         0000004b 0000 
    3801                      ; call occurs [#||__c28xabi_cmpull||] ; [] |419| 
    3802 0000004c 5200          CMPB      AL,#0                 ; [CPU_ALU] |419| 
    3803 0000004d 6104          B         ||$C$L29||,EQ         ; [CPU_ALU] |419| 
    3804                      ; branchcc occurs ; [] |419| 
    3805 0000004e 28A9          MOV       AL,#-2                ; [CPU_ALU] |419| 
         0000004f FFFE 
    3806 00000050 6F02          B         ||$C$L30||,UNC        ; [CPU_ALU] |419| 
    3807                      ; branch occurs ; [] |419| 
    3808 00000051       ||$C$L29||:    
    3809 00000051 9A00          MOVB      AL,#0                 ; [CPU_ALU] |419| 
    3810 00000052       ||$C$L30||:    
    3811 00000052 FE88          SUBB      SP,#8                 ; [CPU_ARAU] 
    3812                      .dwcfi  cfa_offset, -2
    3813              $C$DW$241       .dwtag  DW_TAG_TI_branch
    3814                      .dwattr $C$DW$241, DW_AT_low_pc(0x00)
    3815                      .dwattr $C$DW$241, DW_AT_TI_return
    3816              
    3817 00000053 0006          LRETR     ; [CPU_ALU] 
    3818                      ; return occurs ; [] 
    3819                      .dwattr $C$DW$234, DW_AT_TI_end_file("C:/ti/ccs1271/ccs/tools/compiler/ti-cgt-c2000_22.6.1.LTS/includ
TMS320C2000 Assembler PC v22.6.1 Tue Aug 13 19:46:08 2024

Copyright (c) 1996-2018 Texas Instruments Incorporated
bts.asm                                                              PAGE   78

    3820                      .dwattr $C$DW$234, DW_AT_TI_end_line(0x1ac)
    3821                      .dwattr $C$DW$234, DW_AT_TI_end_column(0x01)
    3822                      .dwendentry
    3823                      .dwendtag $C$DW$234
    3824              
    3825 00000000               .sect   ".text"
    3826                      .clink
    3827                      .global ||BTS_writeCalibration||
    3828              
    3829              $C$DW$242       .dwtag  DW_TAG_subprogram
    3830                      .dwattr $C$DW$242, DW_AT_name("BTS_writeCalibration")
    3831                      .dwattr $C$DW$242, DW_AT_low_pc(||BTS_writeCalibration||)
    3832                      .dwattr $C$DW$242, DW_AT_high_pc(0x00)
    3833                      .dwattr $C$DW$242, DW_AT_linkage_name("BTS_writeCalibration")
    3834                      .dwattr $C$DW$242, DW_AT_external
    3835                      .dwattr $C$DW$242, DW_AT_decl_file("../bts.c")
    3836                      .dwattr $C$DW$242, DW_AT_decl_line(0x14a)
    3837                      .dwattr $C$DW$242, DW_AT_decl_column(0x06)
    3838                      .dwattr $C$DW$242, DW_AT_TI_max_frame_size(-2)
    3839                      .dwpsn  file "../bts.c",line 331,column 1,is_stmt,address ||BTS_writeCalibration||,isa 0
    3840              
    3841                      .dwfde $C$DW$CIE, ||BTS_writeCalibration||
    3842              $C$DW$243       .dwtag  DW_TAG_formal_parameter
    3843                      .dwattr $C$DW$243, DW_AT_name("channel")
    3844                      .dwattr $C$DW$243, DW_AT_type(*$C$DW$T$26)
    3845                      .dwattr $C$DW$243, DW_AT_location[DW_OP_reg0]
    3846              
    3847              
    3848              ;***************************************************************
    3849              ;* FNAME: BTS_writeCalibration          FR SIZE:   0           *
    3850              ;*                                                             *
    3851              ;* FUNCTION ENVIRONMENT                                        *
    3852              ;*                                                             *
    3853              ;* FUNCTION PROPERTIES                                         *
    3854              ;*                            0 Parameter,  0 Auto,  0 SOE     *
    3855              ;***************************************************************
    3856              
    3857 00000000       ||BTS_writeCalibration||:
    3858              ;* AR4   assigned to $O$C1
    3859                      .dwcfi  cfa_offset, -2
    3860                      .dwcfi  save_reg_to_mem, 26, 0
    3861                      .dwpsn  file "../bts.c",line 336,column 9,is_stmt,isa 0
    3862 00000000 8F00!         MOVL      XAR4,#||AvailableI2C_slaves|| ; [CPU_ARAU] |336| 
         00000001 0000 
    3863 00000002 92C4          MOV       AL,*+XAR4[0]          ; [CPU_ALU] |336| 
    3864 00000003 5250          CMPB      AL,#80                ; [CPU_ALU] |336| 
    3865 00000004 6135          B         ||$C$L31||,EQ         ; [CPU_ALU] |336| 
    3866                      ; branchcc occurs ; [] |336| 
    3867 00000005 92CC          MOV       AL,*+XAR4[1]          ; [CPU_ALU] |336| 
    3868 00000006 5250          CMPB      AL,#80                ; [CPU_ALU] |336| 
    3869 00000007 6132          B         ||$C$L31||,EQ         ; [CPU_ALU] |336| 
    3870                      ; branchcc occurs ; [] |336| 
    3871 00000008 92D4          MOV       AL,*+XAR4[2]          ; [CPU_ALU] |336| 
    3872 00000009 5250          CMPB      AL,#80                ; [CPU_ALU] |336| 
    3873 0000000a 612F          B         ||$C$L31||,EQ         ; [CPU_ALU] |336| 
TMS320C2000 Assembler PC v22.6.1 Tue Aug 13 19:46:08 2024

Copyright (c) 1996-2018 Texas Instruments Incorporated
bts.asm                                                              PAGE   79

    3874                      ; branchcc occurs ; [] |336| 
    3875 0000000b 92DC          MOV       AL,*+XAR4[3]          ; [CPU_ALU] |336| 
    3876 0000000c 5250          CMPB      AL,#80                ; [CPU_ALU] |336| 
    3877 0000000d 612C          B         ||$C$L31||,EQ         ; [CPU_ALU] |336| 
    3878                      ; branchcc occurs ; [] |336| 
    3879 0000000e 92E4          MOV       AL,*+XAR4[4]          ; [CPU_ALU] |336| 
    3880 0000000f 5250          CMPB      AL,#80                ; [CPU_ALU] |336| 
    3881 00000010 6129          B         ||$C$L31||,EQ         ; [CPU_ALU] |336| 
    3882                      ; branchcc occurs ; [] |336| 
    3883 00000011 92EC          MOV       AL,*+XAR4[5]          ; [CPU_ALU] |336| 
    3884 00000012 5250          CMPB      AL,#80                ; [CPU_ALU] |336| 
    3885 00000013 6126          B         ||$C$L31||,EQ         ; [CPU_ALU] |336| 
    3886                      ; branchcc occurs ; [] |336| 
    3887 00000014 92F4          MOV       AL,*+XAR4[6]          ; [CPU_ALU] |336| 
    3888 00000015 5250          CMPB      AL,#80                ; [CPU_ALU] |336| 
    3889 00000016 6123          B         ||$C$L31||,EQ         ; [CPU_ALU] |336| 
    3890                      ; branchcc occurs ; [] |336| 
    3891 00000017 92FC          MOV       AL,*+XAR4[7]          ; [CPU_ALU] |336| 
    3892 00000018 5250          CMPB      AL,#80                ; [CPU_ALU] |336| 
    3893 00000019 6120          B         ||$C$L31||,EQ         ; [CPU_ALU] |336| 
    3894                      ; branchcc occurs ; [] |336| 
    3895 0000001a D008          MOVB      XAR0,#8               ; [CPU_ALU] |336| 
    3896 0000001b 9294          MOV       AL,*+XAR4[AR0]        ; [CPU_ALU] |336| 
    3897 0000001c 5250          CMPB      AL,#80                ; [CPU_ALU] |336| 
    3898 0000001d 611C          B         ||$C$L31||,EQ         ; [CPU_ALU] |336| 
    3899                      ; branchcc occurs ; [] |336| 
    3900 0000001e D009          MOVB      XAR0,#9               ; [CPU_ALU] |336| 
    3901 0000001f 9294          MOV       AL,*+XAR4[AR0]        ; [CPU_ALU] |336| 
    3902 00000020 5250          CMPB      AL,#80                ; [CPU_ALU] |336| 
    3903 00000021 6118          B         ||$C$L31||,EQ         ; [CPU_ALU] |336| 
    3904                      ; branchcc occurs ; [] |336| 
    3905 00000022 D00A          MOVB      XAR0,#10              ; [CPU_ALU] |336| 
    3906 00000023 9294          MOV       AL,*+XAR4[AR0]        ; [CPU_ALU] |336| 
    3907 00000024 5250          CMPB      AL,#80                ; [CPU_ALU] |336| 
    3908 00000025 6114          B         ||$C$L31||,EQ         ; [CPU_ALU] |336| 
    3909                      ; branchcc occurs ; [] |336| 
    3910 00000026 D00B          MOVB      XAR0,#11              ; [CPU_ALU] |336| 
    3911 00000027 9294          MOV       AL,*+XAR4[AR0]        ; [CPU_ALU] |336| 
    3912 00000028 5250          CMPB      AL,#80                ; [CPU_ALU] |336| 
    3913 00000029 6110          B         ||$C$L31||,EQ         ; [CPU_ALU] |336| 
    3914                      ; branchcc occurs ; [] |336| 
    3915 0000002a D00C          MOVB      XAR0,#12              ; [CPU_ALU] |336| 
    3916 0000002b 9294          MOV       AL,*+XAR4[AR0]        ; [CPU_ALU] |336| 
    3917 0000002c 5250          CMPB      AL,#80                ; [CPU_ALU] |336| 
    3918 0000002d 610C          B         ||$C$L31||,EQ         ; [CPU_ALU] |336| 
    3919                      ; branchcc occurs ; [] |336| 
    3920 0000002e D00D          MOVB      XAR0,#13              ; [CPU_ALU] |336| 
    3921 0000002f 9294          MOV       AL,*+XAR4[AR0]        ; [CPU_ALU] |336| 
    3922 00000030 5250          CMPB      AL,#80                ; [CPU_ALU] |336| 
    3923 00000031 6108          B         ||$C$L31||,EQ         ; [CPU_ALU] |336| 
    3924                      ; branchcc occurs ; [] |336| 
    3925 00000032 D00E          MOVB      XAR0,#14              ; [CPU_ALU] |336| 
    3926 00000033 9294          MOV       AL,*+XAR4[AR0]        ; [CPU_ALU] |336| 
    3927 00000034 5250          CMPB      AL,#80                ; [CPU_ALU] |336| 
    3928 00000035 6104          B         ||$C$L31||,EQ         ; [CPU_ALU] |336| 
TMS320C2000 Assembler PC v22.6.1 Tue Aug 13 19:46:08 2024

Copyright (c) 1996-2018 Texas Instruments Incorporated
bts.asm                                                              PAGE   80

    3929                      ; branchcc occurs ; [] |336| 
    3930 00000036 D00F          MOVB      XAR0,#15              ; [CPU_ALU] |336| 
    3931 00000037 9294          MOV       AL,*+XAR4[AR0]        ; [CPU_ALU] |336| 
    3932 00000038 5250          CMPB      AL,#80                ; [CPU_ALU] |336| 
    3933              ||$C$L31||:    
    3934              $C$DW$244       .dwtag  DW_TAG_TI_branch
    3935                      .dwattr $C$DW$244, DW_AT_low_pc(0x00)
    3936                      .dwattr $C$DW$244, DW_AT_TI_return
    3937              
    3938 00000039 0006          LRETR     ; [CPU_ALU] 
    3939                      ; return occurs ; [] 
    3940                      .dwattr $C$DW$242, DW_AT_TI_end_file("../bts.c")
    3941                      .dwattr $C$DW$242, DW_AT_TI_end_line(0x15b)
    3942                      .dwattr $C$DW$242, DW_AT_TI_end_column(0x01)
    3943                      .dwendentry
    3944                      .dwendtag $C$DW$242
    3945              
    3946 00000000               .sect   "ramfuncs"
    3947                      .clink
    3948                      .global ||BTS_updateReference||
    3949              
    3950              $C$DW$245       .dwtag  DW_TAG_subprogram
    3951                      .dwattr $C$DW$245, DW_AT_name("BTS_updateReference")
    3952                      .dwattr $C$DW$245, DW_AT_low_pc(||BTS_updateReference||)
    3953                      .dwattr $C$DW$245, DW_AT_high_pc(0x00)
    3954                      .dwattr $C$DW$245, DW_AT_linkage_name("BTS_updateReference")
    3955                      .dwattr $C$DW$245, DW_AT_external
    3956                      .dwattr $C$DW$245, DW_AT_decl_file("../bts.c")
    3957                      .dwattr $C$DW$245, DW_AT_decl_line(0x2e7)
    3958                      .dwattr $C$DW$245, DW_AT_decl_column(0x06)
    3959                      .dwattr $C$DW$245, DW_AT_TI_max_frame_size(-4)
    3960                      .dwpsn  file "../bts.c",line 744,column 1,is_stmt,address ||BTS_updateReference||,isa 0
    3961              
    3962                      .dwfde $C$DW$CIE, ||BTS_updateReference||
    3963              $C$DW$246       .dwtag  DW_TAG_formal_parameter
    3964                      .dwattr $C$DW$246, DW_AT_name("userInput")
    3965                      .dwattr $C$DW$246, DW_AT_type(*$C$DW$T$62)
    3966                      .dwattr $C$DW$246, DW_AT_location[DW_OP_reg12]
    3967              
    3968              $C$DW$247       .dwtag  DW_TAG_formal_parameter
    3969                      .dwattr $C$DW$247, DW_AT_name("ctrlLoopVariable")
    3970                      .dwattr $C$DW$247, DW_AT_type(*$C$DW$T$69)
    3971                      .dwattr $C$DW$247, DW_AT_location[DW_OP_reg14]
    3972              
    3973              
    3974              ;***************************************************************
    3975              ;* FNAME: BTS_updateReference           FR SIZE:   2           *
    3976              ;*                                                             *
    3977              ;* FUNCTION ENVIRONMENT                                        *
    3978              ;*                                                             *
    3979              ;* FUNCTION PROPERTIES                                         *
    3980              ;*                            0 Parameter,  0 Auto,  2 SOE     *
    3981              ;***************************************************************
    3982              
    3983              ||BTS_updateReference||:
TMS320C2000 Assembler PC v22.6.1 Tue Aug 13 19:46:08 2024

Copyright (c) 1996-2018 Texas Instruments Incorporated
bts.asm                                                              PAGE   81

    3984              ;* AR4   assigned to userInput
    3985              $C$DW$248       .dwtag  DW_TAG_variable
    3986                      .dwattr $C$DW$248, DW_AT_name("userInput")
    3987                      .dwattr $C$DW$248, DW_AT_type(*$C$DW$T$63)
    3988                      .dwattr $C$DW$248, DW_AT_location[DW_OP_reg12]
    3989              
    3990              ;* AR5   assigned to ctrlLoopVariable
    3991              $C$DW$249       .dwtag  DW_TAG_variable
    3992                      .dwattr $C$DW$249, DW_AT_name("ctrlLoopVariable")
    3993                      .dwattr $C$DW$249, DW_AT_type(*$C$DW$T$70)
    3994                      .dwattr $C$DW$249, DW_AT_location[DW_OP_reg14]
    3995              
    3996                      .dwcfi  cfa_offset, -2
    3997                      .dwcfi  save_reg_to_mem, 26, 0
    3998 00000000 B2BD          MOVL      *SP++,XAR1            ; [CPU_ALU] 
    3999                      .dwcfi  save_reg_to_mem, 7, 2
    4000                      .dwcfi  cfa_offset, -4
    4001                      .dwpsn  file "../bts.c",line 746,column 5,is_stmt,isa 0
    4002 00000001 92FC          MOV       AL,*+XAR4[7]          ; [CPU_ALU] |746| 
    4003                      .dwpsn  file "../bts.c",line 750,column 9,is_stmt,isa 0
    4004 00000002 56B1          MOVB      XAR0,#34,EQ           ; [CPU_ALU] |750| 
         00000003 22A0 
    4005 00000004 56B1          MOVB      *+XAR5[AR0],#1,EQ     ; [CPU_ALU] |750| 
         00000005 0195 
    4006 00000006 6103          B         ||$C$L32||,EQ         ; [CPU_ALU] |750| 
    4007                      ; branchcc occurs ; [] |750| 
    4008                      .dwpsn  file "../bts.c",line 747,column 9,is_stmt,isa 0
    4009 00000007 D022          MOVB      XAR0,#34              ; [CPU_ALU] |747| 
    4010 00000008 2B95          MOV       *+XAR5[AR0],#0        ; [CPU_ALU] |747| 
    4011 00000009       ||$C$L32||:    
    4012                      .dwpsn  file "../bts.c",line 755,column 5,is_stmt,isa 0
    4013 00000009 D00E          MOVB      XAR0,#14              ; [CPU_ALU] |755| 
    4014 0000000a E2AF          MOV32     R0H,*+XAR4[0]         ; [CPU_FPU] |755| 
         0000000b 00C4 
    4015 0000000c D110          MOVB      XAR1,#16              ; [CPU_ALU] |755| 
    4016 0000000d E2AF          MOV32     R1H,*+XAR4[AR0]       ; [CPU_FPU] |755| 
         0000000e 0194 
    4017 0000000f E700          MPYF32    R0H,R1H,R0H           ; [CPU_FPU] |755| 
         00000010 0008 
    4018 00000011 E2AF          MOV32     R3H,*+XAR4[AR1]       ; [CPU_FPU] |755| 
         00000012 039C 
    4019 00000013 E710          ADDF32    R0H,R0H,R3H           ; [CPU_FPU] |755| 
         00000014 00C0 
    4020                      .dwpsn  file "../bts.c",line 757,column 5,is_stmt,isa 0
    4021 00000015 D008          MOVB      XAR0,#8               ; [CPU_ALU] |757| 
    4022                      .dwpsn  file "../bts.c",line 755,column 5,is_stmt,isa 0
    4023 00000016 E203          MOV32     *+XAR5[4],R0H         ; [CPU_FPU] |755| 
         00000017 00E5 
    4024                      .dwpsn  file "../bts.c",line 757,column 5,is_stmt,isa 0
    4025 00000018 0694          MOVL      ACC,*+XAR4[AR0]       ; [CPU_ALU] |757| 
    4026 00000019 1ED5          MOVL      *+XAR5[2],ACC         ; [CPU_ALU] |757| 
    4027                      .dwpsn  file "../bts.c",line 759,column 5,is_stmt,isa 0
    4028 0000001a 92F4          MOV       AL,*+XAR4[6]          ; [CPU_ALU] |759| 
    4029 0000001b 5201          CMPB      AL,#1                 ; [CPU_ALU] |759| 
    4030 0000001c 610B          B         ||$C$L33||,EQ         ; [CPU_ALU] |759| 
TMS320C2000 Assembler PC v22.6.1 Tue Aug 13 19:46:08 2024

Copyright (c) 1996-2018 Texas Instruments Incorporated
bts.asm                                                              PAGE   82

    4031                      ; branchcc occurs ; [] |759| 
    4032                      .dwpsn  file "../bts.c",line 765,column 9,is_stmt,isa 0
    4033 0000001d D018          MOVB      XAR0,#24              ; [CPU_ALU] |765| 
    4034 0000001e E805          MOVIZ     R0H,#49024            ; [CPU_FPU] |765| 
         0000001f FC00 
    4035 00000020 E203          MOV32     *+XAR5[AR0],R0H       ; [CPU_FPU] |765| 
         00000021 0095 
    4036                      .dwpsn  file "../bts.c",line 766,column 9,is_stmt,isa 0
    4037 00000022 D01F          MOVB      XAR0,#31              ; [CPU_ALU] |766| 
    4038 00000023 2B95          MOV       *+XAR5[AR0],#0        ; [CPU_ALU] |766| 
    4039                      .dwpsn  file "../bts.c",line 767,column 9,is_stmt,isa 0
    4040 00000024 E2AF          MOV32     R0H,*+XAR4[4]         ; [CPU_FPU] |767| 
         00000025 00E4 
    4041 00000026 6F0B          B         ||$C$L34||,UNC        ; [CPU_ALU] |767| 
    4042                      ; branch occurs ; [] |767| 
    4043 00000027       ||$C$L33||:    
    4044                      .dwpsn  file "../bts.c",line 760,column 9,is_stmt,isa 0
    4045 00000027 D018          MOVB      XAR0,#24              ; [CPU_ALU] |760| 
    4046 00000028 E801          MOVIZ     R0H,#16256            ; [CPU_FPU] |760| 
         00000029 FC00 
    4047 0000002a E203          MOV32     *+XAR5[AR0],R0H       ; [CPU_FPU] |760| 
         0000002b 0095 
    4048                      .dwpsn  file "../bts.c",line 761,column 9,is_stmt,isa 0
    4049 0000002c D01F          MOVB      XAR0,#31              ; [CPU_ALU] |761| 
    4050 0000002d 56BF          MOVB      *+XAR5[AR0],#1,UNC    ; [CPU_ALU] |761| 
         0000002e 0195 
    4051                      .dwpsn  file "../bts.c",line 762,column 9,is_stmt,isa 0
    4052 0000002f E2AF          MOV32     R0H,*+XAR4[2]         ; [CPU_FPU] |762| 
         00000030 00D4 
    4053 00000031       ||$C$L34||:    
    4054 00000031 D016          MOVB      XAR0,#22              ; [CPU_ALU] |762| 
    4055 00000032 D118          MOVB      XAR1,#24              ; [CPU_ALU] |762| 
    4056 00000033 E2AF          MOV32     R1H,*+XAR4[AR0]       ; [CPU_FPU] |762| 
         00000034 0194 
    4057 00000035 E700          MPYF32    R0H,R1H,R0H           ; [CPU_FPU] |762| 
         00000036 0008 
    4058 00000037 E2AF          MOV32     R3H,*+XAR4[AR1]       ; [CPU_FPU] |762| 
         00000038 039C 
    4059 00000039 E710          ADDF32    R0H,R0H,R3H           ; [CPU_FPU] |762| 
         0000003a 00C0 
    4060 0000003b D00A          MOVB      XAR0,#10              ; [CPU_ALU] |762| 
    4061 0000003c E203          MOV32     *+XAR5[AR0],R0H       ; [CPU_FPU] |762| 
         0000003d 0095 
    4062 0000003e 8BBE          MOVL      XAR1,*--SP            ; [CPU_ALU] 
    4063                      .dwcfi  cfa_offset, -2
    4064                      .dwcfi  restore_reg, 7
    4065              $C$DW$250       .dwtag  DW_TAG_TI_branch
    4066                      .dwattr $C$DW$250, DW_AT_low_pc(0x00)
    4067                      .dwattr $C$DW$250, DW_AT_TI_return
    4068              
    4069 0000003f 0006          LRETR     ; [CPU_ALU] 
    4070                      ; return occurs ; [] 
    4071                      .dwattr $C$DW$245, DW_AT_TI_end_file("../bts.c")
    4072                      .dwattr $C$DW$245, DW_AT_TI_end_line(0x316)
    4073                      .dwattr $C$DW$245, DW_AT_TI_end_column(0x01)
TMS320C2000 Assembler PC v22.6.1 Tue Aug 13 19:46:08 2024

Copyright (c) 1996-2018 Texas Instruments Incorporated
bts.asm                                                              PAGE   83

    4074                      .dwendentry
    4075                      .dwendtag $C$DW$245
    4076              
    4077 0000003a               .sect   ".text"
    4078                      .clink
    4079                      .global ||BTS_setupSfraGui||
    4080              
    4081              $C$DW$251       .dwtag  DW_TAG_subprogram
    4082                      .dwattr $C$DW$251, DW_AT_name("BTS_setupSfraGui")
    4083                      .dwattr $C$DW$251, DW_AT_low_pc(||BTS_setupSfraGui||)
    4084                      .dwattr $C$DW$251, DW_AT_high_pc(0x00)
    4085                      .dwattr $C$DW$251, DW_AT_linkage_name("BTS_setupSfraGui")
    4086                      .dwattr $C$DW$251, DW_AT_external
    4087                      .dwattr $C$DW$251, DW_AT_decl_file("../bts.c")
    4088                      .dwattr $C$DW$251, DW_AT_decl_line(0x24c)
    4089                      .dwattr $C$DW$251, DW_AT_decl_column(0x06)
    4090                      .dwattr $C$DW$251, DW_AT_TI_max_frame_size(-18)
    4091                      .dwpsn  file "../bts.c",line 589,column 1,is_stmt,address ||BTS_setupSfraGui||,isa 0
    4092              
    4093                      .dwfde $C$DW$CIE, ||BTS_setupSfraGui||
    4094              
    4095              ;***************************************************************
    4096              ;* FNAME: BTS_setupSfraGui              FR SIZE:  16           *
    4097              ;*                                                             *
    4098              ;* FUNCTION ENVIRONMENT                                        *
    4099              ;*                                                             *
    4100              ;* FUNCTION PROPERTIES                                         *
    4101              ;*                           15 Parameter,  0 Auto,  0 SOE     *
    4102              ;***************************************************************
    4103              
    4104 0000003a       ||BTS_setupSfraGui||:
    4105              ;* AL    assigned to $O$R1
    4106                      .dwcfi  cfa_offset, -2
    4107                      .dwcfi  save_reg_to_mem, 26, 0
    4108 0000003a FE10          ADDB      SP,#16                ; [CPU_ARAU] 
    4109                      .dwcfi  cfa_offset, -18
    4110                      .dwpsn  file "C:\sandbox\github\Lion-IRVT\Hardware\source\tida-010086\bts_F2837xD_8ch\bts_hal.h",line
    4111 0000003b 28A9          MOV       AL,#11520             ; [CPU_ALU] |238| 
         0000003c 2D00 
    4112 0000003d 28A8          MOV       AH,#305               ; [CPU_ALU] |238| 
         0000003e 0131 
    4113              $C$DW$252       .dwtag  DW_TAG_TI_branch
    4114                      .dwattr $C$DW$252, DW_AT_low_pc(0x00)
    4115                      .dwattr $C$DW$252, DW_AT_name("SysCtl_getLowSpeedClock")
    4116                      .dwattr $C$DW$252, DW_AT_TI_call
    4117              
    4118 0000003f 7640!         LCR       #||SysCtl_getLowSpeedClock|| ; [CPU_ALU] |238| 
         00000040 0000 
    4119                      ; call occurs [#||SysCtl_getLowSpeedClock||] ; [] |238| 
    4120                      .dwpsn  file "../bts.c",line 591,column 9,is_stmt,isa 0
    4121 00000041 8F00          MOVL      XAR4,#57600           ; [CPU_ARAU] |591| 
         00000042 E100 
    4122 00000043 8F48          MOVL      XAR5,#530433          ; [CPU_ARAU] |591| 
         00000044 1801 
    4123 00000045 1E42          MOVL      *-SP[2],ACC           ; [CPU_ALU] |591| 
TMS320C2000 Assembler PC v22.6.1 Tue Aug 13 19:46:08 2024

Copyright (c) 1996-2018 Texas Instruments Incorporated
bts.asm                                                              PAGE   84

    4124 00000046 A844          MOVL      *-SP[4],XAR4          ; [CPU_ALU] |591| 
    4125 00000047 FF29          MOV       ACC,#8975 << 9        ; [CPU_ALU] |591| 
         00000048 230F 
    4126 00000049 8F08          MOVL      XAR4,#530945          ; [CPU_ARAU] |591| 
         0000004a 1A01 
    4127 0000004b A046          MOVL      *-SP[6],XAR5          ; [CPU_ALU] |591| 
    4128 0000004c 56BF          MOVB      *-SP[7],#29,UNC       ; [CPU_ALU] |591| 
         0000004d 1D47 
    4129 0000004e D51C          MOVB      XAR5,#28              ; [CPU_ALU] |591| 
    4130 0000004f A84A          MOVL      *-SP[10],XAR4         ; [CPU_ALU] |591| 
    4131 00000050 56BF          MOVB      *-SP[11],#1,UNC       ; [CPU_ALU] |591| 
         00000051 014B 
    4132 00000052 8F00!         MOVL      XAR4,#||BTS_sfra||    ; [CPU_ARAU] |591| 
         00000053 0000 
    4133 00000054 56BF          MOVB      *-SP[12],#47,UNC      ; [CPU_ALU] |591| 
         00000055 2F4C 
    4134 00000056 1E4E          MOVL      *-SP[14],ACC          ; [CPU_ALU] |591| 
    4135 00000057 FF20          MOV       ACC,#29184            ; [CPU_ALU] |591| 
         00000058 7200 
    4136 00000059 56BF          MOVB      *-SP[15],#1,UNC       ; [CPU_ALU] |591| 
         0000005a 014F 
    4137              $C$DW$253       .dwtag  DW_TAG_TI_branch
    4138                      .dwattr $C$DW$253, DW_AT_low_pc(0x00)
    4139                      .dwattr $C$DW$253, DW_AT_name("SFRA_GUI_config")
    4140                      .dwattr $C$DW$253, DW_AT_TI_call
    4141              
    4142 0000005b 7640!         LCR       #||SFRA_GUI_config||  ; [CPU_ALU] |591| 
         0000005c 0000 
    4143                      ; call occurs [#||SFRA_GUI_config||] ; [] |591| 
    4144 0000005d FE90          SUBB      SP,#16                ; [CPU_ARAU] 
    4145                      .dwcfi  cfa_offset, -2
    4146              $C$DW$254       .dwtag  DW_TAG_TI_branch
    4147                      .dwattr $C$DW$254, DW_AT_low_pc(0x00)
    4148                      .dwattr $C$DW$254, DW_AT_TI_return
    4149              
    4150 0000005e 0006          LRETR     ; [CPU_ALU] 
    4151                      ; return occurs ; [] 
    4152                      .dwattr $C$DW$251, DW_AT_TI_end_file("../bts.c")
    4153                      .dwattr $C$DW$251, DW_AT_TI_end_line(0x25c)
    4154                      .dwattr $C$DW$251, DW_AT_TI_end_column(0x01)
    4155                      .dwendentry
    4156                      .dwendtag $C$DW$251
    4157              
    4158 0000005f               .sect   ".text"
    4159                      .clink
    4160                      .global ||BTS_setupSfra||
    4161              
    4162              $C$DW$255       .dwtag  DW_TAG_subprogram
    4163                      .dwattr $C$DW$255, DW_AT_name("BTS_setupSfra")
    4164                      .dwattr $C$DW$255, DW_AT_low_pc(||BTS_setupSfra||)
    4165                      .dwattr $C$DW$255, DW_AT_high_pc(0x00)
    4166                      .dwattr $C$DW$255, DW_AT_linkage_name("BTS_setupSfra")
    4167                      .dwattr $C$DW$255, DW_AT_external
    4168                      .dwattr $C$DW$255, DW_AT_decl_file("../bts.c")
    4169                      .dwattr $C$DW$255, DW_AT_decl_line(0x233)
TMS320C2000 Assembler PC v22.6.1 Tue Aug 13 19:46:08 2024

Copyright (c) 1996-2018 Texas Instruments Incorporated
bts.asm                                                              PAGE   85

    4170                      .dwattr $C$DW$255, DW_AT_decl_column(0x06)
    4171                      .dwattr $C$DW$255, DW_AT_TI_max_frame_size(-16)
    4172                      .dwpsn  file "../bts.c",line 564,column 1,is_stmt,address ||BTS_setupSfra||,isa 0
    4173              
    4174                      .dwfde $C$DW$CIE, ||BTS_setupSfra||
    4175              
    4176              ;***************************************************************
    4177              ;* FNAME: BTS_setupSfra                 FR SIZE:  14           *
    4178              ;*                                                             *
    4179              ;* FUNCTION ENVIRONMENT                                        *
    4180              ;*                                                             *
    4181              ;* FUNCTION PROPERTIES                                         *
    4182              ;*                           12 Parameter,  0 Auto,  2 SOE     *
    4183              ;***************************************************************
    4184              
    4185 0000005f       ||BTS_setupSfra||:
    4186              ;* AR1   assigned to $O$C1
    4187              ;* AR5   assigned to $O$C2
    4188                      .dwcfi  cfa_offset, -2
    4189                      .dwcfi  save_reg_to_mem, 26, 0
    4190 0000005f B2BD          MOVL      *SP++,XAR1            ; [CPU_ALU] 
    4191                      .dwcfi  save_reg_to_mem, 7, 2
    4192                      .dwcfi  cfa_offset, -4
    4193 00000060 FE0C          ADDB      SP,#12                ; [CPU_ARAU] 
    4194                      .dwcfi  cfa_offset, -16
    4195                      .dwpsn  file "../bts.c",line 566,column 9,is_stmt,isa 0
    4196 00000061 8D40!         MOVL      XAR1,#||BTS_sfra||    ; [CPU_ARAU] |566| 
         00000062 0000 
    4197 00000063 8AA1          MOVL      XAR4,XAR1             ; [CPU_ALU] |566| 
    4198              $C$DW$256       .dwtag  DW_TAG_TI_branch
    4199                      .dwattr $C$DW$256, DW_AT_low_pc(0x00)
    4200                      .dwattr $C$DW$256, DW_AT_name("SFRA_F32_reset")
    4201                      .dwattr $C$DW$256, DW_AT_TI_call
    4202              
    4203 00000064 7640!         LCR       #||SFRA_F32_reset||   ; [CPU_ALU] |566| 
         00000065 0000 
    4204                      ; call occurs [#||SFRA_F32_reset||] ; [] |566| 
    4205                      .dwpsn  file "../bts.c",line 567,column 9,is_stmt,isa 0
    4206 00000066 8F40!         MOVL      XAR5,#||BTS_sfraData|| ; [CPU_ARAU] |567| 
         00000067 0000 
    4207 00000068 E802          MOVIZ     R0H,#18164            ; [CPU_FPU] |567| 
         00000069 37A0 
    4208 0000006a E801          MOVIZ     R1H,#15820            ; [CPU_FPU] |567| 
         0000006b EE61 
    4209 0000006c E801          MOVIZ     R3H,#16265            ; [CPU_FPU] |567| 
         0000006d FC4B 
    4210 0000006e A0A9          MOVL      ACC,XAR5              ; [CPU_ALU] |567| 
    4211 0000006f B600          MOVB      XAR7,#0               ; [CPU_ALU] |567| 
    4212 00000070 BE00          MOVB      XAR6,#0               ; [CPU_ALU] |567| 
    4213 00000071 E802          MOVIZ     R2H,#16672            ; [CPU_FPU] |567| 
         00000072 0902 
    4214 00000073 09CE          ADDB      ACC,#206              ; [CPU_ALU] |567| 
    4215 00000074 8AA1          MOVL      XAR4,XAR1             ; [CPU_ALU] |567| 
    4216 00000075 E809          MOVXI     R0H,#9216             ; [CPU_FPU] |567| 
         00000076 2000 
TMS320C2000 Assembler PC v22.6.1 Tue Aug 13 19:46:08 2024

Copyright (c) 1996-2018 Texas Instruments Incorporated
bts.asm                                                              PAGE   86

    4217 00000077 E80E          MOVXI     R1H,#52429            ; [CPU_FPU] |567| 
         00000078 6669 
    4218 00000079 E80C          MOVXI     R3H,#36032            ; [CPU_FPU] |567| 
         0000007a 6603 
    4219 0000007b 1E42          MOVL      *-SP[2],ACC           ; [CPU_ALU] |567| 
    4220 0000007c A0A9          MOVL      ACC,XAR5              ; [CPU_ALU] |567| 
    4221 0000007d FF12          ADD       ACC,#103 << 2         ; [CPU_ALU] |567| 
         0000007e 0067 
    4222 0000007f 1E44          MOVL      *-SP[4],ACC           ; [CPU_ALU] |567| 
    4223 00000080 A0A9          MOVL      ACC,XAR5              ; [CPU_ALU] |567| 
    4224 00000081 FF11          ADD       ACC,#309 << 1         ; [CPU_ALU] |567| 
         00000082 0135 
    4225 00000083 1E46          MOVL      *-SP[6],ACC           ; [CPU_ALU] |567| 
    4226 00000084 A0A9          MOVL      ACC,XAR5              ; [CPU_ALU] |567| 
    4227 00000085 C348          MOVL      *-SP[8],XAR7          ; [CPU_ALU] |567| 
    4228 00000086 FF13          ADD       ACC,#103 << 3         ; [CPU_ALU] |567| 
         00000087 0067 
    4229 00000088 C24A          MOVL      *-SP[10],XAR6         ; [CPU_ALU] |567| 
    4230 00000089 1E4C          MOVL      *-SP[12],ACC          ; [CPU_ALU] |567| 
    4231 0000008a 9A67          MOVB      AL,#103               ; [CPU_ALU] |567| 
    4232 0000008b 9B03          MOVB      AH,#3                 ; [CPU_ALU] |567| 
    4233              $C$DW$257       .dwtag  DW_TAG_TI_branch
    4234                      .dwattr $C$DW$257, DW_AT_low_pc(0x00)
    4235                      .dwattr $C$DW$257, DW_AT_name("SFRA_F32_config")
    4236                      .dwattr $C$DW$257, DW_AT_TI_call
    4237              
    4238 0000008c 7640!         LCR       #||SFRA_F32_config||  ; [CPU_ALU] |567| 
         0000008d 0000 
    4239                      ; call occurs [#||SFRA_F32_config||] ; [] |567| 
    4240                      .dwpsn  file "../bts.c",line 581,column 9,is_stmt,isa 0
    4241 0000008e 8AA1          MOVL      XAR4,XAR1             ; [CPU_ALU] |581| 
    4242              $C$DW$258       .dwtag  DW_TAG_TI_branch
    4243                      .dwattr $C$DW$258, DW_AT_low_pc(0x00)
    4244                      .dwattr $C$DW$258, DW_AT_name("SFRA_F32_resetFreqRespArray")
    4245                      .dwattr $C$DW$258, DW_AT_TI_call
    4246              
    4247 0000008f 7640!         LCR       #||SFRA_F32_resetFreqRespArray|| ; [CPU_ALU] |581| 
         00000090 0000 
    4248                      ; call occurs [#||SFRA_F32_resetFreqRespArray||] ; [] |581| 
    4249                      .dwpsn  file "../bts.c",line 582,column 9,is_stmt,isa 0
    4250 00000091 E801          MOVIZ     R1H,#16265            ; [CPU_FPU] |582| 
         00000092 FC49 
    4251 00000093 E802          MOVIZ     R0H,#16672            ; [CPU_FPU] |582| 
         00000094 0900 
    4252 00000095 8AA1          MOVL      XAR4,XAR1             ; [CPU_ALU] |582| 
    4253 00000096 E80C          MOVXI     R1H,#36032            ; [CPU_FPU] |582| 
         00000097 6601 
    4254              $C$DW$259       .dwtag  DW_TAG_TI_branch
    4255                      .dwattr $C$DW$259, DW_AT_low_pc(0x00)
    4256                      .dwattr $C$DW$259, DW_AT_name("SFRA_F32_initFreqArrayWithLogSteps")
    4257                      .dwattr $C$DW$259, DW_AT_TI_call
    4258              
    4259 00000098 7640!         LCR       #||SFRA_F32_initFreqArrayWithLogSteps|| ; [CPU_ALU] |582| 
         00000099 0000 
    4260                      ; call occurs [#||SFRA_F32_initFreqArrayWithLogSteps||] ; [] |582| 
TMS320C2000 Assembler PC v22.6.1 Tue Aug 13 19:46:08 2024

Copyright (c) 1996-2018 Texas Instruments Incorporated
bts.asm                                                              PAGE   87

    4261 0000009a FE8C          SUBB      SP,#12                ; [CPU_ARAU] 
    4262                      .dwcfi  cfa_offset, -4
    4263 0000009b 8BBE          MOVL      XAR1,*--SP            ; [CPU_ALU] 
    4264                      .dwcfi  cfa_offset, -2
    4265                      .dwcfi  restore_reg, 7
    4266              $C$DW$260       .dwtag  DW_TAG_TI_branch
    4267                      .dwattr $C$DW$260, DW_AT_low_pc(0x00)
    4268                      .dwattr $C$DW$260, DW_AT_TI_return
    4269              
    4270 0000009c 0006          LRETR     ; [CPU_ALU] 
    4271                      ; return occurs ; [] 
    4272                      .dwattr $C$DW$255, DW_AT_TI_end_file("../bts.c")
    4273                      .dwattr $C$DW$255, DW_AT_TI_end_line(0x24a)
    4274                      .dwattr $C$DW$255, DW_AT_TI_end_column(0x01)
    4275                      .dwendentry
    4276                      .dwendtag $C$DW$255
    4277              
    4278 0000009d               .sect   ".text"
    4279                      .clink
    4280                      .global ||BTS_setupHrpwmMepScaleFactor||
    4281              
    4282              $C$DW$261       .dwtag  DW_TAG_subprogram
    4283                      .dwattr $C$DW$261, DW_AT_name("BTS_setupHrpwmMepScaleFactor")
    4284                      .dwattr $C$DW$261, DW_AT_low_pc(||BTS_setupHrpwmMepScaleFactor||)
    4285                      .dwattr $C$DW$261, DW_AT_high_pc(0x00)
    4286                      .dwattr $C$DW$261, DW_AT_linkage_name("BTS_setupHrpwmMepScaleFactor")
    4287                      .dwattr $C$DW$261, DW_AT_external
    4288                      .dwattr $C$DW$261, DW_AT_decl_file("../bts.c")
    4289                      .dwattr $C$DW$261, DW_AT_decl_line(0x225)
    4290                      .dwattr $C$DW$261, DW_AT_decl_column(0x06)
    4291                      .dwattr $C$DW$261, DW_AT_TI_max_frame_size(-2)
    4292                      .dwpsn  file "../bts.c",line 550,column 1,is_stmt,address ||BTS_setupHrpwmMepScaleFactor||,isa 0
    4293              
    4294                      .dwfde $C$DW$CIE, ||BTS_setupHrpwmMepScaleFactor||
    4295              
    4296              ;***************************************************************
    4297              ;* FNAME: BTS_setupHrpwmMepScaleFactor  FR SIZE:   0           *
    4298              ;*                                                             *
    4299              ;* FUNCTION ENVIRONMENT                                        *
    4300              ;*                                                             *
    4301              ;* FUNCTION PROPERTIES                                         *
    4302              ;*                            0 Parameter,  0 Auto,  0 SOE     *
    4303              ;***************************************************************
    4304              
    4305 0000009d       ||BTS_setupHrpwmMepScaleFactor||:
    4306                      .dwcfi  cfa_offset, -2
    4307                      .dwcfi  save_reg_to_mem, 26, 0
    4308 0000009d       ||$C$L35||:    
    4309                      .dwpsn  file "../bts.c",line 556,column 13,is_stmt,isa 0
    4310              $C$DW$262       .dwtag  DW_TAG_TI_branch
    4311                      .dwattr $C$DW$262, DW_AT_low_pc(0x00)
    4312                      .dwattr $C$DW$262, DW_AT_name("SFO")
    4313                      .dwattr $C$DW$262, DW_AT_TI_call
    4314              
    4315 0000009d 7640!         LCR       #||SFO||              ; [CPU_ALU] |556| 
TMS320C2000 Assembler PC v22.6.1 Tue Aug 13 19:46:08 2024

Copyright (c) 1996-2018 Texas Instruments Incorporated
bts.asm                                                              PAGE   88

         0000009e 0000 
    4316                      ; call occurs [#||SFO||] ; [] |556| 
    4317 0000009f 761F!         MOVW      DP,#||BTS_sfoStatus|| ; [CPU_ARAU] 
         000000a0 0000 
    4318 000000a1 5200          CMPB      AL,#0                 ; [CPU_ALU] |556| 
    4319 000000a2 9600!         MOV       @||BTS_sfoStatus||,AL ; [CPU_FPU] |556| 
    4320 000000a3 61FA          B         ||$C$L35||,EQ         ; [CPU_ALU] |556| 
    4321                      ; branchcc occurs ; [] |556| 
    4322              $C$DW$263       .dwtag  DW_TAG_TI_branch
    4323                      .dwattr $C$DW$263, DW_AT_low_pc(0x00)
    4324                      .dwattr $C$DW$263, DW_AT_TI_return
    4325              
    4326 000000a4 0006          LRETR     ; [CPU_ALU] 
    4327                      ; return occurs ; [] 
    4328                      .dwattr $C$DW$261, DW_AT_TI_end_file("../bts.c")
    4329                      .dwattr $C$DW$261, DW_AT_TI_end_line(0x22f)
    4330                      .dwattr $C$DW$261, DW_AT_TI_end_column(0x01)
    4331                      .dwendentry
    4332                      .dwendtag $C$DW$261
    4333              
    4334 000000a5               .sect   ".text"
    4335                      .clink
    4336                      .global ||BTS_calcUserProgramVariables||
    4337              
    4338              $C$DW$264       .dwtag  DW_TAG_subprogram
    4339                      .dwattr $C$DW$264, DW_AT_name("BTS_calcUserProgramVariables")
    4340                      .dwattr $C$DW$264, DW_AT_low_pc(||BTS_calcUserProgramVariables||)
    4341                      .dwattr $C$DW$264, DW_AT_high_pc(0x00)
    4342                      .dwattr $C$DW$264, DW_AT_linkage_name("BTS_calcUserProgramVariables")
    4343                      .dwattr $C$DW$264, DW_AT_external
    4344                      .dwattr $C$DW$264, DW_AT_decl_file("../bts.c")
    4345                      .dwattr $C$DW$264, DW_AT_decl_line(0x130)
    4346                      .dwattr $C$DW$264, DW_AT_decl_column(0x06)
    4347                      .dwattr $C$DW$264, DW_AT_TI_max_frame_size(-4)
    4348                      .dwpsn  file "../bts.c",line 305,column 1,is_stmt,address ||BTS_calcUserProgramVariables||,isa 0
    4349              
    4350                      .dwfde $C$DW$CIE, ||BTS_calcUserProgramVariables||
    4351              $C$DW$265       .dwtag  DW_TAG_formal_parameter
    4352                      .dwattr $C$DW$265, DW_AT_name("i")
    4353                      .dwattr $C$DW$265, DW_AT_type(*$C$DW$T$26)
    4354                      .dwattr $C$DW$265, DW_AT_location[DW_OP_reg0]
    4355              
    4356              
    4357              ;***************************************************************
    4358              ;* FNAME: BTS_calcUserProgramVariables  FR SIZE:   2           *
    4359              ;*                                                             *
    4360              ;* FUNCTION ENVIRONMENT                                        *
    4361              ;*                                                             *
    4362              ;* FUNCTION PROPERTIES                                         *
    4363              ;*                            0 Parameter,  0 Auto,  2 SOE     *
    4364              ;***************************************************************
    4365              
    4366              ||BTS_calcUserProgramVariables||:
    4367              ;* AR5   assigned to $O$C1
    4368              ;* AR4   assigned to $O$C2
TMS320C2000 Assembler PC v22.6.1 Tue Aug 13 19:46:08 2024

Copyright (c) 1996-2018 Texas Instruments Incorporated
bts.asm                                                              PAGE   89

    4369              ;* AR6   assigned to $O$C3
    4370              ;* AR7   assigned to $O$C4
    4371              ;* T     assigned to i
    4372              $C$DW$266       .dwtag  DW_TAG_variable
    4373                      .dwattr $C$DW$266, DW_AT_name("i")
    4374                      .dwattr $C$DW$266, DW_AT_type(*$C$DW$T$131)
    4375                      .dwattr $C$DW$266, DW_AT_location[DW_OP_reg22]
    4376              
    4377                      .dwcfi  cfa_offset, -2
    4378                      .dwcfi  save_reg_to_mem, 26, 0
    4379 000000a5 2DA9          MOV       T,AL                  ; [CPU_ALU] |305| 
    4380 000000a6 2901          CLRC      SXM                   ; [CPU_ALU] 
    4381                      .dwpsn  file "../bts.c",line 306,column 5,is_stmt,isa 0
    4382 000000a7 8F00!         MOVL      XAR4,#||BTS_userInputs|| ; [CPU_ARAU] |306| 
         000000a8 0000 
    4383 000000a9 5603          MOV       ACC,T << 5            ; [CPU_ALU] |306| 
         000000aa 05AC 
    4384 000000ab 5601          ADDL      XAR4,ACC              ; [CPU_ALU] |306| 
         000000ac 00A4 
    4385 000000ad B2BD          MOVL      *SP++,XAR1            ; [CPU_ALU] 
    4386                      .dwcfi  save_reg_to_mem, 7, 2
    4387                      .dwcfi  cfa_offset, -4
    4388                      .dwpsn  file "../bts.c",line 309,column 5,is_stmt,isa 0
    4389 000000ae D012          MOVB      XAR0,#18              ; [CPU_ALU] |309| 
    4390 000000af A394          MOVL      P,*+XAR4[AR0]         ; [CPU_ALU] |309| 
    4391                      .dwpsn  file "../bts.c",line 306,column 5,is_stmt,isa 0
    4392 000000b0 D00E          MOVB      XAR0,#14              ; [CPU_ALU] |306| 
    4393 000000b1 E2AF          MOV32     R0H,*+XAR4[AR0]       ; [CPU_FPU] |306| 
         000000b2 0094 
    4394 000000b3 D010          MOVB      XAR0,#16              ; [CPU_ALU] |306| 
    4395 000000b4 E850          MPYF32    R0H,R0H,#16640        ; [CPU_FPU] |306| 
         000000b5 4000 
    4396 000000b6 E2AF          MOV32     R1H,*+XAR4[AR0]       ; [CPU_FPU] |306| 
         000000b7 0194 
    4397 000000b8 E710          ADDF32    R0H,R0H,R1H           ; [CPU_FPU] |306| 
         000000b9 0040 
    4398 000000ba 7680!         MOVL      XAR6,#||BTS_ctrlLoopVariables|| ; [CPU_ARAU] |306| 
         000000bb 0000 
    4399 000000bc E851          MPYF32    R0H,R0H,#18176        ; [CPU_FPU] |306| 
         000000bd C000 
    4400 000000be 9A24          MOVB      AL,#36                ; [CPU_ALU] |306| 
    4401 000000bf E68C          F32TOI16  R0H,R0H               ; [CPU_FPU] |306| 
         000000c0 0000 
    4402 000000c1 36A9          MPYU      ACC,T,AL              ; [CPU_ALU] |306| 
    4403 000000c2 5601          ADDL      XAR6,ACC              ; [CPU_ALU] |306| 
         000000c3 00A6 
    4404 000000c4 BFA7          MOV32     XAR7,R0H              ; [CPU_FPU] |306| 
         000000c5 0F12 
    4405                      .dwpsn  file "../bts.c",line 307,column 5,is_stmt,isa 0
    4406 000000c6 D021          MOVB      XAR0,#33              ; [CPU_FPU] |307| 
    4407                      .dwpsn  file "../bts.c",line 309,column 5,is_stmt,isa 0
    4408 000000c7 9B52          MOVB      AH,#82                ; [CPU_FPU] |309| 
    4409 000000c8 8F40!         MOVL      XAR5,#||BTS_measValues|| ; [CPU_ARAU] |309| 
         000000c9 0000 
    4410                      .dwpsn  file "../bts.c",line 307,column 5,is_stmt,isa 0
TMS320C2000 Assembler PC v22.6.1 Tue Aug 13 19:46:08 2024

Copyright (c) 1996-2018 Texas Instruments Incorporated
bts.asm                                                              PAGE   90

    4411 000000ca 92A7          MOV       AL,AR7                ; [CPU_ALU] |307| 
    4412 000000cb FF5C          NEG       AL                    ; [CPU_ALU] |307| 
    4413 000000cc 9696          MOV       *+XAR6[AR0],AL        ; [CPU_ALU] |307| 
    4414                      .dwpsn  file "../bts.c",line 309,column 5,is_stmt,isa 0
    4415 000000cd 36A8          MPYU      ACC,T,AH              ; [CPU_ALU] |309| 
    4416 000000ce 5601          ADDL      XAR5,ACC              ; [CPU_ALU] |309| 
         000000cf 00A5 
    4417 000000d0 D04A          MOVB      XAR0,#74              ; [CPU_ALU] |309| 
    4418                      .dwpsn  file "../bts.c",line 310,column 5,is_stmt,isa 0
    4419 000000d1 D14C          MOVB      XAR1,#76              ; [CPU_ALU] |310| 
    4420                      .dwpsn  file "../bts.c",line 309,column 5,is_stmt,isa 0
    4421 000000d2 A995          MOVL      *+XAR5[AR0],P         ; [CPU_ALU] |309| 
    4422                      .dwpsn  file "../bts.c",line 310,column 5,is_stmt,isa 0
    4423 000000d3 D014          MOVB      XAR0,#20              ; [CPU_ALU] |310| 
    4424 000000d4 0694          MOVL      ACC,*+XAR4[AR0]       ; [CPU_ALU] |310| 
    4425                      .dwpsn  file "../bts.c",line 306,column 5,is_stmt,isa 0
    4426 000000d5 D020          MOVB      XAR0,#32              ; [CPU_ALU] |306| 
    4427                      .dwpsn  file "../bts.c",line 310,column 5,is_stmt,isa 0
    4428 000000d6 1E9D          MOVL      *+XAR5[AR1],ACC       ; [CPU_ALU] |310| 
    4429                      .dwpsn  file "../bts.c",line 306,column 5,is_stmt,isa 0
    4430 000000d7 7F96          MOV       *+XAR6[AR0],AR7       ; [CPU_ALU] |306| 
    4431                      .dwpsn  file "../bts.c",line 312,column 5,is_stmt,isa 0
    4432 000000d8 D01C          MOVB      XAR0,#28              ; [CPU_ALU] |312| 
    4433 000000d9 0694          MOVL      ACC,*+XAR4[AR0]       ; [CPU_ALU] |312| 
    4434                      .dwpsn  file "../bts.c",line 311,column 5,is_stmt,isa 0
    4435 000000da D01A          MOVB      XAR0,#26              ; [CPU_ALU] |311| 
    4436 000000db C494          MOVL      XAR6,*+XAR4[AR0]      ; [CPU_ALU] |311| 
    4437 000000dc D14E          MOVB      XAR1,#78              ; [CPU_ALU] |311| 
    4438                      .dwpsn  file "../bts.c",line 312,column 5,is_stmt,isa 0
    4439 000000dd D050          MOVB      XAR0,#80              ; [CPU_ALU] |312| 
    4440 000000de 1E95          MOVL      *+XAR5[AR0],ACC       ; [CPU_ALU] |312| 
    4441                      .dwpsn  file "../bts.c",line 311,column 5,is_stmt,isa 0
    4442 000000df C29D          MOVL      *+XAR5[AR1],XAR6      ; [CPU_ALU] |311| 
    4443 000000e0 8BBE          MOVL      XAR1,*--SP            ; [CPU_ALU] 
    4444                      .dwcfi  cfa_offset, -2
    4445                      .dwcfi  restore_reg, 7
    4446              $C$DW$267       .dwtag  DW_TAG_TI_branch
    4447                      .dwattr $C$DW$267, DW_AT_low_pc(0x00)
    4448                      .dwattr $C$DW$267, DW_AT_TI_return
    4449              
    4450 000000e1 0006          LRETR     ; [CPU_ALU] 
    4451                      ; return occurs ; [] 
    4452                      .dwattr $C$DW$264, DW_AT_TI_end_file("../bts.c")
    4453                      .dwattr $C$DW$264, DW_AT_TI_end_line(0x139)
    4454                      .dwattr $C$DW$264, DW_AT_TI_end_column(0x01)
    4455                      .dwendentry
    4456                      .dwendtag $C$DW$264
    4457              
    4458 000000e2               .sect   ".text"
    4459                      .clink
    4460                      .global ||BTS_readCalibration||
    4461              
    4462              $C$DW$268       .dwtag  DW_TAG_subprogram
    4463                      .dwattr $C$DW$268, DW_AT_name("BTS_readCalibration")
    4464                      .dwattr $C$DW$268, DW_AT_low_pc(||BTS_readCalibration||)
TMS320C2000 Assembler PC v22.6.1 Tue Aug 13 19:46:08 2024

Copyright (c) 1996-2018 Texas Instruments Incorporated
bts.asm                                                              PAGE   91

    4465                      .dwattr $C$DW$268, DW_AT_high_pc(0x00)
    4466                      .dwattr $C$DW$268, DW_AT_linkage_name("BTS_readCalibration")
    4467                      .dwattr $C$DW$268, DW_AT_external
    4468                      .dwattr $C$DW$268, DW_AT_decl_file("../bts.c")
    4469                      .dwattr $C$DW$268, DW_AT_decl_line(0x15d)
    4470                      .dwattr $C$DW$268, DW_AT_decl_column(0x06)
    4471                      .dwattr $C$DW$268, DW_AT_TI_max_frame_size(-12)
    4472                      .dwpsn  file "../bts.c",line 350,column 1,is_stmt,address ||BTS_readCalibration||,isa 0
    4473              
    4474                      .dwfde $C$DW$CIE, ||BTS_readCalibration||
    4475              
    4476              ;***************************************************************
    4477              ;* FNAME: BTS_readCalibration           FR SIZE:  10           *
    4478              ;*                                                             *
    4479              ;* FUNCTION ENVIRONMENT                                        *
    4480              ;*                                                             *
    4481              ;* FUNCTION PROPERTIES                                         *
    4482              ;*                            0 Parameter,  4 Auto,  6 SOE     *
    4483              ;***************************************************************
    4484              
    4485              ||BTS_readCalibration||:
    4486              ;* AR4   assigned to $O$C2
    4487              ;* AR6   assigned to $O$C3
    4488              ;* AR1   assigned to $O$C4
    4489              ;* AR3   assigned to $O$K107
    4490              ;* AR5   assigned to $O$K107
    4491              ;* AR2   assigned to $O$K122
    4492              ;* AR4   assigned to $O$v1
    4493              ;* AL    assigned to $O$R1
    4494              $C$DW$269       .dwtag  DW_TAG_variable
    4495                      .dwattr $C$DW$269, DW_AT_name("i")
    4496                      .dwattr $C$DW$269, DW_AT_type(*$C$DW$T$26)
    4497                      .dwattr $C$DW$269, DW_AT_location[DW_OP_breg20 -2]
    4498              
    4499                      .dwcfi  cfa_offset, -2
    4500                      .dwcfi  save_reg_to_mem, 26, 0
    4501 000000e2 B2BD          MOVL      *SP++,XAR1            ; [CPU_ALU] 
    4502                      .dwcfi  save_reg_to_mem, 7, 2
    4503                      .dwcfi  cfa_offset, -4
    4504 000000e3 AABD          MOVL      *SP++,XAR2            ; [CPU_ALU] 
    4505                      .dwcfi  save_reg_to_mem, 9, 4
    4506                      .dwcfi  cfa_offset, -6
    4507 000000e4 A2BD          MOVL      *SP++,XAR3            ; [CPU_ALU] 
    4508                      .dwcfi  save_reg_to_mem, 11, 6
    4509                      .dwcfi  cfa_offset, -8
    4510 000000e5 FE04          ADDB      SP,#4                 ; [CPU_ARAU] 
    4511                      .dwcfi  cfa_offset, -12
    4512                      .dwpsn  file "../bts.c",line 358,column 5,is_stmt,isa 0
    4513 000000e6 8D40!         MOVL      XAR1,#||AvailableI2C_slaves|| ; [CPU_ARAU] |358| 
         000000e7 0000 
    4514 000000e8 FF20          MOV       ACC,#29504            ; [CPU_ALU] |358| 
         000000e9 7340 
    4515 000000ea 8AA1          MOVL      XAR4,XAR1             ; [CPU_ALU] |358| 
    4516              $C$DW$270       .dwtag  DW_TAG_TI_branch
    4517                      .dwattr $C$DW$270, DW_AT_low_pc(0x00)
TMS320C2000 Assembler PC v22.6.1 Tue Aug 13 19:46:08 2024

Copyright (c) 1996-2018 Texas Instruments Incorporated
bts.asm                                                              PAGE   92

    4518                      .dwattr $C$DW$270, DW_AT_name("I2CBusScan")
    4519                      .dwattr $C$DW$270, DW_AT_TI_call
    4520              
    4521 000000eb 7640!         LCR       #||I2CBusScan||       ; [CPU_ALU] |358| 
         000000ec 0000 
    4522                      ; call occurs [#||I2CBusScan||] ; [] |358| 
    4523 000000ed 5200          CMPB      AL,#0                 ; [CPU_ALU] |358| 
    4524 000000ee FFE1          B         ||$C$L40||,EQ         ; [CPU_ALU] |358| 
         000000ef 00AF 
    4525                      ; branchcc occurs ; [] |358| 
    4526                      .dwpsn  file "../bts.c",line 364,column 13,is_stmt,isa 0
    4527 000000f0 92C1          MOV       AL,*+XAR1[0]          ; [CPU_ALU] |364| 
    4528 000000f1 5250          CMPB      AL,#80                ; [CPU_ALU] |364| 
    4529 000000f2 6146          B         ||$C$L36||,EQ         ; [CPU_ALU] |364| 
    4530                      ; branchcc occurs ; [] |364| 
    4531 000000f3 92C9          MOV       AL,*+XAR1[1]          ; [CPU_ALU] |364| 
    4532 000000f4 5250          CMPB      AL,#80                ; [CPU_ALU] |364| 
    4533 000000f5 6143          B         ||$C$L36||,EQ         ; [CPU_ALU] |364| 
    4534                      ; branchcc occurs ; [] |364| 
    4535 000000f6 92D1          MOV       AL,*+XAR1[2]          ; [CPU_ALU] |364| 
    4536 000000f7 5250          CMPB      AL,#80                ; [CPU_ALU] |364| 
    4537 000000f8 6140          B         ||$C$L36||,EQ         ; [CPU_ALU] |364| 
    4538                      ; branchcc occurs ; [] |364| 
    4539 000000f9 92D9          MOV       AL,*+XAR1[3]          ; [CPU_ALU] |364| 
    4540 000000fa 5250          CMPB      AL,#80                ; [CPU_ALU] |364| 
    4541 000000fb 613D          B         ||$C$L36||,EQ         ; [CPU_ALU] |364| 
    4542                      ; branchcc occurs ; [] |364| 
    4543 000000fc 92E1          MOV       AL,*+XAR1[4]          ; [CPU_ALU] |364| 
    4544 000000fd 5250          CMPB      AL,#80                ; [CPU_ALU] |364| 
    4545 000000fe 613A          B         ||$C$L36||,EQ         ; [CPU_ALU] |364| 
    4546                      ; branchcc occurs ; [] |364| 
    4547 000000ff 92E9          MOV       AL,*+XAR1[5]          ; [CPU_ALU] |364| 
    4548 00000100 5250          CMPB      AL,#80                ; [CPU_ALU] |364| 
    4549 00000101 6137          B         ||$C$L36||,EQ         ; [CPU_ALU] |364| 
    4550                      ; branchcc occurs ; [] |364| 
    4551 00000102 92F1          MOV       AL,*+XAR1[6]          ; [CPU_ALU] |364| 
    4552 00000103 5250          CMPB      AL,#80                ; [CPU_ALU] |364| 
    4553 00000104 6134          B         ||$C$L36||,EQ         ; [CPU_ALU] |364| 
    4554                      ; branchcc occurs ; [] |364| 
    4555 00000105 92F9          MOV       AL,*+XAR1[7]          ; [CPU_ALU] |364| 
    4556 00000106 5250          CMPB      AL,#80                ; [CPU_ALU] |364| 
    4557 00000107 6131          B         ||$C$L36||,EQ         ; [CPU_ALU] |364| 
    4558                      ; branchcc occurs ; [] |364| 
    4559 00000108 D008          MOVB      XAR0,#8               ; [CPU_ALU] |364| 
    4560 00000109 9291          MOV       AL,*+XAR1[AR0]        ; [CPU_ALU] |364| 
    4561 0000010a 5250          CMPB      AL,#80                ; [CPU_ALU] |364| 
    4562 0000010b 612D          B         ||$C$L36||,EQ         ; [CPU_ALU] |364| 
    4563                      ; branchcc occurs ; [] |364| 
    4564 0000010c D009          MOVB      XAR0,#9               ; [CPU_ALU] |364| 
    4565 0000010d 9291          MOV       AL,*+XAR1[AR0]        ; [CPU_ALU] |364| 
    4566 0000010e 5250          CMPB      AL,#80                ; [CPU_ALU] |364| 
    4567 0000010f 6129          B         ||$C$L36||,EQ         ; [CPU_ALU] |364| 
    4568                      ; branchcc occurs ; [] |364| 
    4569 00000110 D00A          MOVB      XAR0,#10              ; [CPU_ALU] |364| 
    4570 00000111 9291          MOV       AL,*+XAR1[AR0]        ; [CPU_ALU] |364| 
TMS320C2000 Assembler PC v22.6.1 Tue Aug 13 19:46:08 2024

Copyright (c) 1996-2018 Texas Instruments Incorporated
bts.asm                                                              PAGE   93

    4571 00000112 5250          CMPB      AL,#80                ; [CPU_ALU] |364| 
    4572 00000113 6125          B         ||$C$L36||,EQ         ; [CPU_ALU] |364| 
    4573                      ; branchcc occurs ; [] |364| 
    4574 00000114 D00B          MOVB      XAR0,#11              ; [CPU_ALU] |364| 
    4575 00000115 9291          MOV       AL,*+XAR1[AR0]        ; [CPU_ALU] |364| 
    4576 00000116 5250          CMPB      AL,#80                ; [CPU_ALU] |364| 
    4577 00000117 6121          B         ||$C$L36||,EQ         ; [CPU_ALU] |364| 
    4578                      ; branchcc occurs ; [] |364| 
    4579 00000118 D00C          MOVB      XAR0,#12              ; [CPU_ALU] |364| 
    4580 00000119 9291          MOV       AL,*+XAR1[AR0]        ; [CPU_ALU] |364| 
    4581 0000011a 5250          CMPB      AL,#80                ; [CPU_ALU] |364| 
    4582 0000011b 611D          B         ||$C$L36||,EQ         ; [CPU_ALU] |364| 
    4583                      ; branchcc occurs ; [] |364| 
    4584 0000011c D00D          MOVB      XAR0,#13              ; [CPU_ALU] |364| 
    4585 0000011d 9291          MOV       AL,*+XAR1[AR0]        ; [CPU_ALU] |364| 
    4586 0000011e 5250          CMPB      AL,#80                ; [CPU_ALU] |364| 
    4587 0000011f 6119          B         ||$C$L36||,EQ         ; [CPU_ALU] |364| 
    4588                      ; branchcc occurs ; [] |364| 
    4589 00000120 D00E          MOVB      XAR0,#14              ; [CPU_ALU] |364| 
    4590 00000121 9291          MOV       AL,*+XAR1[AR0]        ; [CPU_ALU] |364| 
    4591 00000122 5250          CMPB      AL,#80                ; [CPU_ALU] |364| 
    4592 00000123 6115          B         ||$C$L36||,EQ         ; [CPU_ALU] |364| 
    4593                      ; branchcc occurs ; [] |364| 
    4594 00000124 D00F          MOVB      XAR0,#15              ; [CPU_ALU] |364| 
    4595 00000125 9291          MOV       AL,*+XAR1[AR0]        ; [CPU_ALU] |364| 
    4596 00000126 5250          CMPB      AL,#80                ; [CPU_ALU] |364| 
    4597 00000127 6111          B         ||$C$L36||,EQ         ; [CPU_ALU] |364| 
    4598                      ; branchcc occurs ; [] |364| 
    4599 00000128 D010          MOVB      XAR0,#16              ; [CPU_ALU] |364| 
    4600 00000129 9291          MOV       AL,*+XAR1[AR0]        ; [CPU_ALU] |364| 
    4601 0000012a 5250          CMPB      AL,#80                ; [CPU_ALU] |364| 
    4602 0000012b 610D          B         ||$C$L36||,EQ         ; [CPU_ALU] |364| 
    4603                      ; branchcc occurs ; [] |364| 
    4604 0000012c D011          MOVB      XAR0,#17              ; [CPU_ALU] |364| 
    4605 0000012d 9291          MOV       AL,*+XAR1[AR0]        ; [CPU_ALU] |364| 
    4606 0000012e 5250          CMPB      AL,#80                ; [CPU_ALU] |364| 
    4607 0000012f 6109          B         ||$C$L36||,EQ         ; [CPU_ALU] |364| 
    4608                      ; branchcc occurs ; [] |364| 
    4609 00000130 D012          MOVB      XAR0,#18              ; [CPU_ALU] |364| 
    4610 00000131 9291          MOV       AL,*+XAR1[AR0]        ; [CPU_ALU] |364| 
    4611 00000132 5250          CMPB      AL,#80                ; [CPU_ALU] |364| 
    4612 00000133 6105          B         ||$C$L36||,EQ         ; [CPU_ALU] |364| 
    4613                      ; branchcc occurs ; [] |364| 
    4614 00000134 D013          MOVB      XAR0,#19              ; [CPU_ALU] |364| 
    4615 00000135 9291          MOV       AL,*+XAR1[AR0]        ; [CPU_ALU] |364| 
    4616 00000136 5250          CMPB      AL,#80                ; [CPU_ALU] |364| 
    4617 00000137 6066          B         ||$C$L40||,NEQ        ; [CPU_ALU] |364| 
    4618                      ; branchcc occurs ; [] |364| 
    4619 00000138       ||$C$L36||:    
    4620 00000138 8F00!         MOVL      XAR4,#||I2CB_ControlAddr|| ; [CPU_ARAU] 
         00000139 0000 
    4621                      .dwpsn  file "../bts.c",line 373,column 9,is_stmt,isa 0
    4622 0000013a 8F40!         MOVL      XAR5,#||EEPROM||      ; [CPU_ARAU] |373| 
         0000013b 0000 
    4623 0000013c D10E          MOVB      XAR1,#14              ; [CPU_ALU] |373| 
TMS320C2000 Assembler PC v22.6.1 Tue Aug 13 19:46:08 2024

Copyright (c) 1996-2018 Texas Instruments Incorporated
bts.asm                                                              PAGE   94

    4624                      .dwpsn  file "../bts.c",line 375,column 9,is_stmt,isa 0
    4625 0000013d D012          MOVB      XAR0,#18              ; [CPU_ALU] |375| 
    4626                      .dwpsn  file "../bts.c",line 376,column 9,is_stmt,isa 0
    4627 0000013e 7680          MOVL      XAR6,#29504           ; [CPU_ARAU] |376| 
         0000013f 7340 
    4628 00000140 8D80!         MOVL      XAR2,#||I2CB_RXdata|| ; [CPU_ARAU] 
         00000141 0000 
    4629                      .dwpsn  file "../bts.c",line 382,column 14,is_stmt,isa 0
    4630 00000142 2B42          MOV       *-SP[2],#0            ; [CPU_ALU] |382| 
    4631 00000143 2B41          MOV       *-SP[1],#0            ; [CPU_ALU] 
    4632                      .dwpsn  file "../bts.c",line 385,column 13,is_stmt,isa 0
    4633 00000144 8DC0!         MOVL      XAR3,#||EEPROM||      ; [CPU_ARAU] |385| 
         00000145 0000 
    4634 00000146 A844          MOVL      *-SP[4],XAR4          ; [CPU_ALU] 
    4635                      .dwpsn  file "../bts.c",line 374,column 9,is_stmt,isa 0
    4636 00000147 56BF          MOVB      *+XAR5[2],#80,UNC     ; [CPU_ALU] |374| 
         00000148 50D5 
    4637                      .dwpsn  file "../bts.c",line 378,column 9,is_stmt,isa 0
    4638 00000149 56BF          MOVB      *+XAR5[6],#2,UNC      ; [CPU_ALU] |378| 
         0000014a 02F5 
    4639                      .dwpsn  file "../bts.c",line 373,column 9,is_stmt,isa 0
    4640 0000014b A09D          MOVL      *+XAR5[AR1],XAR5      ; [CPU_ALU] |373| 
    4641                      .dwpsn  file "../bts.c",line 375,column 9,is_stmt,isa 0
    4642 0000014c 2895          MOV       *+XAR5[AR0],#10000    ; [CPU_ALU] |375| 
         0000014d 2710 
    4643                      .dwpsn  file "../bts.c",line 376,column 9,is_stmt,isa 0
    4644 0000014e C2C5          MOVL      *+XAR5[0],XAR6        ; [CPU_ALU] |376| 
    4645 0000014f       ||$C$L37||:    
    4646                      .dwpsn  file "../bts.c",line 387,column 13,is_stmt,isa 0
    4647 0000014f 9241          MOV       AL,*-SP[1]            ; [CPU_ALU] |387| 
    4648                      .dwpsn  file "../bts.c",line 386,column 13,is_stmt,isa 0
    4649 00000150 D10A          MOVB      XAR1,#10              ; [CPU_ALU] |386| 
    4650                      .dwpsn  file "../bts.c",line 384,column 13,is_stmt,isa 0
    4651 00000151 88A9          MOVZ      AR6,AL                ; [CPU_ALU] |384| 
    4652                      .dwpsn  file "../bts.c",line 387,column 13,is_stmt,isa 0
    4653 00000152 D00C          MOVB      XAR0,#12              ; [CPU_ALU] |387| 
    4654 00000153 761F!         MOVW      DP,#||I2CB_ControlAddr|| ; [CPU_ARAU] 
         00000154 0000 
    4655                      .dwpsn  file "../bts.c",line 384,column 13,is_stmt,isa 0
    4656 00000155 0644          MOVL      ACC,*-SP[4]           ; [CPU_ALU] |384| 
    4657                      .dwpsn  file "../bts.c",line 389,column 13,is_stmt,isa 0
    4658 00000156 8AA3          MOVL      XAR4,XAR3             ; [CPU_ALU] |389| 
    4659                      .dwpsn  file "../bts.c",line 386,column 13,is_stmt,isa 0
    4660 00000157 AA9B          MOVL      *+XAR3[AR1],XAR2      ; [CPU_ALU] |386| 
    4661                      .dwpsn  file "../bts.c",line 387,column 13,is_stmt,isa 0
    4662 00000158 56BF          MOVB      *+XAR3[AR0],#20,UNC   ; [CPU_ALU] |387| 
         00000159 1493 
    4663                      .dwpsn  file "../bts.c",line 385,column 13,is_stmt,isa 0
    4664 0000015a 1EE3          MOVL      *+XAR3[4],ACC         ; [CPU_ALU] |385| 
    4665                      .dwpsn  file "../bts.c",line 384,column 13,is_stmt,isa 0
    4666 0000015b C200!         MOVL      @||I2CB_ControlAddr||,XAR6 ; [CPU_ALU] |384| 
    4667                      .dwpsn  file "../bts.c",line 389,column 13,is_stmt,isa 0
    4668              $C$DW$271       .dwtag  DW_TAG_TI_branch
    4669                      .dwattr $C$DW$271, DW_AT_low_pc(0x00)
    4670                      .dwattr $C$DW$271, DW_AT_name("I2C_MasterReceiver")
TMS320C2000 Assembler PC v22.6.1 Tue Aug 13 19:46:08 2024

Copyright (c) 1996-2018 Texas Instruments Incorporated
bts.asm                                                              PAGE   95

    4671                      .dwattr $C$DW$271, DW_AT_TI_call
    4672              
    4673 0000015c 7640!         LCR       #||I2C_MasterReceiver|| ; [CPU_ALU] |389| 
         0000015d 0000 
    4674                      ; call occurs [#||I2C_MasterReceiver||] ; [] |389| 
    4675                      .dwpsn  file "../bts.c",line 391,column 13,is_stmt,isa 0
    4676 0000015e 8AC3          MOVL      XAR4,*+XAR3[0]        ; [CPU_ALU] |391| 
    4677 0000015f       ||$C$L38||:    
    4678                      .dwpsn  file "C:/ti/c2000/C2000Ware_DigitalPower_SDK_5_03_00_00/c2000ware/driverlib/f2837xd/driverlib
    4679 0000015f 92D4          MOV       AL,*+XAR4[2]          ; [CPU_ALU] |675| 
    4680                      .dwpsn  file "../bts.c",line 391,column 13,is_stmt,isa 0
    4681 00000160 4CA9          TBIT      AL,#12                ; [CPU_ALU] |391| 
    4682 00000161 6DFE          B         ||$C$L38||,TC         ; [CPU_ALU] |391| 
    4683                      ; branchcc occurs ; [] |391| 
    4684                      .dwpsn  file "../bts.c",line 400,column 13,is_stmt,isa 0
    4685 00000162 C4C2          MOVL      XAR6,*+XAR2[0]        ; [CPU_ALU] |400| 
    4686 00000163 28AC          MOV       T,#24                 ; [CPU_ALU] |400| 
         00000164 0018 
    4687 00000165 06A6          MOVL      ACC,XAR6              ; [CPU_ALU] |400| 
    4688 00000166 5622          LSRL      ACC,T                 ; [CPU_ALU] |400| 
    4689 00000167 52A5          CMPB      AL,#165               ; [CPU_ALU] |400| 
    4690 00000168 602F          B         ||$C$L39||,NEQ        ; [CPU_ALU] |400| 
    4691                      ; branchcc occurs ; [] |400| 
    4692 00000169 06A6          MOVL      ACC,XAR6              ; [CPU_ALU] |400| 
    4693 0000016a 9242          MOV       AL,*-SP[2]            ; [CPU_ALU] |400| 
    4694 0000016b 91FF          ANDB      AH,#0xff              ; [CPU_ALU] |400| 
    4695 0000016c 9FA9          SUB       AH,AL                 ; [CPU_ALU] |400| 
    4696 0000016d 5301          CMPB      AH,#1                 ; [CPU_ALU] |400| 
    4697 0000016e 6029          B         ||$C$L39||,NEQ        ; [CPU_ALU] |400| 
    4698                      ; branchcc occurs ; [] |400| 
    4699 0000016f 2901          CLRC      SXM                   ; [CPU_ALU] 
    4700                      .dwpsn  file "../bts.c",line 402,column 17,is_stmt,isa 0
    4701 00000170 8F00!         MOVL      XAR4,#||BTS_userInputs|| ; [CPU_ARAU] |402| 
         00000171 0000 
    4702 00000172 5603          MOV       ACC,AL << 5           ; [CPU_ALU] |402| 
         00000173 05A9 
    4703 00000174 5601          ADDL      XAR4,ACC              ; [CPU_ALU] |402| 
         00000175 00A4 
    4704 00000176 D00E          MOVB      XAR0,#14              ; [CPU_ALU] |402| 
    4705                      .dwpsn  file "../bts.c",line 405,column 17,is_stmt,isa 0
    4706 00000177 D114          MOVB      XAR1,#20              ; [CPU_ALU] |405| 
    4707                      .dwpsn  file "../bts.c",line 402,column 17,is_stmt,isa 0
    4708 00000178 06E2          MOVL      ACC,*+XAR2[4]         ; [CPU_ALU] |402| 
    4709 00000179 1E94          MOVL      *+XAR4[AR0],ACC       ; [CPU_ALU] |402| 
    4710                      .dwpsn  file "../bts.c",line 403,column 17,is_stmt,isa 0
    4711 0000017a D010          MOVB      XAR0,#16              ; [CPU_ALU] |403| 
    4712 0000017b 06F2          MOVL      ACC,*+XAR2[6]         ; [CPU_ALU] |403| 
    4713 0000017c 1E94          MOVL      *+XAR4[AR0],ACC       ; [CPU_ALU] |403| 
    4714                      .dwpsn  file "../bts.c",line 404,column 17,is_stmt,isa 0
    4715 0000017d D008          MOVB      XAR0,#8               ; [CPU_ALU] |404| 
    4716 0000017e 0692          MOVL      ACC,*+XAR2[AR0]       ; [CPU_ALU] |404| 
    4717 0000017f D012          MOVB      XAR0,#18              ; [CPU_ALU] |404| 
    4718 00000180 1E94          MOVL      *+XAR4[AR0],ACC       ; [CPU_ALU] |404| 
    4719                      .dwpsn  file "../bts.c",line 405,column 17,is_stmt,isa 0
    4720 00000181 D00A          MOVB      XAR0,#10              ; [CPU_ALU] |405| 
TMS320C2000 Assembler PC v22.6.1 Tue Aug 13 19:46:08 2024

Copyright (c) 1996-2018 Texas Instruments Incorporated
bts.asm                                                              PAGE   96

    4721 00000182 0692          MOVL      ACC,*+XAR2[AR0]       ; [CPU_ALU] |405| 
    4722                      .dwpsn  file "../bts.c",line 407,column 17,is_stmt,isa 0
    4723 00000183 D00C          MOVB      XAR0,#12              ; [CPU_ALU] |407| 
    4724                      .dwpsn  file "../bts.c",line 405,column 17,is_stmt,isa 0
    4725 00000184 1E9C          MOVL      *+XAR4[AR1],ACC       ; [CPU_ALU] |405| 
    4726                      .dwpsn  file "../bts.c",line 407,column 17,is_stmt,isa 0
    4727 00000185 D116          MOVB      XAR1,#22              ; [CPU_ALU] |407| 
    4728 00000186 0692          MOVL      ACC,*+XAR2[AR0]       ; [CPU_ALU] |407| 
    4729                      .dwpsn  file "../bts.c",line 408,column 17,is_stmt,isa 0
    4730 00000187 D00E          MOVB      XAR0,#14              ; [CPU_ALU] |408| 
    4731                      .dwpsn  file "../bts.c",line 407,column 17,is_stmt,isa 0
    4732 00000188 1E9C          MOVL      *+XAR4[AR1],ACC       ; [CPU_ALU] |407| 
    4733                      .dwpsn  file "../bts.c",line 408,column 17,is_stmt,isa 0
    4734 00000189 0692          MOVL      ACC,*+XAR2[AR0]       ; [CPU_ALU] |408| 
    4735                      .dwpsn  file "../bts.c",line 409,column 17,is_stmt,isa 0
    4736 0000018a D11A          MOVB      XAR1,#26              ; [CPU_ALU] |409| 
    4737                      .dwpsn  file "../bts.c",line 408,column 17,is_stmt,isa 0
    4738 0000018b D018          MOVB      XAR0,#24              ; [CPU_ALU] |408| 
    4739 0000018c 1E94          MOVL      *+XAR4[AR0],ACC       ; [CPU_ALU] |408| 
    4740                      .dwpsn  file "../bts.c",line 409,column 17,is_stmt,isa 0
    4741 0000018d D010          MOVB      XAR0,#16              ; [CPU_ALU] |409| 
    4742 0000018e C492          MOVL      XAR6,*+XAR2[AR0]      ; [CPU_ALU] |409| 
    4743                      .dwpsn  file "../bts.c",line 410,column 17,is_stmt,isa 0
    4744 0000018f D012          MOVB      XAR0,#18              ; [CPU_ALU] |410| 
    4745 00000190 0692          MOVL      ACC,*+XAR2[AR0]       ; [CPU_ALU] |410| 
    4746 00000191 D01C          MOVB      XAR0,#28              ; [CPU_ALU] |410| 
    4747                      .dwpsn  file "../bts.c",line 409,column 17,is_stmt,isa 0
    4748 00000192 C29C          MOVL      *+XAR4[AR1],XAR6      ; [CPU_ALU] |409| 
    4749                      .dwpsn  file "../bts.c",line 410,column 17,is_stmt,isa 0
    4750 00000193 1E94          MOVL      *+XAR4[AR0],ACC       ; [CPU_ALU] |410| 
    4751 00000194 9242          MOV       AL,*-SP[2]            ; [CPU_ALU] |410| 
    4752                      .dwpsn  file "../bts.c",line 413,column 17,is_stmt,isa 0
    4753              $C$DW$272       .dwtag  DW_TAG_TI_branch
    4754                      .dwattr $C$DW$272, DW_AT_low_pc(0x00)
    4755                      .dwattr $C$DW$272, DW_AT_name("BTS_calcUserProgramVariables")
    4756                      .dwattr $C$DW$272, DW_AT_TI_call
    4757              
    4758 00000195 7640!         LCR       #||BTS_calcUserProgramVariables|| ; [CPU_ALU] |413| 
         00000196 0000 
    4759                      ; call occurs [#||BTS_calcUserProgramVariables||] ; [] |413| 
    4760 00000197       ||$C$L39||:    
    4761                      .dwpsn  file "../bts.c",line 382,column 18,is_stmt,isa 0
    4762 00000197 0A42          INC       *-SP[2]               ; [CPU_ALU] |382| 
    4763 00000198 0841          ADD       *-SP[1],#64           ; [CPU_ALU] |382| 
         00000199 0040 
    4764 0000019a 9242          MOV       AL,*-SP[2]            ; [CPU_ALU] |382| 
    4765 0000019b 5208          CMPB      AL,#8                 ; [CPU_ALU] |382| 
    4766 0000019c 68B3          B         ||$C$L37||,LO         ; [CPU_ALU] |382| 
    4767                      ; branchcc occurs ; [] |382| 
    4768 0000019d       ||$C$L40||:    
    4769 0000019d FE84          SUBB      SP,#4                 ; [CPU_ARAU] 
    4770                      .dwcfi  cfa_offset, -8
    4771 0000019e 82BE          MOVL      XAR3,*--SP            ; [CPU_ALU] 
    4772                      .dwcfi  cfa_offset, -6
    4773                      .dwcfi  restore_reg, 11
TMS320C2000 Assembler PC v22.6.1 Tue Aug 13 19:46:08 2024

Copyright (c) 1996-2018 Texas Instruments Incorporated
bts.asm                                                              PAGE   97

    4774 0000019f 86BE          MOVL      XAR2,*--SP            ; [CPU_ALU] 
    4775                      .dwcfi  cfa_offset, -4
    4776                      .dwcfi  restore_reg, 9
    4777 000001a0 8BBE          MOVL      XAR1,*--SP            ; [CPU_ALU] 
    4778                      .dwcfi  cfa_offset, -2
    4779                      .dwcfi  restore_reg, 7
    4780              $C$DW$273       .dwtag  DW_TAG_TI_branch
    4781                      .dwattr $C$DW$273, DW_AT_low_pc(0x00)
    4782                      .dwattr $C$DW$273, DW_AT_TI_return
    4783              
    4784 000001a1 0006          LRETR     ; [CPU_ALU] 
    4785                      ; return occurs ; [] 
    4786                      .dwattr $C$DW$268, DW_AT_TI_end_file("../bts.c")
    4787                      .dwattr $C$DW$268, DW_AT_TI_end_line(0x1a1)
    4788                      .dwattr $C$DW$268, DW_AT_TI_end_column(0x01)
    4789                      .dwendentry
    4790                      .dwendtag $C$DW$268
    4791              
    4792 00000040               .sect   "ramfuncs"
    4793                      .clink
    4794                      .global ||BTS_monitor_program_update||
    4795              
    4796              $C$DW$274       .dwtag  DW_TAG_subprogram
    4797                      .dwattr $C$DW$274, DW_AT_name("BTS_monitor_program_update")
    4798                      .dwattr $C$DW$274, DW_AT_low_pc(||BTS_monitor_program_update||)
    4799                      .dwattr $C$DW$274, DW_AT_high_pc(0x00)
    4800                      .dwattr $C$DW$274, DW_AT_linkage_name("BTS_monitor_program_update")
    4801                      .dwattr $C$DW$274, DW_AT_external
    4802                      .dwattr $C$DW$274, DW_AT_decl_file("../bts.c")
    4803                      .dwattr $C$DW$274, DW_AT_decl_line(0x319)
    4804                      .dwattr $C$DW$274, DW_AT_decl_column(0x06)
    4805                      .dwattr $C$DW$274, DW_AT_TI_max_frame_size(-2)
    4806                      .dwpsn  file "../bts.c",line 794,column 1,is_stmt,address ||BTS_monitor_program_update||,isa 0
    4807              
    4808                      .dwfde $C$DW$CIE, ||BTS_monitor_program_update||
    4809              $C$DW$275       .dwtag  DW_TAG_formal_parameter
    4810                      .dwattr $C$DW$275, DW_AT_name("channel")
    4811                      .dwattr $C$DW$275, DW_AT_type(*$C$DW$T$26)
    4812                      .dwattr $C$DW$275, DW_AT_location[DW_OP_reg0]
    4813              
    4814              
    4815              ;***************************************************************
    4816              ;* FNAME: BTS_monitor_program_update    FR SIZE:   0           *
    4817              ;*                                                             *
    4818              ;* FUNCTION ENVIRONMENT                                        *
    4819              ;*                                                             *
    4820              ;* FUNCTION PROPERTIES                                         *
    4821              ;*                            0 Parameter,  0 Auto,  0 SOE     *
    4822              ;***************************************************************
    4823              
    4824 00000040       ||BTS_monitor_program_update||:
    4825                      .dwcfi  cfa_offset, -2
    4826                      .dwcfi  save_reg_to_mem, 26, 0
    4827              $C$DW$276       .dwtag  DW_TAG_TI_branch
    4828                      .dwattr $C$DW$276, DW_AT_low_pc(0x00)
TMS320C2000 Assembler PC v22.6.1 Tue Aug 13 19:46:08 2024

Copyright (c) 1996-2018 Texas Instruments Incorporated
bts.asm                                                              PAGE   98

    4829                      .dwattr $C$DW$276, DW_AT_TI_return
    4830              
    4831 00000040 0006          LRETR     ; [CPU_ALU] 
    4832                      ; return occurs ; [] 
    4833                      .dwattr $C$DW$274, DW_AT_TI_end_file("../bts.c")
    4834                      .dwattr $C$DW$274, DW_AT_TI_end_line(0x320)
    4835                      .dwattr $C$DW$274, DW_AT_TI_end_column(0x01)
    4836                      .dwendentry
    4837                      .dwendtag $C$DW$274
    4838              
    4839 00000041               .sect   "ramfuncs"
    4840                      .clink
    4841                      .global ||BTS_monitor_Iout_Vout||
    4842              
    4843              $C$DW$277       .dwtag  DW_TAG_subprogram
    4844                      .dwattr $C$DW$277, DW_AT_name("BTS_monitor_Iout_Vout")
    4845                      .dwattr $C$DW$277, DW_AT_low_pc(||BTS_monitor_Iout_Vout||)
    4846                      .dwattr $C$DW$277, DW_AT_high_pc(0x00)
    4847                      .dwattr $C$DW$277, DW_AT_linkage_name("BTS_monitor_Iout_Vout")
    4848                      .dwattr $C$DW$277, DW_AT_external
    4849                      .dwattr $C$DW$277, DW_AT_decl_file("../bts.c")
    4850                      .dwattr $C$DW$277, DW_AT_decl_line(0x323)
    4851                      .dwattr $C$DW$277, DW_AT_decl_column(0x06)
    4852                      .dwattr $C$DW$277, DW_AT_TI_max_frame_size(-8)
    4853                      .dwpsn  file "../bts.c",line 804,column 1,is_stmt,address ||BTS_monitor_Iout_Vout||,isa 0
    4854              
    4855                      .dwfde $C$DW$CIE, ||BTS_monitor_Iout_Vout||
    4856              $C$DW$278       .dwtag  DW_TAG_formal_parameter
    4857                      .dwattr $C$DW$278, DW_AT_name("measValues")
    4858                      .dwattr $C$DW$278, DW_AT_type(*$C$DW$T$76)
    4859                      .dwattr $C$DW$278, DW_AT_location[DW_OP_reg12]
    4860              
    4861              
    4862              ;***************************************************************
    4863              ;* FNAME: BTS_monitor_Iout_Vout         FR SIZE:   6           *
    4864              ;*                                                             *
    4865              ;* FUNCTION ENVIRONMENT                                        *
    4866              ;*                                                             *
    4867              ;* FUNCTION PROPERTIES                                         *
    4868              ;*                            0 Parameter,  0 Auto,  6 SOE     *
    4869              ;***************************************************************
    4870              
    4871              ||BTS_monitor_Iout_Vout||:
    4872              ;* AR5   assigned to $O$U9
    4873              ;* PL    assigned to $O$V0
    4874              ;* AR7   assigned to $O$V1
    4875              ;* AR4   assigned to measValues
    4876              $C$DW$279       .dwtag  DW_TAG_variable
    4877                      .dwattr $C$DW$279, DW_AT_name("measValues")
    4878                      .dwattr $C$DW$279, DW_AT_type(*$C$DW$T$77)
    4879                      .dwattr $C$DW$279, DW_AT_location[DW_OP_reg12]
    4880              
    4881                      .dwcfi  cfa_offset, -2
    4882                      .dwcfi  save_reg_to_mem, 26, 0
    4883 00000041 B2BD          MOVL      *SP++,XAR1            ; [CPU_ALU] 
TMS320C2000 Assembler PC v22.6.1 Tue Aug 13 19:46:08 2024

Copyright (c) 1996-2018 Texas Instruments Incorporated
bts.asm                                                              PAGE   99

    4884                      .dwcfi  save_reg_to_mem, 7, 2
    4885                      .dwcfi  cfa_offset, -4
    4886                      .dwpsn  file "../bts.c",line 805,column 5,is_stmt,isa 0
    4887 00000042 D044          MOVB      XAR0,#68              ; [CPU_ALU] |805| 
    4888                      .dwpsn  file "../bts.c",line 806,column 5,is_stmt,isa 0
    4889 00000043 D146          MOVB      XAR1,#70              ; [CPU_ALU] |806| 
    4890 00000044 83A4          MOVL      XAR5,XAR4             ; [CPU_ALU] 
    4891                      .dwpsn  file "../bts.c",line 805,column 5,is_stmt,isa 0
    4892 00000045 0200          MOVB      ACC,#0                ; [CPU_ALU] |805| 
    4893 00000046 BE03          MOVB      XAR6,#3               ; [CPU_ALU] 
    4894 00000047 E203          MOV32     *SP++,R4H             ; [CPU_FPU] 
         00000048 04BD 
    4895                      .dwcfi  save_reg_to_mem, 59, 4
    4896                      .dwcfi  cfa_offset, -6
    4897 00000049 3B01          SETC      SXM                   ; [CPU_ALU] 
    4898 0000004a 3100          MOV       P,#0                  ; [CPU_ALU] 
    4899 0000004b E203          MOV32     *SP++,R5H             ; [CPU_FPU] 
         0000004c 05BD 
    4900                      .dwcfi  save_reg_to_mem, 63, 6
    4901                      .dwcfi  cfa_offset, -8
    4902 0000004d DD04          ADDB      XAR5,#4               ; [CPU_ALU] 
    4903 0000004e 1E94          MOVL      *+XAR4[AR0],ACC       ; [CPU_ALU] |805| 
    4904 0000004f D044          MOVB      XAR0,#68              ; [CPU_ALU] 
    4905                      .dwpsn  file "../bts.c",line 806,column 5,is_stmt,isa 0
    4906 00000050 1E9C          MOVL      *+XAR4[AR1],ACC       ; [CPU_ALU] |806| 
    4907 00000051 C594          MOVL      XAR7,*+XAR4[AR0]      ; [CPU_ALU] 
    4908                      .dwpsn  file "../bts.c",line 809,column 19,is_stmt,isa 0
    4909 00000052 B560          RPTB      ||$C$L42||,AR6        ; [CPU_ALU] |809| 
         00000053 00A6 
    4910                      ; repeat block starts ; [] 
    4911 00000054       ||$C$L41||:    
    4912 00000054 06A7          MOVL      ACC,XAR7              ; [CPU_ALU] 
    4913                      .dwpsn  file "../bts.c",line 810,column 9,is_stmt,isa 0
    4914 00000055 D044          MOVB      XAR0,#68              ; [CPU_ALU] |810| 
    4915                      .dwpsn  file "../bts.c",line 811,column 9,is_stmt,isa 0
    4916 00000056 D120          MOVB      XAR1,#32              ; [CPU_ALU] |811| 
    4917                      .dwpsn  file "../bts.c",line 810,column 9,is_stmt,isa 0
    4918 00000057 81C5          ADD       ACC,*+XAR5[0]         ; [CPU_ALU] |810| 
    4919 00000058 1EA7          MOVL      XAR7,ACC              ; [CPU_ALU] |810| 
    4920 00000059 1E94          MOVL      *+XAR4[AR0],ACC       ; [CPU_ALU] |810| 
    4921                      .dwpsn  file "../bts.c",line 811,column 9,is_stmt,isa 0
    4922 0000005a D046          MOVB      XAR0,#70              ; [CPU_ALU] |811| 
    4923 0000005b A9A9          MOVL      ACC,P                 ; [CPU_ALU] |811| 
    4924 0000005c 819D          ADD       ACC,*+XAR5[AR1]       ; [CPU_ALU] |811| 
    4925                      .dwpsn  file "../bts.c",line 810,column 9,is_stmt,isa 0
    4926 0000005d DD01          ADDB      XAR5,#1               ; [CPU_ALU] |810| 
    4927                      .dwpsn  file "../bts.c",line 811,column 9,is_stmt,isa 0
    4928 0000005e FF5A          MOVL      P,ACC                 ; [CPU_ALU] |811| 
    4929                      .dwpsn  file "../bts.c",line 810,column 9,is_stmt,isa 0
    4930 0000005f D144          MOVB      XAR1,#68              ; [CPU_ALU] |810| 
    4931                      .dwpsn  file "../bts.c",line 811,column 9,is_stmt,isa 0
    4932 00000060 1E94          MOVL      *+XAR4[AR0],ACC       ; [CPU_ALU] |811| 
    4933 00000061 D020          MOVB      XAR0,#32              ; [CPU_ALU] |811| 
    4934                      .dwpsn  file "../bts.c",line 810,column 9,is_stmt,isa 0
    4935 00000062 06A7          MOVL      ACC,XAR7              ; [CPU_ALU] |810| 
TMS320C2000 Assembler PC v22.6.1 Tue Aug 13 19:46:08 2024

Copyright (c) 1996-2018 Texas Instruments Incorporated
bts.asm                                                              PAGE  100

    4936 00000063 81C5          ADD       ACC,*+XAR5[0]         ; [CPU_ALU] |810| 
    4937 00000064 1EA7          MOVL      XAR7,ACC              ; [CPU_ALU] |810| 
    4938 00000065 1E9C          MOVL      *+XAR4[AR1],ACC       ; [CPU_ALU] |810| 
    4939 00000066 A9A9          MOVL      ACC,P                 ; [CPU_ALU] |810| 
    4940 00000067 D144          MOVB      XAR1,#68              ; [CPU_ALU] |810| 
    4941                      .dwpsn  file "../bts.c",line 811,column 9,is_stmt,isa 0
    4942 00000068 8195          ADD       ACC,*+XAR5[AR0]       ; [CPU_ALU] |811| 
    4943 00000069 D046          MOVB      XAR0,#70              ; [CPU_ALU] |811| 
    4944 0000006a FF5A          MOVL      P,ACC                 ; [CPU_ALU] |811| 
    4945                      .dwpsn  file "../bts.c",line 810,column 9,is_stmt,isa 0
    4946 0000006b DD01          ADDB      XAR5,#1               ; [CPU_ALU] |810| 
    4947                      .dwpsn  file "../bts.c",line 811,column 9,is_stmt,isa 0
    4948 0000006c 1E94          MOVL      *+XAR4[AR0],ACC       ; [CPU_ALU] |811| 
    4949 0000006d D020          MOVB      XAR0,#32              ; [CPU_ALU] |811| 
    4950                      .dwpsn  file "../bts.c",line 810,column 9,is_stmt,isa 0
    4951 0000006e 06A7          MOVL      ACC,XAR7              ; [CPU_ALU] |810| 
    4952 0000006f 81C5          ADD       ACC,*+XAR5[0]         ; [CPU_ALU] |810| 
    4953 00000070 1EA7          MOVL      XAR7,ACC              ; [CPU_ALU] |810| 
    4954 00000071 1E9C          MOVL      *+XAR4[AR1],ACC       ; [CPU_ALU] |810| 
    4955 00000072 A9A9          MOVL      ACC,P                 ; [CPU_ALU] |810| 
    4956 00000073 D144          MOVB      XAR1,#68              ; [CPU_ALU] |810| 
    4957                      .dwpsn  file "../bts.c",line 811,column 9,is_stmt,isa 0
    4958 00000074 8195          ADD       ACC,*+XAR5[AR0]       ; [CPU_ALU] |811| 
    4959 00000075 D046          MOVB      XAR0,#70              ; [CPU_ALU] |811| 
    4960 00000076 FF5A          MOVL      P,ACC                 ; [CPU_ALU] |811| 
    4961                      .dwpsn  file "../bts.c",line 810,column 9,is_stmt,isa 0
    4962 00000077 DD01          ADDB      XAR5,#1               ; [CPU_ALU] |810| 
    4963                      .dwpsn  file "../bts.c",line 811,column 9,is_stmt,isa 0
    4964 00000078 1E94          MOVL      *+XAR4[AR0],ACC       ; [CPU_ALU] |811| 
    4965 00000079 D020          MOVB      XAR0,#32              ; [CPU_ALU] |811| 
    4966                      .dwpsn  file "../bts.c",line 810,column 9,is_stmt,isa 0
    4967 0000007a 06A7          MOVL      ACC,XAR7              ; [CPU_ALU] |810| 
    4968 0000007b 81C5          ADD       ACC,*+XAR5[0]         ; [CPU_ALU] |810| 
    4969 0000007c 1EA7          MOVL      XAR7,ACC              ; [CPU_ALU] |810| 
    4970 0000007d 1E9C          MOVL      *+XAR4[AR1],ACC       ; [CPU_ALU] |810| 
    4971 0000007e A9A9          MOVL      ACC,P                 ; [CPU_ALU] |810| 
    4972 0000007f D144          MOVB      XAR1,#68              ; [CPU_ALU] |810| 
    4973                      .dwpsn  file "../bts.c",line 811,column 9,is_stmt,isa 0
    4974 00000080 8195          ADD       ACC,*+XAR5[AR0]       ; [CPU_ALU] |811| 
    4975 00000081 D046          MOVB      XAR0,#70              ; [CPU_ALU] |811| 
    4976 00000082 FF5A          MOVL      P,ACC                 ; [CPU_ALU] |811| 
    4977                      .dwpsn  file "../bts.c",line 810,column 9,is_stmt,isa 0
    4978 00000083 DD01          ADDB      XAR5,#1               ; [CPU_ALU] |810| 
    4979                      .dwpsn  file "../bts.c",line 811,column 9,is_stmt,isa 0
    4980 00000084 1E94          MOVL      *+XAR4[AR0],ACC       ; [CPU_ALU] |811| 
    4981 00000085 D020          MOVB      XAR0,#32              ; [CPU_ALU] |811| 
    4982                      .dwpsn  file "../bts.c",line 810,column 9,is_stmt,isa 0
    4983 00000086 06A7          MOVL      ACC,XAR7              ; [CPU_ALU] |810| 
    4984 00000087 81C5          ADD       ACC,*+XAR5[0]         ; [CPU_ALU] |810| 
    4985 00000088 1EA7          MOVL      XAR7,ACC              ; [CPU_ALU] |810| 
    4986 00000089 1E9C          MOVL      *+XAR4[AR1],ACC       ; [CPU_ALU] |810| 
    4987 0000008a A9A9          MOVL      ACC,P                 ; [CPU_ALU] |810| 
    4988 0000008b D144          MOVB      XAR1,#68              ; [CPU_ALU] |810| 
    4989                      .dwpsn  file "../bts.c",line 811,column 9,is_stmt,isa 0
    4990 0000008c 8195          ADD       ACC,*+XAR5[AR0]       ; [CPU_ALU] |811| 
TMS320C2000 Assembler PC v22.6.1 Tue Aug 13 19:46:08 2024

Copyright (c) 1996-2018 Texas Instruments Incorporated
bts.asm                                                              PAGE  101

    4991 0000008d D046          MOVB      XAR0,#70              ; [CPU_ALU] |811| 
    4992 0000008e FF5A          MOVL      P,ACC                 ; [CPU_ALU] |811| 
    4993                      .dwpsn  file "../bts.c",line 810,column 9,is_stmt,isa 0
    4994 0000008f DD01          ADDB      XAR5,#1               ; [CPU_ALU] |810| 
    4995                      .dwpsn  file "../bts.c",line 811,column 9,is_stmt,isa 0
    4996 00000090 1E94          MOVL      *+XAR4[AR0],ACC       ; [CPU_ALU] |811| 
    4997 00000091 D020          MOVB      XAR0,#32              ; [CPU_ALU] |811| 
    4998                      .dwpsn  file "../bts.c",line 810,column 9,is_stmt,isa 0
    4999 00000092 06A7          MOVL      ACC,XAR7              ; [CPU_ALU] |810| 
    5000 00000093 81C5          ADD       ACC,*+XAR5[0]         ; [CPU_ALU] |810| 
    5001 00000094 1EA7          MOVL      XAR7,ACC              ; [CPU_ALU] |810| 
    5002 00000095 1E9C          MOVL      *+XAR4[AR1],ACC       ; [CPU_ALU] |810| 
    5003 00000096 A9A9          MOVL      ACC,P                 ; [CPU_ALU] |810| 
    5004 00000097 D144          MOVB      XAR1,#68              ; [CPU_ALU] |810| 
    5005                      .dwpsn  file "../bts.c",line 811,column 9,is_stmt,isa 0
    5006 00000098 8195          ADD       ACC,*+XAR5[AR0]       ; [CPU_ALU] |811| 
    5007 00000099 D046          MOVB      XAR0,#70              ; [CPU_ALU] |811| 
    5008 0000009a FF5A          MOVL      P,ACC                 ; [CPU_ALU] |811| 
    5009                      .dwpsn  file "../bts.c",line 810,column 9,is_stmt,isa 0
    5010 0000009b DD01          ADDB      XAR5,#1               ; [CPU_ALU] |810| 
    5011                      .dwpsn  file "../bts.c",line 811,column 9,is_stmt,isa 0
    5012 0000009c 1E94          MOVL      *+XAR4[AR0],ACC       ; [CPU_ALU] |811| 
    5013 0000009d D020          MOVB      XAR0,#32              ; [CPU_ALU] |811| 
    5014                      .dwpsn  file "../bts.c",line 810,column 9,is_stmt,isa 0
    5015 0000009e 06A7          MOVL      ACC,XAR7              ; [CPU_ALU] |810| 
    5016 0000009f 81C5          ADD       ACC,*+XAR5[0]         ; [CPU_ALU] |810| 
    5017 000000a0 1EA7          MOVL      XAR7,ACC              ; [CPU_ALU] |810| 
    5018 000000a1 1E9C          MOVL      *+XAR4[AR1],ACC       ; [CPU_ALU] |810| 
    5019 000000a2 A9A9          MOVL      ACC,P                 ; [CPU_ALU] |810| 
    5020                      .dwpsn  file "../bts.c",line 811,column 9,is_stmt,isa 0
    5021 000000a3 D120          MOVB      XAR1,#32              ; [CPU_ALU] |811| 
    5022 000000a4 8195          ADD       ACC,*+XAR5[AR0]       ; [CPU_ALU] |811| 
    5023 000000a5 D046          MOVB      XAR0,#70              ; [CPU_ALU] |811| 
    5024 000000a6 FF5A          MOVL      P,ACC                 ; [CPU_ALU] |811| 
    5025                      .dwpsn  file "../bts.c",line 810,column 9,is_stmt,isa 0
    5026 000000a7 DD01          ADDB      XAR5,#1               ; [CPU_ALU] |810| 
    5027                      .dwpsn  file "../bts.c",line 811,column 9,is_stmt,isa 0
    5028 000000a8 1E94          MOVL      *+XAR4[AR0],ACC       ; [CPU_ALU] |811| 
    5029                      .dwpsn  file "../bts.c",line 810,column 9,is_stmt,isa 0
    5030 000000a9 D044          MOVB      XAR0,#68              ; [CPU_ALU] |810| 
    5031 000000aa 06A7          MOVL      ACC,XAR7              ; [CPU_ALU] |810| 
    5032 000000ab 81C5          ADD       ACC,*+XAR5[0]         ; [CPU_ALU] |810| 
    5033 000000ac 1EA7          MOVL      XAR7,ACC              ; [CPU_ALU] |810| 
    5034 000000ad 1E94          MOVL      *+XAR4[AR0],ACC       ; [CPU_ALU] |810| 
    5035                      .dwpsn  file "../bts.c",line 811,column 9,is_stmt,isa 0
    5036 000000ae D046          MOVB      XAR0,#70              ; [CPU_ALU] |811| 
    5037 000000af A9A9          MOVL      ACC,P                 ; [CPU_ALU] |811| 
    5038 000000b0 819D          ADD       ACC,*+XAR5[AR1]       ; [CPU_ALU] |811| 
    5039 000000b1 FF5A          MOVL      P,ACC                 ; [CPU_ALU] |811| 
    5040                      .dwpsn  file "../bts.c",line 809,column 19,is_stmt,isa 0
    5041 000000b2 DD01          ADDB      XAR5,#1               ; [CPU_ALU] |809| 
    5042                      .dwpsn  file "../bts.c",line 811,column 9,is_stmt,isa 0
    5043 000000b3 1E94          MOVL      *+XAR4[AR0],ACC       ; [CPU_ALU] |811| 
    5044                      ; repeat block ends ; [] 
    5045 000000b4       ||$C$L42||:    
TMS320C2000 Assembler PC v22.6.1 Tue Aug 13 19:46:08 2024

Copyright (c) 1996-2018 Texas Instruments Incorporated
bts.asm                                                              PAGE  102

    5046                      .dwpsn  file "../bts.c",line 814,column 5,is_stmt,isa 0
    5047 000000b4 D04A          MOVB      XAR0,#74              ; [CPU_ALU] |814| 
    5048 000000b5 E2AF          MOV32     R3H,*+XAR4[AR0]       ; [CPU_FPU] |814| 
         000000b6 0394 
    5049 000000b7 D04C          MOVB      XAR0,#76              ; [CPU_ALU] |814| 
    5050 000000b8 E2AF          MOV32     R5H,*+XAR4[AR0]       ; [CPU_FPU] |814| 
         000000b9 0594 
    5051                      .dwpsn  file "../bts.c",line 816,column 5,is_stmt,isa 0
    5052 000000ba D046          MOVB      XAR0,#70              ; [CPU_ALU] |816| 
    5053 000000bb E288          I32TOF32  R1H,*+XAR4[AR0]       ; [CPU_FPU] |816| 
         000000bc 0194 
    5054                      .dwpsn  file "../bts.c",line 814,column 5,is_stmt,isa 0
    5055 000000bd D044          MOVB      XAR0,#68              ; [CPU_ALU] |814| 
    5056 000000be E288          I32TOF32  R2H,*+XAR4[AR0]       ; [CPU_FPU] |814| 
         000000bf 0294 
    5057                      .dwpsn  file "../bts.c",line 816,column 5,is_stmt,isa 0
    5058 000000c0 D04E          MOVB      XAR0,#78              ; [CPU_ALU] |816| 
    5059 000000c1 E2AF          MOV32     R0H,*+XAR4[AR0]       ; [CPU_FPU] |816| 
         000000c2 0094 
    5060 000000c3 E84D          MPYF32    R1H,R1H,#13696        ; [CPU_FPU] |816| 
         000000c4 6009 
    5061                      .dwpsn  file "../bts.c",line 814,column 5,is_stmt,isa 0
    5062 000000c5 E84D          MPYF32    R4H,R2H,#13696        ; [CPU_FPU] |814| 
         000000c6 6014 
    5063                      .dwpsn  file "../bts.c",line 816,column 5,is_stmt,isa 0
    5064 000000c7 D050          MOVB      XAR0,#80              ; [CPU_ALU] |816| 
    5065 000000c8 E700          MPYF32    R0H,R1H,R0H           ; [CPU_FPU] |816| 
         000000c9 0008 
    5066                      .dwpsn  file "../bts.c",line 814,column 5,is_stmt,isa 0
    5067              
    5068 000000ca E307          MPYF32    R3H,R4H,R3H           ; [CPU_FPU] |814| 
         000000cb 1A94 
    5069              ||      MOV32     R2H,*+XAR4[AR0]       ; [CPU_FPU] |816| 
    5070              
    5071                      .dwpsn  file "../bts.c",line 816,column 5,is_stmt,isa 0
    5072 000000cc E710          ADDF32    R0H,R0H,R2H           ; [CPU_FPU] |816| 
         000000cd 0080 
    5073                      .dwpsn  file "../bts.c",line 814,column 5,is_stmt,isa 0
    5074 000000ce E710          ADDF32    R1H,R5H,R3H           ; [CPU_FPU] |814| 
         000000cf 00E9 
    5075                      .dwpsn  file "../bts.c",line 816,column 5,is_stmt,isa 0
    5076 000000d0 E203          MOV32     *+XAR4[2],R0H         ; [CPU_FPU] |816| 
         000000d1 00D4 
    5077                      .dwpsn  file "../bts.c",line 814,column 5,is_stmt,isa 0
    5078 000000d2 E203          MOV32     *+XAR4[0],R1H         ; [CPU_FPU] |814| 
         000000d3 01C4 
    5079 000000d4 E2AF          MOV32     R5H,*--SP             ; [CPU_FPU] 
         000000d5 05BE 
    5080                      .dwcfi  cfa_offset, -6
    5081                      .dwcfi  restore_reg, 63
    5082 000000d6 E2AF          MOV32     R4H,*--SP             ; [CPU_FPU] 
         000000d7 04BE 
    5083                      .dwcfi  cfa_offset, -4
    5084                      .dwcfi  restore_reg, 59
    5085 000000d8 8BBE          MOVL      XAR1,*--SP            ; [CPU_ALU] 
TMS320C2000 Assembler PC v22.6.1 Tue Aug 13 19:46:08 2024

Copyright (c) 1996-2018 Texas Instruments Incorporated
bts.asm                                                              PAGE  103

    5086                      .dwcfi  cfa_offset, -2
    5087                      .dwcfi  restore_reg, 7
    5088              $C$DW$280       .dwtag  DW_TAG_TI_branch
    5089                      .dwattr $C$DW$280, DW_AT_low_pc(0x00)
    5090                      .dwattr $C$DW$280, DW_AT_TI_return
    5091              
    5092 000000d9 0006          LRETR     ; [CPU_ALU] 
    5093                      ; return occurs ; [] 
    5094                      .dwattr $C$DW$277, DW_AT_TI_end_file("../bts.c")
    5095                      .dwattr $C$DW$277, DW_AT_TI_end_line(0x332)
    5096                      .dwattr $C$DW$277, DW_AT_TI_end_column(0x01)
    5097                      .dwendentry
    5098                      .dwendtag $C$DW$277
    5099              
    5100 000001a2               .sect   ".text"
    5101                      .clink
    5102                      .global ||BTS_initUserVariables||
    5103              
    5104              $C$DW$281       .dwtag  DW_TAG_subprogram
    5105                      .dwattr $C$DW$281, DW_AT_name("BTS_initUserVariables")
    5106                      .dwattr $C$DW$281, DW_AT_low_pc(||BTS_initUserVariables||)
    5107                      .dwattr $C$DW$281, DW_AT_high_pc(0x00)
    5108                      .dwattr $C$DW$281, DW_AT_linkage_name("BTS_initUserVariables")
    5109                      .dwattr $C$DW$281, DW_AT_external
    5110                      .dwattr $C$DW$281, DW_AT_decl_file("../bts.c")
    5111                      .dwattr $C$DW$281, DW_AT_decl_line(0x9c)
    5112                      .dwattr $C$DW$281, DW_AT_decl_column(0x06)
    5113                      .dwattr $C$DW$281, DW_AT_TI_max_frame_size(-4)
    5114                      .dwpsn  file "../bts.c",line 157,column 1,is_stmt,address ||BTS_initUserVariables||,isa 0
    5115              
    5116                      .dwfde $C$DW$CIE, ||BTS_initUserVariables||
    5117              
    5118              ;***************************************************************
    5119              ;* FNAME: BTS_initUserVariables         FR SIZE:   2           *
    5120              ;*                                                             *
    5121              ;* FUNCTION ENVIRONMENT                                        *
    5122              ;*                                                             *
    5123              ;* FUNCTION PROPERTIES                                         *
    5124              ;*                            0 Parameter,  0 Auto,  2 SOE     *
    5125              ;***************************************************************
    5126              
    5127 000001a2       ||BTS_initUserVariables||:
    5128              ;* AR4   assigned to $O$C1
    5129                      .dwcfi  cfa_offset, -2
    5130                      .dwcfi  save_reg_to_mem, 26, 0
    5131 000001a2 B2BD          MOVL      *SP++,XAR1            ; [CPU_ALU] 
    5132                      .dwcfi  save_reg_to_mem, 7, 2
    5133                      .dwcfi  cfa_offset, -4
    5134                      .dwpsn  file "../bts.c",line 158,column 5,is_stmt,isa 0
    5135 000001a3 8F00!         MOVL      XAR4,#||BTS_userInputs|| ; [CPU_ARAU] |158| 
         000001a4 0000 
    5136                      .dwpsn  file "../bts.c",line 162,column 5,is_stmt,isa 0
    5137 000001a5 E802          MOVIZ     R0H,#16492            ; [CPU_FPU] |162| 
         000001a6 0360 
    5138                      .dwpsn  file "../bts.c",line 160,column 5,is_stmt,isa 0
TMS320C2000 Assembler PC v22.6.1 Tue Aug 13 19:46:08 2024

Copyright (c) 1996-2018 Texas Instruments Incorporated
bts.asm                                                              PAGE  104

    5139 000001a7 E593          ZERO      R3H                   ; [CPU_FPU] |160| 
    5140 000001a8 D008          MOVB      XAR0,#8               ; [CPU_ALU] |160| 
    5141                      .dwpsn  file "../bts.c",line 161,column 5,is_stmt,isa 0
    5142 000001a9 E801          MOVIZ     R2H,#16256            ; [CPU_FPU] |161| 
         000001aa FC02 
    5143                      .dwpsn  file "../bts.c",line 158,column 5,is_stmt,isa 0
    5144 000001ab 56BF          MOVB      *+XAR4[6],#1,UNC      ; [CPU_ALU] |158| 
         000001ac 01F4 
    5145                      .dwpsn  file "../bts.c",line 163,column 5,is_stmt,isa 0
    5146 000001ad E801          MOVIZ     R1H,#16128            ; [CPU_FPU] |163| 
         000001ae F801 
    5147                      .dwpsn  file "../bts.c",line 177,column 5,is_stmt,isa 0
    5148 000001af D127          MOVB      XAR1,#39              ; [CPU_ALU] |177| 
    5149                      .dwpsn  file "../bts.c",line 162,column 5,is_stmt,isa 0
    5150 000001b0 E80E          MOVXI     R0H,#52429            ; [CPU_FPU] |162| 
         000001b1 6668 
    5151                      .dwpsn  file "../bts.c",line 159,column 5,is_stmt,isa 0
    5152 000001b2 2BFC          MOV       *+XAR4[7],#0          ; [CPU_ALU] |159| 
    5153                      .dwpsn  file "../bts.c",line 160,column 5,is_stmt,isa 0
    5154 000001b3 E203          MOV32     *+XAR4[AR0],R3H       ; [CPU_FPU] |160| 
         000001b4 0394 
    5155                      .dwpsn  file "../bts.c",line 176,column 5,is_stmt,isa 0
    5156 000001b5 D026          MOVB      XAR0,#38              ; [CPU_ALU] |176| 
    5157                      .dwpsn  file "../bts.c",line 161,column 5,is_stmt,isa 0
    5158 000001b6 E203          MOV32     *+XAR4[0],R2H         ; [CPU_FPU] |161| 
         000001b7 02C4 
    5159                      .dwpsn  file "../bts.c",line 162,column 5,is_stmt,isa 0
    5160 000001b8 E203          MOV32     *+XAR4[2],R0H         ; [CPU_FPU] |162| 
         000001b9 00D4 
    5161                      .dwpsn  file "../bts.c",line 178,column 5,is_stmt,isa 0
    5162 000001ba E590          ZERO      R0H                   ; [CPU_FPU] |178| 
    5163                      .dwpsn  file "../bts.c",line 163,column 5,is_stmt,isa 0
    5164 000001bb E203          MOV32     *+XAR4[4],R1H         ; [CPU_FPU] |163| 
         000001bc 01E4 
    5165                      .dwpsn  file "../bts.c",line 176,column 5,is_stmt,isa 0
    5166 000001bd 56BF          MOVB      *+XAR4[AR0],#1,UNC    ; [CPU_ALU] |176| 
         000001be 0194 
    5167                      .dwpsn  file "../bts.c",line 178,column 5,is_stmt,isa 0
    5168 000001bf D028          MOVB      XAR0,#40              ; [CPU_ALU] |178| 
    5169                      .dwpsn  file "../bts.c",line 177,column 5,is_stmt,isa 0
    5170 000001c0 2B9C          MOV       *+XAR4[AR1],#0        ; [CPU_ALU] |177| 
    5171                      .dwpsn  file "../bts.c",line 195,column 5,is_stmt,isa 0
    5172 000001c1 D147          MOVB      XAR1,#71              ; [CPU_ALU] |195| 
    5173                      .dwpsn  file "../bts.c",line 178,column 5,is_stmt,isa 0
    5174 000001c2 E203          MOV32     *+XAR4[AR0],R0H       ; [CPU_FPU] |178| 
         000001c3 0094 
    5175                      .dwpsn  file "../bts.c",line 179,column 5,is_stmt,isa 0
    5176 000001c4 D020          MOVB      XAR0,#32              ; [CPU_ALU] |179| 
    5177 000001c5 E801          MOVIZ     R0H,#16256            ; [CPU_FPU] |179| 
         000001c6 FC00 
    5178 000001c7 E203          MOV32     *+XAR4[AR0],R0H       ; [CPU_FPU] |179| 
         000001c8 0094 
    5179                      .dwpsn  file "../bts.c",line 180,column 5,is_stmt,isa 0
    5180 000001c9 D022          MOVB      XAR0,#34              ; [CPU_ALU] |180| 
    5181 000001ca E802          MOVIZ     R0H,#16492            ; [CPU_FPU] |180| 
TMS320C2000 Assembler PC v22.6.1 Tue Aug 13 19:46:08 2024

Copyright (c) 1996-2018 Texas Instruments Incorporated
bts.asm                                                              PAGE  105

         000001cb 0360 
    5182 000001cc E80E          MOVXI     R0H,#52429            ; [CPU_FPU] |180| 
         000001cd 6668 
    5183 000001ce E203          MOV32     *+XAR4[AR0],R0H       ; [CPU_FPU] |180| 
         000001cf 0094 
    5184                      .dwpsn  file "../bts.c",line 181,column 5,is_stmt,isa 0
    5185 000001d0 D024          MOVB      XAR0,#36              ; [CPU_ALU] |181| 
    5186 000001d1 E801          MOVIZ     R0H,#16128            ; [CPU_FPU] |181| 
         000001d2 F800 
    5187 000001d3 E203          MOV32     *+XAR4[AR0],R0H       ; [CPU_FPU] |181| 
         000001d4 0094 
    5188                      .dwpsn  file "../bts.c",line 194,column 5,is_stmt,isa 0
    5189 000001d5 D046          MOVB      XAR0,#70              ; [CPU_ALU] |194| 
    5190                      .dwpsn  file "../bts.c",line 196,column 5,is_stmt,isa 0
    5191 000001d6 E590          ZERO      R0H                   ; [CPU_FPU] |196| 
    5192                      .dwpsn  file "../bts.c",line 194,column 5,is_stmt,isa 0
    5193 000001d7 56BF          MOVB      *+XAR4[AR0],#1,UNC    ; [CPU_ALU] |194| 
         000001d8 0194 
    5194                      .dwpsn  file "../bts.c",line 196,column 5,is_stmt,isa 0
    5195 000001d9 D048          MOVB      XAR0,#72              ; [CPU_ALU] |196| 
    5196                      .dwpsn  file "../bts.c",line 195,column 5,is_stmt,isa 0
    5197 000001da 2B9C          MOV       *+XAR4[AR1],#0        ; [CPU_ALU] |195| 
    5198                      .dwpsn  file "../bts.c",line 213,column 5,is_stmt,isa 0
    5199 000001db D167          MOVB      XAR1,#103             ; [CPU_ALU] |213| 
    5200                      .dwpsn  file "../bts.c",line 196,column 5,is_stmt,isa 0
    5201 000001dc E203          MOV32     *+XAR4[AR0],R0H       ; [CPU_FPU] |196| 
         000001dd 0094 
    5202                      .dwpsn  file "../bts.c",line 197,column 5,is_stmt,isa 0
    5203 000001de D040          MOVB      XAR0,#64              ; [CPU_ALU] |197| 
    5204 000001df E801          MOVIZ     R0H,#16256            ; [CPU_FPU] |197| 
         000001e0 FC00 
    5205 000001e1 E203          MOV32     *+XAR4[AR0],R0H       ; [CPU_FPU] |197| 
         000001e2 0094 
    5206                      .dwpsn  file "../bts.c",line 198,column 5,is_stmt,isa 0
    5207 000001e3 D042          MOVB      XAR0,#66              ; [CPU_ALU] |198| 
    5208 000001e4 E802          MOVIZ     R0H,#16492            ; [CPU_FPU] |198| 
         000001e5 0360 
    5209                      .dwpsn  file "../bts.c",line 289,column 5,is_stmt,isa 0
    5210 000001e6 E801          MOVIZ     R1H,#16128            ; [CPU_FPU] |289| 
         000001e7 F801 
    5211                      .dwpsn  file "../bts.c",line 198,column 5,is_stmt,isa 0
    5212 000001e8 E80E          MOVXI     R0H,#52429            ; [CPU_FPU] |198| 
         000001e9 6668 
    5213 000001ea E203          MOV32     *+XAR4[AR0],R0H       ; [CPU_FPU] |198| 
         000001eb 0094 
    5214                      .dwpsn  file "../bts.c",line 199,column 5,is_stmt,isa 0
    5215 000001ec D044          MOVB      XAR0,#68              ; [CPU_ALU] |199| 
    5216 000001ed E801          MOVIZ     R0H,#16128            ; [CPU_FPU] |199| 
         000001ee F800 
    5217 000001ef E203          MOV32     *+XAR4[AR0],R0H       ; [CPU_FPU] |199| 
         000001f0 0094 
    5218                      .dwpsn  file "../bts.c",line 212,column 5,is_stmt,isa 0
    5219 000001f1 D066          MOVB      XAR0,#102             ; [CPU_ALU] |212| 
    5220                      .dwpsn  file "../bts.c",line 214,column 5,is_stmt,isa 0
    5221 000001f2 E590          ZERO      R0H                   ; [CPU_FPU] |214| 
TMS320C2000 Assembler PC v22.6.1 Tue Aug 13 19:46:08 2024

Copyright (c) 1996-2018 Texas Instruments Incorporated
bts.asm                                                              PAGE  106

    5222                      .dwpsn  file "../bts.c",line 212,column 5,is_stmt,isa 0
    5223 000001f3 56BF          MOVB      *+XAR4[AR0],#1,UNC    ; [CPU_ALU] |212| 
         000001f4 0194 
    5224                      .dwpsn  file "../bts.c",line 214,column 5,is_stmt,isa 0
    5225 000001f5 D068          MOVB      XAR0,#104             ; [CPU_ALU] |214| 
    5226                      .dwpsn  file "../bts.c",line 213,column 5,is_stmt,isa 0
    5227 000001f6 2B9C          MOV       *+XAR4[AR1],#0        ; [CPU_ALU] |213| 
    5228                      .dwpsn  file "../bts.c",line 231,column 5,is_stmt,isa 0
    5229 000001f7 D187          MOVB      XAR1,#135             ; [CPU_ALU] |231| 
    5230                      .dwpsn  file "../bts.c",line 214,column 5,is_stmt,isa 0
    5231 000001f8 E203          MOV32     *+XAR4[AR0],R0H       ; [CPU_FPU] |214| 
         000001f9 0094 
    5232                      .dwpsn  file "../bts.c",line 215,column 5,is_stmt,isa 0
    5233 000001fa D060          MOVB      XAR0,#96              ; [CPU_ALU] |215| 
    5234 000001fb E801          MOVIZ     R0H,#16256            ; [CPU_FPU] |215| 
         000001fc FC00 
    5235 000001fd E203          MOV32     *+XAR4[AR0],R0H       ; [CPU_FPU] |215| 
         000001fe 0094 
    5236                      .dwpsn  file "../bts.c",line 216,column 5,is_stmt,isa 0
    5237 000001ff D062          MOVB      XAR0,#98              ; [CPU_ALU] |216| 
    5238 00000200 E802          MOVIZ     R0H,#16492            ; [CPU_FPU] |216| 
         00000201 0360 
    5239 00000202 E80E          MOVXI     R0H,#52429            ; [CPU_FPU] |216| 
         00000203 6668 
    5240 00000204 E203          MOV32     *+XAR4[AR0],R0H       ; [CPU_FPU] |216| 
         00000205 0094 
    5241                      .dwpsn  file "../bts.c",line 217,column 5,is_stmt,isa 0
    5242 00000206 D064          MOVB      XAR0,#100             ; [CPU_ALU] |217| 
    5243 00000207 E801          MOVIZ     R0H,#16128            ; [CPU_FPU] |217| 
         00000208 F800 
    5244 00000209 E203          MOV32     *+XAR4[AR0],R0H       ; [CPU_FPU] |217| 
         0000020a 0094 
    5245                      .dwpsn  file "../bts.c",line 230,column 5,is_stmt,isa 0
    5246 0000020b D086          MOVB      XAR0,#134             ; [CPU_ALU] |230| 
    5247                      .dwpsn  file "../bts.c",line 232,column 5,is_stmt,isa 0
    5248 0000020c E590          ZERO      R0H                   ; [CPU_FPU] |232| 
    5249                      .dwpsn  file "../bts.c",line 230,column 5,is_stmt,isa 0
    5250 0000020d 56BF          MOVB      *+XAR4[AR0],#1,UNC    ; [CPU_ALU] |230| 
         0000020e 0194 
    5251                      .dwpsn  file "../bts.c",line 232,column 5,is_stmt,isa 0
    5252 0000020f D088          MOVB      XAR0,#136             ; [CPU_ALU] |232| 
    5253                      .dwpsn  file "../bts.c",line 231,column 5,is_stmt,isa 0
    5254 00000210 2B9C          MOV       *+XAR4[AR1],#0        ; [CPU_ALU] |231| 
    5255                      .dwpsn  file "../bts.c",line 249,column 5,is_stmt,isa 0
    5256 00000211 D1A7          MOVB      XAR1,#167             ; [CPU_ALU] |249| 
    5257                      .dwpsn  file "../bts.c",line 232,column 5,is_stmt,isa 0
    5258 00000212 E203          MOV32     *+XAR4[AR0],R0H       ; [CPU_FPU] |232| 
         00000213 0094 
    5259                      .dwpsn  file "../bts.c",line 233,column 5,is_stmt,isa 0
    5260 00000214 D080          MOVB      XAR0,#128             ; [CPU_ALU] |233| 
    5261 00000215 E801          MOVIZ     R0H,#16256            ; [CPU_FPU] |233| 
         00000216 FC00 
    5262 00000217 E203          MOV32     *+XAR4[AR0],R0H       ; [CPU_FPU] |233| 
         00000218 0094 
    5263                      .dwpsn  file "../bts.c",line 234,column 5,is_stmt,isa 0
TMS320C2000 Assembler PC v22.6.1 Tue Aug 13 19:46:08 2024

Copyright (c) 1996-2018 Texas Instruments Incorporated
bts.asm                                                              PAGE  107

    5264 00000219 D082          MOVB      XAR0,#130             ; [CPU_ALU] |234| 
    5265 0000021a E802          MOVIZ     R0H,#16492            ; [CPU_FPU] |234| 
         0000021b 0360 
    5266 0000021c E80E          MOVXI     R0H,#52429            ; [CPU_FPU] |234| 
         0000021d 6668 
    5267 0000021e E203          MOV32     *+XAR4[AR0],R0H       ; [CPU_FPU] |234| 
         0000021f 0094 
    5268                      .dwpsn  file "../bts.c",line 235,column 5,is_stmt,isa 0
    5269 00000220 D084          MOVB      XAR0,#132             ; [CPU_ALU] |235| 
    5270 00000221 E801          MOVIZ     R0H,#16128            ; [CPU_FPU] |235| 
         00000222 F800 
    5271 00000223 E203          MOV32     *+XAR4[AR0],R0H       ; [CPU_FPU] |235| 
         00000224 0094 
    5272                      .dwpsn  file "../bts.c",line 248,column 5,is_stmt,isa 0
    5273 00000225 D0A6          MOVB      XAR0,#166             ; [CPU_ALU] |248| 
    5274                      .dwpsn  file "../bts.c",line 250,column 5,is_stmt,isa 0
    5275 00000226 E590          ZERO      R0H                   ; [CPU_FPU] |250| 
    5276                      .dwpsn  file "../bts.c",line 248,column 5,is_stmt,isa 0
    5277 00000227 56BF          MOVB      *+XAR4[AR0],#1,UNC    ; [CPU_ALU] |248| 
         00000228 0194 
    5278                      .dwpsn  file "../bts.c",line 250,column 5,is_stmt,isa 0
    5279 00000229 D0A8          MOVB      XAR0,#168             ; [CPU_ALU] |250| 
    5280                      .dwpsn  file "../bts.c",line 249,column 5,is_stmt,isa 0
    5281 0000022a 2B9C          MOV       *+XAR4[AR1],#0        ; [CPU_ALU] |249| 
    5282                      .dwpsn  file "../bts.c",line 267,column 5,is_stmt,isa 0
    5283 0000022b D1C7          MOVB      XAR1,#199             ; [CPU_ALU] |267| 
    5284                      .dwpsn  file "../bts.c",line 250,column 5,is_stmt,isa 0
    5285 0000022c E203          MOV32     *+XAR4[AR0],R0H       ; [CPU_FPU] |250| 
         0000022d 0094 
    5286                      .dwpsn  file "../bts.c",line 251,column 5,is_stmt,isa 0
    5287 0000022e D0A0          MOVB      XAR0,#160             ; [CPU_ALU] |251| 
    5288 0000022f E801          MOVIZ     R0H,#16256            ; [CPU_FPU] |251| 
         00000230 FC00 
    5289 00000231 E203          MOV32     *+XAR4[AR0],R0H       ; [CPU_FPU] |251| 
         00000232 0094 
    5290                      .dwpsn  file "../bts.c",line 252,column 5,is_stmt,isa 0
    5291 00000233 D0A2          MOVB      XAR0,#162             ; [CPU_ALU] |252| 
    5292 00000234 E802          MOVIZ     R0H,#16492            ; [CPU_FPU] |252| 
         00000235 0360 
    5293 00000236 E80E          MOVXI     R0H,#52429            ; [CPU_FPU] |252| 
         00000237 6668 
    5294 00000238 E203          MOV32     *+XAR4[AR0],R0H       ; [CPU_FPU] |252| 
         00000239 0094 
    5295                      .dwpsn  file "../bts.c",line 253,column 5,is_stmt,isa 0
    5296 0000023a D0A4          MOVB      XAR0,#164             ; [CPU_ALU] |253| 
    5297 0000023b E801          MOVIZ     R0H,#16128            ; [CPU_FPU] |253| 
         0000023c F800 
    5298 0000023d E203          MOV32     *+XAR4[AR0],R0H       ; [CPU_FPU] |253| 
         0000023e 0094 
    5299                      .dwpsn  file "../bts.c",line 266,column 5,is_stmt,isa 0
    5300 0000023f D0C6          MOVB      XAR0,#198             ; [CPU_ALU] |266| 
    5301                      .dwpsn  file "../bts.c",line 268,column 5,is_stmt,isa 0
    5302 00000240 E590          ZERO      R0H                   ; [CPU_FPU] |268| 
    5303                      .dwpsn  file "../bts.c",line 266,column 5,is_stmt,isa 0
    5304 00000241 56BF          MOVB      *+XAR4[AR0],#1,UNC    ; [CPU_ALU] |266| 
TMS320C2000 Assembler PC v22.6.1 Tue Aug 13 19:46:08 2024

Copyright (c) 1996-2018 Texas Instruments Incorporated
bts.asm                                                              PAGE  108

         00000242 0194 
    5305                      .dwpsn  file "../bts.c",line 268,column 5,is_stmt,isa 0
    5306 00000243 D0C8          MOVB      XAR0,#200             ; [CPU_ALU] |268| 
    5307                      .dwpsn  file "../bts.c",line 267,column 5,is_stmt,isa 0
    5308 00000244 2B9C          MOV       *+XAR4[AR1],#0        ; [CPU_ALU] |267| 
    5309                      .dwpsn  file "../bts.c",line 285,column 5,is_stmt,isa 0
    5310 00000245 D1E7          MOVB      XAR1,#231             ; [CPU_ALU] |285| 
    5311                      .dwpsn  file "../bts.c",line 268,column 5,is_stmt,isa 0
    5312 00000246 E203          MOV32     *+XAR4[AR0],R0H       ; [CPU_FPU] |268| 
         00000247 0094 
    5313                      .dwpsn  file "../bts.c",line 269,column 5,is_stmt,isa 0
    5314 00000248 D0C0          MOVB      XAR0,#192             ; [CPU_ALU] |269| 
    5315 00000249 E801          MOVIZ     R0H,#16256            ; [CPU_FPU] |269| 
         0000024a FC00 
    5316 0000024b E203          MOV32     *+XAR4[AR0],R0H       ; [CPU_FPU] |269| 
         0000024c 0094 
    5317                      .dwpsn  file "../bts.c",line 270,column 5,is_stmt,isa 0
    5318 0000024d D0C2          MOVB      XAR0,#194             ; [CPU_ALU] |270| 
    5319 0000024e E802          MOVIZ     R0H,#16492            ; [CPU_FPU] |270| 
         0000024f 0360 
    5320 00000250 E80E          MOVXI     R0H,#52429            ; [CPU_FPU] |270| 
         00000251 6668 
    5321 00000252 E203          MOV32     *+XAR4[AR0],R0H       ; [CPU_FPU] |270| 
         00000253 0094 
    5322                      .dwpsn  file "../bts.c",line 271,column 5,is_stmt,isa 0
    5323 00000254 D0C4          MOVB      XAR0,#196             ; [CPU_ALU] |271| 
    5324 00000255 E801          MOVIZ     R0H,#16128            ; [CPU_FPU] |271| 
         00000256 F800 
    5325 00000257 E203          MOV32     *+XAR4[AR0],R0H       ; [CPU_FPU] |271| 
         00000258 0094 
    5326                      .dwpsn  file "../bts.c",line 284,column 5,is_stmt,isa 0
    5327 00000259 D0E6          MOVB      XAR0,#230             ; [CPU_ALU] |284| 
    5328                      .dwpsn  file "../bts.c",line 286,column 5,is_stmt,isa 0
    5329 0000025a E590          ZERO      R0H                   ; [CPU_FPU] |286| 
    5330                      .dwpsn  file "../bts.c",line 284,column 5,is_stmt,isa 0
    5331 0000025b 56BF          MOVB      *+XAR4[AR0],#1,UNC    ; [CPU_ALU] |284| 
         0000025c 0194 
    5332                      .dwpsn  file "../bts.c",line 286,column 5,is_stmt,isa 0
    5333 0000025d D0E8          MOVB      XAR0,#232             ; [CPU_ALU] |286| 
    5334                      .dwpsn  file "../bts.c",line 285,column 5,is_stmt,isa 0
    5335 0000025e 2B9C          MOV       *+XAR4[AR1],#0        ; [CPU_ALU] |285| 
    5336                      .dwpsn  file "../bts.c",line 286,column 5,is_stmt,isa 0
    5337 0000025f E203          MOV32     *+XAR4[AR0],R0H       ; [CPU_FPU] |286| 
         00000260 0094 
    5338                      .dwpsn  file "../bts.c",line 185,column 5,is_stmt,isa 0
    5339 00000261 D030          MOVB      XAR0,#48              ; [CPU_ALU] |185| 
    5340 00000262 E801          MOVIZ     R0H,#12672            ; [CPU_FPU] |185| 
         00000263 8C00 
    5341 00000264 E203          MOV32     *+XAR4[AR0],R0H       ; [CPU_FPU] |185| 
         00000265 0094 
    5342                      .dwpsn  file "../bts.c",line 190,column 5,is_stmt,isa 0
    5343 00000266 D038          MOVB      XAR0,#56              ; [CPU_ALU] |190| 
    5344 00000267 E805          MOVIZ     R0H,#45696            ; [CPU_FPU] |190| 
         00000268 9400 
    5345 00000269 E203          MOV32     *+XAR4[AR0],R0H       ; [CPU_FPU] |190| 
TMS320C2000 Assembler PC v22.6.1 Tue Aug 13 19:46:08 2024

Copyright (c) 1996-2018 Texas Instruments Incorporated
bts.asm                                                              PAGE  109

         0000026a 0094 
    5346                      .dwpsn  file "../bts.c",line 203,column 5,is_stmt,isa 0
    5347 0000026b D050          MOVB      XAR0,#80              ; [CPU_ALU] |203| 
    5348 0000026c E801          MOVIZ     R0H,#12672            ; [CPU_FPU] |203| 
         0000026d 8C00 
    5349 0000026e E203          MOV32     *+XAR4[AR0],R0H       ; [CPU_FPU] |203| 
         0000026f 0094 
    5350                      .dwpsn  file "../bts.c",line 208,column 5,is_stmt,isa 0
    5351 00000270 D058          MOVB      XAR0,#88              ; [CPU_ALU] |208| 
    5352 00000271 E805          MOVIZ     R0H,#45696            ; [CPU_FPU] |208| 
         00000272 9400 
    5353 00000273 E203          MOV32     *+XAR4[AR0],R0H       ; [CPU_FPU] |208| 
         00000274 0094 
    5354                      .dwpsn  file "../bts.c",line 221,column 5,is_stmt,isa 0
    5355 00000275 D070          MOVB      XAR0,#112             ; [CPU_ALU] |221| 
    5356 00000276 E801          MOVIZ     R0H,#12672            ; [CPU_FPU] |221| 
         00000277 8C00 
    5357 00000278 E203          MOV32     *+XAR4[AR0],R0H       ; [CPU_FPU] |221| 
         00000279 0094 
    5358                      .dwpsn  file "../bts.c",line 226,column 5,is_stmt,isa 0
    5359 0000027a D078          MOVB      XAR0,#120             ; [CPU_ALU] |226| 
    5360 0000027b E805          MOVIZ     R0H,#45696            ; [CPU_FPU] |226| 
         0000027c 9400 
    5361 0000027d E203          MOV32     *+XAR4[AR0],R0H       ; [CPU_FPU] |226| 
         0000027e 0094 
    5362                      .dwpsn  file "../bts.c",line 239,column 5,is_stmt,isa 0
    5363 0000027f D090          MOVB      XAR0,#144             ; [CPU_ALU] |239| 
    5364 00000280 E801          MOVIZ     R0H,#12672            ; [CPU_FPU] |239| 
         00000281 8C00 
    5365 00000282 E203          MOV32     *+XAR4[AR0],R0H       ; [CPU_FPU] |239| 
         00000283 0094 
    5366                      .dwpsn  file "../bts.c",line 244,column 5,is_stmt,isa 0
    5367 00000284 D098          MOVB      XAR0,#152             ; [CPU_ALU] |244| 
    5368 00000285 E805          MOVIZ     R0H,#45696            ; [CPU_FPU] |244| 
         00000286 9400 
    5369 00000287 E203          MOV32     *+XAR4[AR0],R0H       ; [CPU_FPU] |244| 
         00000288 0094 
    5370                      .dwpsn  file "../bts.c",line 257,column 5,is_stmt,isa 0
    5371 00000289 D0B0          MOVB      XAR0,#176             ; [CPU_ALU] |257| 
    5372 0000028a E801          MOVIZ     R0H,#12672            ; [CPU_FPU] |257| 
         0000028b 8C00 
    5373                      .dwpsn  file "../bts.c",line 288,column 5,is_stmt,isa 0
    5374 0000028c D1E2          MOVB      XAR1,#226             ; [CPU_ALU] |288| 
    5375                      .dwpsn  file "../bts.c",line 257,column 5,is_stmt,isa 0
    5376 0000028d E203          MOV32     *+XAR4[AR0],R0H       ; [CPU_FPU] |257| 
         0000028e 0094 
    5377                      .dwpsn  file "../bts.c",line 262,column 5,is_stmt,isa 0
    5378 0000028f D0B8          MOVB      XAR0,#184             ; [CPU_ALU] |262| 
    5379 00000290 E805          MOVIZ     R0H,#45696            ; [CPU_FPU] |262| 
         00000291 9400 
    5380 00000292 E203          MOV32     *+XAR4[AR0],R0H       ; [CPU_FPU] |262| 
         00000293 0094 
    5381                      .dwpsn  file "../bts.c",line 275,column 5,is_stmt,isa 0
    5382 00000294 D0D0          MOVB      XAR0,#208             ; [CPU_ALU] |275| 
    5383 00000295 E801          MOVIZ     R0H,#12672            ; [CPU_FPU] |275| 
TMS320C2000 Assembler PC v22.6.1 Tue Aug 13 19:46:08 2024

Copyright (c) 1996-2018 Texas Instruments Incorporated
bts.asm                                                              PAGE  110

         00000296 8C00 
    5384 00000297 E203          MOV32     *+XAR4[AR0],R0H       ; [CPU_FPU] |275| 
         00000298 0094 
    5385                      .dwpsn  file "../bts.c",line 280,column 5,is_stmt,isa 0
    5386 00000299 D0D8          MOVB      XAR0,#216             ; [CPU_ALU] |280| 
    5387 0000029a E805          MOVIZ     R0H,#45696            ; [CPU_FPU] |280| 
         0000029b 9400 
    5388 0000029c E203          MOV32     *+XAR4[AR0],R0H       ; [CPU_FPU] |280| 
         0000029d 0094 
    5389                      .dwpsn  file "../bts.c",line 293,column 5,is_stmt,isa 0
    5390 0000029e D0F0          MOVB      XAR0,#240             ; [CPU_ALU] |293| 
    5391 0000029f E801          MOVIZ     R0H,#12672            ; [CPU_FPU] |293| 
         000002a0 8C00 
    5392 000002a1 E203          MOV32     *+XAR4[AR0],R0H       ; [CPU_FPU] |293| 
         000002a2 0094 
    5393                      .dwpsn  file "../bts.c",line 298,column 5,is_stmt,isa 0
    5394 000002a3 D0F8          MOVB      XAR0,#248             ; [CPU_ALU] |298| 
    5395 000002a4 E805          MOVIZ     R0H,#45696            ; [CPU_FPU] |298| 
         000002a5 9400 
    5396 000002a6 E203          MOV32     *+XAR4[AR0],R0H       ; [CPU_FPU] |298| 
         000002a7 0094 
    5397                      .dwpsn  file "../bts.c",line 166,column 5,is_stmt,isa 0
    5398 000002a8 D00E          MOVB      XAR0,#14              ; [CPU_ALU] |166| 
    5399 000002a9 E801          MOVIZ     R0H,#15821            ; [CPU_FPU] |166| 
         000002aa EE68 
    5400 000002ab E80B          MOVXI     R0H,#29226            ; [CPU_FPU] |166| 
         000002ac 9150 
    5401 000002ad E203          MOV32     *+XAR4[AR0],R0H       ; [CPU_FPU] |166| 
         000002ae 0094 
    5402                      .dwpsn  file "../bts.c",line 167,column 5,is_stmt,isa 0
    5403 000002af D010          MOVB      XAR0,#16              ; [CPU_ALU] |167| 
    5404 000002b0 E801          MOVIZ     R0H,#14724            ; [CPU_FPU] |167| 
         000002b1 CC20 
    5405 000002b2 E80B          MOVXI     R0H,#28160            ; [CPU_FPU] |167| 
         000002b3 7000 
    5406 000002b4 E203          MOV32     *+XAR4[AR0],R0H       ; [CPU_FPU] |167| 
         000002b5 0094 
    5407                      .dwpsn  file "../bts.c",line 168,column 5,is_stmt,isa 0
    5408 000002b6 D012          MOVB      XAR0,#18              ; [CPU_ALU] |168| 
    5409 000002b7 E802          MOVIZ     R0H,#16671            ; [CPU_FPU] |168| 
         000002b8 08F8 
    5410 000002b9 E80B          MOVXI     R0H,#32567            ; [CPU_FPU] |168| 
         000002ba F9B8 
    5411 000002bb E203          MOV32     *+XAR4[AR0],R0H       ; [CPU_FPU] |168| 
         000002bc 0094 
    5412                      .dwpsn  file "../bts.c",line 169,column 5,is_stmt,isa 0
    5413 000002bd D014          MOVB      XAR0,#20              ; [CPU_ALU] |169| 
    5414 000002be E805          MOVIZ     R0H,#47909            ; [CPU_FPU] |169| 
         000002bf D928 
    5415 000002c0 E808          MOVXI     R0H,#1090             ; [CPU_FPU] |169| 
         000002c1 2210 
    5416 000002c2 E203          MOV32     *+XAR4[AR0],R0H       ; [CPU_FPU] |169| 
         000002c3 0094 
    5417                      .dwpsn  file "../bts.c",line 171,column 5,is_stmt,isa 0
    5418 000002c4 D016          MOVB      XAR0,#22              ; [CPU_ALU] |171| 
TMS320C2000 Assembler PC v22.6.1 Tue Aug 13 19:46:08 2024

Copyright (c) 1996-2018 Texas Instruments Incorporated
bts.asm                                                              PAGE  111

    5419 000002c5 E801          MOVIZ     R0H,#15951            ; [CPU_FPU] |171| 
         000002c6 F278 
    5420 000002c7 E80F          MOVXI     R0H,#63120            ; [CPU_FPU] |171| 
         000002c8 B480 
    5421 000002c9 E203          MOV32     *+XAR4[AR0],R0H       ; [CPU_FPU] |171| 
         000002ca 0094 
    5422                      .dwpsn  file "../bts.c",line 172,column 5,is_stmt,isa 0
    5423 000002cb D018          MOVB      XAR0,#24              ; [CPU_ALU] |172| 
    5424 000002cc E805          MOVIZ     R0H,#47658            ; [CPU_FPU] |172| 
         000002cd D150 
    5425 000002ce E80D          MOVXI     R0H,#44544            ; [CPU_FPU] |172| 
         000002cf 7000 
    5426 000002d0 E203          MOV32     *+XAR4[AR0],R0H       ; [CPU_FPU] |172| 
         000002d1 0094 
    5427                      .dwpsn  file "../bts.c",line 173,column 5,is_stmt,isa 0
    5428 000002d2 D01A          MOVB      XAR0,#26              ; [CPU_ALU] |173| 
    5429 000002d3 E802          MOVIZ     R0H,#16541            ; [CPU_FPU] |173| 
         000002d4 04E8 
    5430 000002d5 E80C          MOVXI     R0H,#37119            ; [CPU_FPU] |173| 
         000002d6 87F8 
    5431 000002d7 E203          MOV32     *+XAR4[AR0],R0H       ; [CPU_FPU] |173| 
         000002d8 0094 
    5432                      .dwpsn  file "../bts.c",line 174,column 5,is_stmt,isa 0
    5433 000002d9 D01C          MOVB      XAR0,#28              ; [CPU_ALU] |174| 
    5434 000002da E801          MOVIZ     R0H,#15186            ; [CPU_FPU] |174| 
         000002db DA90 
    5435 000002dc E808          MOVXI     R0H,#6852             ; [CPU_FPU] |174| 
         000002dd D620 
    5436 000002de E203          MOV32     *+XAR4[AR0],R0H       ; [CPU_FPU] |174| 
         000002df 0094 
    5437                      .dwpsn  file "../bts.c",line 184,column 5,is_stmt,isa 0
    5438 000002e0 D02E          MOVB      XAR0,#46              ; [CPU_ALU] |184| 
    5439 000002e1 E801          MOVIZ     R0H,#15820            ; [CPU_FPU] |184| 
         000002e2 EE60 
    5440 000002e3 E80A          MOVXI     R0H,#16513            ; [CPU_FPU] |184| 
         000002e4 0408 
    5441 000002e5 E203          MOV32     *+XAR4[AR0],R0H       ; [CPU_FPU] |184| 
         000002e6 0094 
    5442                      .dwpsn  file "../bts.c",line 186,column 5,is_stmt,isa 0
    5443 000002e7 D032          MOVB      XAR0,#50              ; [CPU_ALU] |186| 
    5444 000002e8 E802          MOVIZ     R0H,#16672            ; [CPU_FPU] |186| 
         000002e9 0900 
    5445 000002ea E80B          MOVXI     R0H,#28135            ; [CPU_FPU] |186| 
         000002eb 6F38 
    5446 000002ec E203          MOV32     *+XAR4[AR0],R0H       ; [CPU_FPU] |186| 
         000002ed 0094 
    5447                      .dwpsn  file "../bts.c",line 187,column 5,is_stmt,isa 0
    5448 000002ee D034          MOVB      XAR0,#52              ; [CPU_ALU] |187| 
    5449 000002ef E805          MOVIZ     R0H,#45856            ; [CPU_FPU] |187| 
         000002f0 9900 
    5450 000002f1 E80B          MOVXI     R0H,#28135            ; [CPU_FPU] |187| 
         000002f2 6F38 
    5451 000002f3 E203          MOV32     *+XAR4[AR0],R0H       ; [CPU_FPU] |187| 
         000002f4 0094 
    5452                      .dwpsn  file "../bts.c",line 189,column 5,is_stmt,isa 0
TMS320C2000 Assembler PC v22.6.1 Tue Aug 13 19:46:08 2024

Copyright (c) 1996-2018 Texas Instruments Incorporated
bts.asm                                                              PAGE  112

    5453 000002f5 D036          MOVB      XAR0,#54              ; [CPU_ALU] |189| 
    5454 000002f6 E801          MOVIZ     R0H,#15951            ; [CPU_FPU] |189| 
         000002f7 F278 
    5455 000002f8 E809          MOVXI     R0H,#11968            ; [CPU_FPU] |189| 
         000002f9 7600 
    5456 000002fa E203          MOV32     *+XAR4[AR0],R0H       ; [CPU_FPU] |189| 
         000002fb 0094 
    5457                      .dwpsn  file "../bts.c",line 191,column 5,is_stmt,isa 0
    5458 000002fc D03A          MOVB      XAR0,#58              ; [CPU_ALU] |191| 
    5459 000002fd E802          MOVIZ     R0H,#16542            ; [CPU_FPU] |191| 
         000002fe 04F0 
    5460 000002ff E809          MOVXI     R0H,#10485            ; [CPU_FPU] |191| 
         00000300 47A8 
    5461 00000301 E203          MOV32     *+XAR4[AR0],R0H       ; [CPU_FPU] |191| 
         00000302 0094 
    5462                      .dwpsn  file "../bts.c",line 192,column 5,is_stmt,isa 0
    5463 00000303 D03C          MOVB      XAR0,#60              ; [CPU_ALU] |192| 
    5464 00000304 E801          MOVIZ     R0H,#13214            ; [CPU_FPU] |192| 
         00000305 9CF0 
    5465 00000306 E809          MOVXI     R0H,#10485            ; [CPU_FPU] |192| 
         00000307 47A8 
    5466 00000308 E203          MOV32     *+XAR4[AR0],R0H       ; [CPU_FPU] |192| 
         00000309 0094 
    5467                      .dwpsn  file "../bts.c",line 202,column 5,is_stmt,isa 0
    5468 0000030a D04E          MOVB      XAR0,#78              ; [CPU_ALU] |202| 
    5469 0000030b E801          MOVIZ     R0H,#15820            ; [CPU_FPU] |202| 
         0000030c EE60 
    5470 0000030d E80A          MOVXI     R0H,#16513            ; [CPU_FPU] |202| 
         0000030e 0408 
    5471 0000030f E203          MOV32     *+XAR4[AR0],R0H       ; [CPU_FPU] |202| 
         00000310 0094 
    5472                      .dwpsn  file "../bts.c",line 204,column 5,is_stmt,isa 0
    5473 00000311 D052          MOVB      XAR0,#82              ; [CPU_ALU] |204| 
    5474 00000312 E802          MOVIZ     R0H,#16672            ; [CPU_FPU] |204| 
         00000313 0900 
    5475 00000314 E80B          MOVXI     R0H,#28135            ; [CPU_FPU] |204| 
         00000315 6F38 
    5476 00000316 E203          MOV32     *+XAR4[AR0],R0H       ; [CPU_FPU] |204| 
         00000317 0094 
    5477                      .dwpsn  file "../bts.c",line 205,column 5,is_stmt,isa 0
    5478 00000318 D054          MOVB      XAR0,#84              ; [CPU_ALU] |205| 
    5479 00000319 E805          MOVIZ     R0H,#45856            ; [CPU_FPU] |205| 
         0000031a 9900 
    5480 0000031b E80B          MOVXI     R0H,#28135            ; [CPU_FPU] |205| 
         0000031c 6F38 
    5481 0000031d E203          MOV32     *+XAR4[AR0],R0H       ; [CPU_FPU] |205| 
         0000031e 0094 
    5482                      .dwpsn  file "../bts.c",line 207,column 5,is_stmt,isa 0
    5483 0000031f D056          MOVB      XAR0,#86              ; [CPU_ALU] |207| 
    5484 00000320 E801          MOVIZ     R0H,#15951            ; [CPU_FPU] |207| 
         00000321 F278 
    5485 00000322 E809          MOVXI     R0H,#11968            ; [CPU_FPU] |207| 
         00000323 7600 
    5486 00000324 E203          MOV32     *+XAR4[AR0],R0H       ; [CPU_FPU] |207| 
         00000325 0094 
TMS320C2000 Assembler PC v22.6.1 Tue Aug 13 19:46:08 2024

Copyright (c) 1996-2018 Texas Instruments Incorporated
bts.asm                                                              PAGE  113

    5487                      .dwpsn  file "../bts.c",line 209,column 5,is_stmt,isa 0
    5488 00000326 D05A          MOVB      XAR0,#90              ; [CPU_ALU] |209| 
    5489 00000327 E802          MOVIZ     R0H,#16542            ; [CPU_FPU] |209| 
         00000328 04F0 
    5490 00000329 E809          MOVXI     R0H,#10485            ; [CPU_FPU] |209| 
         0000032a 47A8 
    5491 0000032b E203          MOV32     *+XAR4[AR0],R0H       ; [CPU_FPU] |209| 
         0000032c 0094 
    5492                      .dwpsn  file "../bts.c",line 210,column 5,is_stmt,isa 0
    5493 0000032d D05C          MOVB      XAR0,#92              ; [CPU_ALU] |210| 
    5494 0000032e E801          MOVIZ     R0H,#13214            ; [CPU_FPU] |210| 
         0000032f 9CF0 
    5495 00000330 E809          MOVXI     R0H,#10485            ; [CPU_FPU] |210| 
         00000331 47A8 
    5496 00000332 E203          MOV32     *+XAR4[AR0],R0H       ; [CPU_FPU] |210| 
         00000333 0094 
    5497                      .dwpsn  file "../bts.c",line 220,column 5,is_stmt,isa 0
    5498 00000334 D06E          MOVB      XAR0,#110             ; [CPU_ALU] |220| 
    5499 00000335 E801          MOVIZ     R0H,#15820            ; [CPU_FPU] |220| 
         00000336 EE60 
    5500 00000337 E80A          MOVXI     R0H,#16513            ; [CPU_FPU] |220| 
         00000338 0408 
    5501 00000339 E203          MOV32     *+XAR4[AR0],R0H       ; [CPU_FPU] |220| 
         0000033a 0094 
    5502                      .dwpsn  file "../bts.c",line 222,column 5,is_stmt,isa 0
    5503 0000033b D072          MOVB      XAR0,#114             ; [CPU_ALU] |222| 
    5504 0000033c E802          MOVIZ     R0H,#16672            ; [CPU_FPU] |222| 
         0000033d 0900 
    5505 0000033e E80B          MOVXI     R0H,#28135            ; [CPU_FPU] |222| 
         0000033f 6F38 
    5506 00000340 E203          MOV32     *+XAR4[AR0],R0H       ; [CPU_FPU] |222| 
         00000341 0094 
    5507                      .dwpsn  file "../bts.c",line 223,column 5,is_stmt,isa 0
    5508 00000342 D074          MOVB      XAR0,#116             ; [CPU_ALU] |223| 
    5509 00000343 E805          MOVIZ     R0H,#45856            ; [CPU_FPU] |223| 
         00000344 9900 
    5510 00000345 E80B          MOVXI     R0H,#28135            ; [CPU_FPU] |223| 
         00000346 6F38 
    5511 00000347 E203          MOV32     *+XAR4[AR0],R0H       ; [CPU_FPU] |223| 
         00000348 0094 
    5512                      .dwpsn  file "../bts.c",line 225,column 5,is_stmt,isa 0
    5513 00000349 D076          MOVB      XAR0,#118             ; [CPU_ALU] |225| 
    5514 0000034a E801          MOVIZ     R0H,#15951            ; [CPU_FPU] |225| 
         0000034b F278 
    5515 0000034c E809          MOVXI     R0H,#11968            ; [CPU_FPU] |225| 
         0000034d 7600 
    5516 0000034e E203          MOV32     *+XAR4[AR0],R0H       ; [CPU_FPU] |225| 
         0000034f 0094 
    5517                      .dwpsn  file "../bts.c",line 227,column 5,is_stmt,isa 0
    5518 00000350 D07A          MOVB      XAR0,#122             ; [CPU_ALU] |227| 
    5519 00000351 E802          MOVIZ     R0H,#16542            ; [CPU_FPU] |227| 
         00000352 04F0 
    5520 00000353 E809          MOVXI     R0H,#10485            ; [CPU_FPU] |227| 
         00000354 47A8 
    5521 00000355 E203          MOV32     *+XAR4[AR0],R0H       ; [CPU_FPU] |227| 
TMS320C2000 Assembler PC v22.6.1 Tue Aug 13 19:46:08 2024

Copyright (c) 1996-2018 Texas Instruments Incorporated
bts.asm                                                              PAGE  114

         00000356 0094 
    5522                      .dwpsn  file "../bts.c",line 228,column 5,is_stmt,isa 0
    5523 00000357 D07C          MOVB      XAR0,#124             ; [CPU_ALU] |228| 
    5524 00000358 E801          MOVIZ     R0H,#13214            ; [CPU_FPU] |228| 
         00000359 9CF0 
    5525 0000035a E809          MOVXI     R0H,#10485            ; [CPU_FPU] |228| 
         0000035b 47A8 
    5526 0000035c E203          MOV32     *+XAR4[AR0],R0H       ; [CPU_FPU] |228| 
         0000035d 0094 
    5527                      .dwpsn  file "../bts.c",line 238,column 5,is_stmt,isa 0
    5528 0000035e D08E          MOVB      XAR0,#142             ; [CPU_ALU] |238| 
    5529 0000035f E801          MOVIZ     R0H,#15820            ; [CPU_FPU] |238| 
         00000360 EE60 
    5530 00000361 E80A          MOVXI     R0H,#16513            ; [CPU_FPU] |238| 
         00000362 0408 
    5531 00000363 E203          MOV32     *+XAR4[AR0],R0H       ; [CPU_FPU] |238| 
         00000364 0094 
    5532                      .dwpsn  file "../bts.c",line 240,column 5,is_stmt,isa 0
    5533 00000365 D092          MOVB      XAR0,#146             ; [CPU_ALU] |240| 
    5534 00000366 E802          MOVIZ     R0H,#16672            ; [CPU_FPU] |240| 
         00000367 0900 
    5535 00000368 E80B          MOVXI     R0H,#28135            ; [CPU_FPU] |240| 
         00000369 6F38 
    5536 0000036a E203          MOV32     *+XAR4[AR0],R0H       ; [CPU_FPU] |240| 
         0000036b 0094 
    5537                      .dwpsn  file "../bts.c",line 241,column 5,is_stmt,isa 0
    5538 0000036c D094          MOVB      XAR0,#148             ; [CPU_ALU] |241| 
    5539 0000036d E805          MOVIZ     R0H,#45856            ; [CPU_FPU] |241| 
         0000036e 9900 
    5540 0000036f E80B          MOVXI     R0H,#28135            ; [CPU_FPU] |241| 
         00000370 6F38 
    5541 00000371 E203          MOV32     *+XAR4[AR0],R0H       ; [CPU_FPU] |241| 
         00000372 0094 
    5542                      .dwpsn  file "../bts.c",line 243,column 5,is_stmt,isa 0
    5543 00000373 D096          MOVB      XAR0,#150             ; [CPU_ALU] |243| 
    5544 00000374 E801          MOVIZ     R0H,#15951            ; [CPU_FPU] |243| 
         00000375 F278 
    5545 00000376 E809          MOVXI     R0H,#11968            ; [CPU_FPU] |243| 
         00000377 7600 
    5546 00000378 E203          MOV32     *+XAR4[AR0],R0H       ; [CPU_FPU] |243| 
         00000379 0094 
    5547                      .dwpsn  file "../bts.c",line 245,column 5,is_stmt,isa 0
    5548 0000037a D09A          MOVB      XAR0,#154             ; [CPU_ALU] |245| 
    5549 0000037b E802          MOVIZ     R0H,#16542            ; [CPU_FPU] |245| 
         0000037c 04F0 
    5550 0000037d E809          MOVXI     R0H,#10485            ; [CPU_FPU] |245| 
         0000037e 47A8 
    5551 0000037f E203          MOV32     *+XAR4[AR0],R0H       ; [CPU_FPU] |245| 
         00000380 0094 
    5552                      .dwpsn  file "../bts.c",line 246,column 5,is_stmt,isa 0
    5553 00000381 D09C          MOVB      XAR0,#156             ; [CPU_ALU] |246| 
    5554 00000382 E801          MOVIZ     R0H,#13214            ; [CPU_FPU] |246| 
         00000383 9CF0 
    5555 00000384 E809          MOVXI     R0H,#10485            ; [CPU_FPU] |246| 
         00000385 47A8 
TMS320C2000 Assembler PC v22.6.1 Tue Aug 13 19:46:08 2024

Copyright (c) 1996-2018 Texas Instruments Incorporated
bts.asm                                                              PAGE  115

    5556 00000386 E203          MOV32     *+XAR4[AR0],R0H       ; [CPU_FPU] |246| 
         00000387 0094 
    5557                      .dwpsn  file "../bts.c",line 256,column 5,is_stmt,isa 0
    5558 00000388 D0AE          MOVB      XAR0,#174             ; [CPU_ALU] |256| 
    5559 00000389 E801          MOVIZ     R0H,#15820            ; [CPU_FPU] |256| 
         0000038a EE60 
    5560 0000038b E80A          MOVXI     R0H,#16513            ; [CPU_FPU] |256| 
         0000038c 0408 
    5561 0000038d E203          MOV32     *+XAR4[AR0],R0H       ; [CPU_FPU] |256| 
         0000038e 0094 
    5562                      .dwpsn  file "../bts.c",line 258,column 5,is_stmt,isa 0
    5563 0000038f D0B2          MOVB      XAR0,#178             ; [CPU_ALU] |258| 
    5564 00000390 E802          MOVIZ     R0H,#16672            ; [CPU_FPU] |258| 
         00000391 0900 
    5565 00000392 E80B          MOVXI     R0H,#28135            ; [CPU_FPU] |258| 
         00000393 6F38 
    5566 00000394 E203          MOV32     *+XAR4[AR0],R0H       ; [CPU_FPU] |258| 
         00000395 0094 
    5567                      .dwpsn  file "../bts.c",line 259,column 5,is_stmt,isa 0
    5568 00000396 D0B4          MOVB      XAR0,#180             ; [CPU_ALU] |259| 
    5569 00000397 E805          MOVIZ     R0H,#45856            ; [CPU_FPU] |259| 
         00000398 9900 
    5570 00000399 E80B          MOVXI     R0H,#28135            ; [CPU_FPU] |259| 
         0000039a 6F38 
    5571 0000039b E203          MOV32     *+XAR4[AR0],R0H       ; [CPU_FPU] |259| 
         0000039c 0094 
    5572                      .dwpsn  file "../bts.c",line 261,column 5,is_stmt,isa 0
    5573 0000039d D0B6          MOVB      XAR0,#182             ; [CPU_ALU] |261| 
    5574 0000039e E801          MOVIZ     R0H,#15951            ; [CPU_FPU] |261| 
         0000039f F278 
    5575 000003a0 E809          MOVXI     R0H,#11968            ; [CPU_FPU] |261| 
         000003a1 7600 
    5576 000003a2 E203          MOV32     *+XAR4[AR0],R0H       ; [CPU_FPU] |261| 
         000003a3 0094 
    5577                      .dwpsn  file "../bts.c",line 263,column 5,is_stmt,isa 0
    5578 000003a4 D0BA          MOVB      XAR0,#186             ; [CPU_ALU] |263| 
    5579 000003a5 E802          MOVIZ     R0H,#16542            ; [CPU_FPU] |263| 
         000003a6 04F0 
    5580 000003a7 E809          MOVXI     R0H,#10485            ; [CPU_FPU] |263| 
         000003a8 47A8 
    5581 000003a9 E203          MOV32     *+XAR4[AR0],R0H       ; [CPU_FPU] |263| 
         000003aa 0094 
    5582                      .dwpsn  file "../bts.c",line 264,column 5,is_stmt,isa 0
    5583 000003ab D0BC          MOVB      XAR0,#188             ; [CPU_ALU] |264| 
    5584 000003ac E801          MOVIZ     R0H,#13214            ; [CPU_FPU] |264| 
         000003ad 9CF0 
    5585 000003ae E809          MOVXI     R0H,#10485            ; [CPU_FPU] |264| 
         000003af 47A8 
    5586 000003b0 E203          MOV32     *+XAR4[AR0],R0H       ; [CPU_FPU] |264| 
         000003b1 0094 
    5587                      .dwpsn  file "../bts.c",line 274,column 5,is_stmt,isa 0
    5588 000003b2 D0CE          MOVB      XAR0,#206             ; [CPU_ALU] |274| 
    5589 000003b3 E801          MOVIZ     R0H,#15820            ; [CPU_FPU] |274| 
         000003b4 EE60 
    5590 000003b5 E80A          MOVXI     R0H,#16513            ; [CPU_FPU] |274| 
TMS320C2000 Assembler PC v22.6.1 Tue Aug 13 19:46:08 2024

Copyright (c) 1996-2018 Texas Instruments Incorporated
bts.asm                                                              PAGE  116

         000003b6 0408 
    5591 000003b7 E203          MOV32     *+XAR4[AR0],R0H       ; [CPU_FPU] |274| 
         000003b8 0094 
    5592                      .dwpsn  file "../bts.c",line 276,column 5,is_stmt,isa 0
    5593 000003b9 D0D2          MOVB      XAR0,#210             ; [CPU_ALU] |276| 
    5594 000003ba E802          MOVIZ     R0H,#16672            ; [CPU_FPU] |276| 
         000003bb 0900 
    5595 000003bc E80B          MOVXI     R0H,#28135            ; [CPU_FPU] |276| 
         000003bd 6F38 
    5596 000003be E203          MOV32     *+XAR4[AR0],R0H       ; [CPU_FPU] |276| 
         000003bf 0094 
    5597                      .dwpsn  file "../bts.c",line 277,column 5,is_stmt,isa 0
    5598 000003c0 D0D4          MOVB      XAR0,#212             ; [CPU_ALU] |277| 
    5599 000003c1 E805          MOVIZ     R0H,#45856            ; [CPU_FPU] |277| 
         000003c2 9900 
    5600 000003c3 E80B          MOVXI     R0H,#28135            ; [CPU_FPU] |277| 
         000003c4 6F38 
    5601 000003c5 E203          MOV32     *+XAR4[AR0],R0H       ; [CPU_FPU] |277| 
         000003c6 0094 
    5602                      .dwpsn  file "../bts.c",line 279,column 5,is_stmt,isa 0
    5603 000003c7 D0D6          MOVB      XAR0,#214             ; [CPU_ALU] |279| 
    5604 000003c8 E801          MOVIZ     R0H,#15951            ; [CPU_FPU] |279| 
         000003c9 F278 
    5605 000003ca E809          MOVXI     R0H,#11968            ; [CPU_FPU] |279| 
         000003cb 7600 
    5606 000003cc E203          MOV32     *+XAR4[AR0],R0H       ; [CPU_FPU] |279| 
         000003cd 0094 
    5607                      .dwpsn  file "../bts.c",line 281,column 5,is_stmt,isa 0
    5608 000003ce D0DA          MOVB      XAR0,#218             ; [CPU_ALU] |281| 
    5609 000003cf E802          MOVIZ     R0H,#16542            ; [CPU_FPU] |281| 
         000003d0 04F0 
    5610 000003d1 E809          MOVXI     R0H,#10485            ; [CPU_FPU] |281| 
         000003d2 47A8 
    5611 000003d3 E203          MOV32     *+XAR4[AR0],R0H       ; [CPU_FPU] |281| 
         000003d4 0094 
    5612                      .dwpsn  file "../bts.c",line 282,column 5,is_stmt,isa 0
    5613 000003d5 D0DC          MOVB      XAR0,#220             ; [CPU_ALU] |282| 
    5614 000003d6 E801          MOVIZ     R0H,#13214            ; [CPU_FPU] |282| 
         000003d7 9CF0 
    5615 000003d8 E809          MOVXI     R0H,#10485            ; [CPU_FPU] |282| 
         000003d9 47A8 
    5616 000003da E203          MOV32     *+XAR4[AR0],R0H       ; [CPU_FPU] |282| 
         000003db 0094 
    5617                      .dwpsn  file "../bts.c",line 292,column 5,is_stmt,isa 0
    5618 000003dc D0EE          MOVB      XAR0,#238             ; [CPU_ALU] |292| 
    5619 000003dd E801          MOVIZ     R0H,#15820            ; [CPU_FPU] |292| 
         000003de EE60 
    5620 000003df E80A          MOVXI     R0H,#16513            ; [CPU_FPU] |292| 
         000003e0 0408 
    5621 000003e1 E203          MOV32     *+XAR4[AR0],R0H       ; [CPU_FPU] |292| 
         000003e2 0094 
    5622                      .dwpsn  file "../bts.c",line 294,column 5,is_stmt,isa 0
    5623 000003e3 D0F2          MOVB      XAR0,#242             ; [CPU_ALU] |294| 
    5624 000003e4 E802          MOVIZ     R0H,#16672            ; [CPU_FPU] |294| 
         000003e5 0900 
TMS320C2000 Assembler PC v22.6.1 Tue Aug 13 19:46:08 2024

Copyright (c) 1996-2018 Texas Instruments Incorporated
bts.asm                                                              PAGE  117

    5625 000003e6 E80B          MOVXI     R0H,#28135            ; [CPU_FPU] |294| 
         000003e7 6F38 
    5626 000003e8 E203          MOV32     *+XAR4[AR0],R0H       ; [CPU_FPU] |294| 
         000003e9 0094 
    5627                      .dwpsn  file "../bts.c",line 295,column 5,is_stmt,isa 0
    5628 000003ea D0F4          MOVB      XAR0,#244             ; [CPU_ALU] |295| 
    5629 000003eb E805          MOVIZ     R0H,#45856            ; [CPU_FPU] |295| 
         000003ec 9900 
    5630 000003ed E80B          MOVXI     R0H,#28135            ; [CPU_FPU] |295| 
         000003ee 6F38 
    5631 000003ef E203          MOV32     *+XAR4[AR0],R0H       ; [CPU_FPU] |295| 
         000003f0 0094 
    5632                      .dwpsn  file "../bts.c",line 297,column 5,is_stmt,isa 0
    5633 000003f1 D0F6          MOVB      XAR0,#246             ; [CPU_ALU] |297| 
    5634 000003f2 E801          MOVIZ     R0H,#15951            ; [CPU_FPU] |297| 
         000003f3 F278 
    5635 000003f4 E809          MOVXI     R0H,#11968            ; [CPU_FPU] |297| 
         000003f5 7600 
    5636 000003f6 E203          MOV32     *+XAR4[AR0],R0H       ; [CPU_FPU] |297| 
         000003f7 0094 
    5637                      .dwpsn  file "../bts.c",line 299,column 5,is_stmt,isa 0
    5638 000003f8 D0FA          MOVB      XAR0,#250             ; [CPU_ALU] |299| 
    5639 000003f9 E802          MOVIZ     R0H,#16542            ; [CPU_FPU] |299| 
         000003fa 04F0 
    5640 000003fb E809          MOVXI     R0H,#10485            ; [CPU_FPU] |299| 
         000003fc 47A8 
    5641 000003fd E203          MOV32     *+XAR4[AR0],R0H       ; [CPU_FPU] |299| 
         000003fe 0094 
    5642                      .dwpsn  file "../bts.c",line 300,column 5,is_stmt,isa 0
    5643 000003ff D0FC          MOVB      XAR0,#252             ; [CPU_ALU] |300| 
    5644 00000400 E801          MOVIZ     R0H,#13214            ; [CPU_FPU] |300| 
         00000401 9CF0 
    5645 00000402 E809          MOVXI     R0H,#10485            ; [CPU_FPU] |300| 
         00000403 47A8 
    5646 00000404 E203          MOV32     *+XAR4[AR0],R0H       ; [CPU_FPU] |300| 
         00000405 0094 
    5647                      .dwpsn  file "../bts.c",line 287,column 5,is_stmt,isa 0
    5648 00000406 D0E0          MOVB      XAR0,#224             ; [CPU_ALU] |287| 
    5649 00000407 E801          MOVIZ     R0H,#16256            ; [CPU_FPU] |287| 
         00000408 FC00 
    5650 00000409 E203          MOV32     *+XAR4[AR0],R0H       ; [CPU_FPU] |287| 
         0000040a 0094 
    5651                      .dwpsn  file "../bts.c",line 164,column 5,is_stmt,isa 0
    5652 0000040b D01E          MOVB      XAR0,#30              ; [CPU_ALU] |164| 
    5653                      .dwpsn  file "../bts.c",line 288,column 5,is_stmt,isa 0
    5654 0000040c E802          MOVIZ     R0H,#16492            ; [CPU_FPU] |288| 
         0000040d 0360 
    5655                      .dwpsn  file "../bts.c",line 164,column 5,is_stmt,isa 0
    5656 0000040e 2B94          MOV       *+XAR4[AR0],#0        ; [CPU_ALU] |164| 
    5657                      .dwpsn  file "../bts.c",line 182,column 5,is_stmt,isa 0
    5658 0000040f D03E          MOVB      XAR0,#62              ; [CPU_ALU] |182| 
    5659 00000410 2B94          MOV       *+XAR4[AR0],#0        ; [CPU_ALU] |182| 
    5660                      .dwpsn  file "../bts.c",line 200,column 5,is_stmt,isa 0
    5661 00000411 D05E          MOVB      XAR0,#94              ; [CPU_ALU] |200| 
    5662                      .dwpsn  file "../bts.c",line 288,column 5,is_stmt,isa 0
TMS320C2000 Assembler PC v22.6.1 Tue Aug 13 19:46:08 2024

Copyright (c) 1996-2018 Texas Instruments Incorporated
bts.asm                                                              PAGE  118

    5663 00000412 E80E          MOVXI     R0H,#52429            ; [CPU_FPU] |288| 
         00000413 6668 
    5664                      .dwpsn  file "../bts.c",line 200,column 5,is_stmt,isa 0
    5665 00000414 2B94          MOV       *+XAR4[AR0],#0        ; [CPU_ALU] |200| 
    5666                      .dwpsn  file "../bts.c",line 218,column 5,is_stmt,isa 0
    5667 00000415 D07E          MOVB      XAR0,#126             ; [CPU_ALU] |218| 
    5668 00000416 2B94          MOV       *+XAR4[AR0],#0        ; [CPU_ALU] |218| 
    5669                      .dwpsn  file "../bts.c",line 236,column 5,is_stmt,isa 0
    5670 00000417 D09E          MOVB      XAR0,#158             ; [CPU_ALU] |236| 
    5671 00000418 2B94          MOV       *+XAR4[AR0],#0        ; [CPU_ALU] |236| 
    5672                      .dwpsn  file "../bts.c",line 254,column 5,is_stmt,isa 0
    5673 00000419 D0BE          MOVB      XAR0,#190             ; [CPU_ALU] |254| 
    5674 0000041a 2B94          MOV       *+XAR4[AR0],#0        ; [CPU_ALU] |254| 
    5675                      .dwpsn  file "../bts.c",line 272,column 5,is_stmt,isa 0
    5676 0000041b D0DE          MOVB      XAR0,#222             ; [CPU_ALU] |272| 
    5677 0000041c 2B94          MOV       *+XAR4[AR0],#0        ; [CPU_ALU] |272| 
    5678                      .dwpsn  file "../bts.c",line 290,column 5,is_stmt,isa 0
    5679 0000041d D0FE          MOVB      XAR0,#254             ; [CPU_ALU] |290| 
    5680 0000041e 2B94          MOV       *+XAR4[AR0],#0        ; [CPU_ALU] |290| 
    5681                      .dwpsn  file "../bts.c",line 289,column 5,is_stmt,isa 0
    5682 0000041f D0E4          MOVB      XAR0,#228             ; [CPU_ALU] |289| 
    5683                      .dwpsn  file "../bts.c",line 288,column 5,is_stmt,isa 0
    5684 00000420 E203          MOV32     *+XAR4[AR1],R0H       ; [CPU_FPU] |288| 
         00000421 009C 
    5685                      .dwpsn  file "../bts.c",line 289,column 5,is_stmt,isa 0
    5686 00000422 E203          MOV32     *+XAR4[AR0],R1H       ; [CPU_FPU] |289| 
         00000423 0194 
    5687 00000424 8BBE          MOVL      XAR1,*--SP            ; [CPU_ALU] 
    5688                      .dwcfi  cfa_offset, -2
    5689                      .dwcfi  restore_reg, 7
    5690              $C$DW$282       .dwtag  DW_TAG_TI_branch
    5691                      .dwattr $C$DW$282, DW_AT_low_pc(0x00)
    5692                      .dwattr $C$DW$282, DW_AT_TI_return
    5693              
    5694 00000425 0006          LRETR     ; [CPU_ALU] 
    5695                      ; return occurs ; [] 
    5696                      .dwattr $C$DW$281, DW_AT_TI_end_file("../bts.c")
    5697                      .dwattr $C$DW$281, DW_AT_TI_end_line(0x12e)
    5698                      .dwattr $C$DW$281, DW_AT_TI_end_column(0x01)
    5699                      .dwendentry
    5700                      .dwendtag $C$DW$281
    5701              
    5702 00000426               .sect   ".text"
    5703                      .clink
    5704                      .global ||BTS_initProgramVariables||
    5705              
    5706              $C$DW$283       .dwtag  DW_TAG_subprogram
    5707                      .dwattr $C$DW$283, DW_AT_name("BTS_initProgramVariables")
    5708                      .dwattr $C$DW$283, DW_AT_low_pc(||BTS_initProgramVariables||)
    5709                      .dwattr $C$DW$283, DW_AT_high_pc(0x00)
    5710                      .dwattr $C$DW$283, DW_AT_linkage_name("BTS_initProgramVariables")
    5711                      .dwattr $C$DW$283, DW_AT_external
    5712                      .dwattr $C$DW$283, DW_AT_decl_file("../bts.c")
    5713                      .dwattr $C$DW$283, DW_AT_decl_line(0x13d)
    5714                      .dwattr $C$DW$283, DW_AT_decl_column(0x06)
TMS320C2000 Assembler PC v22.6.1 Tue Aug 13 19:46:08 2024

Copyright (c) 1996-2018 Texas Instruments Incorporated
bts.asm                                                              PAGE  119

    5715                      .dwattr $C$DW$283, DW_AT_TI_max_frame_size(-4)
    5716                      .dwpsn  file "../bts.c",line 318,column 1,is_stmt,address ||BTS_initProgramVariables||,isa 0
    5717              
    5718                      .dwfde $C$DW$CIE, ||BTS_initProgramVariables||
    5719              
    5720              ;***************************************************************
    5721              ;* FNAME: BTS_initProgramVariables      FR SIZE:   2           *
    5722              ;*                                                             *
    5723              ;* FUNCTION ENVIRONMENT                                        *
    5724              ;*                                                             *
    5725              ;* FUNCTION PROPERTIES                                         *
    5726              ;*                            0 Parameter,  0 Auto,  2 SOE     *
    5727              ;***************************************************************
    5728              
    5729              ||BTS_initProgramVariables||:
    5730              ;* AR1   assigned to i
    5731              $C$DW$284       .dwtag  DW_TAG_variable
    5732                      .dwattr $C$DW$284, DW_AT_name("i")
    5733                      .dwattr $C$DW$284, DW_AT_type(*$C$DW$T$26)
    5734                      .dwattr $C$DW$284, DW_AT_location[DW_OP_reg6]
    5735              
    5736                      .dwcfi  cfa_offset, -2
    5737                      .dwcfi  save_reg_to_mem, 26, 0
    5738 00000426 B2BD          MOVL      *SP++,XAR1            ; [CPU_ALU] 
    5739                      .dwcfi  save_reg_to_mem, 7, 2
    5740                      .dwcfi  cfa_offset, -4
    5741                      .dwpsn  file "../bts.c",line 321,column 10,is_stmt,isa 0
    5742 00000427 D100          MOVB      XAR1,#0               ; [CPU_ALU] |321| 
    5743 00000428       ||$C$L43||:    
    5744 00000428 92A1          MOV       AL,AR1                ; [CPU_ALU] 
    5745                      .dwpsn  file "../bts.c",line 323,column 9,is_stmt,isa 0
    5746              $C$DW$285       .dwtag  DW_TAG_TI_branch
    5747                      .dwattr $C$DW$285, DW_AT_low_pc(0x00)
    5748                      .dwattr $C$DW$285, DW_AT_name("BTS_calcUserProgramVariables")
    5749                      .dwattr $C$DW$285, DW_AT_TI_call
    5750              
    5751 00000429 7640!         LCR       #||BTS_calcUserProgramVariables|| ; [CPU_ALU] |323| 
         0000042a 0000 
    5752                      ; call occurs [#||BTS_calcUserProgramVariables||] ; [] |323| 
    5753                      .dwpsn  file "../bts.c",line 321,column 14,is_stmt,isa 0
    5754 0000042b D901          ADDB      XAR1,#1               ; [CPU_ALU] |321| 
    5755 0000042c 92A1          MOV       AL,AR1                ; [CPU_ALU] |321| 
    5756 0000042d 5208          CMPB      AL,#8                 ; [CPU_ALU] |321| 
    5757 0000042e 68FA          B         ||$C$L43||,LO         ; [CPU_ALU] |321| 
    5758                      ; branchcc occurs ; [] |321| 
    5759 0000042f 8BBE          MOVL      XAR1,*--SP            ; [CPU_ALU] 
    5760                      .dwcfi  cfa_offset, -2
    5761                      .dwcfi  restore_reg, 7
    5762              $C$DW$286       .dwtag  DW_TAG_TI_branch
    5763                      .dwattr $C$DW$286, DW_AT_low_pc(0x00)
    5764                      .dwattr $C$DW$286, DW_AT_TI_return
    5765              
    5766 00000430 0006          LRETR     ; [CPU_ALU] 
    5767                      ; return occurs ; [] 
    5768                      .dwattr $C$DW$283, DW_AT_TI_end_file("../bts.c")
TMS320C2000 Assembler PC v22.6.1 Tue Aug 13 19:46:08 2024

Copyright (c) 1996-2018 Texas Instruments Incorporated
bts.asm                                                              PAGE  120

    5769                      .dwattr $C$DW$283, DW_AT_TI_end_line(0x145)
    5770                      .dwattr $C$DW$283, DW_AT_TI_end_column(0x01)
    5771                      .dwendentry
    5772                      .dwendtag $C$DW$283
    5773              
    5774 00000431               .sect   ".text"
    5775                      .clink
    5776                      .global ||BTS_initController||
    5777              
    5778              $C$DW$287       .dwtag  DW_TAG_subprogram
    5779                      .dwattr $C$DW$287, DW_AT_name("BTS_initController")
    5780                      .dwattr $C$DW$287, DW_AT_low_pc(||BTS_initController||)
    5781                      .dwattr $C$DW$287, DW_AT_high_pc(0x00)
    5782                      .dwattr $C$DW$287, DW_AT_linkage_name("BTS_initController")
    5783                      .dwattr $C$DW$287, DW_AT_external
    5784                      .dwattr $C$DW$287, DW_AT_decl_file("../bts.c")
    5785                      .dwattr $C$DW$287, DW_AT_decl_line(0x1a4)
    5786                      .dwattr $C$DW$287, DW_AT_decl_column(0x06)
    5787                      .dwattr $C$DW$287, DW_AT_TI_max_frame_size(-4)
    5788                      .dwpsn  file "../bts.c",line 421,column 1,is_stmt,address ||BTS_initController||,isa 0
    5789              
    5790                      .dwfde $C$DW$CIE, ||BTS_initController||
    5791              
    5792              ;***************************************************************
    5793              ;* FNAME: BTS_initController            FR SIZE:   2           *
    5794              ;*                                                             *
    5795              ;* FUNCTION ENVIRONMENT                                        *
    5796              ;*                                                             *
    5797              ;* FUNCTION PROPERTIES                                         *
    5798              ;*                            0 Parameter,  0 Auto,  2 SOE     *
    5799              ;***************************************************************
    5800              
    5801 00000431       ||BTS_initController||:
    5802              ;* AR5   assigned to $O$C1
    5803              ;* AR4   assigned to $O$C2
    5804                      .dwcfi  cfa_offset, -2
    5805                      .dwcfi  save_reg_to_mem, 26, 0
    5806                      .dwpsn  file "../bts.c",line 425,column 5,is_stmt,isa 0
    5807 00000431 E801          MOVIZ     R2H,#15623            ; [CPU_FPU] |425| 
         00000432 E83A 
    5808                      .dwpsn  file "../bts.c",line 426,column 5,is_stmt,isa 0
    5809 00000433 E805          MOVIZ     R1H,#48511            ; [CPU_FPU] |426| 
         00000434 EBF9 
    5810                      .dwpsn  file "../bts.c",line 427,column 5,is_stmt,isa 0
    5811 00000435 E801          MOVIZ     R0H,#15600            ; [CPU_FPU] |427| 
         00000436 E780 
    5812 00000437 B2BD          MOVL      *SP++,XAR1            ; [CPU_ALU] 
    5813                      .dwcfi  save_reg_to_mem, 7, 2
    5814                      .dwcfi  cfa_offset, -4
    5815                      .dwpsn  file "../bts.c",line 425,column 5,is_stmt,isa 0
    5816 00000438 8F00!         MOVL      XAR4,#||BTS_ctrl_cc|| ; [CPU_ARAU] |425| 
         00000439 0000 
    5817 0000043a E80C          MOVXI     R2H,#38256            ; [CPU_FPU] |425| 
         0000043b AB82 
    5818                      .dwpsn  file "../bts.c",line 426,column 5,is_stmt,isa 0
TMS320C2000 Assembler PC v22.6.1 Tue Aug 13 19:46:08 2024

Copyright (c) 1996-2018 Texas Instruments Incorporated
bts.asm                                                              PAGE  121

    5819 0000043c E80B          MOVXI     R1H,#32169            ; [CPU_FPU] |426| 
         0000043d ED49 
    5820                      .dwpsn  file "../bts.c",line 429,column 5,is_stmt,isa 0
    5821 0000043e D008          MOVB      XAR0,#8               ; [CPU_ALU] |429| 
    5822                      .dwpsn  file "../bts.c",line 427,column 5,is_stmt,isa 0
    5823 0000043f E80A          MOVXI     R0H,#21649            ; [CPU_FPU] |427| 
         00000440 A488 
    5824                      .dwpsn  file "../bts.c",line 431,column 5,is_stmt,isa 0
    5825 00000441 8F40!         MOVL      XAR5,#||BTS_ctrl_cv|| ; [CPU_ARAU] |431| 
         00000442 0000 
    5826                      .dwpsn  file "../bts.c",line 425,column 5,is_stmt,isa 0
    5827 00000443 E203          MOV32     *+XAR4[0],R2H         ; [CPU_FPU] |425| 
         00000444 02C4 
    5828                      .dwpsn  file "../bts.c",line 428,column 5,is_stmt,isa 0
    5829 00000445 E805          MOVIZ     R2H,#49146            ; [CPU_FPU] |428| 
         00000446 FFD2 
    5830                      .dwpsn  file "../bts.c",line 435,column 5,is_stmt,isa 0
    5831 00000447 D108          MOVB      XAR1,#8               ; [CPU_ALU] |435| 
    5832                      .dwpsn  file "../bts.c",line 426,column 5,is_stmt,isa 0
    5833 00000448 E203          MOV32     *+XAR4[2],R1H         ; [CPU_FPU] |426| 
         00000449 01D4 
    5834                      .dwpsn  file "../bts.c",line 536,column 5,is_stmt,isa 0
    5835 0000044a E801          MOVIZ     R3H,#15600            ; [CPU_FPU] |536| 
         0000044b E783 
    5836                      .dwpsn  file "../bts.c",line 428,column 5,is_stmt,isa 0
    5837 0000044c E80F          MOVXI     R2H,#62539            ; [CPU_FPU] |428| 
         0000044d A25A 
    5838                      .dwpsn  file "../bts.c",line 429,column 5,is_stmt,isa 0
    5839 0000044e E801          MOVIZ     R1H,#16245            ; [CPU_FPU] |429| 
         0000044f FBA9 
    5840                      .dwpsn  file "../bts.c",line 427,column 5,is_stmt,isa 0
    5841 00000450 E203          MOV32     *+XAR4[4],R0H         ; [CPU_FPU] |427| 
         00000451 00E4 
    5842                      .dwpsn  file "../bts.c",line 429,column 5,is_stmt,isa 0
    5843 00000452 E80F          MOVXI     R1H,#59542            ; [CPU_FPU] |429| 
         00000453 44B1 
    5844                      .dwpsn  file "../bts.c",line 431,column 5,is_stmt,isa 0
    5845 00000454 E802          MOVIZ     R0H,#16640            ; [CPU_FPU] |431| 
         00000455 0800 
    5846                      .dwpsn  file "../bts.c",line 428,column 5,is_stmt,isa 0
    5847 00000456 E203          MOV32     *+XAR4[6],R2H         ; [CPU_FPU] |428| 
         00000457 02F4 
    5848                      .dwpsn  file "../bts.c",line 431,column 5,is_stmt,isa 0
    5849 00000458 E80C          MOVXI     R0H,#39581            ; [CPU_FPU] |431| 
         00000459 D4E8 
    5850                      .dwpsn  file "../bts.c",line 432,column 5,is_stmt,isa 0
    5851 0000045a E806          MOVIZ     R2H,#49491            ; [CPU_FPU] |432| 
         0000045b 0A9A 
    5852 0000045c E80C          MOVXI     R2H,#38693            ; [CPU_FPU] |432| 
         0000045d B92A 
    5853                      .dwpsn  file "../bts.c",line 429,column 5,is_stmt,isa 0
    5854 0000045e E203          MOV32     *+XAR4[AR0],R1H       ; [CPU_FPU] |429| 
         0000045f 0194 
    5855                      .dwpsn  file "../bts.c",line 433,column 5,is_stmt,isa 0
    5856 00000460 E802          MOVIZ     R1H,#16551            ; [CPU_FPU] |433| 
TMS320C2000 Assembler PC v22.6.1 Tue Aug 13 19:46:08 2024

Copyright (c) 1996-2018 Texas Instruments Incorporated
bts.asm                                                              PAGE  122

         00000461 0539 
    5857 00000462 E80D          MOVXI     R1H,#45032            ; [CPU_FPU] |433| 
         00000463 7F41 
    5858                      .dwpsn  file "../bts.c",line 440,column 5,is_stmt,isa 0
    5859 00000464 D012          MOVB      XAR0,#18              ; [CPU_ALU] |440| 
    5860                      .dwpsn  file "../bts.c",line 431,column 5,is_stmt,isa 0
    5861 00000465 E203          MOV32     *+XAR5[0],R0H         ; [CPU_FPU] |431| 
         00000466 00C5 
    5862                      .dwpsn  file "../bts.c",line 434,column 5,is_stmt,isa 0
    5863 00000467 E805          MOVIZ     R0H,#49109            ; [CPU_FPU] |434| 
         00000468 FEA8 
    5864 00000469 E809          MOVXI     R0H,#9484             ; [CPU_FPU] |434| 
         0000046a 2860 
    5865                      .dwpsn  file "../bts.c",line 432,column 5,is_stmt,isa 0
    5866 0000046b E203          MOV32     *+XAR5[2],R2H         ; [CPU_FPU] |432| 
         0000046c 02D5 
    5867                      .dwpsn  file "../bts.c",line 435,column 5,is_stmt,isa 0
    5868 0000046d E801          MOVIZ     R2H,#16170            ; [CPU_FPU] |435| 
         0000046e F952 
    5869 0000046f E80A          MOVXI     R2H,#18968            ; [CPU_FPU] |435| 
         00000470 50C2 
    5870                      .dwpsn  file "../bts.c",line 433,column 5,is_stmt,isa 0
    5871 00000471 E203          MOV32     *+XAR5[4],R1H         ; [CPU_FPU] |433| 
         00000472 01E5 
    5872                      .dwpsn  file "../bts.c",line 440,column 5,is_stmt,isa 0
    5873 00000473 E801          MOVIZ     R1H,#15623            ; [CPU_FPU] |440| 
         00000474 E839 
    5874 00000475 E80C          MOVXI     R1H,#38256            ; [CPU_FPU] |440| 
         00000476 AB81 
    5875                      .dwpsn  file "../bts.c",line 434,column 5,is_stmt,isa 0
    5876 00000477 E203          MOV32     *+XAR5[6],R0H         ; [CPU_FPU] |434| 
         00000478 00F5 
    5877                      .dwpsn  file "../bts.c",line 441,column 5,is_stmt,isa 0
    5878 00000479 E805          MOVIZ     R0H,#48511            ; [CPU_FPU] |441| 
         0000047a EBF8 
    5879 0000047b E80B          MOVXI     R0H,#32169            ; [CPU_FPU] |441| 
         0000047c ED48 
    5880                      .dwpsn  file "../bts.c",line 435,column 5,is_stmt,isa 0
    5881 0000047d E203          MOV32     *+XAR5[AR1],R2H       ; [CPU_FPU] |435| 
         0000047e 029D 
    5882                      .dwpsn  file "../bts.c",line 442,column 5,is_stmt,isa 0
    5883 0000047f E801          MOVIZ     R2H,#15600            ; [CPU_FPU] |442| 
         00000480 E782 
    5884                      .dwpsn  file "../bts.c",line 441,column 5,is_stmt,isa 0
    5885 00000481 D114          MOVB      XAR1,#20              ; [CPU_ALU] |441| 
    5886                      .dwpsn  file "../bts.c",line 442,column 5,is_stmt,isa 0
    5887 00000482 E80A          MOVXI     R2H,#21649            ; [CPU_FPU] |442| 
         00000483 A48A 
    5888                      .dwpsn  file "../bts.c",line 440,column 5,is_stmt,isa 0
    5889 00000484 E203          MOV32     *+XAR4[AR0],R1H       ; [CPU_FPU] |440| 
         00000485 0194 
    5890                      .dwpsn  file "../bts.c",line 443,column 5,is_stmt,isa 0
    5891 00000486 E805          MOVIZ     R1H,#49146            ; [CPU_FPU] |443| 
         00000487 FFD1 
    5892                      .dwpsn  file "../bts.c",line 442,column 5,is_stmt,isa 0
TMS320C2000 Assembler PC v22.6.1 Tue Aug 13 19:46:08 2024

Copyright (c) 1996-2018 Texas Instruments Incorporated
bts.asm                                                              PAGE  123

    5893 00000488 D016          MOVB      XAR0,#22              ; [CPU_ALU] |442| 
    5894                      .dwpsn  file "../bts.c",line 536,column 5,is_stmt,isa 0
    5895 00000489 E80A          MOVXI     R3H,#21649            ; [CPU_FPU] |536| 
         0000048a A48B 
    5896                      .dwpsn  file "../bts.c",line 443,column 5,is_stmt,isa 0
    5897 0000048b E80F          MOVXI     R1H,#62539            ; [CPU_FPU] |443| 
         0000048c A259 
    5898                      .dwpsn  file "../bts.c",line 441,column 5,is_stmt,isa 0
    5899 0000048d E203          MOV32     *+XAR4[AR1],R0H       ; [CPU_FPU] |441| 
         0000048e 009C 
    5900                      .dwpsn  file "../bts.c",line 444,column 5,is_stmt,isa 0
    5901 0000048f E801          MOVIZ     R0H,#16245            ; [CPU_FPU] |444| 
         00000490 FBA8 
    5902                      .dwpsn  file "../bts.c",line 443,column 5,is_stmt,isa 0
    5903 00000491 D118          MOVB      XAR1,#24              ; [CPU_ALU] |443| 
    5904                      .dwpsn  file "../bts.c",line 444,column 5,is_stmt,isa 0
    5905 00000492 E80F          MOVXI     R0H,#59542            ; [CPU_FPU] |444| 
         00000493 44B0 
    5906                      .dwpsn  file "../bts.c",line 442,column 5,is_stmt,isa 0
    5907 00000494 E203          MOV32     *+XAR4[AR0],R2H       ; [CPU_FPU] |442| 
         00000495 0294 
    5908                      .dwpsn  file "../bts.c",line 446,column 5,is_stmt,isa 0
    5909 00000496 E802          MOVIZ     R2H,#16640            ; [CPU_FPU] |446| 
         00000497 0802 
    5910                      .dwpsn  file "../bts.c",line 444,column 5,is_stmt,isa 0
    5911 00000498 D01A          MOVB      XAR0,#26              ; [CPU_ALU] |444| 
    5912                      .dwpsn  file "../bts.c",line 446,column 5,is_stmt,isa 0
    5913 00000499 E80C          MOVXI     R2H,#39581            ; [CPU_FPU] |446| 
         0000049a D4EA 
    5914                      .dwpsn  file "../bts.c",line 443,column 5,is_stmt,isa 0
    5915 0000049b E203          MOV32     *+XAR4[AR1],R1H       ; [CPU_FPU] |443| 
         0000049c 019C 
    5916                      .dwpsn  file "../bts.c",line 447,column 5,is_stmt,isa 0
    5917 0000049d E806          MOVIZ     R1H,#49491            ; [CPU_FPU] |447| 
         0000049e 0A99 
    5918                      .dwpsn  file "../bts.c",line 446,column 5,is_stmt,isa 0
    5919 0000049f D112          MOVB      XAR1,#18              ; [CPU_ALU] |446| 
    5920                      .dwpsn  file "../bts.c",line 447,column 5,is_stmt,isa 0
    5921 000004a0 E80C          MOVXI     R1H,#38693            ; [CPU_FPU] |447| 
         000004a1 B929 
    5922                      .dwpsn  file "../bts.c",line 444,column 5,is_stmt,isa 0
    5923 000004a2 E203          MOV32     *+XAR4[AR0],R0H       ; [CPU_FPU] |444| 
         000004a3 0094 
    5924                      .dwpsn  file "../bts.c",line 448,column 5,is_stmt,isa 0
    5925 000004a4 E802          MOVIZ     R0H,#16551            ; [CPU_FPU] |448| 
         000004a5 0538 
    5926                      .dwpsn  file "../bts.c",line 447,column 5,is_stmt,isa 0
    5927 000004a6 D014          MOVB      XAR0,#20              ; [CPU_ALU] |447| 
    5928                      .dwpsn  file "../bts.c",line 448,column 5,is_stmt,isa 0
    5929 000004a7 E80D          MOVXI     R0H,#45032            ; [CPU_FPU] |448| 
         000004a8 7F40 
    5930                      .dwpsn  file "../bts.c",line 446,column 5,is_stmt,isa 0
    5931 000004a9 E203          MOV32     *+XAR5[AR1],R2H       ; [CPU_FPU] |446| 
         000004aa 029D 
    5932                      .dwpsn  file "../bts.c",line 449,column 5,is_stmt,isa 0
TMS320C2000 Assembler PC v22.6.1 Tue Aug 13 19:46:08 2024

Copyright (c) 1996-2018 Texas Instruments Incorporated
bts.asm                                                              PAGE  124

    5933 000004ab E805          MOVIZ     R2H,#49109            ; [CPU_FPU] |449| 
         000004ac FEAA 
    5934                      .dwpsn  file "../bts.c",line 448,column 5,is_stmt,isa 0
    5935 000004ad D116          MOVB      XAR1,#22              ; [CPU_ALU] |448| 
    5936                      .dwpsn  file "../bts.c",line 449,column 5,is_stmt,isa 0
    5937 000004ae E809          MOVXI     R2H,#9484             ; [CPU_FPU] |449| 
         000004af 2862 
    5938                      .dwpsn  file "../bts.c",line 447,column 5,is_stmt,isa 0
    5939 000004b0 E203          MOV32     *+XAR5[AR0],R1H       ; [CPU_FPU] |447| 
         000004b1 0195 
    5940                      .dwpsn  file "../bts.c",line 450,column 5,is_stmt,isa 0
    5941 000004b2 E801          MOVIZ     R1H,#16170            ; [CPU_FPU] |450| 
         000004b3 F951 
    5942                      .dwpsn  file "../bts.c",line 449,column 5,is_stmt,isa 0
    5943 000004b4 D018          MOVB      XAR0,#24              ; [CPU_ALU] |449| 
    5944                      .dwpsn  file "../bts.c",line 450,column 5,is_stmt,isa 0
    5945 000004b5 E80A          MOVXI     R1H,#18968            ; [CPU_FPU] |450| 
         000004b6 50C1 
    5946                      .dwpsn  file "../bts.c",line 448,column 5,is_stmt,isa 0
    5947 000004b7 E203          MOV32     *+XAR5[AR1],R0H       ; [CPU_FPU] |448| 
         000004b8 009D 
    5948                      .dwpsn  file "../bts.c",line 456,column 5,is_stmt,isa 0
    5949 000004b9 E801          MOVIZ     R0H,#15623            ; [CPU_FPU] |456| 
         000004ba E838 
    5950                      .dwpsn  file "../bts.c",line 450,column 5,is_stmt,isa 0
    5951 000004bb D11A          MOVB      XAR1,#26              ; [CPU_ALU] |450| 
    5952                      .dwpsn  file "../bts.c",line 456,column 5,is_stmt,isa 0
    5953 000004bc E80C          MOVXI     R0H,#38256            ; [CPU_FPU] |456| 
         000004bd AB80 
    5954                      .dwpsn  file "../bts.c",line 449,column 5,is_stmt,isa 0
    5955 000004be E203          MOV32     *+XAR5[AR0],R2H       ; [CPU_FPU] |449| 
         000004bf 0295 
    5956                      .dwpsn  file "../bts.c",line 457,column 5,is_stmt,isa 0
    5957 000004c0 E805          MOVIZ     R2H,#48511            ; [CPU_FPU] |457| 
         000004c1 EBFA 
    5958                      .dwpsn  file "../bts.c",line 456,column 5,is_stmt,isa 0
    5959 000004c2 D024          MOVB      XAR0,#36              ; [CPU_ALU] |456| 
    5960                      .dwpsn  file "../bts.c",line 457,column 5,is_stmt,isa 0
    5961 000004c3 E80B          MOVXI     R2H,#32169            ; [CPU_FPU] |457| 
         000004c4 ED4A 
    5962                      .dwpsn  file "../bts.c",line 450,column 5,is_stmt,isa 0
    5963 000004c5 E203          MOV32     *+XAR5[AR1],R1H       ; [CPU_FPU] |450| 
         000004c6 019D 
    5964                      .dwpsn  file "../bts.c",line 458,column 5,is_stmt,isa 0
    5965 000004c7 E801          MOVIZ     R1H,#15600            ; [CPU_FPU] |458| 
         000004c8 E781 
    5966                      .dwpsn  file "../bts.c",line 457,column 5,is_stmt,isa 0
    5967 000004c9 D126          MOVB      XAR1,#38              ; [CPU_ALU] |457| 
    5968                      .dwpsn  file "../bts.c",line 458,column 5,is_stmt,isa 0
    5969 000004ca E80A          MOVXI     R1H,#21649            ; [CPU_FPU] |458| 
         000004cb A489 
    5970                      .dwpsn  file "../bts.c",line 456,column 5,is_stmt,isa 0
    5971 000004cc E203          MOV32     *+XAR4[AR0],R0H       ; [CPU_FPU] |456| 
         000004cd 0094 
    5972                      .dwpsn  file "../bts.c",line 459,column 5,is_stmt,isa 0
TMS320C2000 Assembler PC v22.6.1 Tue Aug 13 19:46:08 2024

Copyright (c) 1996-2018 Texas Instruments Incorporated
bts.asm                                                              PAGE  125

    5973 000004ce E805          MOVIZ     R0H,#49146            ; [CPU_FPU] |459| 
         000004cf FFD0 
    5974                      .dwpsn  file "../bts.c",line 458,column 5,is_stmt,isa 0
    5975 000004d0 D028          MOVB      XAR0,#40              ; [CPU_ALU] |458| 
    5976                      .dwpsn  file "../bts.c",line 459,column 5,is_stmt,isa 0
    5977 000004d1 E80F          MOVXI     R0H,#62539            ; [CPU_FPU] |459| 
         000004d2 A258 
    5978                      .dwpsn  file "../bts.c",line 457,column 5,is_stmt,isa 0
    5979 000004d3 E203          MOV32     *+XAR4[AR1],R2H       ; [CPU_FPU] |457| 
         000004d4 029C 
    5980                      .dwpsn  file "../bts.c",line 460,column 5,is_stmt,isa 0
    5981 000004d5 E801          MOVIZ     R2H,#16245            ; [CPU_FPU] |460| 
         000004d6 FBAA 
    5982                      .dwpsn  file "../bts.c",line 459,column 5,is_stmt,isa 0
    5983 000004d7 D12A          MOVB      XAR1,#42              ; [CPU_ALU] |459| 
    5984                      .dwpsn  file "../bts.c",line 460,column 5,is_stmt,isa 0
    5985 000004d8 E80F          MOVXI     R2H,#59542            ; [CPU_FPU] |460| 
         000004d9 44B2 
    5986                      .dwpsn  file "../bts.c",line 458,column 5,is_stmt,isa 0
    5987 000004da E203          MOV32     *+XAR4[AR0],R1H       ; [CPU_FPU] |458| 
         000004db 0194 
    5988                      .dwpsn  file "../bts.c",line 462,column 5,is_stmt,isa 0
    5989 000004dc E802          MOVIZ     R1H,#16640            ; [CPU_FPU] |462| 
         000004dd 0801 
    5990                      .dwpsn  file "../bts.c",line 460,column 5,is_stmt,isa 0
    5991 000004de D02C          MOVB      XAR0,#44              ; [CPU_ALU] |460| 
    5992                      .dwpsn  file "../bts.c",line 462,column 5,is_stmt,isa 0
    5993 000004df E80C          MOVXI     R1H,#39581            ; [CPU_FPU] |462| 
         000004e0 D4E9 
    5994                      .dwpsn  file "../bts.c",line 459,column 5,is_stmt,isa 0
    5995 000004e1 E203          MOV32     *+XAR4[AR1],R0H       ; [CPU_FPU] |459| 
         000004e2 009C 
    5996                      .dwpsn  file "../bts.c",line 463,column 5,is_stmt,isa 0
    5997 000004e3 E806          MOVIZ     R0H,#49491            ; [CPU_FPU] |463| 
         000004e4 0A98 
    5998                      .dwpsn  file "../bts.c",line 462,column 5,is_stmt,isa 0
    5999 000004e5 D124          MOVB      XAR1,#36              ; [CPU_ALU] |462| 
    6000                      .dwpsn  file "../bts.c",line 463,column 5,is_stmt,isa 0
    6001 000004e6 E80C          MOVXI     R0H,#38693            ; [CPU_FPU] |463| 
         000004e7 B928 
    6002                      .dwpsn  file "../bts.c",line 460,column 5,is_stmt,isa 0
    6003 000004e8 E203          MOV32     *+XAR4[AR0],R2H       ; [CPU_FPU] |460| 
         000004e9 0294 
    6004                      .dwpsn  file "../bts.c",line 464,column 5,is_stmt,isa 0
    6005 000004ea E802          MOVIZ     R2H,#16551            ; [CPU_FPU] |464| 
         000004eb 053A 
    6006                      .dwpsn  file "../bts.c",line 463,column 5,is_stmt,isa 0
    6007 000004ec D026          MOVB      XAR0,#38              ; [CPU_ALU] |463| 
    6008                      .dwpsn  file "../bts.c",line 464,column 5,is_stmt,isa 0
    6009 000004ed E80D          MOVXI     R2H,#45032            ; [CPU_FPU] |464| 
         000004ee 7F42 
    6010                      .dwpsn  file "../bts.c",line 462,column 5,is_stmt,isa 0
    6011 000004ef E203          MOV32     *+XAR5[AR1],R1H       ; [CPU_FPU] |462| 
         000004f0 019D 
    6012                      .dwpsn  file "../bts.c",line 465,column 5,is_stmt,isa 0
TMS320C2000 Assembler PC v22.6.1 Tue Aug 13 19:46:08 2024

Copyright (c) 1996-2018 Texas Instruments Incorporated
bts.asm                                                              PAGE  126

    6013 000004f1 E805          MOVIZ     R1H,#49109            ; [CPU_FPU] |465| 
         000004f2 FEA9 
    6014                      .dwpsn  file "../bts.c",line 464,column 5,is_stmt,isa 0
    6015 000004f3 D128          MOVB      XAR1,#40              ; [CPU_ALU] |464| 
    6016                      .dwpsn  file "../bts.c",line 465,column 5,is_stmt,isa 0
    6017 000004f4 E809          MOVXI     R1H,#9484             ; [CPU_FPU] |465| 
         000004f5 2861 
    6018                      .dwpsn  file "../bts.c",line 463,column 5,is_stmt,isa 0
    6019 000004f6 E203          MOV32     *+XAR5[AR0],R0H       ; [CPU_FPU] |463| 
         000004f7 0095 
    6020                      .dwpsn  file "../bts.c",line 466,column 5,is_stmt,isa 0
    6021 000004f8 E801          MOVIZ     R0H,#16170            ; [CPU_FPU] |466| 
         000004f9 F950 
    6022                      .dwpsn  file "../bts.c",line 465,column 5,is_stmt,isa 0
    6023 000004fa D02A          MOVB      XAR0,#42              ; [CPU_ALU] |465| 
    6024                      .dwpsn  file "../bts.c",line 466,column 5,is_stmt,isa 0
    6025 000004fb E80A          MOVXI     R0H,#18968            ; [CPU_FPU] |466| 
         000004fc 50C0 
    6026                      .dwpsn  file "../bts.c",line 464,column 5,is_stmt,isa 0
    6027 000004fd E203          MOV32     *+XAR5[AR1],R2H       ; [CPU_FPU] |464| 
         000004fe 029D 
    6028                      .dwpsn  file "../bts.c",line 472,column 5,is_stmt,isa 0
    6029 000004ff E801          MOVIZ     R2H,#15623            ; [CPU_FPU] |472| 
         00000500 E83A 
    6030                      .dwpsn  file "../bts.c",line 466,column 5,is_stmt,isa 0
    6031 00000501 D12C          MOVB      XAR1,#44              ; [CPU_ALU] |466| 
    6032                      .dwpsn  file "../bts.c",line 472,column 5,is_stmt,isa 0
    6033 00000502 E80C          MOVXI     R2H,#38256            ; [CPU_FPU] |472| 
         00000503 AB82 
    6034                      .dwpsn  file "../bts.c",line 465,column 5,is_stmt,isa 0
    6035 00000504 E203          MOV32     *+XAR5[AR0],R1H       ; [CPU_FPU] |465| 
         00000505 0195 
    6036                      .dwpsn  file "../bts.c",line 473,column 5,is_stmt,isa 0
    6037 00000506 E805          MOVIZ     R1H,#48511            ; [CPU_FPU] |473| 
         00000507 EBF9 
    6038                      .dwpsn  file "../bts.c",line 472,column 5,is_stmt,isa 0
    6039 00000508 D036          MOVB      XAR0,#54              ; [CPU_ALU] |472| 
    6040                      .dwpsn  file "../bts.c",line 473,column 5,is_stmt,isa 0
    6041 00000509 E80B          MOVXI     R1H,#32169            ; [CPU_FPU] |473| 
         0000050a ED49 
    6042                      .dwpsn  file "../bts.c",line 466,column 5,is_stmt,isa 0
    6043 0000050b E203          MOV32     *+XAR5[AR1],R0H       ; [CPU_FPU] |466| 
         0000050c 009D 
    6044                      .dwpsn  file "../bts.c",line 474,column 5,is_stmt,isa 0
    6045 0000050d E801          MOVIZ     R0H,#15600            ; [CPU_FPU] |474| 
         0000050e E780 
    6046                      .dwpsn  file "../bts.c",line 473,column 5,is_stmt,isa 0
    6047 0000050f D138          MOVB      XAR1,#56              ; [CPU_ALU] |473| 
    6048                      .dwpsn  file "../bts.c",line 474,column 5,is_stmt,isa 0
    6049 00000510 E80A          MOVXI     R0H,#21649            ; [CPU_FPU] |474| 
         00000511 A488 
    6050                      .dwpsn  file "../bts.c",line 472,column 5,is_stmt,isa 0
    6051 00000512 E203          MOV32     *+XAR4[AR0],R2H       ; [CPU_FPU] |472| 
         00000513 0294 
    6052                      .dwpsn  file "../bts.c",line 475,column 5,is_stmt,isa 0
TMS320C2000 Assembler PC v22.6.1 Tue Aug 13 19:46:08 2024

Copyright (c) 1996-2018 Texas Instruments Incorporated
bts.asm                                                              PAGE  127

    6053 00000514 E805          MOVIZ     R2H,#49146            ; [CPU_FPU] |475| 
         00000515 FFD2 
    6054                      .dwpsn  file "../bts.c",line 474,column 5,is_stmt,isa 0
    6055 00000516 D03A          MOVB      XAR0,#58              ; [CPU_ALU] |474| 
    6056                      .dwpsn  file "../bts.c",line 475,column 5,is_stmt,isa 0
    6057 00000517 E80F          MOVXI     R2H,#62539            ; [CPU_FPU] |475| 
         00000518 A25A 
    6058                      .dwpsn  file "../bts.c",line 473,column 5,is_stmt,isa 0
    6059 00000519 E203          MOV32     *+XAR4[AR1],R1H       ; [CPU_FPU] |473| 
         0000051a 019C 
    6060                      .dwpsn  file "../bts.c",line 476,column 5,is_stmt,isa 0
    6061 0000051b E801          MOVIZ     R1H,#16245            ; [CPU_FPU] |476| 
         0000051c FBA9 
    6062                      .dwpsn  file "../bts.c",line 475,column 5,is_stmt,isa 0
    6063 0000051d D13C          MOVB      XAR1,#60              ; [CPU_ALU] |475| 
    6064                      .dwpsn  file "../bts.c",line 476,column 5,is_stmt,isa 0
    6065 0000051e E80F          MOVXI     R1H,#59542            ; [CPU_FPU] |476| 
         0000051f 44B1 
    6066                      .dwpsn  file "../bts.c",line 474,column 5,is_stmt,isa 0
    6067 00000520 E203          MOV32     *+XAR4[AR0],R0H       ; [CPU_FPU] |474| 
         00000521 0094 
    6068                      .dwpsn  file "../bts.c",line 478,column 5,is_stmt,isa 0
    6069 00000522 E802          MOVIZ     R0H,#16640            ; [CPU_FPU] |478| 
         00000523 0800 
    6070                      .dwpsn  file "../bts.c",line 476,column 5,is_stmt,isa 0
    6071 00000524 D03E          MOVB      XAR0,#62              ; [CPU_ALU] |476| 
    6072                      .dwpsn  file "../bts.c",line 478,column 5,is_stmt,isa 0
    6073 00000525 E80C          MOVXI     R0H,#39581            ; [CPU_FPU] |478| 
         00000526 D4E8 
    6074                      .dwpsn  file "../bts.c",line 475,column 5,is_stmt,isa 0
    6075 00000527 E203          MOV32     *+XAR4[AR1],R2H       ; [CPU_FPU] |475| 
         00000528 029C 
    6076                      .dwpsn  file "../bts.c",line 479,column 5,is_stmt,isa 0
    6077 00000529 E806          MOVIZ     R2H,#49491            ; [CPU_FPU] |479| 
         0000052a 0A9A 
    6078                      .dwpsn  file "../bts.c",line 478,column 5,is_stmt,isa 0
    6079 0000052b D136          MOVB      XAR1,#54              ; [CPU_ALU] |478| 
    6080                      .dwpsn  file "../bts.c",line 479,column 5,is_stmt,isa 0
    6081 0000052c E80C          MOVXI     R2H,#38693            ; [CPU_FPU] |479| 
         0000052d B92A 
    6082                      .dwpsn  file "../bts.c",line 476,column 5,is_stmt,isa 0
    6083 0000052e E203          MOV32     *+XAR4[AR0],R1H       ; [CPU_FPU] |476| 
         0000052f 0194 
    6084                      .dwpsn  file "../bts.c",line 480,column 5,is_stmt,isa 0
    6085 00000530 E802          MOVIZ     R1H,#16551            ; [CPU_FPU] |480| 
         00000531 0539 
    6086                      .dwpsn  file "../bts.c",line 479,column 5,is_stmt,isa 0
    6087 00000532 D038          MOVB      XAR0,#56              ; [CPU_ALU] |479| 
    6088                      .dwpsn  file "../bts.c",line 480,column 5,is_stmt,isa 0
    6089 00000533 E80D          MOVXI     R1H,#45032            ; [CPU_FPU] |480| 
         00000534 7F41 
    6090                      .dwpsn  file "../bts.c",line 478,column 5,is_stmt,isa 0
    6091 00000535 E203          MOV32     *+XAR5[AR1],R0H       ; [CPU_FPU] |478| 
         00000536 009D 
    6092                      .dwpsn  file "../bts.c",line 481,column 5,is_stmt,isa 0
TMS320C2000 Assembler PC v22.6.1 Tue Aug 13 19:46:08 2024

Copyright (c) 1996-2018 Texas Instruments Incorporated
bts.asm                                                              PAGE  128

    6093 00000537 E805          MOVIZ     R0H,#49109            ; [CPU_FPU] |481| 
         00000538 FEA8 
    6094                      .dwpsn  file "../bts.c",line 480,column 5,is_stmt,isa 0
    6095 00000539 D13A          MOVB      XAR1,#58              ; [CPU_ALU] |480| 
    6096                      .dwpsn  file "../bts.c",line 481,column 5,is_stmt,isa 0
    6097 0000053a E809          MOVXI     R0H,#9484             ; [CPU_FPU] |481| 
         0000053b 2860 
    6098                      .dwpsn  file "../bts.c",line 479,column 5,is_stmt,isa 0
    6099 0000053c E203          MOV32     *+XAR5[AR0],R2H       ; [CPU_FPU] |479| 
         0000053d 0295 
    6100                      .dwpsn  file "../bts.c",line 482,column 5,is_stmt,isa 0
    6101 0000053e E801          MOVIZ     R2H,#16170            ; [CPU_FPU] |482| 
         0000053f F952 
    6102                      .dwpsn  file "../bts.c",line 481,column 5,is_stmt,isa 0
    6103 00000540 D03C          MOVB      XAR0,#60              ; [CPU_ALU] |481| 
    6104                      .dwpsn  file "../bts.c",line 482,column 5,is_stmt,isa 0
    6105 00000541 E80A          MOVXI     R2H,#18968            ; [CPU_FPU] |482| 
         00000542 50C2 
    6106                      .dwpsn  file "../bts.c",line 480,column 5,is_stmt,isa 0
    6107 00000543 E203          MOV32     *+XAR5[AR1],R1H       ; [CPU_FPU] |480| 
         00000544 019D 
    6108                      .dwpsn  file "../bts.c",line 487,column 5,is_stmt,isa 0
    6109 00000545 E801          MOVIZ     R1H,#15623            ; [CPU_FPU] |487| 
         00000546 E839 
    6110                      .dwpsn  file "../bts.c",line 482,column 5,is_stmt,isa 0
    6111 00000547 D13E          MOVB      XAR1,#62              ; [CPU_ALU] |482| 
    6112                      .dwpsn  file "../bts.c",line 487,column 5,is_stmt,isa 0
    6113 00000548 E80C          MOVXI     R1H,#38256            ; [CPU_FPU] |487| 
         00000549 AB81 
    6114                      .dwpsn  file "../bts.c",line 481,column 5,is_stmt,isa 0
    6115 0000054a E203          MOV32     *+XAR5[AR0],R0H       ; [CPU_FPU] |481| 
         0000054b 0095 
    6116                      .dwpsn  file "../bts.c",line 488,column 5,is_stmt,isa 0
    6117 0000054c E805          MOVIZ     R0H,#48511            ; [CPU_FPU] |488| 
         0000054d EBF8 
    6118                      .dwpsn  file "../bts.c",line 487,column 5,is_stmt,isa 0
    6119 0000054e D048          MOVB      XAR0,#72              ; [CPU_ALU] |487| 
    6120                      .dwpsn  file "../bts.c",line 488,column 5,is_stmt,isa 0
    6121 0000054f E80B          MOVXI     R0H,#32169            ; [CPU_FPU] |488| 
         00000550 ED48 
    6122                      .dwpsn  file "../bts.c",line 482,column 5,is_stmt,isa 0
    6123 00000551 E203          MOV32     *+XAR5[AR1],R2H       ; [CPU_FPU] |482| 
         00000552 029D 
    6124                      .dwpsn  file "../bts.c",line 489,column 5,is_stmt,isa 0
    6125 00000553 E801          MOVIZ     R2H,#15600            ; [CPU_FPU] |489| 
         00000554 E782 
    6126                      .dwpsn  file "../bts.c",line 488,column 5,is_stmt,isa 0
    6127 00000555 D14A          MOVB      XAR1,#74              ; [CPU_ALU] |488| 
    6128                      .dwpsn  file "../bts.c",line 489,column 5,is_stmt,isa 0
    6129 00000556 E80A          MOVXI     R2H,#21649            ; [CPU_FPU] |489| 
         00000557 A48A 
    6130                      .dwpsn  file "../bts.c",line 487,column 5,is_stmt,isa 0
    6131 00000558 E203          MOV32     *+XAR4[AR0],R1H       ; [CPU_FPU] |487| 
         00000559 0194 
    6132                      .dwpsn  file "../bts.c",line 490,column 5,is_stmt,isa 0
TMS320C2000 Assembler PC v22.6.1 Tue Aug 13 19:46:08 2024

Copyright (c) 1996-2018 Texas Instruments Incorporated
bts.asm                                                              PAGE  129

    6133 0000055a E805          MOVIZ     R1H,#49146            ; [CPU_FPU] |490| 
         0000055b FFD1 
    6134                      .dwpsn  file "../bts.c",line 489,column 5,is_stmt,isa 0
    6135 0000055c D04C          MOVB      XAR0,#76              ; [CPU_ALU] |489| 
    6136                      .dwpsn  file "../bts.c",line 490,column 5,is_stmt,isa 0
    6137 0000055d E80F          MOVXI     R1H,#62539            ; [CPU_FPU] |490| 
         0000055e A259 
    6138                      .dwpsn  file "../bts.c",line 488,column 5,is_stmt,isa 0
    6139 0000055f E203          MOV32     *+XAR4[AR1],R0H       ; [CPU_FPU] |488| 
         00000560 009C 
    6140                      .dwpsn  file "../bts.c",line 491,column 5,is_stmt,isa 0
    6141 00000561 E801          MOVIZ     R0H,#16245            ; [CPU_FPU] |491| 
         00000562 FBA8 
    6142                      .dwpsn  file "../bts.c",line 490,column 5,is_stmt,isa 0
    6143 00000563 D14E          MOVB      XAR1,#78              ; [CPU_ALU] |490| 
    6144                      .dwpsn  file "../bts.c",line 491,column 5,is_stmt,isa 0
    6145 00000564 E80F          MOVXI     R0H,#59542            ; [CPU_FPU] |491| 
         00000565 44B0 
    6146                      .dwpsn  file "../bts.c",line 489,column 5,is_stmt,isa 0
    6147 00000566 E203          MOV32     *+XAR4[AR0],R2H       ; [CPU_FPU] |489| 
         00000567 0294 
    6148                      .dwpsn  file "../bts.c",line 493,column 5,is_stmt,isa 0
    6149 00000568 E802          MOVIZ     R2H,#16640            ; [CPU_FPU] |493| 
         00000569 0802 
    6150                      .dwpsn  file "../bts.c",line 491,column 5,is_stmt,isa 0
    6151 0000056a D050          MOVB      XAR0,#80              ; [CPU_ALU] |491| 
    6152                      .dwpsn  file "../bts.c",line 493,column 5,is_stmt,isa 0
    6153 0000056b E80C          MOVXI     R2H,#39581            ; [CPU_FPU] |493| 
         0000056c D4EA 
    6154                      .dwpsn  file "../bts.c",line 490,column 5,is_stmt,isa 0
    6155 0000056d E203          MOV32     *+XAR4[AR1],R1H       ; [CPU_FPU] |490| 
         0000056e 019C 
    6156                      .dwpsn  file "../bts.c",line 494,column 5,is_stmt,isa 0
    6157 0000056f E806          MOVIZ     R1H,#49491            ; [CPU_FPU] |494| 
         00000570 0A99 
    6158                      .dwpsn  file "../bts.c",line 493,column 5,is_stmt,isa 0
    6159 00000571 D148          MOVB      XAR1,#72              ; [CPU_ALU] |493| 
    6160                      .dwpsn  file "../bts.c",line 494,column 5,is_stmt,isa 0
    6161 00000572 E80C          MOVXI     R1H,#38693            ; [CPU_FPU] |494| 
         00000573 B929 
    6162                      .dwpsn  file "../bts.c",line 491,column 5,is_stmt,isa 0
    6163 00000574 E203          MOV32     *+XAR4[AR0],R0H       ; [CPU_FPU] |491| 
         00000575 0094 
    6164                      .dwpsn  file "../bts.c",line 495,column 5,is_stmt,isa 0
    6165 00000576 E802          MOVIZ     R0H,#16551            ; [CPU_FPU] |495| 
         00000577 0538 
    6166                      .dwpsn  file "../bts.c",line 494,column 5,is_stmt,isa 0
    6167 00000578 D04A          MOVB      XAR0,#74              ; [CPU_ALU] |494| 
    6168                      .dwpsn  file "../bts.c",line 495,column 5,is_stmt,isa 0
    6169 00000579 E80D          MOVXI     R0H,#45032            ; [CPU_FPU] |495| 
         0000057a 7F40 
    6170                      .dwpsn  file "../bts.c",line 493,column 5,is_stmt,isa 0
    6171 0000057b E203          MOV32     *+XAR5[AR1],R2H       ; [CPU_FPU] |493| 
         0000057c 029D 
    6172                      .dwpsn  file "../bts.c",line 496,column 5,is_stmt,isa 0
TMS320C2000 Assembler PC v22.6.1 Tue Aug 13 19:46:08 2024

Copyright (c) 1996-2018 Texas Instruments Incorporated
bts.asm                                                              PAGE  130

    6173 0000057d E805          MOVIZ     R2H,#49109            ; [CPU_FPU] |496| 
         0000057e FEAA 
    6174                      .dwpsn  file "../bts.c",line 495,column 5,is_stmt,isa 0
    6175 0000057f D14C          MOVB      XAR1,#76              ; [CPU_ALU] |495| 
    6176                      .dwpsn  file "../bts.c",line 496,column 5,is_stmt,isa 0
    6177 00000580 E809          MOVXI     R2H,#9484             ; [CPU_FPU] |496| 
         00000581 2862 
    6178                      .dwpsn  file "../bts.c",line 494,column 5,is_stmt,isa 0
    6179 00000582 E203          MOV32     *+XAR5[AR0],R1H       ; [CPU_FPU] |494| 
         00000583 0195 
    6180                      .dwpsn  file "../bts.c",line 497,column 5,is_stmt,isa 0
    6181 00000584 E801          MOVIZ     R1H,#16170            ; [CPU_FPU] |497| 
         00000585 F951 
    6182                      .dwpsn  file "../bts.c",line 496,column 5,is_stmt,isa 0
    6183 00000586 D04E          MOVB      XAR0,#78              ; [CPU_ALU] |496| 
    6184                      .dwpsn  file "../bts.c",line 497,column 5,is_stmt,isa 0
    6185 00000587 E80A          MOVXI     R1H,#18968            ; [CPU_FPU] |497| 
         00000588 50C1 
    6186                      .dwpsn  file "../bts.c",line 495,column 5,is_stmt,isa 0
    6187 00000589 E203          MOV32     *+XAR5[AR1],R0H       ; [CPU_FPU] |495| 
         0000058a 009D 
    6188                      .dwpsn  file "../bts.c",line 502,column 5,is_stmt,isa 0
    6189 0000058b E801          MOVIZ     R0H,#15623            ; [CPU_FPU] |502| 
         0000058c E838 
    6190                      .dwpsn  file "../bts.c",line 497,column 5,is_stmt,isa 0
    6191 0000058d D150          MOVB      XAR1,#80              ; [CPU_ALU] |497| 
    6192                      .dwpsn  file "../bts.c",line 502,column 5,is_stmt,isa 0
    6193 0000058e E80C          MOVXI     R0H,#38256            ; [CPU_FPU] |502| 
         0000058f AB80 
    6194                      .dwpsn  file "../bts.c",line 496,column 5,is_stmt,isa 0
    6195 00000590 E203          MOV32     *+XAR5[AR0],R2H       ; [CPU_FPU] |496| 
         00000591 0295 
    6196                      .dwpsn  file "../bts.c",line 503,column 5,is_stmt,isa 0
    6197 00000592 E805          MOVIZ     R2H,#48511            ; [CPU_FPU] |503| 
         00000593 EBFA 
    6198                      .dwpsn  file "../bts.c",line 502,column 5,is_stmt,isa 0
    6199 00000594 D05A          MOVB      XAR0,#90              ; [CPU_ALU] |502| 
    6200                      .dwpsn  file "../bts.c",line 503,column 5,is_stmt,isa 0
    6201 00000595 E80B          MOVXI     R2H,#32169            ; [CPU_FPU] |503| 
         00000596 ED4A 
    6202                      .dwpsn  file "../bts.c",line 497,column 5,is_stmt,isa 0
    6203 00000597 E203          MOV32     *+XAR5[AR1],R1H       ; [CPU_FPU] |497| 
         00000598 019D 
    6204                      .dwpsn  file "../bts.c",line 504,column 5,is_stmt,isa 0
    6205 00000599 E801          MOVIZ     R1H,#15600            ; [CPU_FPU] |504| 
         0000059a E781 
    6206                      .dwpsn  file "../bts.c",line 503,column 5,is_stmt,isa 0
    6207 0000059b D15C          MOVB      XAR1,#92              ; [CPU_ALU] |503| 
    6208                      .dwpsn  file "../bts.c",line 504,column 5,is_stmt,isa 0
    6209 0000059c E80A          MOVXI     R1H,#21649            ; [CPU_FPU] |504| 
         0000059d A489 
    6210                      .dwpsn  file "../bts.c",line 502,column 5,is_stmt,isa 0
    6211 0000059e E203          MOV32     *+XAR4[AR0],R0H       ; [CPU_FPU] |502| 
         0000059f 0094 
    6212                      .dwpsn  file "../bts.c",line 505,column 5,is_stmt,isa 0
TMS320C2000 Assembler PC v22.6.1 Tue Aug 13 19:46:08 2024

Copyright (c) 1996-2018 Texas Instruments Incorporated
bts.asm                                                              PAGE  131

    6213 000005a0 E805          MOVIZ     R0H,#49146            ; [CPU_FPU] |505| 
         000005a1 FFD0 
    6214                      .dwpsn  file "../bts.c",line 504,column 5,is_stmt,isa 0
    6215 000005a2 D05E          MOVB      XAR0,#94              ; [CPU_ALU] |504| 
    6216                      .dwpsn  file "../bts.c",line 505,column 5,is_stmt,isa 0
    6217 000005a3 E80F          MOVXI     R0H,#62539            ; [CPU_FPU] |505| 
         000005a4 A258 
    6218                      .dwpsn  file "../bts.c",line 503,column 5,is_stmt,isa 0
    6219 000005a5 E203          MOV32     *+XAR4[AR1],R2H       ; [CPU_FPU] |503| 
         000005a6 029C 
    6220                      .dwpsn  file "../bts.c",line 506,column 5,is_stmt,isa 0
    6221 000005a7 E801          MOVIZ     R2H,#16245            ; [CPU_FPU] |506| 
         000005a8 FBAA 
    6222                      .dwpsn  file "../bts.c",line 505,column 5,is_stmt,isa 0
    6223 000005a9 D160          MOVB      XAR1,#96              ; [CPU_ALU] |505| 
    6224                      .dwpsn  file "../bts.c",line 506,column 5,is_stmt,isa 0
    6225 000005aa E80F          MOVXI     R2H,#59542            ; [CPU_FPU] |506| 
         000005ab 44B2 
    6226                      .dwpsn  file "../bts.c",line 504,column 5,is_stmt,isa 0
    6227 000005ac E203          MOV32     *+XAR4[AR0],R1H       ; [CPU_FPU] |504| 
         000005ad 0194 
    6228                      .dwpsn  file "../bts.c",line 508,column 5,is_stmt,isa 0
    6229 000005ae E802          MOVIZ     R1H,#16640            ; [CPU_FPU] |508| 
         000005af 0801 
    6230                      .dwpsn  file "../bts.c",line 506,column 5,is_stmt,isa 0
    6231 000005b0 D062          MOVB      XAR0,#98              ; [CPU_ALU] |506| 
    6232                      .dwpsn  file "../bts.c",line 508,column 5,is_stmt,isa 0
    6233 000005b1 E80C          MOVXI     R1H,#39581            ; [CPU_FPU] |508| 
         000005b2 D4E9 
    6234                      .dwpsn  file "../bts.c",line 505,column 5,is_stmt,isa 0
    6235 000005b3 E203          MOV32     *+XAR4[AR1],R0H       ; [CPU_FPU] |505| 
         000005b4 009C 
    6236                      .dwpsn  file "../bts.c",line 509,column 5,is_stmt,isa 0
    6237 000005b5 E806          MOVIZ     R0H,#49491            ; [CPU_FPU] |509| 
         000005b6 0A98 
    6238                      .dwpsn  file "../bts.c",line 508,column 5,is_stmt,isa 0
    6239 000005b7 D15A          MOVB      XAR1,#90              ; [CPU_ALU] |508| 
    6240                      .dwpsn  file "../bts.c",line 509,column 5,is_stmt,isa 0
    6241 000005b8 E80C          MOVXI     R0H,#38693            ; [CPU_FPU] |509| 
         000005b9 B928 
    6242                      .dwpsn  file "../bts.c",line 506,column 5,is_stmt,isa 0
    6243 000005ba E203          MOV32     *+XAR4[AR0],R2H       ; [CPU_FPU] |506| 
         000005bb 0294 
    6244                      .dwpsn  file "../bts.c",line 510,column 5,is_stmt,isa 0
    6245 000005bc E802          MOVIZ     R2H,#16551            ; [CPU_FPU] |510| 
         000005bd 053A 
    6246                      .dwpsn  file "../bts.c",line 509,column 5,is_stmt,isa 0
    6247 000005be D05C          MOVB      XAR0,#92              ; [CPU_ALU] |509| 
    6248                      .dwpsn  file "../bts.c",line 510,column 5,is_stmt,isa 0
    6249 000005bf E80D          MOVXI     R2H,#45032            ; [CPU_FPU] |510| 
         000005c0 7F42 
    6250                      .dwpsn  file "../bts.c",line 508,column 5,is_stmt,isa 0
    6251 000005c1 E203          MOV32     *+XAR5[AR1],R1H       ; [CPU_FPU] |508| 
         000005c2 019D 
    6252                      .dwpsn  file "../bts.c",line 511,column 5,is_stmt,isa 0
TMS320C2000 Assembler PC v22.6.1 Tue Aug 13 19:46:08 2024

Copyright (c) 1996-2018 Texas Instruments Incorporated
bts.asm                                                              PAGE  132

    6253 000005c3 E805          MOVIZ     R1H,#49109            ; [CPU_FPU] |511| 
         000005c4 FEA9 
    6254                      .dwpsn  file "../bts.c",line 510,column 5,is_stmt,isa 0
    6255 000005c5 D15E          MOVB      XAR1,#94              ; [CPU_ALU] |510| 
    6256                      .dwpsn  file "../bts.c",line 511,column 5,is_stmt,isa 0
    6257 000005c6 E809          MOVXI     R1H,#9484             ; [CPU_FPU] |511| 
         000005c7 2861 
    6258                      .dwpsn  file "../bts.c",line 509,column 5,is_stmt,isa 0
    6259 000005c8 E203          MOV32     *+XAR5[AR0],R0H       ; [CPU_FPU] |509| 
         000005c9 0095 
    6260                      .dwpsn  file "../bts.c",line 512,column 5,is_stmt,isa 0
    6261 000005ca E801          MOVIZ     R0H,#16170            ; [CPU_FPU] |512| 
         000005cb F950 
    6262                      .dwpsn  file "../bts.c",line 511,column 5,is_stmt,isa 0
    6263 000005cc D060          MOVB      XAR0,#96              ; [CPU_ALU] |511| 
    6264                      .dwpsn  file "../bts.c",line 512,column 5,is_stmt,isa 0
    6265 000005cd E80A          MOVXI     R0H,#18968            ; [CPU_FPU] |512| 
         000005ce 50C0 
    6266                      .dwpsn  file "../bts.c",line 510,column 5,is_stmt,isa 0
    6267 000005cf E203          MOV32     *+XAR5[AR1],R2H       ; [CPU_FPU] |510| 
         000005d0 029D 
    6268                      .dwpsn  file "../bts.c",line 518,column 5,is_stmt,isa 0
    6269 000005d1 E801          MOVIZ     R2H,#15623            ; [CPU_FPU] |518| 
         000005d2 E83A 
    6270                      .dwpsn  file "../bts.c",line 512,column 5,is_stmt,isa 0
    6271 000005d3 D162          MOVB      XAR1,#98              ; [CPU_ALU] |512| 
    6272                      .dwpsn  file "../bts.c",line 518,column 5,is_stmt,isa 0
    6273 000005d4 E80C          MOVXI     R2H,#38256            ; [CPU_FPU] |518| 
         000005d5 AB82 
    6274                      .dwpsn  file "../bts.c",line 511,column 5,is_stmt,isa 0
    6275 000005d6 E203          MOV32     *+XAR5[AR0],R1H       ; [CPU_FPU] |511| 
         000005d7 0195 
    6276                      .dwpsn  file "../bts.c",line 519,column 5,is_stmt,isa 0
    6277 000005d8 E805          MOVIZ     R1H,#48511            ; [CPU_FPU] |519| 
         000005d9 EBF9 
    6278                      .dwpsn  file "../bts.c",line 518,column 5,is_stmt,isa 0
    6279 000005da D06C          MOVB      XAR0,#108             ; [CPU_ALU] |518| 
    6280                      .dwpsn  file "../bts.c",line 519,column 5,is_stmt,isa 0
    6281 000005db E80B          MOVXI     R1H,#32169            ; [CPU_FPU] |519| 
         000005dc ED49 
    6282                      .dwpsn  file "../bts.c",line 512,column 5,is_stmt,isa 0
    6283 000005dd E203          MOV32     *+XAR5[AR1],R0H       ; [CPU_FPU] |512| 
         000005de 009D 
    6284                      .dwpsn  file "../bts.c",line 520,column 5,is_stmt,isa 0
    6285 000005df E801          MOVIZ     R0H,#15600            ; [CPU_FPU] |520| 
         000005e0 E780 
    6286                      .dwpsn  file "../bts.c",line 519,column 5,is_stmt,isa 0
    6287 000005e1 D16E          MOVB      XAR1,#110             ; [CPU_ALU] |519| 
    6288                      .dwpsn  file "../bts.c",line 520,column 5,is_stmt,isa 0
    6289 000005e2 E80A          MOVXI     R0H,#21649            ; [CPU_FPU] |520| 
         000005e3 A488 
    6290                      .dwpsn  file "../bts.c",line 518,column 5,is_stmt,isa 0
    6291 000005e4 E203          MOV32     *+XAR4[AR0],R2H       ; [CPU_FPU] |518| 
         000005e5 0294 
    6292                      .dwpsn  file "../bts.c",line 521,column 5,is_stmt,isa 0
TMS320C2000 Assembler PC v22.6.1 Tue Aug 13 19:46:08 2024

Copyright (c) 1996-2018 Texas Instruments Incorporated
bts.asm                                                              PAGE  133

    6293 000005e6 E805          MOVIZ     R2H,#49146            ; [CPU_FPU] |521| 
         000005e7 FFD2 
    6294                      .dwpsn  file "../bts.c",line 520,column 5,is_stmt,isa 0
    6295 000005e8 D070          MOVB      XAR0,#112             ; [CPU_ALU] |520| 
    6296                      .dwpsn  file "../bts.c",line 521,column 5,is_stmt,isa 0
    6297 000005e9 E80F          MOVXI     R2H,#62539            ; [CPU_FPU] |521| 
         000005ea A25A 
    6298                      .dwpsn  file "../bts.c",line 519,column 5,is_stmt,isa 0
    6299 000005eb E203          MOV32     *+XAR4[AR1],R1H       ; [CPU_FPU] |519| 
         000005ec 019C 
    6300                      .dwpsn  file "../bts.c",line 522,column 5,is_stmt,isa 0
    6301 000005ed E801          MOVIZ     R1H,#16245            ; [CPU_FPU] |522| 
         000005ee FBA9 
    6302                      .dwpsn  file "../bts.c",line 521,column 5,is_stmt,isa 0
    6303 000005ef D172          MOVB      XAR1,#114             ; [CPU_ALU] |521| 
    6304                      .dwpsn  file "../bts.c",line 522,column 5,is_stmt,isa 0
    6305 000005f0 E80F          MOVXI     R1H,#59542            ; [CPU_FPU] |522| 
         000005f1 44B1 
    6306                      .dwpsn  file "../bts.c",line 520,column 5,is_stmt,isa 0
    6307 000005f2 E203          MOV32     *+XAR4[AR0],R0H       ; [CPU_FPU] |520| 
         000005f3 0094 
    6308                      .dwpsn  file "../bts.c",line 524,column 5,is_stmt,isa 0
    6309 000005f4 E802          MOVIZ     R0H,#16640            ; [CPU_FPU] |524| 
         000005f5 0800 
    6310                      .dwpsn  file "../bts.c",line 522,column 5,is_stmt,isa 0
    6311 000005f6 D074          MOVB      XAR0,#116             ; [CPU_ALU] |522| 
    6312                      .dwpsn  file "../bts.c",line 524,column 5,is_stmt,isa 0
    6313 000005f7 E80C          MOVXI     R0H,#39581            ; [CPU_FPU] |524| 
         000005f8 D4E8 
    6314                      .dwpsn  file "../bts.c",line 521,column 5,is_stmt,isa 0
    6315 000005f9 E203          MOV32     *+XAR4[AR1],R2H       ; [CPU_FPU] |521| 
         000005fa 029C 
    6316                      .dwpsn  file "../bts.c",line 525,column 5,is_stmt,isa 0
    6317 000005fb E806          MOVIZ     R2H,#49491            ; [CPU_FPU] |525| 
         000005fc 0A9A 
    6318                      .dwpsn  file "../bts.c",line 524,column 5,is_stmt,isa 0
    6319 000005fd D16C          MOVB      XAR1,#108             ; [CPU_ALU] |524| 
    6320                      .dwpsn  file "../bts.c",line 525,column 5,is_stmt,isa 0
    6321 000005fe E80C          MOVXI     R2H,#38693            ; [CPU_FPU] |525| 
         000005ff B92A 
    6322                      .dwpsn  file "../bts.c",line 522,column 5,is_stmt,isa 0
    6323 00000600 E203          MOV32     *+XAR4[AR0],R1H       ; [CPU_FPU] |522| 
         00000601 0194 
    6324                      .dwpsn  file "../bts.c",line 526,column 5,is_stmt,isa 0
    6325 00000602 E802          MOVIZ     R1H,#16551            ; [CPU_FPU] |526| 
         00000603 0539 
    6326                      .dwpsn  file "../bts.c",line 525,column 5,is_stmt,isa 0
    6327 00000604 D06E          MOVB      XAR0,#110             ; [CPU_ALU] |525| 
    6328                      .dwpsn  file "../bts.c",line 526,column 5,is_stmt,isa 0
    6329 00000605 E80D          MOVXI     R1H,#45032            ; [CPU_FPU] |526| 
         00000606 7F41 
    6330                      .dwpsn  file "../bts.c",line 524,column 5,is_stmt,isa 0
    6331 00000607 E203          MOV32     *+XAR5[AR1],R0H       ; [CPU_FPU] |524| 
         00000608 009D 
    6332                      .dwpsn  file "../bts.c",line 527,column 5,is_stmt,isa 0
TMS320C2000 Assembler PC v22.6.1 Tue Aug 13 19:46:08 2024

Copyright (c) 1996-2018 Texas Instruments Incorporated
bts.asm                                                              PAGE  134

    6333 00000609 E805          MOVIZ     R0H,#49109            ; [CPU_FPU] |527| 
         0000060a FEA8 
    6334                      .dwpsn  file "../bts.c",line 526,column 5,is_stmt,isa 0
    6335 0000060b D170          MOVB      XAR1,#112             ; [CPU_ALU] |526| 
    6336                      .dwpsn  file "../bts.c",line 527,column 5,is_stmt,isa 0
    6337 0000060c E809          MOVXI     R0H,#9484             ; [CPU_FPU] |527| 
         0000060d 2860 
    6338                      .dwpsn  file "../bts.c",line 525,column 5,is_stmt,isa 0
    6339 0000060e E203          MOV32     *+XAR5[AR0],R2H       ; [CPU_FPU] |525| 
         0000060f 0295 
    6340                      .dwpsn  file "../bts.c",line 528,column 5,is_stmt,isa 0
    6341 00000610 E801          MOVIZ     R2H,#16170            ; [CPU_FPU] |528| 
         00000611 F952 
    6342                      .dwpsn  file "../bts.c",line 527,column 5,is_stmt,isa 0
    6343 00000612 D072          MOVB      XAR0,#114             ; [CPU_ALU] |527| 
    6344                      .dwpsn  file "../bts.c",line 528,column 5,is_stmt,isa 0
    6345 00000613 E80A          MOVXI     R2H,#18968            ; [CPU_FPU] |528| 
         00000614 50C2 
    6346                      .dwpsn  file "../bts.c",line 526,column 5,is_stmt,isa 0
    6347 00000615 E203          MOV32     *+XAR5[AR1],R1H       ; [CPU_FPU] |526| 
         00000616 019D 
    6348                      .dwpsn  file "../bts.c",line 534,column 5,is_stmt,isa 0
    6349 00000617 E801          MOVIZ     R1H,#15623            ; [CPU_FPU] |534| 
         00000618 E839 
    6350                      .dwpsn  file "../bts.c",line 528,column 5,is_stmt,isa 0
    6351 00000619 D174          MOVB      XAR1,#116             ; [CPU_ALU] |528| 
    6352                      .dwpsn  file "../bts.c",line 534,column 5,is_stmt,isa 0
    6353 0000061a E80C          MOVXI     R1H,#38256            ; [CPU_FPU] |534| 
         0000061b AB81 
    6354                      .dwpsn  file "../bts.c",line 527,column 5,is_stmt,isa 0
    6355 0000061c E203          MOV32     *+XAR5[AR0],R0H       ; [CPU_FPU] |527| 
         0000061d 0095 
    6356                      .dwpsn  file "../bts.c",line 535,column 5,is_stmt,isa 0
    6357 0000061e E805          MOVIZ     R0H,#48511            ; [CPU_FPU] |535| 
         0000061f EBF8 
    6358                      .dwpsn  file "../bts.c",line 534,column 5,is_stmt,isa 0
    6359 00000620 D07E          MOVB      XAR0,#126             ; [CPU_ALU] |534| 
    6360                      .dwpsn  file "../bts.c",line 535,column 5,is_stmt,isa 0
    6361 00000621 E80B          MOVXI     R0H,#32169            ; [CPU_FPU] |535| 
         00000622 ED48 
    6362                      .dwpsn  file "../bts.c",line 528,column 5,is_stmt,isa 0
    6363 00000623 E203          MOV32     *+XAR5[AR1],R2H       ; [CPU_FPU] |528| 
         00000624 029D 
    6364                      .dwpsn  file "../bts.c",line 537,column 5,is_stmt,isa 0
    6365 00000625 E805          MOVIZ     R2H,#49146            ; [CPU_FPU] |537| 
         00000626 FFD2 
    6366                      .dwpsn  file "../bts.c",line 538,column 5,is_stmt,isa 0
    6367 00000627 D186          MOVB      XAR1,#134             ; [CPU_ALU] |538| 
    6368                      .dwpsn  file "../bts.c",line 537,column 5,is_stmt,isa 0
    6369 00000628 E80F          MOVXI     R2H,#62539            ; [CPU_FPU] |537| 
         00000629 A25A 
    6370                      .dwpsn  file "../bts.c",line 534,column 5,is_stmt,isa 0
    6371 0000062a E203          MOV32     *+XAR4[AR0],R1H       ; [CPU_FPU] |534| 
         0000062b 0194 
    6372                      .dwpsn  file "../bts.c",line 535,column 5,is_stmt,isa 0
TMS320C2000 Assembler PC v22.6.1 Tue Aug 13 19:46:08 2024

Copyright (c) 1996-2018 Texas Instruments Incorporated
bts.asm                                                              PAGE  135

    6373 0000062c D080          MOVB      XAR0,#128             ; [CPU_ALU] |535| 
    6374                      .dwpsn  file "../bts.c",line 538,column 5,is_stmt,isa 0
    6375 0000062d E801          MOVIZ     R1H,#16245            ; [CPU_FPU] |538| 
         0000062e FBA9 
    6376 0000062f E80F          MOVXI     R1H,#59542            ; [CPU_FPU] |538| 
         00000630 44B1 
    6377                      .dwpsn  file "../bts.c",line 535,column 5,is_stmt,isa 0
    6378 00000631 E203          MOV32     *+XAR4[AR0],R0H       ; [CPU_FPU] |535| 
         00000632 0094 
    6379                      .dwpsn  file "../bts.c",line 536,column 5,is_stmt,isa 0
    6380 00000633 D082          MOVB      XAR0,#130             ; [CPU_ALU] |536| 
    6381                      .dwpsn  file "../bts.c",line 540,column 5,is_stmt,isa 0
    6382 00000634 E802          MOVIZ     R0H,#16640            ; [CPU_FPU] |540| 
         00000635 0800 
    6383 00000636 E80C          MOVXI     R0H,#39581            ; [CPU_FPU] |540| 
         00000637 D4E8 
    6384                      .dwpsn  file "../bts.c",line 536,column 5,is_stmt,isa 0
    6385 00000638 E203          MOV32     *+XAR4[AR0],R3H       ; [CPU_FPU] |536| 
         00000639 0394 
    6386                      .dwpsn  file "../bts.c",line 537,column 5,is_stmt,isa 0
    6387 0000063a D084          MOVB      XAR0,#132             ; [CPU_ALU] |537| 
    6388 0000063b E203          MOV32     *+XAR4[AR0],R2H       ; [CPU_FPU] |537| 
         0000063c 0294 
    6389                      .dwpsn  file "../bts.c",line 540,column 5,is_stmt,isa 0
    6390 0000063d D07E          MOVB      XAR0,#126             ; [CPU_ALU] |540| 
    6391                      .dwpsn  file "../bts.c",line 538,column 5,is_stmt,isa 0
    6392 0000063e E203          MOV32     *+XAR4[AR1],R1H       ; [CPU_FPU] |538| 
         0000063f 019C 
    6393                      .dwpsn  file "../bts.c",line 543,column 5,is_stmt,isa 0
    6394 00000640 E805          MOVIZ     R1H,#49109            ; [CPU_FPU] |543| 
         00000641 FEA9 
    6395 00000642 D184          MOVB      XAR1,#132             ; [CPU_ALU] |543| 
    6396 00000643 E809          MOVXI     R1H,#9484             ; [CPU_FPU] |543| 
         00000644 2861 
    6397                      .dwpsn  file "../bts.c",line 540,column 5,is_stmt,isa 0
    6398 00000645 E203          MOV32     *+XAR5[AR0],R0H       ; [CPU_FPU] |540| 
         00000646 0095 
    6399                      .dwpsn  file "../bts.c",line 541,column 5,is_stmt,isa 0
    6400 00000647 D080          MOVB      XAR0,#128             ; [CPU_ALU] |541| 
    6401 00000648 E806          MOVIZ     R0H,#49491            ; [CPU_FPU] |541| 
         00000649 0A98 
    6402 0000064a E80C          MOVXI     R0H,#38693            ; [CPU_FPU] |541| 
         0000064b B928 
    6403 0000064c E203          MOV32     *+XAR5[AR0],R0H       ; [CPU_FPU] |541| 
         0000064d 0095 
    6404                      .dwpsn  file "../bts.c",line 542,column 5,is_stmt,isa 0
    6405 0000064e D082          MOVB      XAR0,#130             ; [CPU_ALU] |542| 
    6406 0000064f E802          MOVIZ     R0H,#16551            ; [CPU_FPU] |542| 
         00000650 0538 
    6407 00000651 E80D          MOVXI     R0H,#45032            ; [CPU_FPU] |542| 
         00000652 7F40 
    6408 00000653 E203          MOV32     *+XAR5[AR0],R0H       ; [CPU_FPU] |542| 
         00000654 0095 
    6409                      .dwpsn  file "../bts.c",line 544,column 5,is_stmt,isa 0
    6410 00000655 E801          MOVIZ     R0H,#16170            ; [CPU_FPU] |544| 
TMS320C2000 Assembler PC v22.6.1 Tue Aug 13 19:46:08 2024

Copyright (c) 1996-2018 Texas Instruments Incorporated
bts.asm                                                              PAGE  136

         00000656 F950 
    6411 00000657 D086          MOVB      XAR0,#134             ; [CPU_ALU] |544| 
    6412 00000658 E80A          MOVXI     R0H,#18968            ; [CPU_FPU] |544| 
         00000659 50C0 
    6413                      .dwpsn  file "../bts.c",line 543,column 5,is_stmt,isa 0
    6414 0000065a E203          MOV32     *+XAR5[AR1],R1H       ; [CPU_FPU] |543| 
         0000065b 019D 
    6415                      .dwpsn  file "../bts.c",line 544,column 5,is_stmt,isa 0
    6416 0000065c E203          MOV32     *+XAR5[AR0],R0H       ; [CPU_FPU] |544| 
         0000065d 0095 
    6417 0000065e 8BBE          MOVL      XAR1,*--SP            ; [CPU_ALU] 
    6418                      .dwcfi  cfa_offset, -2
    6419                      .dwcfi  restore_reg, 7
    6420              $C$DW$288       .dwtag  DW_TAG_TI_branch
    6421                      .dwattr $C$DW$288, DW_AT_low_pc(0x00)
    6422                      .dwattr $C$DW$288, DW_AT_TI_return
    6423              
    6424 0000065f 0006          LRETR     ; [CPU_ALU] 
    6425                      ; return occurs ; [] 
    6426                      .dwattr $C$DW$287, DW_AT_TI_end_file("../bts.c")
    6427                      .dwattr $C$DW$287, DW_AT_TI_end_line(0x222)
    6428                      .dwattr $C$DW$287, DW_AT_TI_end_column(0x01)
    6429                      .dwendentry
    6430                      .dwendtag $C$DW$287
    6431              
    6432              ;**************************************************************
    6433              ;* UNDEFINED EXTERNAL REFERENCES                              *
    6434              ;**************************************************************
    6435                      .global ||SFRA_F32_reset||
    6436                      .global ||SFRA_F32_config||
    6437                      .global ||SFRA_F32_resetFreqRespArray||
    6438                      .global ||SFRA_F32_initFreqArrayWithLogSteps||
    6439                      .global ||SFRA_GUI_config||
    6440                      .global ||handleI2C_ErrorCondition||
    6441                      .global ||Write_Read_TX_RX_FIFO||
    6442                      .global ||I2C_disableInterrupt||
    6443                      .global ||I2C_enableInterrupt||
    6444                      .global ||I2C_clearInterruptStatus||
    6445                      .global ||I2CBusScan||
    6446                      .global ||I2C_MasterReceiver||
    6447                      .global ||SFO||
    6448                      .global ||SysCtl_getLowSpeedClock||
    6449                      .global ||__c28xabi_cmpull||
    6450              ;**************************************************************
    6451              ;* SECTION GROUPS                                             *
    6452              ;**************************************************************
    6453                      .group    "__fpclassify", 1
    6454                      .gmember  ".text:__fpclassify"
    6455                      .endgroup
    6456                      .group    "__fpclassifyf", 1
    6457                      .gmember  ".text:__fpclassifyf"
    6458                      .endgroup
    6459                      .group    "__fpclassifyl", 1
    6460                      .gmember  ".text:__fpclassifyl"
    6461                      .endgroup
TMS320C2000 Assembler PC v22.6.1 Tue Aug 13 19:46:08 2024

Copyright (c) 1996-2018 Texas Instruments Incorporated
bts.asm                                                              PAGE  137

    6462                      .group    "__isfinite", 1
    6463                      .gmember  ".text:__isfinite"
    6464                      .endgroup
    6465                      .group    "__isfinitef", 1
    6466                      .gmember  ".text:__isfinitef"
    6467                      .endgroup
    6468                      .group    "__isfinitel", 1
    6469                      .gmember  ".text:__isfinitel"
    6470                      .endgroup
    6471                      .group    "__isinf", 1
    6472                      .gmember  ".text:__isinf"
    6473                      .endgroup
    6474                      .group    "__isinff", 1
    6475                      .gmember  ".text:__isinff"
    6476                      .endgroup
    6477                      .group    "__isinfl", 1
    6478                      .gmember  ".text:__isinfl"
    6479                      .endgroup
    6480                      .group    "__isnan", 1
    6481                      .gmember  ".text:__isnan"
    6482                      .endgroup
    6483                      .group    "__isnanf", 1
    6484                      .gmember  ".text:__isnanf"
    6485                      .endgroup
    6486                      .group    "__isnanl", 1
    6487                      .gmember  ".text:__isnanl"
    6488                      .endgroup
    6489                      .group    "__isnormal", 1
    6490                      .gmember  ".text:__isnormal"
    6491                      .endgroup
    6492                      .group    "__isnormalf", 1
    6493                      .gmember  ".text:__isnormalf"
    6494                      .endgroup
    6495                      .group    "__isnormall", 1
    6496                      .gmember  ".text:__isnormall"
    6497                      .endgroup
    6498                      .group    "__relaxed_atan2f", 1
    6499                      .gmember  ".text:__relaxed_atan2f"
    6500                      .endgroup
    6501                      .group    "__relaxed_atanf", 1
    6502                      .gmember  ".text:__relaxed_atanf"
    6503                      .endgroup
    6504                      .group    "__relaxed_cosf", 1
    6505                      .gmember  ".text:__relaxed_cosf"
    6506                      .endgroup
    6507                      .group    "__relaxed_fmaxf", 1
    6508                      .gmember  ".text:__relaxed_fmaxf"
    6509                      .endgroup
    6510                      .group    "__relaxed_fminf", 1
    6511                      .gmember  ".text:__relaxed_fminf"
    6512                      .endgroup
    6513                      .group    "__relaxed_fmodf", 1
    6514                      .gmember  ".text:__relaxed_fmodf"
    6515                      .endgroup
    6516                      .group    "__relaxed_sinf", 1
TMS320C2000 Assembler PC v22.6.1 Tue Aug 13 19:46:08 2024

Copyright (c) 1996-2018 Texas Instruments Incorporated
bts.asm                                                              PAGE  138

    6517                      .gmember  ".text:__relaxed_sinf"
    6518                      .endgroup
    6519                      .group    "__relaxed_sqrtf", 1
    6520                      .gmember  ".text:__relaxed_sqrtf"
    6521                      .endgroup
    6522                      .group    "__signbit", 1
    6523                      .gmember  ".text:__signbit"
    6524                      .endgroup
    6525                      .group    "__signbitf", 1
    6526                      .gmember  ".text:__signbitf"
    6527                      .endgroup
    6528                      .group    "__signbitl", 1
    6529                      .gmember  ".text:__signbitl"
    6530                      .endgroup
    6531              
    6532              
    6533              ;***************************************************************
    6534              ;* BUILD ATTRIBUTES                                            *
    6535              ;***************************************************************
    6536                      .battr "c28xabi", Tag_File, 1, Tag_float_args(1)
    6537                      .battr "c28xabi", Tag_File, 1, Tag_double_args(1)
    6538                      .dwattr $C$DW$CU, DW_AT_language(DW_LANG_C)
    6539              
    6540              ;***************************************************************
    6541              ;* DWARF CIE ENTRIES                                           *
    6542              ;***************************************************************
    6543              
    6544              $C$DW$CIE       .dwcie 26
    6545                      .dwcfi  cfa_register, 20
    6546                      .dwcfi  cfa_offset, 0
    6547                      .dwcfi  same_value, 28
    6548                      .dwcfi  same_value, 6
    6549                      .dwcfi  same_value, 7
    6550                      .dwcfi  same_value, 8
    6551                      .dwcfi  same_value, 9
    6552                      .dwcfi  same_value, 10
    6553                      .dwcfi  same_value, 11
    6554                      .dwcfi  same_value, 59
    6555                      .dwcfi  same_value, 63
    6556                      .dwcfi  same_value, 67
    6557                      .dwcfi  same_value, 71
    6558                      .dwendentry
    6559                      .dwendtag $C$DW$CU
    6560              
    6561              
    6562              ;***************************************************************
    6563              ;* TYPE INFORMATION                                            *
    6564              ;***************************************************************
    6565              
    6566              $C$DW$TU$23     .dwtag  DW_TAG_type_unit
    6567                      .dwmtype  $C$DW$T$23
    6568              
    6569              $C$DW$T$23      .dwtag  DW_TAG_structure_type
    6570                      .dwattr $C$DW$T$23, DW_AT_byte_size(0x20)
    6571              $C$DW$289       .dwtag  DW_TAG_member
TMS320C2000 Assembler PC v22.6.1 Tue Aug 13 19:46:08 2024

Copyright (c) 1996-2018 Texas Instruments Incorporated
bts.asm                                                              PAGE  139

    6572                      .dwattr $C$DW$289, DW_AT_type(*$C$DW$T$20)
    6573                      .dwattr $C$DW$289, DW_AT_name("h_magVect")
    6574                      .dwattr $C$DW$289, DW_AT_accessibility(DW_ACCESS_public)
    6575                      .dwattr $C$DW$289, DW_AT_decl_file("C:/ti/c2000/C2000Ware_DigitalPower_SDK_5_03_00_00/libraries/sfra/
    6576                      .dwattr $C$DW$289, DW_AT_decl_line(0x40)
    6577                      .dwattr $C$DW$289, DW_AT_decl_column(0x10)
    6578              
    6579              $C$DW$290       .dwtag  DW_TAG_member
    6580                      .dwattr $C$DW$290, DW_AT_type(*$C$DW$T$20)
    6581                      .dwattr $C$DW$290, DW_AT_name("h_phaseVect")
    6582                      .dwattr $C$DW$290, DW_AT_data_member_location[DW_OP_plus_uconst 0x2]
    6583                      .dwattr $C$DW$290, DW_AT_accessibility(DW_ACCESS_public)
    6584                      .dwattr $C$DW$290, DW_AT_decl_file("C:/ti/c2000/C2000Ware_DigitalPower_SDK_5_03_00_00/libraries/sfra/
    6585                      .dwattr $C$DW$290, DW_AT_decl_line(0x41)
    6586                      .dwattr $C$DW$290, DW_AT_decl_column(0x10)
    6587              
    6588              $C$DW$291       .dwtag  DW_TAG_member
    6589                      .dwattr $C$DW$291, DW_AT_type(*$C$DW$T$20)
    6590                      .dwattr $C$DW$291, DW_AT_name("gh_magVect")
    6591                      .dwattr $C$DW$291, DW_AT_data_member_location[DW_OP_plus_uconst 0x4]
    6592                      .dwattr $C$DW$291, DW_AT_accessibility(DW_ACCESS_public)
    6593                      .dwattr $C$DW$291, DW_AT_decl_file("C:/ti/c2000/C2000Ware_DigitalPower_SDK_5_03_00_00/libraries/sfra/
    6594                      .dwattr $C$DW$291, DW_AT_decl_line(0x42)
    6595                      .dwattr $C$DW$291, DW_AT_decl_column(0x10)
    6596              
    6597              $C$DW$292       .dwtag  DW_TAG_member
    6598                      .dwattr $C$DW$292, DW_AT_type(*$C$DW$T$20)
    6599                      .dwattr $C$DW$292, DW_AT_name("gh_phaseVect")
    6600                      .dwattr $C$DW$292, DW_AT_data_member_location[DW_OP_plus_uconst 0x6]
    6601                      .dwattr $C$DW$292, DW_AT_accessibility(DW_ACCESS_public)
    6602                      .dwattr $C$DW$292, DW_AT_decl_file("C:/ti/c2000/C2000Ware_DigitalPower_SDK_5_03_00_00/libraries/sfra/
    6603                      .dwattr $C$DW$292, DW_AT_decl_line(0x43)
    6604                      .dwattr $C$DW$292, DW_AT_decl_column(0x10)
    6605              
    6606              $C$DW$293       .dwtag  DW_TAG_member
    6607                      .dwattr $C$DW$293, DW_AT_type(*$C$DW$T$20)
    6608                      .dwattr $C$DW$293, DW_AT_name("cl_magVect")
    6609                      .dwattr $C$DW$293, DW_AT_data_member_location[DW_OP_plus_uconst 0x8]
    6610                      .dwattr $C$DW$293, DW_AT_accessibility(DW_ACCESS_public)
    6611                      .dwattr $C$DW$293, DW_AT_decl_file("C:/ti/c2000/C2000Ware_DigitalPower_SDK_5_03_00_00/libraries/sfra/
    6612                      .dwattr $C$DW$293, DW_AT_decl_line(0x44)
    6613                      .dwattr $C$DW$293, DW_AT_decl_column(0x10)
    6614              
    6615              $C$DW$294       .dwtag  DW_TAG_member
    6616                      .dwattr $C$DW$294, DW_AT_type(*$C$DW$T$20)
    6617                      .dwattr $C$DW$294, DW_AT_name("cl_phaseVect")
    6618                      .dwattr $C$DW$294, DW_AT_data_member_location[DW_OP_plus_uconst 0xa]
    6619                      .dwattr $C$DW$294, DW_AT_accessibility(DW_ACCESS_public)
    6620                      .dwattr $C$DW$294, DW_AT_decl_file("C:/ti/c2000/C2000Ware_DigitalPower_SDK_5_03_00_00/libraries/sfra/
    6621                      .dwattr $C$DW$294, DW_AT_decl_line(0x45)
    6622                      .dwattr $C$DW$294, DW_AT_decl_column(0x10)
    6623              
    6624              $C$DW$295       .dwtag  DW_TAG_member
    6625                      .dwattr $C$DW$295, DW_AT_type(*$C$DW$T$20)
    6626                      .dwattr $C$DW$295, DW_AT_name("freqVect")
TMS320C2000 Assembler PC v22.6.1 Tue Aug 13 19:46:08 2024

Copyright (c) 1996-2018 Texas Instruments Incorporated
bts.asm                                                              PAGE  140

    6627                      .dwattr $C$DW$295, DW_AT_data_member_location[DW_OP_plus_uconst 0xc]
    6628                      .dwattr $C$DW$295, DW_AT_accessibility(DW_ACCESS_public)
    6629                      .dwattr $C$DW$295, DW_AT_decl_file("C:/ti/c2000/C2000Ware_DigitalPower_SDK_5_03_00_00/libraries/sfra/
    6630                      .dwattr $C$DW$295, DW_AT_decl_line(0x46)
    6631                      .dwattr $C$DW$295, DW_AT_decl_column(0x10)
    6632              
    6633              $C$DW$296       .dwtag  DW_TAG_member
    6634                      .dwattr $C$DW$296, DW_AT_type(*$C$DW$T$19)
    6635                      .dwattr $C$DW$296, DW_AT_name("amplitude")
    6636                      .dwattr $C$DW$296, DW_AT_data_member_location[DW_OP_plus_uconst 0xe]
    6637                      .dwattr $C$DW$296, DW_AT_accessibility(DW_ACCESS_public)
    6638                      .dwattr $C$DW$296, DW_AT_decl_file("C:/ti/c2000/C2000Ware_DigitalPower_SDK_5_03_00_00/libraries/sfra/
    6639                      .dwattr $C$DW$296, DW_AT_decl_line(0x47)
    6640                      .dwattr $C$DW$296, DW_AT_decl_column(0x0f)
    6641              
    6642              $C$DW$297       .dwtag  DW_TAG_member
    6643                      .dwattr $C$DW$297, DW_AT_type(*$C$DW$T$19)
    6644                      .dwattr $C$DW$297, DW_AT_name("isrFreq")
    6645                      .dwattr $C$DW$297, DW_AT_data_member_location[DW_OP_plus_uconst 0x10]
    6646                      .dwattr $C$DW$297, DW_AT_accessibility(DW_ACCESS_public)
    6647                      .dwattr $C$DW$297, DW_AT_decl_file("C:/ti/c2000/C2000Ware_DigitalPower_SDK_5_03_00_00/libraries/sfra/
    6648                      .dwattr $C$DW$297, DW_AT_decl_line(0x48)
    6649                      .dwattr $C$DW$297, DW_AT_decl_column(0x0f)
    6650              
    6651              $C$DW$298       .dwtag  DW_TAG_member
    6652                      .dwattr $C$DW$298, DW_AT_type(*$C$DW$T$19)
    6653                      .dwattr $C$DW$298, DW_AT_name("freqStart")
    6654                      .dwattr $C$DW$298, DW_AT_data_member_location[DW_OP_plus_uconst 0x12]
    6655                      .dwattr $C$DW$298, DW_AT_accessibility(DW_ACCESS_public)
    6656                      .dwattr $C$DW$298, DW_AT_decl_file("C:/ti/c2000/C2000Ware_DigitalPower_SDK_5_03_00_00/libraries/sfra/
    6657                      .dwattr $C$DW$298, DW_AT_decl_line(0x49)
    6658                      .dwattr $C$DW$298, DW_AT_decl_column(0x0f)
    6659              
    6660              $C$DW$299       .dwtag  DW_TAG_member
    6661                      .dwattr $C$DW$299, DW_AT_type(*$C$DW$T$19)
    6662                      .dwattr $C$DW$299, DW_AT_name("freqStep")
    6663                      .dwattr $C$DW$299, DW_AT_data_member_location[DW_OP_plus_uconst 0x14]
    6664                      .dwattr $C$DW$299, DW_AT_accessibility(DW_ACCESS_public)
    6665                      .dwattr $C$DW$299, DW_AT_decl_file("C:/ti/c2000/C2000Ware_DigitalPower_SDK_5_03_00_00/libraries/sfra/
    6666                      .dwattr $C$DW$299, DW_AT_decl_line(0x4a)
    6667                      .dwattr $C$DW$299, DW_AT_decl_column(0x0f)
    6668              
    6669              $C$DW$300       .dwtag  DW_TAG_member
    6670                      .dwattr $C$DW$300, DW_AT_type(*$C$DW$T$22)
    6671                      .dwattr $C$DW$300, DW_AT_name("start")
    6672                      .dwattr $C$DW$300, DW_AT_data_member_location[DW_OP_plus_uconst 0x16]
    6673                      .dwattr $C$DW$300, DW_AT_accessibility(DW_ACCESS_public)
    6674                      .dwattr $C$DW$300, DW_AT_decl_file("C:/ti/c2000/C2000Ware_DigitalPower_SDK_5_03_00_00/libraries/sfra/
    6675                      .dwattr $C$DW$300, DW_AT_decl_line(0x4b)
    6676                      .dwattr $C$DW$300, DW_AT_decl_column(0x0d)
    6677              
    6678              $C$DW$301       .dwtag  DW_TAG_member
    6679                      .dwattr $C$DW$301, DW_AT_type(*$C$DW$T$22)
    6680                      .dwattr $C$DW$301, DW_AT_name("state")
    6681                      .dwattr $C$DW$301, DW_AT_data_member_location[DW_OP_plus_uconst 0x17]
TMS320C2000 Assembler PC v22.6.1 Tue Aug 13 19:46:08 2024

Copyright (c) 1996-2018 Texas Instruments Incorporated
bts.asm                                                              PAGE  141

    6682                      .dwattr $C$DW$301, DW_AT_accessibility(DW_ACCESS_public)
    6683                      .dwattr $C$DW$301, DW_AT_decl_file("C:/ti/c2000/C2000Ware_DigitalPower_SDK_5_03_00_00/libraries/sfra/
    6684                      .dwattr $C$DW$301, DW_AT_decl_line(0x4c)
    6685                      .dwattr $C$DW$301, DW_AT_decl_column(0x0d)
    6686              
    6687              $C$DW$302       .dwtag  DW_TAG_member
    6688                      .dwattr $C$DW$302, DW_AT_type(*$C$DW$T$22)
    6689                      .dwattr $C$DW$302, DW_AT_name("status")
    6690                      .dwattr $C$DW$302, DW_AT_data_member_location[DW_OP_plus_uconst 0x18]
    6691                      .dwattr $C$DW$302, DW_AT_accessibility(DW_ACCESS_public)
    6692                      .dwattr $C$DW$302, DW_AT_decl_file("C:/ti/c2000/C2000Ware_DigitalPower_SDK_5_03_00_00/libraries/sfra/
    6693                      .dwattr $C$DW$302, DW_AT_decl_line(0x4d)
    6694                      .dwattr $C$DW$302, DW_AT_decl_column(0x0d)
    6695              
    6696              $C$DW$303       .dwtag  DW_TAG_member
    6697                      .dwattr $C$DW$303, DW_AT_type(*$C$DW$T$22)
    6698                      .dwattr $C$DW$303, DW_AT_name("vecLength")
    6699                      .dwattr $C$DW$303, DW_AT_data_member_location[DW_OP_plus_uconst 0x19]
    6700                      .dwattr $C$DW$303, DW_AT_accessibility(DW_ACCESS_public)
    6701                      .dwattr $C$DW$303, DW_AT_decl_file("C:/ti/c2000/C2000Ware_DigitalPower_SDK_5_03_00_00/libraries/sfra/
    6702                      .dwattr $C$DW$303, DW_AT_decl_line(0x4e)
    6703                      .dwattr $C$DW$303, DW_AT_decl_column(0x0d)
    6704              
    6705              $C$DW$304       .dwtag  DW_TAG_member
    6706                      .dwattr $C$DW$304, DW_AT_type(*$C$DW$T$22)
    6707                      .dwattr $C$DW$304, DW_AT_name("freqIndex")
    6708                      .dwattr $C$DW$304, DW_AT_data_member_location[DW_OP_plus_uconst 0x1a]
    6709                      .dwattr $C$DW$304, DW_AT_accessibility(DW_ACCESS_public)
    6710                      .dwattr $C$DW$304, DW_AT_decl_file("C:/ti/c2000/C2000Ware_DigitalPower_SDK_5_03_00_00/libraries/sfra/
    6711                      .dwattr $C$DW$304, DW_AT_decl_line(0x4f)
    6712                      .dwattr $C$DW$304, DW_AT_decl_column(0x0d)
    6713              
    6714              $C$DW$305       .dwtag  DW_TAG_member
    6715                      .dwattr $C$DW$305, DW_AT_type(*$C$DW$T$22)
    6716                      .dwattr $C$DW$305, DW_AT_name("storeH")
    6717                      .dwattr $C$DW$305, DW_AT_data_member_location[DW_OP_plus_uconst 0x1b]
    6718                      .dwattr $C$DW$305, DW_AT_accessibility(DW_ACCESS_public)
    6719                      .dwattr $C$DW$305, DW_AT_decl_file("C:/ti/c2000/C2000Ware_DigitalPower_SDK_5_03_00_00/libraries/sfra/
    6720                      .dwattr $C$DW$305, DW_AT_decl_line(0x50)
    6721                      .dwattr $C$DW$305, DW_AT_decl_column(0x0d)
    6722              
    6723              $C$DW$306       .dwtag  DW_TAG_member
    6724                      .dwattr $C$DW$306, DW_AT_type(*$C$DW$T$22)
    6725                      .dwattr $C$DW$306, DW_AT_name("storeGH")
    6726                      .dwattr $C$DW$306, DW_AT_data_member_location[DW_OP_plus_uconst 0x1c]
    6727                      .dwattr $C$DW$306, DW_AT_accessibility(DW_ACCESS_public)
    6728                      .dwattr $C$DW$306, DW_AT_decl_file("C:/ti/c2000/C2000Ware_DigitalPower_SDK_5_03_00_00/libraries/sfra/
    6729                      .dwattr $C$DW$306, DW_AT_decl_line(0x51)
    6730                      .dwattr $C$DW$306, DW_AT_decl_column(0x0d)
    6731              
    6732              $C$DW$307       .dwtag  DW_TAG_member
    6733                      .dwattr $C$DW$307, DW_AT_type(*$C$DW$T$22)
    6734                      .dwattr $C$DW$307, DW_AT_name("storeCL")
    6735                      .dwattr $C$DW$307, DW_AT_data_member_location[DW_OP_plus_uconst 0x1d]
    6736                      .dwattr $C$DW$307, DW_AT_accessibility(DW_ACCESS_public)
TMS320C2000 Assembler PC v22.6.1 Tue Aug 13 19:46:08 2024

Copyright (c) 1996-2018 Texas Instruments Incorporated
bts.asm                                                              PAGE  142

    6737                      .dwattr $C$DW$307, DW_AT_decl_file("C:/ti/c2000/C2000Ware_DigitalPower_SDK_5_03_00_00/libraries/sfra/
    6738                      .dwattr $C$DW$307, DW_AT_decl_line(0x52)
    6739                      .dwattr $C$DW$307, DW_AT_decl_column(0x0d)
    6740              
    6741              $C$DW$308       .dwtag  DW_TAG_member
    6742                      .dwattr $C$DW$308, DW_AT_type(*$C$DW$T$22)
    6743                      .dwattr $C$DW$308, DW_AT_name("speed")
    6744                      .dwattr $C$DW$308, DW_AT_data_member_location[DW_OP_plus_uconst 0x1e]
    6745                      .dwattr $C$DW$308, DW_AT_accessibility(DW_ACCESS_public)
    6746                      .dwattr $C$DW$308, DW_AT_decl_file("C:/ti/c2000/C2000Ware_DigitalPower_SDK_5_03_00_00/libraries/sfra/
    6747                      .dwattr $C$DW$308, DW_AT_decl_line(0x53)
    6748                      .dwattr $C$DW$308, DW_AT_decl_column(0x0d)
    6749              
    6750                      .dwattr $C$DW$T$23, DW_AT_decl_file("C:/ti/c2000/C2000Ware_DigitalPower_SDK_5_03_00_00/libraries/sfra
    6751                      .dwattr $C$DW$T$23, DW_AT_decl_line(0x3f)
    6752                      .dwattr $C$DW$T$23, DW_AT_decl_column(0x0f)
    6753                      .dwendtag $C$DW$T$23
    6754              
    6755                      .dwendtag $C$DW$TU$23
    6756              
    6757              
    6758              $C$DW$TU$58     .dwtag  DW_TAG_type_unit
    6759                      .dwmtype  $C$DW$T$58
    6760              $C$DW$T$58      .dwtag  DW_TAG_typedef
    6761                      .dwattr $C$DW$T$58, DW_AT_name("SFRA_F32")
    6762                      .dwattr $C$DW$T$58, DW_AT_type(*$C$DW$T$23)
    6763                      .dwattr $C$DW$T$58, DW_AT_decl_file("C:/ti/c2000/C2000Ware_DigitalPower_SDK_5_03_00_00/libraries/sfra
    6764                      .dwattr $C$DW$T$58, DW_AT_decl_line(0x54)
    6765                      .dwattr $C$DW$T$58, DW_AT_decl_column(0x02)
    6766              
    6767                      .dwendtag $C$DW$TU$58
    6768              
    6769              
    6770              $C$DW$TU$59     .dwtag  DW_TAG_type_unit
    6771                      .dwmtype  $C$DW$T$59
    6772              $C$DW$T$59      .dwtag  DW_TAG_pointer_type
    6773                      .dwattr $C$DW$T$59, DW_AT_type(*$C$DW$T$58)
    6774                      .dwattr $C$DW$T$59, DW_AT_address_class(0x20)
    6775              
    6776                      .dwendtag $C$DW$TU$59
    6777              
    6778              
    6779              $C$DW$TU$28     .dwtag  DW_TAG_type_unit
    6780                      .dwmtype  $C$DW$T$28
    6781              
    6782              $C$DW$T$28      .dwtag  DW_TAG_structure_type
    6783                      .dwattr $C$DW$T$28, DW_AT_byte_size(0x20)
    6784              $C$DW$309       .dwtag  DW_TAG_member
    6785                      .dwattr $C$DW$309, DW_AT_type(*$C$DW$T$24)
    6786                      .dwattr $C$DW$309, DW_AT_name("iref_A")
    6787                      .dwattr $C$DW$309, DW_AT_accessibility(DW_ACCESS_public)
    6788                      .dwattr $C$DW$309, DW_AT_decl_file("C:/sandbox/github/Lion-IRVT/Hardware/source/tida-010086/bts_F2837
    6789                      .dwattr $C$DW$309, DW_AT_decl_line(0x8e)
    6790                      .dwattr $C$DW$309, DW_AT_decl_column(0x18)
    6791              
TMS320C2000 Assembler PC v22.6.1 Tue Aug 13 19:46:08 2024

Copyright (c) 1996-2018 Texas Instruments Incorporated
bts.asm                                                              PAGE  143

    6792              $C$DW$310       .dwtag  DW_TAG_member
    6793                      .dwattr $C$DW$310, DW_AT_type(*$C$DW$T$24)
    6794                      .dwattr $C$DW$310, DW_AT_name("vref_charge_V")
    6795                      .dwattr $C$DW$310, DW_AT_data_member_location[DW_OP_plus_uconst 0x2]
    6796                      .dwattr $C$DW$310, DW_AT_accessibility(DW_ACCESS_public)
    6797                      .dwattr $C$DW$310, DW_AT_decl_file("C:/sandbox/github/Lion-IRVT/Hardware/source/tida-010086/bts_F2837
    6798                      .dwattr $C$DW$310, DW_AT_decl_line(0x8f)
    6799                      .dwattr $C$DW$310, DW_AT_decl_column(0x18)
    6800              
    6801              $C$DW$311       .dwtag  DW_TAG_member
    6802                      .dwattr $C$DW$311, DW_AT_type(*$C$DW$T$24)
    6803                      .dwattr $C$DW$311, DW_AT_name("vref_discharge_V")
    6804                      .dwattr $C$DW$311, DW_AT_data_member_location[DW_OP_plus_uconst 0x4]
    6805                      .dwattr $C$DW$311, DW_AT_accessibility(DW_ACCESS_public)
    6806                      .dwattr $C$DW$311, DW_AT_decl_file("C:/sandbox/github/Lion-IRVT/Hardware/source/tida-010086/bts_F2837
    6807                      .dwattr $C$DW$311, DW_AT_decl_line(0x90)
    6808                      .dwattr $C$DW$311, DW_AT_decl_column(0x18)
    6809              
    6810              $C$DW$312       .dwtag  DW_TAG_member
    6811                      .dwattr $C$DW$312, DW_AT_type(*$C$DW$T$27)
    6812                      .dwattr $C$DW$312, DW_AT_name("direction_logic")
    6813                      .dwattr $C$DW$312, DW_AT_data_member_location[DW_OP_plus_uconst 0x6]
    6814                      .dwattr $C$DW$312, DW_AT_accessibility(DW_ACCESS_public)
    6815                      .dwattr $C$DW$312, DW_AT_decl_file("C:/sandbox/github/Lion-IRVT/Hardware/source/tida-010086/bts_F2837
    6816                      .dwattr $C$DW$312, DW_AT_decl_line(0x91)
    6817                      .dwattr $C$DW$312, DW_AT_decl_column(0x18)
    6818              
    6819              $C$DW$313       .dwtag  DW_TAG_member
    6820                      .dwattr $C$DW$313, DW_AT_type(*$C$DW$T$27)
    6821                      .dwattr $C$DW$313, DW_AT_name("enable_logic")
    6822                      .dwattr $C$DW$313, DW_AT_data_member_location[DW_OP_plus_uconst 0x7]
    6823                      .dwattr $C$DW$313, DW_AT_accessibility(DW_ACCESS_public)
    6824                      .dwattr $C$DW$313, DW_AT_decl_file("C:/sandbox/github/Lion-IRVT/Hardware/source/tida-010086/bts_F2837
    6825                      .dwattr $C$DW$313, DW_AT_decl_line(0x92)
    6826                      .dwattr $C$DW$313, DW_AT_decl_column(0x18)
    6827              
    6828              $C$DW$314       .dwtag  DW_TAG_member
    6829                      .dwattr $C$DW$314, DW_AT_type(*$C$DW$T$24)
    6830                      .dwattr $C$DW$314, DW_AT_name("dutyRef_pu")
    6831                      .dwattr $C$DW$314, DW_AT_data_member_location[DW_OP_plus_uconst 0x8]
    6832                      .dwattr $C$DW$314, DW_AT_accessibility(DW_ACCESS_public)
    6833                      .dwattr $C$DW$314, DW_AT_decl_file("C:/sandbox/github/Lion-IRVT/Hardware/source/tida-010086/bts_F2837
    6834                      .dwattr $C$DW$314, DW_AT_decl_line(0x93)
    6835                      .dwattr $C$DW$314, DW_AT_decl_column(0x18)
    6836              
    6837              $C$DW$315       .dwtag  DW_TAG_member
    6838                      .dwattr $C$DW$315, DW_AT_type(*$C$DW$T$24)
    6839                      .dwattr $C$DW$315, DW_AT_name("ioutCal_pu")
    6840                      .dwattr $C$DW$315, DW_AT_data_member_location[DW_OP_plus_uconst 0xa]
    6841                      .dwattr $C$DW$315, DW_AT_accessibility(DW_ACCESS_public)
    6842                      .dwattr $C$DW$315, DW_AT_decl_file("C:/sandbox/github/Lion-IRVT/Hardware/source/tida-010086/bts_F2837
    6843                      .dwattr $C$DW$315, DW_AT_decl_line(0x94)
    6844                      .dwattr $C$DW$315, DW_AT_decl_column(0x18)
    6845              
    6846              $C$DW$316       .dwtag  DW_TAG_member
TMS320C2000 Assembler PC v22.6.1 Tue Aug 13 19:46:08 2024

Copyright (c) 1996-2018 Texas Instruments Incorporated
bts.asm                                                              PAGE  144

    6847                      .dwattr $C$DW$316, DW_AT_type(*$C$DW$T$24)
    6848                      .dwattr $C$DW$316, DW_AT_name("voutCal_pu")
    6849                      .dwattr $C$DW$316, DW_AT_data_member_location[DW_OP_plus_uconst 0xc]
    6850                      .dwattr $C$DW$316, DW_AT_accessibility(DW_ACCESS_public)
    6851                      .dwattr $C$DW$316, DW_AT_decl_file("C:/sandbox/github/Lion-IRVT/Hardware/source/tida-010086/bts_F2837
    6852                      .dwattr $C$DW$316, DW_AT_decl_line(0x95)
    6853                      .dwattr $C$DW$316, DW_AT_decl_column(0x18)
    6854              
    6855              $C$DW$317       .dwtag  DW_TAG_member
    6856                      .dwattr $C$DW$317, DW_AT_type(*$C$DW$T$19)
    6857                      .dwattr $C$DW$317, DW_AT_name("IoutGain_pu")
    6858                      .dwattr $C$DW$317, DW_AT_data_member_location[DW_OP_plus_uconst 0xe]
    6859                      .dwattr $C$DW$317, DW_AT_accessibility(DW_ACCESS_public)
    6860                      .dwattr $C$DW$317, DW_AT_decl_file("C:/sandbox/github/Lion-IRVT/Hardware/source/tida-010086/bts_F2837
    6861                      .dwattr $C$DW$317, DW_AT_decl_line(0x97)
    6862                      .dwattr $C$DW$317, DW_AT_decl_column(0x0f)
    6863              
    6864              $C$DW$318       .dwtag  DW_TAG_member
    6865                      .dwattr $C$DW$318, DW_AT_type(*$C$DW$T$19)
    6866                      .dwattr $C$DW$318, DW_AT_name("IoutOffset_pu")
    6867                      .dwattr $C$DW$318, DW_AT_data_member_location[DW_OP_plus_uconst 0x10]
    6868                      .dwattr $C$DW$318, DW_AT_accessibility(DW_ACCESS_public)
    6869                      .dwattr $C$DW$318, DW_AT_decl_file("C:/sandbox/github/Lion-IRVT/Hardware/source/tida-010086/bts_F2837
    6870                      .dwattr $C$DW$318, DW_AT_decl_line(0x98)
    6871                      .dwattr $C$DW$318, DW_AT_decl_column(0x0f)
    6872              
    6873              $C$DW$319       .dwtag  DW_TAG_member
    6874                      .dwattr $C$DW$319, DW_AT_type(*$C$DW$T$19)
    6875                      .dwattr $C$DW$319, DW_AT_name("IoutGain_A")
    6876                      .dwattr $C$DW$319, DW_AT_data_member_location[DW_OP_plus_uconst 0x12]
    6877                      .dwattr $C$DW$319, DW_AT_accessibility(DW_ACCESS_public)
    6878                      .dwattr $C$DW$319, DW_AT_decl_file("C:/sandbox/github/Lion-IRVT/Hardware/source/tida-010086/bts_F2837
    6879                      .dwattr $C$DW$319, DW_AT_decl_line(0x99)
    6880                      .dwattr $C$DW$319, DW_AT_decl_column(0x0f)
    6881              
    6882              $C$DW$320       .dwtag  DW_TAG_member
    6883                      .dwattr $C$DW$320, DW_AT_type(*$C$DW$T$19)
    6884                      .dwattr $C$DW$320, DW_AT_name("IoutOffset_A")
    6885                      .dwattr $C$DW$320, DW_AT_data_member_location[DW_OP_plus_uconst 0x14]
    6886                      .dwattr $C$DW$320, DW_AT_accessibility(DW_ACCESS_public)
    6887                      .dwattr $C$DW$320, DW_AT_decl_file("C:/sandbox/github/Lion-IRVT/Hardware/source/tida-010086/bts_F2837
    6888                      .dwattr $C$DW$320, DW_AT_decl_line(0x9a)
    6889                      .dwattr $C$DW$320, DW_AT_decl_column(0x0f)
    6890              
    6891              $C$DW$321       .dwtag  DW_TAG_member
    6892                      .dwattr $C$DW$321, DW_AT_type(*$C$DW$T$19)
    6893                      .dwattr $C$DW$321, DW_AT_name("VoutGain_pu")
    6894                      .dwattr $C$DW$321, DW_AT_data_member_location[DW_OP_plus_uconst 0x16]
    6895                      .dwattr $C$DW$321, DW_AT_accessibility(DW_ACCESS_public)
    6896                      .dwattr $C$DW$321, DW_AT_decl_file("C:/sandbox/github/Lion-IRVT/Hardware/source/tida-010086/bts_F2837
    6897                      .dwattr $C$DW$321, DW_AT_decl_line(0x9c)
    6898                      .dwattr $C$DW$321, DW_AT_decl_column(0x0f)
    6899              
    6900              $C$DW$322       .dwtag  DW_TAG_member
    6901                      .dwattr $C$DW$322, DW_AT_type(*$C$DW$T$19)
TMS320C2000 Assembler PC v22.6.1 Tue Aug 13 19:46:08 2024

Copyright (c) 1996-2018 Texas Instruments Incorporated
bts.asm                                                              PAGE  145

    6902                      .dwattr $C$DW$322, DW_AT_name("VoutOffset_pu")
    6903                      .dwattr $C$DW$322, DW_AT_data_member_location[DW_OP_plus_uconst 0x18]
    6904                      .dwattr $C$DW$322, DW_AT_accessibility(DW_ACCESS_public)
    6905                      .dwattr $C$DW$322, DW_AT_decl_file("C:/sandbox/github/Lion-IRVT/Hardware/source/tida-010086/bts_F2837
    6906                      .dwattr $C$DW$322, DW_AT_decl_line(0x9d)
    6907                      .dwattr $C$DW$322, DW_AT_decl_column(0x0f)
    6908              
    6909              $C$DW$323       .dwtag  DW_TAG_member
    6910                      .dwattr $C$DW$323, DW_AT_type(*$C$DW$T$19)
    6911                      .dwattr $C$DW$323, DW_AT_name("VoutGain_V")
    6912                      .dwattr $C$DW$323, DW_AT_data_member_location[DW_OP_plus_uconst 0x1a]
    6913                      .dwattr $C$DW$323, DW_AT_accessibility(DW_ACCESS_public)
    6914                      .dwattr $C$DW$323, DW_AT_decl_file("C:/sandbox/github/Lion-IRVT/Hardware/source/tida-010086/bts_F2837
    6915                      .dwattr $C$DW$323, DW_AT_decl_line(0x9e)
    6916                      .dwattr $C$DW$323, DW_AT_decl_column(0x0f)
    6917              
    6918              $C$DW$324       .dwtag  DW_TAG_member
    6919                      .dwattr $C$DW$324, DW_AT_type(*$C$DW$T$19)
    6920                      .dwattr $C$DW$324, DW_AT_name("VoutOffset_V")
    6921                      .dwattr $C$DW$324, DW_AT_data_member_location[DW_OP_plus_uconst 0x1c]
    6922                      .dwattr $C$DW$324, DW_AT_accessibility(DW_ACCESS_public)
    6923                      .dwattr $C$DW$324, DW_AT_decl_file("C:/sandbox/github/Lion-IRVT/Hardware/source/tida-010086/bts_F2837
    6924                      .dwattr $C$DW$324, DW_AT_decl_line(0x9f)
    6925                      .dwattr $C$DW$324, DW_AT_decl_column(0x0f)
    6926              
    6927              $C$DW$325       .dwtag  DW_TAG_member
    6928                      .dwattr $C$DW$325, DW_AT_type(*$C$DW$T$26)
    6929                      .dwattr $C$DW$325, DW_AT_name("pendingUpdate")
    6930                      .dwattr $C$DW$325, DW_AT_data_member_location[DW_OP_plus_uconst 0x1e]
    6931                      .dwattr $C$DW$325, DW_AT_accessibility(DW_ACCESS_public)
    6932                      .dwattr $C$DW$325, DW_AT_decl_file("C:/sandbox/github/Lion-IRVT/Hardware/source/tida-010086/bts_F2837
    6933                      .dwattr $C$DW$325, DW_AT_decl_line(0xa1)
    6934                      .dwattr $C$DW$325, DW_AT_decl_column(0x0f)
    6935              
    6936                      .dwattr $C$DW$T$28, DW_AT_decl_file("C:/sandbox/github/Lion-IRVT/Hardware/source/tida-010086/bts_F283
    6937                      .dwattr $C$DW$T$28, DW_AT_decl_line(0x8d)
    6938                      .dwattr $C$DW$T$28, DW_AT_decl_column(0x01)
    6939                      .dwendtag $C$DW$T$28
    6940              
    6941                      .dwendtag $C$DW$TU$28
    6942              
    6943              
    6944              $C$DW$TU$61     .dwtag  DW_TAG_type_unit
    6945                      .dwmtype  $C$DW$T$61
    6946              $C$DW$T$61      .dwtag  DW_TAG_typedef
    6947                      .dwattr $C$DW$T$61, DW_AT_name("BTS_userInput")
    6948                      .dwattr $C$DW$T$61, DW_AT_type(*$C$DW$T$28)
    6949                      .dwattr $C$DW$T$61, DW_AT_decl_file("C:/sandbox/github/Lion-IRVT/Hardware/source/tida-010086/bts_F283
    6950                      .dwattr $C$DW$T$61, DW_AT_decl_line(0xa3)
    6951                      .dwattr $C$DW$T$61, DW_AT_decl_column(0x02)
    6952              
    6953                      .dwendtag $C$DW$TU$61
    6954              
    6955              
    6956              $C$DW$TU$62     .dwtag  DW_TAG_type_unit
TMS320C2000 Assembler PC v22.6.1 Tue Aug 13 19:46:08 2024

Copyright (c) 1996-2018 Texas Instruments Incorporated
bts.asm                                                              PAGE  146

    6957                      .dwmtype  $C$DW$T$62
    6958              $C$DW$T$62      .dwtag  DW_TAG_pointer_type
    6959                      .dwattr $C$DW$T$62, DW_AT_type(*$C$DW$T$61)
    6960                      .dwattr $C$DW$T$62, DW_AT_address_class(0x20)
    6961              
    6962                      .dwendtag $C$DW$TU$62
    6963              
    6964              
    6965              $C$DW$TU$63     .dwtag  DW_TAG_type_unit
    6966                      .dwmtype  $C$DW$T$63
    6967              $C$DW$326       .dwtag  DW_TAG_TI_far_type
    6968                      .dwattr $C$DW$326, DW_AT_type(*$C$DW$T$62)
    6969              
    6970              $C$DW$T$63      .dwtag  DW_TAG_const_type
    6971                      .dwattr $C$DW$T$63, DW_AT_type(*$C$DW$326)
    6972              
    6973                      .dwendtag $C$DW$TU$63
    6974              
    6975              
    6976              $C$DW$TU$64     .dwtag  DW_TAG_type_unit
    6977                      .dwmtype  $C$DW$T$64
    6978              
    6979              $C$DW$T$64      .dwtag  DW_TAG_array_type
    6980                      .dwattr $C$DW$T$64, DW_AT_type(*$C$DW$T$61)
    6981                      .dwattr $C$DW$T$64, DW_AT_byte_size(0x100)
    6982              $C$DW$327       .dwtag  DW_TAG_subrange_type
    6983                      .dwattr $C$DW$327, DW_AT_upper_bound(0x07)
    6984              
    6985                      .dwendtag $C$DW$T$64
    6986              
    6987                      .dwendtag $C$DW$TU$64
    6988              
    6989              
    6990              $C$DW$TU$29     .dwtag  DW_TAG_type_unit
    6991                      .dwmtype  $C$DW$T$29
    6992              
    6993              $C$DW$T$29      .dwtag  DW_TAG_structure_type
    6994                      .dwattr $C$DW$T$29, DW_AT_byte_size(0x24)
    6995              $C$DW$328       .dwtag  DW_TAG_member
    6996                      .dwattr $C$DW$328, DW_AT_type(*$C$DW$T$19)
    6997                      .dwattr $C$DW$328, DW_AT_name("dutySet_pu")
    6998                      .dwattr $C$DW$328, DW_AT_accessibility(DW_ACCESS_public)
    6999                      .dwattr $C$DW$328, DW_AT_decl_file("C:/sandbox/github/Lion-IRVT/Hardware/source/tida-010086/bts_F2837
    7000                      .dwattr $C$DW$328, DW_AT_decl_line(0xb1)
    7001                      .dwattr $C$DW$328, DW_AT_decl_column(0x0f)
    7002              
    7003              $C$DW$329       .dwtag  DW_TAG_member
    7004                      .dwattr $C$DW$329, DW_AT_type(*$C$DW$T$19)
    7005                      .dwattr $C$DW$329, DW_AT_name("dutySetRef_pu")
    7006                      .dwattr $C$DW$329, DW_AT_data_member_location[DW_OP_plus_uconst 0x2]
    7007                      .dwattr $C$DW$329, DW_AT_accessibility(DW_ACCESS_public)
    7008                      .dwattr $C$DW$329, DW_AT_decl_file("C:/sandbox/github/Lion-IRVT/Hardware/source/tida-010086/bts_F2837
    7009                      .dwattr $C$DW$329, DW_AT_decl_line(0xb2)
    7010                      .dwattr $C$DW$329, DW_AT_decl_column(0x0f)
    7011              
TMS320C2000 Assembler PC v22.6.1 Tue Aug 13 19:46:08 2024

Copyright (c) 1996-2018 Texas Instruments Incorporated
bts.asm                                                              PAGE  147

    7012              $C$DW$330       .dwtag  DW_TAG_member
    7013                      .dwattr $C$DW$330, DW_AT_type(*$C$DW$T$19)
    7014                      .dwattr $C$DW$330, DW_AT_name("ioutRef_pu")
    7015                      .dwattr $C$DW$330, DW_AT_data_member_location[DW_OP_plus_uconst 0x4]
    7016                      .dwattr $C$DW$330, DW_AT_accessibility(DW_ACCESS_public)
    7017                      .dwattr $C$DW$330, DW_AT_decl_file("C:/sandbox/github/Lion-IRVT/Hardware/source/tida-010086/bts_F2837
    7018                      .dwattr $C$DW$330, DW_AT_decl_line(0xb4)
    7019                      .dwattr $C$DW$330, DW_AT_decl_column(0x0f)
    7020              
    7021              $C$DW$331       .dwtag  DW_TAG_member
    7022                      .dwattr $C$DW$331, DW_AT_type(*$C$DW$T$19)
    7023                      .dwattr $C$DW$331, DW_AT_name("ioutSet_pu")
    7024                      .dwattr $C$DW$331, DW_AT_data_member_location[DW_OP_plus_uconst 0x6]
    7025                      .dwattr $C$DW$331, DW_AT_accessibility(DW_ACCESS_public)
    7026                      .dwattr $C$DW$331, DW_AT_decl_file("C:/sandbox/github/Lion-IRVT/Hardware/source/tida-010086/bts_F2837
    7027                      .dwattr $C$DW$331, DW_AT_decl_line(0xb5)
    7028                      .dwattr $C$DW$331, DW_AT_decl_column(0x0f)
    7029              
    7030              $C$DW$332       .dwtag  DW_TAG_member
    7031                      .dwattr $C$DW$332, DW_AT_type(*$C$DW$T$19)
    7032                      .dwattr $C$DW$332, DW_AT_name("ioutSense_pu")
    7033                      .dwattr $C$DW$332, DW_AT_data_member_location[DW_OP_plus_uconst 0x8]
    7034                      .dwattr $C$DW$332, DW_AT_accessibility(DW_ACCESS_public)
    7035                      .dwattr $C$DW$332, DW_AT_decl_file("C:/sandbox/github/Lion-IRVT/Hardware/source/tida-010086/bts_F2837
    7036                      .dwattr $C$DW$332, DW_AT_decl_line(0xb6)
    7037                      .dwattr $C$DW$332, DW_AT_decl_column(0x0f)
    7038              
    7039              $C$DW$333       .dwtag  DW_TAG_member
    7040                      .dwattr $C$DW$333, DW_AT_type(*$C$DW$T$19)
    7041                      .dwattr $C$DW$333, DW_AT_name("voutRef_pu")
    7042                      .dwattr $C$DW$333, DW_AT_data_member_location[DW_OP_plus_uconst 0xa]
    7043                      .dwattr $C$DW$333, DW_AT_accessibility(DW_ACCESS_public)
    7044                      .dwattr $C$DW$333, DW_AT_decl_file("C:/sandbox/github/Lion-IRVT/Hardware/source/tida-010086/bts_F2837
    7045                      .dwattr $C$DW$333, DW_AT_decl_line(0xb8)
    7046                      .dwattr $C$DW$333, DW_AT_decl_column(0x0f)
    7047              
    7048              $C$DW$334       .dwtag  DW_TAG_member
    7049                      .dwattr $C$DW$334, DW_AT_type(*$C$DW$T$19)
    7050                      .dwattr $C$DW$334, DW_AT_name("voutSet_pu")
    7051                      .dwattr $C$DW$334, DW_AT_data_member_location[DW_OP_plus_uconst 0xc]
    7052                      .dwattr $C$DW$334, DW_AT_accessibility(DW_ACCESS_public)
    7053                      .dwattr $C$DW$334, DW_AT_decl_file("C:/sandbox/github/Lion-IRVT/Hardware/source/tida-010086/bts_F2837
    7054                      .dwattr $C$DW$334, DW_AT_decl_line(0xb9)
    7055                      .dwattr $C$DW$334, DW_AT_decl_column(0x0f)
    7056              
    7057              $C$DW$335       .dwtag  DW_TAG_member
    7058                      .dwattr $C$DW$335, DW_AT_type(*$C$DW$T$19)
    7059                      .dwattr $C$DW$335, DW_AT_name("voutSense_pu")
    7060                      .dwattr $C$DW$335, DW_AT_data_member_location[DW_OP_plus_uconst 0xe]
    7061                      .dwattr $C$DW$335, DW_AT_accessibility(DW_ACCESS_public)
    7062                      .dwattr $C$DW$335, DW_AT_decl_file("C:/sandbox/github/Lion-IRVT/Hardware/source/tida-010086/bts_F2837
    7063                      .dwattr $C$DW$335, DW_AT_decl_line(0xba)
    7064                      .dwattr $C$DW$335, DW_AT_decl_column(0x0f)
    7065              
    7066              $C$DW$336       .dwtag  DW_TAG_member
TMS320C2000 Assembler PC v22.6.1 Tue Aug 13 19:46:08 2024

Copyright (c) 1996-2018 Texas Instruments Incorporated
bts.asm                                                              PAGE  148

    7067                      .dwattr $C$DW$336, DW_AT_type(*$C$DW$T$19)
    7068                      .dwattr $C$DW$336, DW_AT_name("uk_cc_pu")
    7069                      .dwattr $C$DW$336, DW_AT_data_member_location[DW_OP_plus_uconst 0x10]
    7070                      .dwattr $C$DW$336, DW_AT_accessibility(DW_ACCESS_public)
    7071                      .dwattr $C$DW$336, DW_AT_decl_file("C:/sandbox/github/Lion-IRVT/Hardware/source/tida-010086/bts_F2837
    7072                      .dwattr $C$DW$336, DW_AT_decl_line(0xbc)
    7073                      .dwattr $C$DW$336, DW_AT_decl_column(0x0f)
    7074              
    7075              $C$DW$337       .dwtag  DW_TAG_member
    7076                      .dwattr $C$DW$337, DW_AT_type(*$C$DW$T$19)
    7077                      .dwattr $C$DW$337, DW_AT_name("ek_cc_pu")
    7078                      .dwattr $C$DW$337, DW_AT_data_member_location[DW_OP_plus_uconst 0x12]
    7079                      .dwattr $C$DW$337, DW_AT_accessibility(DW_ACCESS_public)
    7080                      .dwattr $C$DW$337, DW_AT_decl_file("C:/sandbox/github/Lion-IRVT/Hardware/source/tida-010086/bts_F2837
    7081                      .dwattr $C$DW$337, DW_AT_decl_line(0xbd)
    7082                      .dwattr $C$DW$337, DW_AT_decl_column(0x0f)
    7083              
    7084              $C$DW$338       .dwtag  DW_TAG_member
    7085                      .dwattr $C$DW$338, DW_AT_type(*$C$DW$T$19)
    7086                      .dwattr $C$DW$338, DW_AT_name("uk_cv_pu")
    7087                      .dwattr $C$DW$338, DW_AT_data_member_location[DW_OP_plus_uconst 0x14]
    7088                      .dwattr $C$DW$338, DW_AT_accessibility(DW_ACCESS_public)
    7089                      .dwattr $C$DW$338, DW_AT_decl_file("C:/sandbox/github/Lion-IRVT/Hardware/source/tida-010086/bts_F2837
    7090                      .dwattr $C$DW$338, DW_AT_decl_line(0xbe)
    7091                      .dwattr $C$DW$338, DW_AT_decl_column(0x0f)
    7092              
    7093              $C$DW$339       .dwtag  DW_TAG_member
    7094                      .dwattr $C$DW$339, DW_AT_type(*$C$DW$T$19)
    7095                      .dwattr $C$DW$339, DW_AT_name("ek_cv_pu")
    7096                      .dwattr $C$DW$339, DW_AT_data_member_location[DW_OP_plus_uconst 0x16]
    7097                      .dwattr $C$DW$339, DW_AT_accessibility(DW_ACCESS_public)
    7098                      .dwattr $C$DW$339, DW_AT_decl_file("C:/sandbox/github/Lion-IRVT/Hardware/source/tida-010086/bts_F2837
    7099                      .dwattr $C$DW$339, DW_AT_decl_line(0xbf)
    7100                      .dwattr $C$DW$339, DW_AT_decl_column(0x0f)
    7101              
    7102              $C$DW$340       .dwtag  DW_TAG_member
    7103                      .dwattr $C$DW$340, DW_AT_type(*$C$DW$T$19)
    7104                      .dwattr $C$DW$340, DW_AT_name("direction_coeff")
    7105                      .dwattr $C$DW$340, DW_AT_data_member_location[DW_OP_plus_uconst 0x18]
    7106                      .dwattr $C$DW$340, DW_AT_accessibility(DW_ACCESS_public)
    7107                      .dwattr $C$DW$340, DW_AT_decl_file("C:/sandbox/github/Lion-IRVT/Hardware/source/tida-010086/bts_F2837
    7108                      .dwattr $C$DW$340, DW_AT_decl_line(0xc0)
    7109                      .dwattr $C$DW$340, DW_AT_decl_column(0x0f)
    7110              
    7111              $C$DW$341       .dwtag  DW_TAG_member
    7112                      .dwattr $C$DW$341, DW_AT_type(*$C$DW$T$19)
    7113                      .dwattr $C$DW$341, DW_AT_name("dutyH_pu")
    7114                      .dwattr $C$DW$341, DW_AT_data_member_location[DW_OP_plus_uconst 0x1a]
    7115                      .dwattr $C$DW$341, DW_AT_accessibility(DW_ACCESS_public)
    7116                      .dwattr $C$DW$341, DW_AT_decl_file("C:/sandbox/github/Lion-IRVT/Hardware/source/tida-010086/bts_F2837
    7117                      .dwattr $C$DW$341, DW_AT_decl_line(0xc2)
    7118                      .dwattr $C$DW$341, DW_AT_decl_column(0x0f)
    7119              
    7120              $C$DW$342       .dwtag  DW_TAG_member
    7121                      .dwattr $C$DW$342, DW_AT_type(*$C$DW$T$19)
TMS320C2000 Assembler PC v22.6.1 Tue Aug 13 19:46:08 2024

Copyright (c) 1996-2018 Texas Instruments Incorporated
bts.asm                                                              PAGE  149

    7122                      .dwattr $C$DW$342, DW_AT_name("dutyL_pu")
    7123                      .dwattr $C$DW$342, DW_AT_data_member_location[DW_OP_plus_uconst 0x1c]
    7124                      .dwattr $C$DW$342, DW_AT_accessibility(DW_ACCESS_public)
    7125                      .dwattr $C$DW$342, DW_AT_decl_file("C:/sandbox/github/Lion-IRVT/Hardware/source/tida-010086/bts_F2837
    7126                      .dwattr $C$DW$342, DW_AT_decl_line(0xc3)
    7127                      .dwattr $C$DW$342, DW_AT_decl_column(0x0f)
    7128              
    7129              $C$DW$343       .dwtag  DW_TAG_member
    7130                      .dwattr $C$DW$343, DW_AT_type(*$C$DW$T$26)
    7131                      .dwattr $C$DW$343, DW_AT_name("ctrlMode_logic")
    7132                      .dwattr $C$DW$343, DW_AT_data_member_location[DW_OP_plus_uconst 0x1e]
    7133                      .dwattr $C$DW$343, DW_AT_accessibility(DW_ACCESS_public)
    7134                      .dwattr $C$DW$343, DW_AT_decl_file("C:/sandbox/github/Lion-IRVT/Hardware/source/tida-010086/bts_F2837
    7135                      .dwattr $C$DW$343, DW_AT_decl_line(0xc5)
    7136                      .dwattr $C$DW$343, DW_AT_decl_column(0x0e)
    7137              
    7138              $C$DW$344       .dwtag  DW_TAG_member
    7139                      .dwattr $C$DW$344, DW_AT_type(*$C$DW$T$26)
    7140                      .dwattr $C$DW$344, DW_AT_name("direction_logic")
    7141                      .dwattr $C$DW$344, DW_AT_data_member_location[DW_OP_plus_uconst 0x1f]
    7142                      .dwattr $C$DW$344, DW_AT_accessibility(DW_ACCESS_public)
    7143                      .dwattr $C$DW$344, DW_AT_decl_file("C:/sandbox/github/Lion-IRVT/Hardware/source/tida-010086/bts_F2837
    7144                      .dwattr $C$DW$344, DW_AT_decl_line(0xc6)
    7145                      .dwattr $C$DW$344, DW_AT_decl_column(0x0e)
    7146              
    7147              $C$DW$345       .dwtag  DW_TAG_member
    7148                      .dwattr $C$DW$345, DW_AT_type(*$C$DW$T$22)
    7149                      .dwattr $C$DW$345, DW_AT_name("ioutTrip_16b")
    7150                      .dwattr $C$DW$345, DW_AT_data_member_location[DW_OP_plus_uconst 0x20]
    7151                      .dwattr $C$DW$345, DW_AT_accessibility(DW_ACCESS_public)
    7152                      .dwattr $C$DW$345, DW_AT_decl_file("C:/sandbox/github/Lion-IRVT/Hardware/source/tida-010086/bts_F2837
    7153                      .dwattr $C$DW$345, DW_AT_decl_line(0xc8)
    7154                      .dwattr $C$DW$345, DW_AT_decl_column(0x0d)
    7155              
    7156              $C$DW$346       .dwtag  DW_TAG_member
    7157                      .dwattr $C$DW$346, DW_AT_type(*$C$DW$T$22)
    7158                      .dwattr $C$DW$346, DW_AT_name("ioutTrip_n_16b")
    7159                      .dwattr $C$DW$346, DW_AT_data_member_location[DW_OP_plus_uconst 0x21]
    7160                      .dwattr $C$DW$346, DW_AT_accessibility(DW_ACCESS_public)
    7161                      .dwattr $C$DW$346, DW_AT_decl_file("C:/sandbox/github/Lion-IRVT/Hardware/source/tida-010086/bts_F2837
    7162                      .dwattr $C$DW$346, DW_AT_decl_line(0xc9)
    7163                      .dwattr $C$DW$346, DW_AT_decl_column(0x0d)
    7164              
    7165              $C$DW$347       .dwtag  DW_TAG_member
    7166                      .dwattr $C$DW$347, DW_AT_type(*$C$DW$T$26)
    7167                      .dwattr $C$DW$347, DW_AT_name("tripFlag")
    7168                      .dwattr $C$DW$347, DW_AT_data_member_location[DW_OP_plus_uconst 0x22]
    7169                      .dwattr $C$DW$347, DW_AT_accessibility(DW_ACCESS_public)
    7170                      .dwattr $C$DW$347, DW_AT_decl_file("C:/sandbox/github/Lion-IRVT/Hardware/source/tida-010086/bts_F2837
    7171                      .dwattr $C$DW$347, DW_AT_decl_line(0xca)
    7172                      .dwattr $C$DW$347, DW_AT_decl_column(0x0e)
    7173              
    7174                      .dwattr $C$DW$T$29, DW_AT_decl_file("C:/sandbox/github/Lion-IRVT/Hardware/source/tida-010086/bts_F283
    7175                      .dwattr $C$DW$T$29, DW_AT_decl_line(0xb0)
    7176                      .dwattr $C$DW$T$29, DW_AT_decl_column(0x01)
TMS320C2000 Assembler PC v22.6.1 Tue Aug 13 19:46:08 2024

Copyright (c) 1996-2018 Texas Instruments Incorporated
bts.asm                                                              PAGE  150

    7177                      .dwendtag $C$DW$T$29
    7178              
    7179                      .dwendtag $C$DW$TU$29
    7180              
    7181              
    7182              $C$DW$TU$68     .dwtag  DW_TAG_type_unit
    7183                      .dwmtype  $C$DW$T$68
    7184              $C$DW$T$68      .dwtag  DW_TAG_typedef
    7185                      .dwattr $C$DW$T$68, DW_AT_name("BTS_ctrlLoopVariable")
    7186                      .dwattr $C$DW$T$68, DW_AT_type(*$C$DW$T$29)
    7187                      .dwattr $C$DW$T$68, DW_AT_decl_file("C:/sandbox/github/Lion-IRVT/Hardware/source/tida-010086/bts_F283
    7188                      .dwattr $C$DW$T$68, DW_AT_decl_line(0xcc)
    7189                      .dwattr $C$DW$T$68, DW_AT_decl_column(0x02)
    7190              
    7191                      .dwendtag $C$DW$TU$68
    7192              
    7193              
    7194              $C$DW$TU$69     .dwtag  DW_TAG_type_unit
    7195                      .dwmtype  $C$DW$T$69
    7196              $C$DW$T$69      .dwtag  DW_TAG_pointer_type
    7197                      .dwattr $C$DW$T$69, DW_AT_type(*$C$DW$T$68)
    7198                      .dwattr $C$DW$T$69, DW_AT_address_class(0x20)
    7199              
    7200                      .dwendtag $C$DW$TU$69
    7201              
    7202              
    7203              $C$DW$TU$70     .dwtag  DW_TAG_type_unit
    7204                      .dwmtype  $C$DW$T$70
    7205              $C$DW$348       .dwtag  DW_TAG_TI_far_type
    7206                      .dwattr $C$DW$348, DW_AT_type(*$C$DW$T$69)
    7207              
    7208              $C$DW$T$70      .dwtag  DW_TAG_const_type
    7209                      .dwattr $C$DW$T$70, DW_AT_type(*$C$DW$348)
    7210              
    7211                      .dwendtag $C$DW$TU$70
    7212              
    7213              
    7214              $C$DW$TU$71     .dwtag  DW_TAG_type_unit
    7215                      .dwmtype  $C$DW$T$71
    7216              
    7217              $C$DW$T$71      .dwtag  DW_TAG_array_type
    7218                      .dwattr $C$DW$T$71, DW_AT_type(*$C$DW$T$68)
    7219                      .dwattr $C$DW$T$71, DW_AT_byte_size(0x120)
    7220              $C$DW$349       .dwtag  DW_TAG_subrange_type
    7221                      .dwattr $C$DW$349, DW_AT_upper_bound(0x07)
    7222              
    7223                      .dwendtag $C$DW$T$71
    7224              
    7225                      .dwendtag $C$DW$TU$71
    7226              
    7227              
    7228              $C$DW$TU$33     .dwtag  DW_TAG_type_unit
    7229                      .dwmtype  $C$DW$T$33
    7230              
    7231              $C$DW$T$33      .dwtag  DW_TAG_structure_type
TMS320C2000 Assembler PC v22.6.1 Tue Aug 13 19:46:08 2024

Copyright (c) 1996-2018 Texas Instruments Incorporated
bts.asm                                                              PAGE  151

    7232                      .dwattr $C$DW$T$33, DW_AT_byte_size(0x52)
    7233              $C$DW$350       .dwtag  DW_TAG_member
    7234                      .dwattr $C$DW$350, DW_AT_type(*$C$DW$T$19)
    7235                      .dwattr $C$DW$350, DW_AT_name("Isense_A")
    7236                      .dwattr $C$DW$350, DW_AT_accessibility(DW_ACCESS_public)
    7237                      .dwattr $C$DW$350, DW_AT_decl_file("C:/sandbox/github/Lion-IRVT/Hardware/source/tida-010086/bts_F2837
    7238                      .dwattr $C$DW$350, DW_AT_decl_line(0x5f)
    7239                      .dwattr $C$DW$350, DW_AT_decl_column(0x0f)
    7240              
    7241              $C$DW$351       .dwtag  DW_TAG_member
    7242                      .dwattr $C$DW$351, DW_AT_type(*$C$DW$T$19)
    7243                      .dwattr $C$DW$351, DW_AT_name("Vsense_V")
    7244                      .dwattr $C$DW$351, DW_AT_data_member_location[DW_OP_plus_uconst 0x2]
    7245                      .dwattr $C$DW$351, DW_AT_accessibility(DW_ACCESS_public)
    7246                      .dwattr $C$DW$351, DW_AT_decl_file("C:/sandbox/github/Lion-IRVT/Hardware/source/tida-010086/bts_F2837
    7247                      .dwattr $C$DW$351, DW_AT_decl_line(0x60)
    7248                      .dwattr $C$DW$351, DW_AT_decl_column(0x0f)
    7249              
    7250              $C$DW$352       .dwtag  DW_TAG_member
    7251                      .dwattr $C$DW$352, DW_AT_type(*$C$DW$T$30)
    7252                      .dwattr $C$DW$352, DW_AT_name("Isense_16b")
    7253                      .dwattr $C$DW$352, DW_AT_data_member_location[DW_OP_plus_uconst 0x4]
    7254                      .dwattr $C$DW$352, DW_AT_accessibility(DW_ACCESS_public)
    7255                      .dwattr $C$DW$352, DW_AT_decl_file("C:/sandbox/github/Lion-IRVT/Hardware/source/tida-010086/bts_F2837
    7256                      .dwattr $C$DW$352, DW_AT_decl_line(0x61)
    7257                      .dwattr $C$DW$352, DW_AT_decl_column(0x0d)
    7258              
    7259              $C$DW$353       .dwtag  DW_TAG_member
    7260                      .dwattr $C$DW$353, DW_AT_type(*$C$DW$T$30)
    7261                      .dwattr $C$DW$353, DW_AT_name("Vsense_16b")
    7262                      .dwattr $C$DW$353, DW_AT_data_member_location[DW_OP_plus_uconst 0x24]
    7263                      .dwattr $C$DW$353, DW_AT_accessibility(DW_ACCESS_public)
    7264                      .dwattr $C$DW$353, DW_AT_decl_file("C:/sandbox/github/Lion-IRVT/Hardware/source/tida-010086/bts_F2837
    7265                      .dwattr $C$DW$353, DW_AT_decl_line(0x62)
    7266                      .dwattr $C$DW$353, DW_AT_decl_column(0x0d)
    7267              
    7268              $C$DW$354       .dwtag  DW_TAG_member
    7269                      .dwattr $C$DW$354, DW_AT_type(*$C$DW$T$32)
    7270                      .dwattr $C$DW$354, DW_AT_name("Sum_I")
    7271                      .dwattr $C$DW$354, DW_AT_data_member_location[DW_OP_plus_uconst 0x44]
    7272                      .dwattr $C$DW$354, DW_AT_accessibility(DW_ACCESS_public)
    7273                      .dwattr $C$DW$354, DW_AT_decl_file("C:/sandbox/github/Lion-IRVT/Hardware/source/tida-010086/bts_F2837
    7274                      .dwattr $C$DW$354, DW_AT_decl_line(0x63)
    7275                      .dwattr $C$DW$354, DW_AT_decl_column(0x0d)
    7276              
    7277              $C$DW$355       .dwtag  DW_TAG_member
    7278                      .dwattr $C$DW$355, DW_AT_type(*$C$DW$T$32)
    7279                      .dwattr $C$DW$355, DW_AT_name("Sum_V")
    7280                      .dwattr $C$DW$355, DW_AT_data_member_location[DW_OP_plus_uconst 0x46]
    7281                      .dwattr $C$DW$355, DW_AT_accessibility(DW_ACCESS_public)
    7282                      .dwattr $C$DW$355, DW_AT_decl_file("C:/sandbox/github/Lion-IRVT/Hardware/source/tida-010086/bts_F2837
    7283                      .dwattr $C$DW$355, DW_AT_decl_line(0x64)
    7284                      .dwattr $C$DW$355, DW_AT_decl_column(0x0d)
    7285              
    7286              $C$DW$356       .dwtag  DW_TAG_member
TMS320C2000 Assembler PC v22.6.1 Tue Aug 13 19:46:08 2024

Copyright (c) 1996-2018 Texas Instruments Incorporated
bts.asm                                                              PAGE  152

    7287                      .dwattr $C$DW$356, DW_AT_type(*$C$DW$T$26)
    7288                      .dwattr $C$DW$356, DW_AT_name("Index")
    7289                      .dwattr $C$DW$356, DW_AT_data_member_location[DW_OP_plus_uconst 0x48]
    7290                      .dwattr $C$DW$356, DW_AT_accessibility(DW_ACCESS_public)
    7291                      .dwattr $C$DW$356, DW_AT_decl_file("C:/sandbox/github/Lion-IRVT/Hardware/source/tida-010086/bts_F2837
    7292                      .dwattr $C$DW$356, DW_AT_decl_line(0x65)
    7293                      .dwattr $C$DW$356, DW_AT_decl_column(0x0e)
    7294              
    7295              $C$DW$357       .dwtag  DW_TAG_member
    7296                      .dwattr $C$DW$357, DW_AT_type(*$C$DW$T$19)
    7297                      .dwattr $C$DW$357, DW_AT_name("IoutGain_A")
    7298                      .dwattr $C$DW$357, DW_AT_data_member_location[DW_OP_plus_uconst 0x4a]
    7299                      .dwattr $C$DW$357, DW_AT_accessibility(DW_ACCESS_public)
    7300                      .dwattr $C$DW$357, DW_AT_decl_file("C:/sandbox/github/Lion-IRVT/Hardware/source/tida-010086/bts_F2837
    7301                      .dwattr $C$DW$357, DW_AT_decl_line(0x66)
    7302                      .dwattr $C$DW$357, DW_AT_decl_column(0x0f)
    7303              
    7304              $C$DW$358       .dwtag  DW_TAG_member
    7305                      .dwattr $C$DW$358, DW_AT_type(*$C$DW$T$19)
    7306                      .dwattr $C$DW$358, DW_AT_name("IoutOffset_A")
    7307                      .dwattr $C$DW$358, DW_AT_data_member_location[DW_OP_plus_uconst 0x4c]
    7308                      .dwattr $C$DW$358, DW_AT_accessibility(DW_ACCESS_public)
    7309                      .dwattr $C$DW$358, DW_AT_decl_file("C:/sandbox/github/Lion-IRVT/Hardware/source/tida-010086/bts_F2837
    7310                      .dwattr $C$DW$358, DW_AT_decl_line(0x67)
    7311                      .dwattr $C$DW$358, DW_AT_decl_column(0x0f)
    7312              
    7313              $C$DW$359       .dwtag  DW_TAG_member
    7314                      .dwattr $C$DW$359, DW_AT_type(*$C$DW$T$19)
    7315                      .dwattr $C$DW$359, DW_AT_name("VoutGain_V")
    7316                      .dwattr $C$DW$359, DW_AT_data_member_location[DW_OP_plus_uconst 0x4e]
    7317                      .dwattr $C$DW$359, DW_AT_accessibility(DW_ACCESS_public)
    7318                      .dwattr $C$DW$359, DW_AT_decl_file("C:/sandbox/github/Lion-IRVT/Hardware/source/tida-010086/bts_F2837
    7319                      .dwattr $C$DW$359, DW_AT_decl_line(0x68)
    7320                      .dwattr $C$DW$359, DW_AT_decl_column(0x0f)
    7321              
    7322              $C$DW$360       .dwtag  DW_TAG_member
    7323                      .dwattr $C$DW$360, DW_AT_type(*$C$DW$T$19)
    7324                      .dwattr $C$DW$360, DW_AT_name("VoutOffset_V")
    7325                      .dwattr $C$DW$360, DW_AT_data_member_location[DW_OP_plus_uconst 0x50]
    7326                      .dwattr $C$DW$360, DW_AT_accessibility(DW_ACCESS_public)
    7327                      .dwattr $C$DW$360, DW_AT_decl_file("C:/sandbox/github/Lion-IRVT/Hardware/source/tida-010086/bts_F2837
    7328                      .dwattr $C$DW$360, DW_AT_decl_line(0x69)
    7329                      .dwattr $C$DW$360, DW_AT_decl_column(0x0f)
    7330              
    7331                      .dwattr $C$DW$T$33, DW_AT_decl_file("C:/sandbox/github/Lion-IRVT/Hardware/source/tida-010086/bts_F283
    7332                      .dwattr $C$DW$T$33, DW_AT_decl_line(0x5e)
    7333                      .dwattr $C$DW$T$33, DW_AT_decl_column(0x01)
    7334                      .dwendtag $C$DW$T$33
    7335              
    7336                      .dwendtag $C$DW$TU$33
    7337              
    7338              
    7339              $C$DW$TU$75     .dwtag  DW_TAG_type_unit
    7340                      .dwmtype  $C$DW$T$75
    7341              $C$DW$T$75      .dwtag  DW_TAG_typedef
TMS320C2000 Assembler PC v22.6.1 Tue Aug 13 19:46:08 2024

Copyright (c) 1996-2018 Texas Instruments Incorporated
bts.asm                                                              PAGE  153

    7342                      .dwattr $C$DW$T$75, DW_AT_name("BTS_measValue")
    7343                      .dwattr $C$DW$T$75, DW_AT_type(*$C$DW$T$33)
    7344                      .dwattr $C$DW$T$75, DW_AT_decl_file("C:/sandbox/github/Lion-IRVT/Hardware/source/tida-010086/bts_F283
    7345                      .dwattr $C$DW$T$75, DW_AT_decl_line(0x6b)
    7346                      .dwattr $C$DW$T$75, DW_AT_decl_column(0x02)
    7347              
    7348                      .dwendtag $C$DW$TU$75
    7349              
    7350              
    7351              $C$DW$TU$76     .dwtag  DW_TAG_type_unit
    7352                      .dwmtype  $C$DW$T$76
    7353              $C$DW$T$76      .dwtag  DW_TAG_pointer_type
    7354                      .dwattr $C$DW$T$76, DW_AT_type(*$C$DW$T$75)
    7355                      .dwattr $C$DW$T$76, DW_AT_address_class(0x20)
    7356              
    7357                      .dwendtag $C$DW$TU$76
    7358              
    7359              
    7360              $C$DW$TU$77     .dwtag  DW_TAG_type_unit
    7361                      .dwmtype  $C$DW$T$77
    7362              $C$DW$361       .dwtag  DW_TAG_TI_far_type
    7363                      .dwattr $C$DW$361, DW_AT_type(*$C$DW$T$76)
    7364              
    7365              $C$DW$T$77      .dwtag  DW_TAG_const_type
    7366                      .dwattr $C$DW$T$77, DW_AT_type(*$C$DW$361)
    7367              
    7368                      .dwendtag $C$DW$TU$77
    7369              
    7370              
    7371              $C$DW$TU$78     .dwtag  DW_TAG_type_unit
    7372                      .dwmtype  $C$DW$T$78
    7373              
    7374              $C$DW$T$78      .dwtag  DW_TAG_array_type
    7375                      .dwattr $C$DW$T$78, DW_AT_type(*$C$DW$T$75)
    7376                      .dwattr $C$DW$T$78, DW_AT_byte_size(0x290)
    7377              $C$DW$362       .dwtag  DW_TAG_subrange_type
    7378                      .dwattr $C$DW$362, DW_AT_upper_bound(0x07)
    7379              
    7380                      .dwendtag $C$DW$T$78
    7381              
    7382                      .dwendtag $C$DW$TU$78
    7383              
    7384              
    7385              $C$DW$TU$35     .dwtag  DW_TAG_type_unit
    7386                      .dwmtype  $C$DW$T$35
    7387              
    7388              $C$DW$T$35      .dwtag  DW_TAG_structure_type
    7389                      .dwattr $C$DW$T$35, DW_AT_byte_size(0x406)
    7390              $C$DW$363       .dwtag  DW_TAG_member
    7391                      .dwattr $C$DW$363, DW_AT_type(*$C$DW$T$34)
    7392                      .dwattr $C$DW$363, DW_AT_name("plantMagVect")
    7393                      .dwattr $C$DW$363, DW_AT_accessibility(DW_ACCESS_public)
    7394                      .dwattr $C$DW$363, DW_AT_decl_file("C:/sandbox/github/Lion-IRVT/Hardware/source/tida-010086/bts_F2837
    7395                      .dwattr $C$DW$363, DW_AT_decl_line(0x166)
    7396                      .dwattr $C$DW$363, DW_AT_decl_column(0x14)
TMS320C2000 Assembler PC v22.6.1 Tue Aug 13 19:46:08 2024

Copyright (c) 1996-2018 Texas Instruments Incorporated
bts.asm                                                              PAGE  154

    7397              
    7398              $C$DW$364       .dwtag  DW_TAG_member
    7399                      .dwattr $C$DW$364, DW_AT_type(*$C$DW$T$34)
    7400                      .dwattr $C$DW$364, DW_AT_name("plantPhaseVect")
    7401                      .dwattr $C$DW$364, DW_AT_data_member_location[DW_OP_plus_uconst 0xce]
    7402                      .dwattr $C$DW$364, DW_AT_accessibility(DW_ACCESS_public)
    7403                      .dwattr $C$DW$364, DW_AT_decl_file("C:/sandbox/github/Lion-IRVT/Hardware/source/tida-010086/bts_F2837
    7404                      .dwattr $C$DW$364, DW_AT_decl_line(0x167)
    7405                      .dwattr $C$DW$364, DW_AT_decl_column(0x14)
    7406              
    7407              $C$DW$365       .dwtag  DW_TAG_member
    7408                      .dwattr $C$DW$365, DW_AT_type(*$C$DW$T$34)
    7409                      .dwattr $C$DW$365, DW_AT_name("olMagVect")
    7410                      .dwattr $C$DW$365, DW_AT_data_member_location[DW_OP_plus_uconst 0x19c]
    7411                      .dwattr $C$DW$365, DW_AT_accessibility(DW_ACCESS_public)
    7412                      .dwattr $C$DW$365, DW_AT_decl_file("C:/sandbox/github/Lion-IRVT/Hardware/source/tida-010086/bts_F2837
    7413                      .dwattr $C$DW$365, DW_AT_decl_line(0x168)
    7414                      .dwattr $C$DW$365, DW_AT_decl_column(0x14)
    7415              
    7416              $C$DW$366       .dwtag  DW_TAG_member
    7417                      .dwattr $C$DW$366, DW_AT_type(*$C$DW$T$34)
    7418                      .dwattr $C$DW$366, DW_AT_name("olPhaseVect")
    7419                      .dwattr $C$DW$366, DW_AT_data_member_location[DW_OP_plus_uconst 0x26a]
    7420                      .dwattr $C$DW$366, DW_AT_accessibility(DW_ACCESS_public)
    7421                      .dwattr $C$DW$366, DW_AT_decl_file("C:/sandbox/github/Lion-IRVT/Hardware/source/tida-010086/bts_F2837
    7422                      .dwattr $C$DW$366, DW_AT_decl_line(0x169)
    7423                      .dwattr $C$DW$366, DW_AT_decl_column(0x14)
    7424              
    7425              $C$DW$367       .dwtag  DW_TAG_member
    7426                      .dwattr $C$DW$367, DW_AT_type(*$C$DW$T$34)
    7427                      .dwattr $C$DW$367, DW_AT_name("freqVect")
    7428                      .dwattr $C$DW$367, DW_AT_data_member_location[DW_OP_plus_uconst 0x338]
    7429                      .dwattr $C$DW$367, DW_AT_accessibility(DW_ACCESS_public)
    7430                      .dwattr $C$DW$367, DW_AT_decl_file("C:/sandbox/github/Lion-IRVT/Hardware/source/tida-010086/bts_F2837
    7431                      .dwattr $C$DW$367, DW_AT_decl_line(0x16a)
    7432                      .dwattr $C$DW$367, DW_AT_decl_column(0x14)
    7433              
    7434                      .dwattr $C$DW$T$35, DW_AT_decl_file("C:/sandbox/github/Lion-IRVT/Hardware/source/tida-010086/bts_F283
    7435                      .dwattr $C$DW$T$35, DW_AT_decl_line(0x165)
    7436                      .dwattr $C$DW$T$35, DW_AT_decl_column(0x14)
    7437                      .dwendtag $C$DW$T$35
    7438              
    7439                      .dwendtag $C$DW$TU$35
    7440              
    7441              
    7442              $C$DW$TU$82     .dwtag  DW_TAG_type_unit
    7443                      .dwmtype  $C$DW$T$82
    7444              $C$DW$T$82      .dwtag  DW_TAG_typedef
    7445                      .dwattr $C$DW$T$82, DW_AT_name("BTS_SfraDataType")
    7446                      .dwattr $C$DW$T$82, DW_AT_type(*$C$DW$T$35)
    7447                      .dwattr $C$DW$T$82, DW_AT_decl_file("C:/sandbox/github/Lion-IRVT/Hardware/source/tida-010086/bts_F283
    7448                      .dwattr $C$DW$T$82, DW_AT_decl_line(0x16b)
    7449                      .dwattr $C$DW$T$82, DW_AT_decl_column(0x07)
    7450              
    7451                      .dwendtag $C$DW$TU$82
TMS320C2000 Assembler PC v22.6.1 Tue Aug 13 19:46:08 2024

Copyright (c) 1996-2018 Texas Instruments Incorporated
bts.asm                                                              PAGE  155

    7452              
    7453              
    7454              $C$DW$TU$41     .dwtag  DW_TAG_type_unit
    7455                      .dwmtype  $C$DW$T$41
    7456              
    7457              $C$DW$T$41      .dwtag  DW_TAG_structure_type
    7458                      .dwattr $C$DW$T$41, DW_AT_name("I2CHandle")
    7459                      .dwattr $C$DW$T$41, DW_AT_byte_size(0x14)
    7460              $C$DW$368       .dwtag  DW_TAG_member
    7461                      .dwattr $C$DW$368, DW_AT_type(*$C$DW$T$37)
    7462                      .dwattr $C$DW$368, DW_AT_name("base")
    7463                      .dwattr $C$DW$368, DW_AT_accessibility(DW_ACCESS_public)
    7464                      .dwattr $C$DW$368, DW_AT_decl_file("C:\sandbox\github\Lion-IRVT\Hardware\source\tida-010086\bts_F2837
    7465                      .dwattr $C$DW$368, DW_AT_decl_line(0x48)
    7466                      .dwattr $C$DW$368, DW_AT_decl_column(0x0e)
    7467              
    7468              $C$DW$369       .dwtag  DW_TAG_member
    7469                      .dwattr $C$DW$369, DW_AT_type(*$C$DW$T$26)
    7470                      .dwattr $C$DW$369, DW_AT_name("SlaveAddr")
    7471                      .dwattr $C$DW$369, DW_AT_data_member_location[DW_OP_plus_uconst 0x2]
    7472                      .dwattr $C$DW$369, DW_AT_accessibility(DW_ACCESS_public)
    7473                      .dwattr $C$DW$369, DW_AT_decl_file("C:\sandbox\github\Lion-IRVT\Hardware\source\tida-010086\bts_F2837
    7474                      .dwattr $C$DW$369, DW_AT_decl_line(0x49)
    7475                      .dwattr $C$DW$369, DW_AT_decl_column(0x0e)
    7476              
    7477              $C$DW$370       .dwtag  DW_TAG_member
    7478                      .dwattr $C$DW$370, DW_AT_type(*$C$DW$T$38)
    7479                      .dwattr $C$DW$370, DW_AT_name("pControlAddr")
    7480                      .dwattr $C$DW$370, DW_AT_data_member_location[DW_OP_plus_uconst 0x4]
    7481                      .dwattr $C$DW$370, DW_AT_accessibility(DW_ACCESS_public)
    7482                      .dwattr $C$DW$370, DW_AT_decl_file("C:\sandbox\github\Lion-IRVT\Hardware\source\tida-010086\bts_F2837
    7483                      .dwattr $C$DW$370, DW_AT_decl_line(0x4a)
    7484                      .dwattr $C$DW$370, DW_AT_decl_column(0x0f)
    7485              
    7486              $C$DW$371       .dwtag  DW_TAG_member
    7487                      .dwattr $C$DW$371, DW_AT_type(*$C$DW$T$26)
    7488                      .dwattr $C$DW$371, DW_AT_name("NumOfAddrBytes")
    7489                      .dwattr $C$DW$371, DW_AT_data_member_location[DW_OP_plus_uconst 0x6]
    7490                      .dwattr $C$DW$371, DW_AT_accessibility(DW_ACCESS_public)
    7491                      .dwattr $C$DW$371, DW_AT_decl_file("C:\sandbox\github\Lion-IRVT\Hardware\source\tida-010086\bts_F2837
    7492                      .dwattr $C$DW$371, DW_AT_decl_line(0x4b)
    7493                      .dwattr $C$DW$371, DW_AT_decl_column(0x0e)
    7494              
    7495              $C$DW$372       .dwtag  DW_TAG_member
    7496                      .dwattr $C$DW$372, DW_AT_type(*$C$DW$T$39)
    7497                      .dwattr $C$DW$372, DW_AT_name("pTX_MsgBuffer")
    7498                      .dwattr $C$DW$372, DW_AT_data_member_location[DW_OP_plus_uconst 0x8]
    7499                      .dwattr $C$DW$372, DW_AT_accessibility(DW_ACCESS_public)
    7500                      .dwattr $C$DW$372, DW_AT_decl_file("C:\sandbox\github\Lion-IRVT\Hardware\source\tida-010086\bts_F2837
    7501                      .dwattr $C$DW$372, DW_AT_decl_line(0x4c)
    7502                      .dwattr $C$DW$372, DW_AT_decl_column(0x0f)
    7503              
    7504              $C$DW$373       .dwtag  DW_TAG_member
    7505                      .dwattr $C$DW$373, DW_AT_type(*$C$DW$T$39)
    7506                      .dwattr $C$DW$373, DW_AT_name("pRX_MsgBuffer")
TMS320C2000 Assembler PC v22.6.1 Tue Aug 13 19:46:08 2024

Copyright (c) 1996-2018 Texas Instruments Incorporated
bts.asm                                                              PAGE  156

    7507                      .dwattr $C$DW$373, DW_AT_data_member_location[DW_OP_plus_uconst 0xa]
    7508                      .dwattr $C$DW$373, DW_AT_accessibility(DW_ACCESS_public)
    7509                      .dwattr $C$DW$373, DW_AT_decl_file("C:\sandbox\github\Lion-IRVT\Hardware\source\tida-010086\bts_F2837
    7510                      .dwattr $C$DW$373, DW_AT_decl_line(0x4d)
    7511                      .dwattr $C$DW$373, DW_AT_decl_column(0x0f)
    7512              
    7513              $C$DW$374       .dwtag  DW_TAG_member
    7514                      .dwattr $C$DW$374, DW_AT_type(*$C$DW$T$26)
    7515                      .dwattr $C$DW$374, DW_AT_name("NumOfDataBytes")
    7516                      .dwattr $C$DW$374, DW_AT_data_member_location[DW_OP_plus_uconst 0xc]
    7517                      .dwattr $C$DW$374, DW_AT_accessibility(DW_ACCESS_public)
    7518                      .dwattr $C$DW$374, DW_AT_decl_file("C:\sandbox\github\Lion-IRVT\Hardware\source\tida-010086\bts_F2837
    7519                      .dwattr $C$DW$374, DW_AT_decl_line(0x4e)
    7520                      .dwattr $C$DW$374, DW_AT_decl_column(0x0e)
    7521              
    7522              $C$DW$375       .dwtag  DW_TAG_member
    7523                      .dwattr $C$DW$375, DW_AT_type(*$C$DW$T$40)
    7524                      .dwattr $C$DW$375, DW_AT_name("currentHandlePtr")
    7525                      .dwattr $C$DW$375, DW_AT_data_member_location[DW_OP_plus_uconst 0xe]
    7526                      .dwattr $C$DW$375, DW_AT_accessibility(DW_ACCESS_public)
    7527                      .dwattr $C$DW$375, DW_AT_decl_file("C:\sandbox\github\Lion-IRVT\Hardware\source\tida-010086\bts_F2837
    7528                      .dwattr $C$DW$375, DW_AT_decl_line(0x4f)
    7529                      .dwattr $C$DW$375, DW_AT_decl_column(0x17)
    7530              
    7531              $C$DW$376       .dwtag  DW_TAG_member
    7532                      .dwattr $C$DW$376, DW_AT_type(*$C$DW$T$26)
    7533                      .dwattr $C$DW$376, DW_AT_name("numofSixteenByte")
    7534                      .dwattr $C$DW$376, DW_AT_data_member_location[DW_OP_plus_uconst 0x10]
    7535                      .dwattr $C$DW$376, DW_AT_accessibility(DW_ACCESS_public)
    7536                      .dwattr $C$DW$376, DW_AT_decl_file("C:\sandbox\github\Lion-IRVT\Hardware\source\tida-010086\bts_F2837
    7537                      .dwattr $C$DW$376, DW_AT_decl_line(0x51)
    7538                      .dwattr $C$DW$376, DW_AT_decl_column(0x0e)
    7539              
    7540              $C$DW$377       .dwtag  DW_TAG_member
    7541                      .dwattr $C$DW$377, DW_AT_type(*$C$DW$T$26)
    7542                      .dwattr $C$DW$377, DW_AT_name("remainingBytes")
    7543                      .dwattr $C$DW$377, DW_AT_data_member_location[DW_OP_plus_uconst 0x11]
    7544                      .dwattr $C$DW$377, DW_AT_accessibility(DW_ACCESS_public)
    7545                      .dwattr $C$DW$377, DW_AT_decl_file("C:\sandbox\github\Lion-IRVT\Hardware\source\tida-010086\bts_F2837
    7546                      .dwattr $C$DW$377, DW_AT_decl_line(0x52)
    7547                      .dwattr $C$DW$377, DW_AT_decl_column(0x0e)
    7548              
    7549              $C$DW$378       .dwtag  DW_TAG_member
    7550                      .dwattr $C$DW$378, DW_AT_type(*$C$DW$T$26)
    7551                      .dwattr $C$DW$378, DW_AT_name("WriteCycleTime_in_us")
    7552                      .dwattr $C$DW$378, DW_AT_data_member_location[DW_OP_plus_uconst 0x12]
    7553                      .dwattr $C$DW$378, DW_AT_accessibility(DW_ACCESS_public)
    7554                      .dwattr $C$DW$378, DW_AT_decl_file("C:\sandbox\github\Lion-IRVT\Hardware\source\tida-010086\bts_F2837
    7555                      .dwattr $C$DW$378, DW_AT_decl_line(0x54)
    7556                      .dwattr $C$DW$378, DW_AT_decl_column(0x0e)
    7557              
    7558              $C$DW$379       .dwtag  DW_TAG_member
    7559                      .dwattr $C$DW$379, DW_AT_type(*$C$DW$T$26)
    7560                      .dwattr $C$DW$379, DW_AT_name("status")
    7561                      .dwattr $C$DW$379, DW_AT_data_member_location[DW_OP_plus_uconst 0x13]
TMS320C2000 Assembler PC v22.6.1 Tue Aug 13 19:46:08 2024

Copyright (c) 1996-2018 Texas Instruments Incorporated
bts.asm                                                              PAGE  157

    7562                      .dwattr $C$DW$379, DW_AT_accessibility(DW_ACCESS_public)
    7563                      .dwattr $C$DW$379, DW_AT_decl_file("C:\sandbox\github\Lion-IRVT\Hardware\source\tida-010086\bts_F2837
    7564                      .dwattr $C$DW$379, DW_AT_decl_line(0x56)
    7565                      .dwattr $C$DW$379, DW_AT_decl_column(0x0e)
    7566              
    7567                      .dwattr $C$DW$T$41, DW_AT_decl_file("C:\sandbox\github\Lion-IRVT\Hardware\source\tida-010086\bts_F283
    7568                      .dwattr $C$DW$T$41, DW_AT_decl_line(0x46)
    7569                      .dwattr $C$DW$T$41, DW_AT_decl_column(0x08)
    7570                      .dwendtag $C$DW$T$41
    7571              
    7572                      .dwendtag $C$DW$TU$41
    7573              
    7574              
    7575              $C$DW$TU$40     .dwtag  DW_TAG_type_unit
    7576                      .dwmtype  $C$DW$T$40
    7577              $C$DW$T$40      .dwtag  DW_TAG_pointer_type
    7578                      .dwattr $C$DW$T$40, DW_AT_type(*$C$DW$T$41)
    7579                      .dwattr $C$DW$T$40, DW_AT_address_class(0x20)
    7580              
    7581                      .dwendtag $C$DW$TU$40
    7582              
    7583              
    7584              $C$DW$TU$42     .dwtag  DW_TAG_type_unit
    7585                      .dwmtype  $C$DW$T$42
    7586              
    7587              $C$DW$T$42      .dwtag  DW_TAG_structure_type
    7588                      .dwattr $C$DW$T$42, DW_AT_name("_BTS_channelCalibration")
    7589                      .dwattr $C$DW$T$42, DW_AT_byte_size(0x14)
    7590              $C$DW$380       .dwtag  DW_TAG_member
    7591                      .dwattr $C$DW$380, DW_AT_type(*$C$DW$T$37)
    7592                      .dwattr $C$DW$380, DW_AT_name("header")
    7593                      .dwattr $C$DW$380, DW_AT_accessibility(DW_ACCESS_public)
    7594                      .dwattr $C$DW$380, DW_AT_decl_file("C:/sandbox/github/Lion-IRVT/Hardware/source/tida-010086/bts_F2837
    7595                      .dwattr $C$DW$380, DW_AT_decl_line(0x7d)
    7596                      .dwattr $C$DW$380, DW_AT_decl_column(0x0f)
    7597              
    7598              $C$DW$381       .dwtag  DW_TAG_member
    7599                      .dwattr $C$DW$381, DW_AT_type(*$C$DW$T$37)
    7600                      .dwattr $C$DW$381, DW_AT_name("dateTime")
    7601                      .dwattr $C$DW$381, DW_AT_data_member_location[DW_OP_plus_uconst 0x2]
    7602                      .dwattr $C$DW$381, DW_AT_accessibility(DW_ACCESS_public)
    7603                      .dwattr $C$DW$381, DW_AT_decl_file("C:/sandbox/github/Lion-IRVT/Hardware/source/tida-010086/bts_F2837
    7604                      .dwattr $C$DW$381, DW_AT_decl_line(0x7e)
    7605                      .dwattr $C$DW$381, DW_AT_decl_column(0x0f)
    7606              
    7607              $C$DW$382       .dwtag  DW_TAG_member
    7608                      .dwattr $C$DW$382, DW_AT_type(*$C$DW$T$19)
    7609                      .dwattr $C$DW$382, DW_AT_name("IoutGain_pu")
    7610                      .dwattr $C$DW$382, DW_AT_data_member_location[DW_OP_plus_uconst 0x4]
    7611                      .dwattr $C$DW$382, DW_AT_accessibility(DW_ACCESS_public)
    7612                      .dwattr $C$DW$382, DW_AT_decl_file("C:/sandbox/github/Lion-IRVT/Hardware/source/tida-010086/bts_F2837
    7613                      .dwattr $C$DW$382, DW_AT_decl_line(0x80)
    7614                      .dwattr $C$DW$382, DW_AT_decl_column(0x0f)
    7615              
    7616              $C$DW$383       .dwtag  DW_TAG_member
TMS320C2000 Assembler PC v22.6.1 Tue Aug 13 19:46:08 2024

Copyright (c) 1996-2018 Texas Instruments Incorporated
bts.asm                                                              PAGE  158

    7617                      .dwattr $C$DW$383, DW_AT_type(*$C$DW$T$19)
    7618                      .dwattr $C$DW$383, DW_AT_name("IoutOffset_pu")
    7619                      .dwattr $C$DW$383, DW_AT_data_member_location[DW_OP_plus_uconst 0x6]
    7620                      .dwattr $C$DW$383, DW_AT_accessibility(DW_ACCESS_public)
    7621                      .dwattr $C$DW$383, DW_AT_decl_file("C:/sandbox/github/Lion-IRVT/Hardware/source/tida-010086/bts_F2837
    7622                      .dwattr $C$DW$383, DW_AT_decl_line(0x81)
    7623                      .dwattr $C$DW$383, DW_AT_decl_column(0x0f)
    7624              
    7625              $C$DW$384       .dwtag  DW_TAG_member
    7626                      .dwattr $C$DW$384, DW_AT_type(*$C$DW$T$19)
    7627                      .dwattr $C$DW$384, DW_AT_name("IoutGain_A")
    7628                      .dwattr $C$DW$384, DW_AT_data_member_location[DW_OP_plus_uconst 0x8]
    7629                      .dwattr $C$DW$384, DW_AT_accessibility(DW_ACCESS_public)
    7630                      .dwattr $C$DW$384, DW_AT_decl_file("C:/sandbox/github/Lion-IRVT/Hardware/source/tida-010086/bts_F2837
    7631                      .dwattr $C$DW$384, DW_AT_decl_line(0x82)
    7632                      .dwattr $C$DW$384, DW_AT_decl_column(0x0f)
    7633              
    7634              $C$DW$385       .dwtag  DW_TAG_member
    7635                      .dwattr $C$DW$385, DW_AT_type(*$C$DW$T$19)
    7636                      .dwattr $C$DW$385, DW_AT_name("IoutOffset_A")
    7637                      .dwattr $C$DW$385, DW_AT_data_member_location[DW_OP_plus_uconst 0xa]
    7638                      .dwattr $C$DW$385, DW_AT_accessibility(DW_ACCESS_public)
    7639                      .dwattr $C$DW$385, DW_AT_decl_file("C:/sandbox/github/Lion-IRVT/Hardware/source/tida-010086/bts_F2837
    7640                      .dwattr $C$DW$385, DW_AT_decl_line(0x83)
    7641                      .dwattr $C$DW$385, DW_AT_decl_column(0x0f)
    7642              
    7643              $C$DW$386       .dwtag  DW_TAG_member
    7644                      .dwattr $C$DW$386, DW_AT_type(*$C$DW$T$19)
    7645                      .dwattr $C$DW$386, DW_AT_name("VoutGain_pu")
    7646                      .dwattr $C$DW$386, DW_AT_data_member_location[DW_OP_plus_uconst 0xc]
    7647                      .dwattr $C$DW$386, DW_AT_accessibility(DW_ACCESS_public)
    7648                      .dwattr $C$DW$386, DW_AT_decl_file("C:/sandbox/github/Lion-IRVT/Hardware/source/tida-010086/bts_F2837
    7649                      .dwattr $C$DW$386, DW_AT_decl_line(0x85)
    7650                      .dwattr $C$DW$386, DW_AT_decl_column(0x0f)
    7651              
    7652              $C$DW$387       .dwtag  DW_TAG_member
    7653                      .dwattr $C$DW$387, DW_AT_type(*$C$DW$T$19)
    7654                      .dwattr $C$DW$387, DW_AT_name("VoutOffset_pu")
    7655                      .dwattr $C$DW$387, DW_AT_data_member_location[DW_OP_plus_uconst 0xe]
    7656                      .dwattr $C$DW$387, DW_AT_accessibility(DW_ACCESS_public)
    7657                      .dwattr $C$DW$387, DW_AT_decl_file("C:/sandbox/github/Lion-IRVT/Hardware/source/tida-010086/bts_F2837
    7658                      .dwattr $C$DW$387, DW_AT_decl_line(0x86)
    7659                      .dwattr $C$DW$387, DW_AT_decl_column(0x0f)
    7660              
    7661              $C$DW$388       .dwtag  DW_TAG_member
    7662                      .dwattr $C$DW$388, DW_AT_type(*$C$DW$T$19)
    7663                      .dwattr $C$DW$388, DW_AT_name("VoutGain_V")
    7664                      .dwattr $C$DW$388, DW_AT_data_member_location[DW_OP_plus_uconst 0x10]
    7665                      .dwattr $C$DW$388, DW_AT_accessibility(DW_ACCESS_public)
    7666                      .dwattr $C$DW$388, DW_AT_decl_file("C:/sandbox/github/Lion-IRVT/Hardware/source/tida-010086/bts_F2837
    7667                      .dwattr $C$DW$388, DW_AT_decl_line(0x87)
    7668                      .dwattr $C$DW$388, DW_AT_decl_column(0x0f)
    7669              
    7670              $C$DW$389       .dwtag  DW_TAG_member
    7671                      .dwattr $C$DW$389, DW_AT_type(*$C$DW$T$19)
TMS320C2000 Assembler PC v22.6.1 Tue Aug 13 19:46:08 2024

Copyright (c) 1996-2018 Texas Instruments Incorporated
bts.asm                                                              PAGE  159

    7672                      .dwattr $C$DW$389, DW_AT_name("VoutOffset_V")
    7673                      .dwattr $C$DW$389, DW_AT_data_member_location[DW_OP_plus_uconst 0x12]
    7674                      .dwattr $C$DW$389, DW_AT_accessibility(DW_ACCESS_public)
    7675                      .dwattr $C$DW$389, DW_AT_decl_file("C:/sandbox/github/Lion-IRVT/Hardware/source/tida-010086/bts_F2837
    7676                      .dwattr $C$DW$389, DW_AT_decl_line(0x88)
    7677                      .dwattr $C$DW$389, DW_AT_decl_column(0x0f)
    7678              
    7679                      .dwattr $C$DW$T$42, DW_AT_decl_file("C:/sandbox/github/Lion-IRVT/Hardware/source/tida-010086/bts_F283
    7680                      .dwattr $C$DW$T$42, DW_AT_decl_line(0x78)
    7681                      .dwattr $C$DW$T$42, DW_AT_decl_column(0x10)
    7682                      .dwendtag $C$DW$T$42
    7683              
    7684                      .dwendtag $C$DW$TU$42
    7685              
    7686              
    7687              $C$DW$TU$84     .dwtag  DW_TAG_type_unit
    7688                      .dwmtype  $C$DW$T$84
    7689              $C$DW$T$84      .dwtag  DW_TAG_typedef
    7690                      .dwattr $C$DW$T$84, DW_AT_name("BTS_channelCalibration")
    7691                      .dwattr $C$DW$T$84, DW_AT_type(*$C$DW$T$42)
    7692                      .dwattr $C$DW$T$84, DW_AT_decl_file("C:/sandbox/github/Lion-IRVT/Hardware/source/tida-010086/bts_F283
    7693                      .dwattr $C$DW$T$84, DW_AT_decl_line(0x8a)
    7694                      .dwattr $C$DW$T$84, DW_AT_decl_column(0x03)
    7695              
    7696                      .dwendtag $C$DW$TU$84
    7697              
    7698              
    7699              $C$DW$TU$44     .dwtag  DW_TAG_type_unit
    7700                      .dwmtype  $C$DW$T$44
    7701              
    7702              $C$DW$T$44      .dwtag  DW_TAG_structure_type
    7703                      .dwattr $C$DW$T$44, DW_AT_name("_Complex_double")
    7704                      .dwattr $C$DW$T$44, DW_AT_byte_size(0x08)
    7705              $C$DW$390       .dwtag  DW_TAG_member
    7706                      .dwattr $C$DW$390, DW_AT_type(*$C$DW$T$43)
    7707                      .dwattr $C$DW$390, DW_AT_name("_Vals")
    7708                      .dwattr $C$DW$390, DW_AT_accessibility(DW_ACCESS_public)
    7709                      .dwattr $C$DW$390, DW_AT_decl_file("C:\sandbox\github\Lion-IRVT\Hardware\source\tida-010086\bts_F2837
    7710                      .dwattr $C$DW$390, DW_AT_decl_line(0xe9)
    7711                      .dwattr $C$DW$390, DW_AT_decl_column(0x18)
    7712              
    7713                      .dwendtag $C$DW$T$44
    7714              
    7715                      .dwendtag $C$DW$TU$44
    7716              
    7717              
    7718              $C$DW$TU$86     .dwtag  DW_TAG_type_unit
    7719                      .dwmtype  $C$DW$T$86
    7720              $C$DW$T$86      .dwtag  DW_TAG_typedef
    7721                      .dwattr $C$DW$T$86, DW_AT_name("_Complex_double")
    7722                      .dwattr $C$DW$T$86, DW_AT_type(*$C$DW$T$44)
    7723                      .dwattr $C$DW$T$86, DW_AT_decl_file("C:\sandbox\github\Lion-IRVT\Hardware\source\tida-010086\bts_F283
    7724                      .dwattr $C$DW$T$86, DW_AT_decl_line(0xe9)
    7725                      .dwattr $C$DW$T$86, DW_AT_decl_column(0x18)
    7726              
TMS320C2000 Assembler PC v22.6.1 Tue Aug 13 19:46:08 2024

Copyright (c) 1996-2018 Texas Instruments Incorporated
bts.asm                                                              PAGE  160

    7727                      .dwendtag $C$DW$TU$86
    7728              
    7729              
    7730              $C$DW$TU$46     .dwtag  DW_TAG_type_unit
    7731                      .dwmtype  $C$DW$T$46
    7732              
    7733              $C$DW$T$46      .dwtag  DW_TAG_structure_type
    7734                      .dwattr $C$DW$T$46, DW_AT_name("_Complex_float")
    7735                      .dwattr $C$DW$T$46, DW_AT_byte_size(0x04)
    7736              $C$DW$391       .dwtag  DW_TAG_member
    7737                      .dwattr $C$DW$391, DW_AT_type(*$C$DW$T$45)
    7738                      .dwattr $C$DW$391, DW_AT_name("_Vals")
    7739                      .dwattr $C$DW$391, DW_AT_accessibility(DW_ACCESS_public)
    7740                      .dwattr $C$DW$391, DW_AT_decl_file("C:\sandbox\github\Lion-IRVT\Hardware\source\tida-010086\bts_F2837
    7741                      .dwattr $C$DW$391, DW_AT_decl_line(0xe9)
    7742                      .dwattr $C$DW$391, DW_AT_decl_column(0x18)
    7743              
    7744                      .dwendtag $C$DW$T$46
    7745              
    7746                      .dwendtag $C$DW$TU$46
    7747              
    7748              
    7749              $C$DW$TU$87     .dwtag  DW_TAG_type_unit
    7750                      .dwmtype  $C$DW$T$87
    7751              $C$DW$T$87      .dwtag  DW_TAG_typedef
    7752                      .dwattr $C$DW$T$87, DW_AT_name("_Complex_float")
    7753                      .dwattr $C$DW$T$87, DW_AT_type(*$C$DW$T$46)
    7754                      .dwattr $C$DW$T$87, DW_AT_decl_file("C:\sandbox\github\Lion-IRVT\Hardware\source\tida-010086\bts_F283
    7755                      .dwattr $C$DW$T$87, DW_AT_decl_line(0xe9)
    7756                      .dwattr $C$DW$T$87, DW_AT_decl_column(0x18)
    7757              
    7758                      .dwendtag $C$DW$TU$87
    7759              
    7760              
    7761              $C$DW$TU$48     .dwtag  DW_TAG_type_unit
    7762                      .dwmtype  $C$DW$T$48
    7763              
    7764              $C$DW$T$48      .dwtag  DW_TAG_structure_type
    7765                      .dwattr $C$DW$T$48, DW_AT_name("_Complex_long_double")
    7766                      .dwattr $C$DW$T$48, DW_AT_byte_size(0x08)
    7767              $C$DW$392       .dwtag  DW_TAG_member
    7768                      .dwattr $C$DW$392, DW_AT_type(*$C$DW$T$47)
    7769                      .dwattr $C$DW$392, DW_AT_name("_Vals")
    7770                      .dwattr $C$DW$392, DW_AT_accessibility(DW_ACCESS_public)
    7771                      .dwattr $C$DW$392, DW_AT_decl_file("C:\sandbox\github\Lion-IRVT\Hardware\source\tida-010086\bts_F2837
    7772                      .dwattr $C$DW$392, DW_AT_decl_line(0xe9)
    7773                      .dwattr $C$DW$392, DW_AT_decl_column(0x18)
    7774              
    7775                      .dwendtag $C$DW$T$48
    7776              
    7777                      .dwendtag $C$DW$TU$48
    7778              
    7779              
    7780              $C$DW$TU$89     .dwtag  DW_TAG_type_unit
    7781                      .dwmtype  $C$DW$T$89
TMS320C2000 Assembler PC v22.6.1 Tue Aug 13 19:46:08 2024

Copyright (c) 1996-2018 Texas Instruments Incorporated
bts.asm                                                              PAGE  161

    7782              $C$DW$T$89      .dwtag  DW_TAG_typedef
    7783                      .dwattr $C$DW$T$89, DW_AT_name("_Complex_long_double")
    7784                      .dwattr $C$DW$T$89, DW_AT_type(*$C$DW$T$48)
    7785                      .dwattr $C$DW$T$89, DW_AT_decl_file("C:\sandbox\github\Lion-IRVT\Hardware\source\tida-010086\bts_F283
    7786                      .dwattr $C$DW$T$89, DW_AT_decl_line(0xe9)
    7787                      .dwattr $C$DW$T$89, DW_AT_decl_column(0x18)
    7788              
    7789                      .dwendtag $C$DW$TU$89
    7790              
    7791              
    7792              $C$DW$TU$2      .dwtag  DW_TAG_type_unit
    7793                      .dwmtype  $C$DW$T$2
    7794              $C$DW$T$2       .dwtag  DW_TAG_unspecified_type
    7795                      .dwattr $C$DW$T$2, DW_AT_name("void")
    7796              
    7797                      .dwendtag $C$DW$TU$2
    7798              
    7799              
    7800              $C$DW$TU$4      .dwtag  DW_TAG_type_unit
    7801                      .dwmtype  $C$DW$T$4
    7802              $C$DW$T$4       .dwtag  DW_TAG_base_type
    7803                      .dwattr $C$DW$T$4, DW_AT_encoding(DW_ATE_boolean)
    7804                      .dwattr $C$DW$T$4, DW_AT_name("bool")
    7805                      .dwattr $C$DW$T$4, DW_AT_byte_size(0x01)
    7806              
    7807                      .dwendtag $C$DW$TU$4
    7808              
    7809              
    7810              $C$DW$TU$5      .dwtag  DW_TAG_type_unit
    7811                      .dwmtype  $C$DW$T$5
    7812              $C$DW$T$5       .dwtag  DW_TAG_base_type
    7813                      .dwattr $C$DW$T$5, DW_AT_encoding(DW_ATE_signed_char)
    7814                      .dwattr $C$DW$T$5, DW_AT_name("signed char")
    7815                      .dwattr $C$DW$T$5, DW_AT_byte_size(0x01)
    7816              
    7817                      .dwendtag $C$DW$TU$5
    7818              
    7819              
    7820              $C$DW$TU$6      .dwtag  DW_TAG_type_unit
    7821                      .dwmtype  $C$DW$T$6
    7822              $C$DW$T$6       .dwtag  DW_TAG_base_type
    7823                      .dwattr $C$DW$T$6, DW_AT_encoding(DW_ATE_unsigned_char)
    7824                      .dwattr $C$DW$T$6, DW_AT_name("unsigned char")
    7825                      .dwattr $C$DW$T$6, DW_AT_byte_size(0x01)
    7826              
    7827                      .dwendtag $C$DW$TU$6
    7828              
    7829              
    7830              $C$DW$TU$7      .dwtag  DW_TAG_type_unit
    7831                      .dwmtype  $C$DW$T$7
    7832              $C$DW$T$7       .dwtag  DW_TAG_base_type
    7833                      .dwattr $C$DW$T$7, DW_AT_encoding(DW_ATE_signed_char)
    7834                      .dwattr $C$DW$T$7, DW_AT_name("wchar_t")
    7835                      .dwattr $C$DW$T$7, DW_AT_byte_size(0x02)
    7836              
TMS320C2000 Assembler PC v22.6.1 Tue Aug 13 19:46:08 2024

Copyright (c) 1996-2018 Texas Instruments Incorporated
bts.asm                                                              PAGE  162

    7837                      .dwendtag $C$DW$TU$7
    7838              
    7839              
    7840              $C$DW$TU$8      .dwtag  DW_TAG_type_unit
    7841                      .dwmtype  $C$DW$T$8
    7842              $C$DW$T$8       .dwtag  DW_TAG_base_type
    7843                      .dwattr $C$DW$T$8, DW_AT_encoding(DW_ATE_signed)
    7844                      .dwattr $C$DW$T$8, DW_AT_name("short")
    7845                      .dwattr $C$DW$T$8, DW_AT_byte_size(0x01)
    7846              
    7847                      .dwendtag $C$DW$TU$8
    7848              
    7849              
    7850              $C$DW$TU$9      .dwtag  DW_TAG_type_unit
    7851                      .dwmtype  $C$DW$T$9
    7852              $C$DW$T$9       .dwtag  DW_TAG_base_type
    7853                      .dwattr $C$DW$T$9, DW_AT_encoding(DW_ATE_unsigned)
    7854                      .dwattr $C$DW$T$9, DW_AT_name("unsigned short")
    7855                      .dwattr $C$DW$T$9, DW_AT_byte_size(0x01)
    7856              
    7857                      .dwendtag $C$DW$TU$9
    7858              
    7859              
    7860              $C$DW$TU$10     .dwtag  DW_TAG_type_unit
    7861                      .dwmtype  $C$DW$T$10
    7862              $C$DW$T$10      .dwtag  DW_TAG_base_type
    7863                      .dwattr $C$DW$T$10, DW_AT_encoding(DW_ATE_signed)
    7864                      .dwattr $C$DW$T$10, DW_AT_name("int")
    7865                      .dwattr $C$DW$T$10, DW_AT_byte_size(0x01)
    7866              
    7867                      .dwendtag $C$DW$TU$10
    7868              
    7869              
    7870              $C$DW$TU$21     .dwtag  DW_TAG_type_unit
    7871                      .dwmtype  $C$DW$T$21
    7872              $C$DW$T$21      .dwtag  DW_TAG_typedef
    7873                      .dwattr $C$DW$T$21, DW_AT_name("__int16_t")
    7874                      .dwattr $C$DW$T$21, DW_AT_type(*$C$DW$T$10)
    7875                      .dwattr $C$DW$T$21, DW_AT_decl_file("C:/ti/ccs1271/ccs/tools/compiler/ti-cgt-c2000_22.6.1.LTS/include
    7876                      .dwattr $C$DW$T$21, DW_AT_decl_line(0x40)
    7877                      .dwattr $C$DW$T$21, DW_AT_decl_column(0x1d)
    7878              
    7879                      .dwendtag $C$DW$TU$21
    7880              
    7881              
    7882              $C$DW$TU$22     .dwtag  DW_TAG_type_unit
    7883                      .dwmtype  $C$DW$T$22
    7884              $C$DW$T$22      .dwtag  DW_TAG_typedef
    7885                      .dwattr $C$DW$T$22, DW_AT_name("int16_t")
    7886                      .dwattr $C$DW$T$22, DW_AT_type(*$C$DW$T$21)
    7887                      .dwattr $C$DW$T$22, DW_AT_decl_file("C:/ti/ccs1271/ccs/tools/compiler/ti-cgt-c2000_22.6.1.LTS/include
    7888                      .dwattr $C$DW$T$22, DW_AT_decl_line(0x2b)
    7889                      .dwattr $C$DW$T$22, DW_AT_decl_column(0x14)
    7890              
    7891                      .dwendtag $C$DW$TU$22
TMS320C2000 Assembler PC v22.6.1 Tue Aug 13 19:46:08 2024

Copyright (c) 1996-2018 Texas Instruments Incorporated
bts.asm                                                              PAGE  163

    7892              
    7893              
    7894              $C$DW$TU$30     .dwtag  DW_TAG_type_unit
    7895                      .dwmtype  $C$DW$T$30
    7896              
    7897              $C$DW$T$30      .dwtag  DW_TAG_array_type
    7898                      .dwattr $C$DW$T$30, DW_AT_type(*$C$DW$T$22)
    7899                      .dwattr $C$DW$T$30, DW_AT_byte_size(0x20)
    7900              $C$DW$393       .dwtag  DW_TAG_subrange_type
    7901                      .dwattr $C$DW$393, DW_AT_upper_bound(0x1f)
    7902              
    7903                      .dwendtag $C$DW$T$30
    7904              
    7905                      .dwendtag $C$DW$TU$30
    7906              
    7907              
    7908              $C$DW$TU$11     .dwtag  DW_TAG_type_unit
    7909                      .dwmtype  $C$DW$T$11
    7910              $C$DW$T$11      .dwtag  DW_TAG_base_type
    7911                      .dwattr $C$DW$T$11, DW_AT_encoding(DW_ATE_unsigned)
    7912                      .dwattr $C$DW$T$11, DW_AT_name("unsigned int")
    7913                      .dwattr $C$DW$T$11, DW_AT_byte_size(0x01)
    7914              
    7915                      .dwendtag $C$DW$TU$11
    7916              
    7917              
    7918              $C$DW$TU$25     .dwtag  DW_TAG_type_unit
    7919                      .dwmtype  $C$DW$T$25
    7920              $C$DW$T$25      .dwtag  DW_TAG_typedef
    7921                      .dwattr $C$DW$T$25, DW_AT_name("__uint16_t")
    7922                      .dwattr $C$DW$T$25, DW_AT_type(*$C$DW$T$11)
    7923                      .dwattr $C$DW$T$25, DW_AT_decl_file("C:/ti/ccs1271/ccs/tools/compiler/ti-cgt-c2000_22.6.1.LTS/include
    7924                      .dwattr $C$DW$T$25, DW_AT_decl_line(0x41)
    7925                      .dwattr $C$DW$T$25, DW_AT_decl_column(0x1c)
    7926              
    7927                      .dwendtag $C$DW$TU$25
    7928              
    7929              
    7930              $C$DW$TU$26     .dwtag  DW_TAG_type_unit
    7931                      .dwmtype  $C$DW$T$26
    7932              $C$DW$T$26      .dwtag  DW_TAG_typedef
    7933                      .dwattr $C$DW$T$26, DW_AT_name("uint16_t")
    7934                      .dwattr $C$DW$T$26, DW_AT_type(*$C$DW$T$25)
    7935                      .dwattr $C$DW$T$26, DW_AT_decl_file("C:/ti/ccs1271/ccs/tools/compiler/ti-cgt-c2000_22.6.1.LTS/include
    7936                      .dwattr $C$DW$T$26, DW_AT_decl_line(0x41)
    7937                      .dwattr $C$DW$T$26, DW_AT_decl_column(0x15)
    7938              
    7939                      .dwendtag $C$DW$TU$26
    7940              
    7941              
    7942              $C$DW$TU$39     .dwtag  DW_TAG_type_unit
    7943                      .dwmtype  $C$DW$T$39
    7944              $C$DW$T$39      .dwtag  DW_TAG_pointer_type
    7945                      .dwattr $C$DW$T$39, DW_AT_type(*$C$DW$T$26)
    7946                      .dwattr $C$DW$T$39, DW_AT_address_class(0x20)
TMS320C2000 Assembler PC v22.6.1 Tue Aug 13 19:46:08 2024

Copyright (c) 1996-2018 Texas Instruments Incorporated
bts.asm                                                              PAGE  164

    7947              
    7948                      .dwendtag $C$DW$TU$39
    7949              
    7950              
    7951              $C$DW$TU$129    .dwtag  DW_TAG_type_unit
    7952                      .dwmtype  $C$DW$T$129
    7953              
    7954              $C$DW$T$129     .dwtag  DW_TAG_array_type
    7955                      .dwattr $C$DW$T$129, DW_AT_type(*$C$DW$T$26)
    7956                      .dwattr $C$DW$T$129, DW_AT_byte_size(0x14)
    7957              $C$DW$394       .dwtag  DW_TAG_subrange_type
    7958                      .dwattr $C$DW$394, DW_AT_upper_bound(0x13)
    7959              
    7960                      .dwendtag $C$DW$T$129
    7961              
    7962                      .dwendtag $C$DW$TU$129
    7963              
    7964              
    7965              $C$DW$TU$130    .dwtag  DW_TAG_type_unit
    7966                      .dwmtype  $C$DW$T$130
    7967              
    7968              $C$DW$T$130     .dwtag  DW_TAG_array_type
    7969                      .dwattr $C$DW$T$130, DW_AT_type(*$C$DW$T$26)
    7970                      .dwattr $C$DW$T$130, DW_AT_byte_size(0x40)
    7971              $C$DW$395       .dwtag  DW_TAG_subrange_type
    7972                      .dwattr $C$DW$395, DW_AT_upper_bound(0x3f)
    7973              
    7974                      .dwendtag $C$DW$T$130
    7975              
    7976                      .dwendtag $C$DW$TU$130
    7977              
    7978              
    7979              $C$DW$TU$27     .dwtag  DW_TAG_type_unit
    7980                      .dwmtype  $C$DW$T$27
    7981              $C$DW$396       .dwtag  DW_TAG_TI_far_type
    7982                      .dwattr $C$DW$396, DW_AT_type(*$C$DW$T$26)
    7983              
    7984              $C$DW$T$27      .dwtag  DW_TAG_volatile_type
    7985                      .dwattr $C$DW$T$27, DW_AT_type(*$C$DW$396)
    7986              
    7987                      .dwendtag $C$DW$TU$27
    7988              
    7989              
    7990              $C$DW$TU$131    .dwtag  DW_TAG_type_unit
    7991                      .dwmtype  $C$DW$T$131
    7992              $C$DW$397       .dwtag  DW_TAG_TI_far_type
    7993                      .dwattr $C$DW$397, DW_AT_type(*$C$DW$T$26)
    7994              
    7995              $C$DW$T$131     .dwtag  DW_TAG_const_type
    7996                      .dwattr $C$DW$T$131, DW_AT_type(*$C$DW$397)
    7997              
    7998                      .dwendtag $C$DW$TU$131
    7999              
    8000              
    8001              $C$DW$TU$12     .dwtag  DW_TAG_type_unit
TMS320C2000 Assembler PC v22.6.1 Tue Aug 13 19:46:08 2024

Copyright (c) 1996-2018 Texas Instruments Incorporated
bts.asm                                                              PAGE  165

    8002                      .dwmtype  $C$DW$T$12
    8003              $C$DW$T$12      .dwtag  DW_TAG_base_type
    8004                      .dwattr $C$DW$T$12, DW_AT_encoding(DW_ATE_signed)
    8005                      .dwattr $C$DW$T$12, DW_AT_name("long")
    8006                      .dwattr $C$DW$T$12, DW_AT_byte_size(0x02)
    8007              
    8008                      .dwendtag $C$DW$TU$12
    8009              
    8010              
    8011              $C$DW$TU$31     .dwtag  DW_TAG_type_unit
    8012                      .dwmtype  $C$DW$T$31
    8013              $C$DW$T$31      .dwtag  DW_TAG_typedef
    8014                      .dwattr $C$DW$T$31, DW_AT_name("__int32_t")
    8015                      .dwattr $C$DW$T$31, DW_AT_type(*$C$DW$T$12)
    8016                      .dwattr $C$DW$T$31, DW_AT_decl_file("C:/ti/ccs1271/ccs/tools/compiler/ti-cgt-c2000_22.6.1.LTS/include
    8017                      .dwattr $C$DW$T$31, DW_AT_decl_line(0x42)
    8018                      .dwattr $C$DW$T$31, DW_AT_decl_column(0x1d)
    8019              
    8020                      .dwendtag $C$DW$TU$31
    8021              
    8022              
    8023              $C$DW$TU$32     .dwtag  DW_TAG_type_unit
    8024                      .dwmtype  $C$DW$T$32
    8025              $C$DW$T$32      .dwtag  DW_TAG_typedef
    8026                      .dwattr $C$DW$T$32, DW_AT_name("int32_t")
    8027                      .dwattr $C$DW$T$32, DW_AT_type(*$C$DW$T$31)
    8028                      .dwattr $C$DW$T$32, DW_AT_decl_file("C:/ti/ccs1271/ccs/tools/compiler/ti-cgt-c2000_22.6.1.LTS/include
    8029                      .dwattr $C$DW$T$32, DW_AT_decl_line(0x30)
    8030                      .dwattr $C$DW$T$32, DW_AT_decl_column(0x14)
    8031              
    8032                      .dwendtag $C$DW$TU$32
    8033              
    8034              
    8035              $C$DW$TU$13     .dwtag  DW_TAG_type_unit
    8036                      .dwmtype  $C$DW$T$13
    8037              $C$DW$T$13      .dwtag  DW_TAG_base_type
    8038                      .dwattr $C$DW$T$13, DW_AT_encoding(DW_ATE_unsigned)
    8039                      .dwattr $C$DW$T$13, DW_AT_name("unsigned long")
    8040                      .dwattr $C$DW$T$13, DW_AT_byte_size(0x02)
    8041              
    8042                      .dwendtag $C$DW$TU$13
    8043              
    8044              
    8045              $C$DW$TU$36     .dwtag  DW_TAG_type_unit
    8046                      .dwmtype  $C$DW$T$36
    8047              $C$DW$T$36      .dwtag  DW_TAG_typedef
    8048                      .dwattr $C$DW$T$36, DW_AT_name("__uint32_t")
    8049                      .dwattr $C$DW$T$36, DW_AT_type(*$C$DW$T$13)
    8050                      .dwattr $C$DW$T$36, DW_AT_decl_file("C:/ti/ccs1271/ccs/tools/compiler/ti-cgt-c2000_22.6.1.LTS/include
    8051                      .dwattr $C$DW$T$36, DW_AT_decl_line(0x43)
    8052                      .dwattr $C$DW$T$36, DW_AT_decl_column(0x1c)
    8053              
    8054                      .dwendtag $C$DW$TU$36
    8055              
    8056              
TMS320C2000 Assembler PC v22.6.1 Tue Aug 13 19:46:08 2024

Copyright (c) 1996-2018 Texas Instruments Incorporated
bts.asm                                                              PAGE  166

    8057              $C$DW$TU$37     .dwtag  DW_TAG_type_unit
    8058                      .dwmtype  $C$DW$T$37
    8059              $C$DW$T$37      .dwtag  DW_TAG_typedef
    8060                      .dwattr $C$DW$T$37, DW_AT_name("uint32_t")
    8061                      .dwattr $C$DW$T$37, DW_AT_type(*$C$DW$T$36)
    8062                      .dwattr $C$DW$T$37, DW_AT_decl_file("C:/ti/ccs1271/ccs/tools/compiler/ti-cgt-c2000_22.6.1.LTS/include
    8063                      .dwattr $C$DW$T$37, DW_AT_decl_line(0x46)
    8064                      .dwattr $C$DW$T$37, DW_AT_decl_column(0x15)
    8065              
    8066                      .dwendtag $C$DW$TU$37
    8067              
    8068              
    8069              $C$DW$TU$38     .dwtag  DW_TAG_type_unit
    8070                      .dwmtype  $C$DW$T$38
    8071              $C$DW$T$38      .dwtag  DW_TAG_pointer_type
    8072                      .dwattr $C$DW$T$38, DW_AT_type(*$C$DW$T$37)
    8073                      .dwattr $C$DW$T$38, DW_AT_address_class(0x20)
    8074              
    8075                      .dwendtag $C$DW$TU$38
    8076              
    8077              
    8078              $C$DW$TU$102    .dwtag  DW_TAG_type_unit
    8079                      .dwmtype  $C$DW$T$102
    8080              $C$DW$398       .dwtag  DW_TAG_TI_far_type
    8081                      .dwattr $C$DW$398, DW_AT_type(*$C$DW$T$37)
    8082              
    8083              $C$DW$T$102     .dwtag  DW_TAG_volatile_type
    8084                      .dwattr $C$DW$T$102, DW_AT_type(*$C$DW$398)
    8085              
    8086                      .dwendtag $C$DW$TU$102
    8087              
    8088              
    8089              $C$DW$TU$14     .dwtag  DW_TAG_type_unit
    8090                      .dwmtype  $C$DW$T$14
    8091              $C$DW$T$14      .dwtag  DW_TAG_base_type
    8092                      .dwattr $C$DW$T$14, DW_AT_encoding(DW_ATE_signed)
    8093                      .dwattr $C$DW$T$14, DW_AT_name("long long")
    8094                      .dwattr $C$DW$T$14, DW_AT_byte_size(0x04)
    8095              
    8096                      .dwendtag $C$DW$TU$14
    8097              
    8098              
    8099              $C$DW$TU$15     .dwtag  DW_TAG_type_unit
    8100                      .dwmtype  $C$DW$T$15
    8101              $C$DW$T$15      .dwtag  DW_TAG_base_type
    8102                      .dwattr $C$DW$T$15, DW_AT_encoding(DW_ATE_unsigned)
    8103                      .dwattr $C$DW$T$15, DW_AT_name("unsigned long long")
    8104                      .dwattr $C$DW$T$15, DW_AT_byte_size(0x04)
    8105              
    8106                      .dwendtag $C$DW$TU$15
    8107              
    8108              
    8109              $C$DW$TU$16     .dwtag  DW_TAG_type_unit
    8110                      .dwmtype  $C$DW$T$16
    8111              $C$DW$T$16      .dwtag  DW_TAG_base_type
TMS320C2000 Assembler PC v22.6.1 Tue Aug 13 19:46:08 2024

Copyright (c) 1996-2018 Texas Instruments Incorporated
bts.asm                                                              PAGE  167

    8112                      .dwattr $C$DW$T$16, DW_AT_encoding(DW_ATE_float)
    8113                      .dwattr $C$DW$T$16, DW_AT_name("float")
    8114                      .dwattr $C$DW$T$16, DW_AT_byte_size(0x02)
    8115              
    8116                      .dwendtag $C$DW$TU$16
    8117              
    8118              
    8119              $C$DW$TU$45     .dwtag  DW_TAG_type_unit
    8120                      .dwmtype  $C$DW$T$45
    8121              
    8122              $C$DW$T$45      .dwtag  DW_TAG_array_type
    8123                      .dwattr $C$DW$T$45, DW_AT_type(*$C$DW$T$16)
    8124                      .dwattr $C$DW$T$45, DW_AT_byte_size(0x04)
    8125              $C$DW$399       .dwtag  DW_TAG_subrange_type
    8126                      .dwattr $C$DW$399, DW_AT_upper_bound(0x01)
    8127              
    8128                      .dwendtag $C$DW$T$45
    8129              
    8130                      .dwendtag $C$DW$TU$45
    8131              
    8132              
    8133              $C$DW$TU$141    .dwtag  DW_TAG_type_unit
    8134                      .dwmtype  $C$DW$T$141
    8135              $C$DW$400       .dwtag  DW_TAG_TI_far_type
    8136                      .dwattr $C$DW$400, DW_AT_type(*$C$DW$T$16)
    8137              
    8138              $C$DW$T$141     .dwtag  DW_TAG_const_type
    8139                      .dwattr $C$DW$T$141, DW_AT_type(*$C$DW$400)
    8140              
    8141                      .dwendtag $C$DW$TU$141
    8142              
    8143              
    8144              $C$DW$TU$19     .dwtag  DW_TAG_type_unit
    8145                      .dwmtype  $C$DW$T$19
    8146              $C$DW$T$19      .dwtag  DW_TAG_typedef
    8147                      .dwattr $C$DW$T$19, DW_AT_name("float32_t")
    8148                      .dwattr $C$DW$T$19, DW_AT_type(*$C$DW$T$16)
    8149                      .dwattr $C$DW$T$19, DW_AT_decl_file("C:\ti\c2000\C2000Ware_DigitalPower_SDK_5_03_00_00\c2000ware\driv
    8150                      .dwattr $C$DW$T$19, DW_AT_decl_line(0x64)
    8151                      .dwattr $C$DW$T$19, DW_AT_decl_column(0x17)
    8152              
    8153                      .dwendtag $C$DW$TU$19
    8154              
    8155              
    8156              $C$DW$TU$20     .dwtag  DW_TAG_type_unit
    8157                      .dwmtype  $C$DW$T$20
    8158              $C$DW$T$20      .dwtag  DW_TAG_pointer_type
    8159                      .dwattr $C$DW$T$20, DW_AT_type(*$C$DW$T$19)
    8160                      .dwattr $C$DW$T$20, DW_AT_address_class(0x20)
    8161              
    8162                      .dwendtag $C$DW$TU$20
    8163              
    8164              
    8165              $C$DW$TU$34     .dwtag  DW_TAG_type_unit
    8166                      .dwmtype  $C$DW$T$34
TMS320C2000 Assembler PC v22.6.1 Tue Aug 13 19:46:08 2024

Copyright (c) 1996-2018 Texas Instruments Incorporated
bts.asm                                                              PAGE  168

    8167              
    8168              $C$DW$T$34      .dwtag  DW_TAG_array_type
    8169                      .dwattr $C$DW$T$34, DW_AT_type(*$C$DW$T$19)
    8170                      .dwattr $C$DW$T$34, DW_AT_byte_size(0xce)
    8171              $C$DW$401       .dwtag  DW_TAG_subrange_type
    8172                      .dwattr $C$DW$401, DW_AT_upper_bound(0x66)
    8173              
    8174                      .dwendtag $C$DW$T$34
    8175              
    8176                      .dwendtag $C$DW$TU$34
    8177              
    8178              
    8179              $C$DW$TU$24     .dwtag  DW_TAG_type_unit
    8180                      .dwmtype  $C$DW$T$24
    8181              $C$DW$402       .dwtag  DW_TAG_TI_far_type
    8182                      .dwattr $C$DW$402, DW_AT_type(*$C$DW$T$19)
    8183              
    8184              $C$DW$T$24      .dwtag  DW_TAG_volatile_type
    8185                      .dwattr $C$DW$T$24, DW_AT_type(*$C$DW$402)
    8186              
    8187                      .dwendtag $C$DW$TU$24
    8188              
    8189              
    8190              $C$DW$TU$17     .dwtag  DW_TAG_type_unit
    8191                      .dwmtype  $C$DW$T$17
    8192              $C$DW$T$17      .dwtag  DW_TAG_base_type
    8193                      .dwattr $C$DW$T$17, DW_AT_encoding(DW_ATE_float)
    8194                      .dwattr $C$DW$T$17, DW_AT_name("double")
    8195                      .dwattr $C$DW$T$17, DW_AT_byte_size(0x04)
    8196              
    8197                      .dwendtag $C$DW$TU$17
    8198              
    8199              
    8200              $C$DW$TU$43     .dwtag  DW_TAG_type_unit
    8201                      .dwmtype  $C$DW$T$43
    8202              
    8203              $C$DW$T$43      .dwtag  DW_TAG_array_type
    8204                      .dwattr $C$DW$T$43, DW_AT_type(*$C$DW$T$17)
    8205                      .dwattr $C$DW$T$43, DW_AT_byte_size(0x08)
    8206              $C$DW$403       .dwtag  DW_TAG_subrange_type
    8207                      .dwattr $C$DW$403, DW_AT_upper_bound(0x01)
    8208              
    8209                      .dwendtag $C$DW$T$43
    8210              
    8211                      .dwendtag $C$DW$TU$43
    8212              
    8213              
    8214              $C$DW$TU$144    .dwtag  DW_TAG_type_unit
    8215                      .dwmtype  $C$DW$T$144
    8216              $C$DW$T$144     .dwtag  DW_TAG_pointer_type
    8217                      .dwattr $C$DW$T$144, DW_AT_type(*$C$DW$T$17)
    8218                      .dwattr $C$DW$T$144, DW_AT_address_class(0x20)
    8219              
    8220                      .dwendtag $C$DW$TU$144
    8221              
TMS320C2000 Assembler PC v22.6.1 Tue Aug 13 19:46:08 2024

Copyright (c) 1996-2018 Texas Instruments Incorporated
bts.asm                                                              PAGE  169

    8222              
    8223              $C$DW$TU$145    .dwtag  DW_TAG_type_unit
    8224                      .dwmtype  $C$DW$T$145
    8225              $C$DW$404       .dwtag  DW_TAG_TI_far_type
    8226                      .dwattr $C$DW$404, DW_AT_type(*$C$DW$T$144)
    8227              
    8228              $C$DW$T$145     .dwtag  DW_TAG_const_type
    8229                      .dwattr $C$DW$T$145, DW_AT_type(*$C$DW$404)
    8230              
    8231                      .dwendtag $C$DW$TU$145
    8232              
    8233              
    8234              $C$DW$TU$18     .dwtag  DW_TAG_type_unit
    8235                      .dwmtype  $C$DW$T$18
    8236              $C$DW$T$18      .dwtag  DW_TAG_base_type
    8237                      .dwattr $C$DW$T$18, DW_AT_encoding(DW_ATE_float)
    8238                      .dwattr $C$DW$T$18, DW_AT_name("long double")
    8239                      .dwattr $C$DW$T$18, DW_AT_byte_size(0x04)
    8240              
    8241                      .dwendtag $C$DW$TU$18
    8242              
    8243              
    8244              $C$DW$TU$47     .dwtag  DW_TAG_type_unit
    8245                      .dwmtype  $C$DW$T$47
    8246              
    8247              $C$DW$T$47      .dwtag  DW_TAG_array_type
    8248                      .dwattr $C$DW$T$47, DW_AT_type(*$C$DW$T$18)
    8249                      .dwattr $C$DW$T$47, DW_AT_byte_size(0x08)
    8250              $C$DW$405       .dwtag  DW_TAG_subrange_type
    8251                      .dwattr $C$DW$405, DW_AT_upper_bound(0x01)
    8252              
    8253                      .dwendtag $C$DW$T$47
    8254              
    8255                      .dwendtag $C$DW$TU$47
    8256              
    8257              
    8258              $C$DW$TU$147    .dwtag  DW_TAG_type_unit
    8259                      .dwmtype  $C$DW$T$147
    8260              $C$DW$T$147     .dwtag  DW_TAG_pointer_type
    8261                      .dwattr $C$DW$T$147, DW_AT_type(*$C$DW$T$18)
    8262                      .dwattr $C$DW$T$147, DW_AT_address_class(0x20)
    8263              
    8264                      .dwendtag $C$DW$TU$147
    8265              
    8266              
    8267              $C$DW$TU$148    .dwtag  DW_TAG_type_unit
    8268                      .dwmtype  $C$DW$T$148
    8269              $C$DW$406       .dwtag  DW_TAG_TI_far_type
    8270                      .dwattr $C$DW$406, DW_AT_type(*$C$DW$T$147)
    8271              
    8272              $C$DW$T$148     .dwtag  DW_TAG_const_type
    8273                      .dwattr $C$DW$T$148, DW_AT_type(*$C$DW$406)
    8274              
    8275                      .dwendtag $C$DW$TU$148
    8276              
TMS320C2000 Assembler PC v22.6.1 Tue Aug 13 19:46:08 2024

Copyright (c) 1996-2018 Texas Instruments Incorporated
bts.asm                                                              PAGE  170

    8277              
    8278              $C$DW$TU$49     .dwtag  DW_TAG_type_unit
    8279                      .dwmtype  $C$DW$T$49
    8280              
    8281              $C$DW$T$49      .dwtag  DW_TAG_structure_type
    8282                      .dwattr $C$DW$T$49, DW_AT_name("dcl_css")
    8283                      .dwattr $C$DW$T$49, DW_AT_byte_size(0x0a)
    8284              $C$DW$407       .dwtag  DW_TAG_member
    8285                      .dwattr $C$DW$407, DW_AT_type(*$C$DW$T$19)
    8286                      .dwattr $C$DW$407, DW_AT_name("tpt")
    8287                      .dwattr $C$DW$407, DW_AT_accessibility(DW_ACCESS_public)
    8288                      .dwattr $C$DW$407, DW_AT_decl_file("C:\sandbox\github\Lion-IRVT\Hardware\source\tida-010086\bts_F2837
    8289                      .dwattr $C$DW$407, DW_AT_decl_line(0x91)
    8290                      .dwattr $C$DW$407, DW_AT_decl_column(0x0f)
    8291              
    8292              $C$DW$408       .dwtag  DW_TAG_member
    8293                      .dwattr $C$DW$408, DW_AT_type(*$C$DW$T$19)
    8294                      .dwattr $C$DW$408, DW_AT_name("T")
    8295                      .dwattr $C$DW$408, DW_AT_data_member_location[DW_OP_plus_uconst 0x2]
    8296                      .dwattr $C$DW$408, DW_AT_accessibility(DW_ACCESS_public)
    8297                      .dwattr $C$DW$408, DW_AT_decl_file("C:\sandbox\github\Lion-IRVT\Hardware\source\tida-010086\bts_F2837
    8298                      .dwattr $C$DW$408, DW_AT_decl_line(0x92)
    8299                      .dwattr $C$DW$408, DW_AT_decl_column(0x0f)
    8300              
    8301              $C$DW$409       .dwtag  DW_TAG_member
    8302                      .dwattr $C$DW$409, DW_AT_type(*$C$DW$T$37)
    8303                      .dwattr $C$DW$409, DW_AT_name("sts")
    8304                      .dwattr $C$DW$409, DW_AT_data_member_location[DW_OP_plus_uconst 0x4]
    8305                      .dwattr $C$DW$409, DW_AT_accessibility(DW_ACCESS_public)
    8306                      .dwattr $C$DW$409, DW_AT_decl_file("C:\sandbox\github\Lion-IRVT\Hardware\source\tida-010086\bts_F2837
    8307                      .dwattr $C$DW$409, DW_AT_decl_line(0x93)
    8308                      .dwattr $C$DW$409, DW_AT_decl_column(0x0e)
    8309              
    8310              $C$DW$410       .dwtag  DW_TAG_member
    8311                      .dwattr $C$DW$410, DW_AT_type(*$C$DW$T$37)
    8312                      .dwattr $C$DW$410, DW_AT_name("err")
    8313                      .dwattr $C$DW$410, DW_AT_data_member_location[DW_OP_plus_uconst 0x6]
    8314                      .dwattr $C$DW$410, DW_AT_accessibility(DW_ACCESS_public)
    8315                      .dwattr $C$DW$410, DW_AT_decl_file("C:\sandbox\github\Lion-IRVT\Hardware\source\tida-010086\bts_F2837
    8316                      .dwattr $C$DW$410, DW_AT_decl_line(0x94)
    8317                      .dwattr $C$DW$410, DW_AT_decl_column(0x0e)
    8318              
    8319              $C$DW$411       .dwtag  DW_TAG_member
    8320                      .dwattr $C$DW$411, DW_AT_type(*$C$DW$T$37)
    8321                      .dwattr $C$DW$411, DW_AT_name("loc")
    8322                      .dwattr $C$DW$411, DW_AT_data_member_location[DW_OP_plus_uconst 0x8]
    8323                      .dwattr $C$DW$411, DW_AT_accessibility(DW_ACCESS_public)
    8324                      .dwattr $C$DW$411, DW_AT_decl_file("C:\sandbox\github\Lion-IRVT\Hardware\source\tida-010086\bts_F2837
    8325                      .dwattr $C$DW$411, DW_AT_decl_line(0x95)
    8326                      .dwattr $C$DW$411, DW_AT_decl_column(0x0e)
    8327              
    8328                      .dwattr $C$DW$T$49, DW_AT_decl_file("C:\sandbox\github\Lion-IRVT\Hardware\source\tida-010086\bts_F283
    8329                      .dwattr $C$DW$T$49, DW_AT_decl_line(0x90)
    8330                      .dwattr $C$DW$T$49, DW_AT_decl_column(0x19)
    8331                      .dwendtag $C$DW$T$49
TMS320C2000 Assembler PC v22.6.1 Tue Aug 13 19:46:08 2024

Copyright (c) 1996-2018 Texas Instruments Incorporated
bts.asm                                                              PAGE  171

    8332              
    8333                      .dwendtag $C$DW$TU$49
    8334              
    8335              
    8336              $C$DW$TU$53     .dwtag  DW_TAG_type_unit
    8337                      .dwmtype  $C$DW$T$53
    8338              $C$DW$412       .dwtag  DW_TAG_TI_far_type
    8339                      .dwattr $C$DW$412, DW_AT_type(*$C$DW$T$49)
    8340              
    8341              $C$DW$T$53      .dwtag  DW_TAG_volatile_type
    8342                      .dwattr $C$DW$T$53, DW_AT_type(*$C$DW$412)
    8343              
    8344                      .dwendtag $C$DW$TU$53
    8345              
    8346              
    8347              $C$DW$TU$54     .dwtag  DW_TAG_type_unit
    8348                      .dwmtype  $C$DW$T$54
    8349              $C$DW$T$54      .dwtag  DW_TAG_typedef
    8350                      .dwattr $C$DW$T$54, DW_AT_name("DCL_CSS")
    8351                      .dwattr $C$DW$T$54, DW_AT_type(*$C$DW$T$53)
    8352                      .dwattr $C$DW$T$54, DW_AT_decl_file("C:\sandbox\github\Lion-IRVT\Hardware\source\tida-010086\bts_F283
    8353                      .dwattr $C$DW$T$54, DW_AT_decl_line(0x96)
    8354                      .dwattr $C$DW$T$54, DW_AT_decl_column(0x03)
    8355              
    8356                      .dwendtag $C$DW$TU$54
    8357              
    8358              
    8359              $C$DW$TU$55     .dwtag  DW_TAG_type_unit
    8360                      .dwmtype  $C$DW$T$55
    8361              $C$DW$T$55      .dwtag  DW_TAG_pointer_type
    8362                      .dwattr $C$DW$T$55, DW_AT_type(*$C$DW$T$54)
    8363                      .dwattr $C$DW$T$55, DW_AT_address_class(0x20)
    8364              
    8365                      .dwendtag $C$DW$TU$55
    8366              
    8367              
    8368              $C$DW$TU$56     .dwtag  DW_TAG_type_unit
    8369                      .dwmtype  $C$DW$T$56
    8370              
    8371              $C$DW$T$56      .dwtag  DW_TAG_structure_type
    8372                      .dwattr $C$DW$T$56, DW_AT_name("dcl_df22")
    8373                      .dwattr $C$DW$T$56, DW_AT_byte_size(0x12)
    8374              $C$DW$413       .dwtag  DW_TAG_member
    8375                      .dwattr $C$DW$413, DW_AT_type(*$C$DW$T$19)
    8376                      .dwattr $C$DW$413, DW_AT_name("b0")
    8377                      .dwattr $C$DW$413, DW_AT_accessibility(DW_ACCESS_public)
    8378                      .dwattr $C$DW$413, DW_AT_decl_file("C:/sandbox/github/Lion-IRVT/Hardware/source/tida-010086/bts_F2837
    8379                      .dwattr $C$DW$413, DW_AT_decl_line(0x4ab)
    8380                      .dwattr $C$DW$413, DW_AT_decl_column(0x0f)
    8381              
    8382              $C$DW$414       .dwtag  DW_TAG_member
    8383                      .dwattr $C$DW$414, DW_AT_type(*$C$DW$T$19)
    8384                      .dwattr $C$DW$414, DW_AT_name("b1")
    8385                      .dwattr $C$DW$414, DW_AT_data_member_location[DW_OP_plus_uconst 0x2]
    8386                      .dwattr $C$DW$414, DW_AT_accessibility(DW_ACCESS_public)
TMS320C2000 Assembler PC v22.6.1 Tue Aug 13 19:46:08 2024

Copyright (c) 1996-2018 Texas Instruments Incorporated
bts.asm                                                              PAGE  172

    8387                      .dwattr $C$DW$414, DW_AT_decl_file("C:/sandbox/github/Lion-IRVT/Hardware/source/tida-010086/bts_F2837
    8388                      .dwattr $C$DW$414, DW_AT_decl_line(0x4ac)
    8389                      .dwattr $C$DW$414, DW_AT_decl_column(0x0f)
    8390              
    8391              $C$DW$415       .dwtag  DW_TAG_member
    8392                      .dwattr $C$DW$415, DW_AT_type(*$C$DW$T$19)
    8393                      .dwattr $C$DW$415, DW_AT_name("b2")
    8394                      .dwattr $C$DW$415, DW_AT_data_member_location[DW_OP_plus_uconst 0x4]
    8395                      .dwattr $C$DW$415, DW_AT_accessibility(DW_ACCESS_public)
    8396                      .dwattr $C$DW$415, DW_AT_decl_file("C:/sandbox/github/Lion-IRVT/Hardware/source/tida-010086/bts_F2837
    8397                      .dwattr $C$DW$415, DW_AT_decl_line(0x4ad)
    8398                      .dwattr $C$DW$415, DW_AT_decl_column(0x0f)
    8399              
    8400              $C$DW$416       .dwtag  DW_TAG_member
    8401                      .dwattr $C$DW$416, DW_AT_type(*$C$DW$T$19)
    8402                      .dwattr $C$DW$416, DW_AT_name("a1")
    8403                      .dwattr $C$DW$416, DW_AT_data_member_location[DW_OP_plus_uconst 0x6]
    8404                      .dwattr $C$DW$416, DW_AT_accessibility(DW_ACCESS_public)
    8405                      .dwattr $C$DW$416, DW_AT_decl_file("C:/sandbox/github/Lion-IRVT/Hardware/source/tida-010086/bts_F2837
    8406                      .dwattr $C$DW$416, DW_AT_decl_line(0x4ae)
    8407                      .dwattr $C$DW$416, DW_AT_decl_column(0x0f)
    8408              
    8409              $C$DW$417       .dwtag  DW_TAG_member
    8410                      .dwattr $C$DW$417, DW_AT_type(*$C$DW$T$19)
    8411                      .dwattr $C$DW$417, DW_AT_name("a2")
    8412                      .dwattr $C$DW$417, DW_AT_data_member_location[DW_OP_plus_uconst 0x8]
    8413                      .dwattr $C$DW$417, DW_AT_accessibility(DW_ACCESS_public)
    8414                      .dwattr $C$DW$417, DW_AT_decl_file("C:/sandbox/github/Lion-IRVT/Hardware/source/tida-010086/bts_F2837
    8415                      .dwattr $C$DW$417, DW_AT_decl_line(0x4af)
    8416                      .dwattr $C$DW$417, DW_AT_decl_column(0x0f)
    8417              
    8418              $C$DW$418       .dwtag  DW_TAG_member
    8419                      .dwattr $C$DW$418, DW_AT_type(*$C$DW$T$19)
    8420                      .dwattr $C$DW$418, DW_AT_name("x1")
    8421                      .dwattr $C$DW$418, DW_AT_data_member_location[DW_OP_plus_uconst 0xa]
    8422                      .dwattr $C$DW$418, DW_AT_accessibility(DW_ACCESS_public)
    8423                      .dwattr $C$DW$418, DW_AT_decl_file("C:/sandbox/github/Lion-IRVT/Hardware/source/tida-010086/bts_F2837
    8424                      .dwattr $C$DW$418, DW_AT_decl_line(0x4b0)
    8425                      .dwattr $C$DW$418, DW_AT_decl_column(0x0f)
    8426              
    8427              $C$DW$419       .dwtag  DW_TAG_member
    8428                      .dwattr $C$DW$419, DW_AT_type(*$C$DW$T$19)
    8429                      .dwattr $C$DW$419, DW_AT_name("x2")
    8430                      .dwattr $C$DW$419, DW_AT_data_member_location[DW_OP_plus_uconst 0xc]
    8431                      .dwattr $C$DW$419, DW_AT_accessibility(DW_ACCESS_public)
    8432                      .dwattr $C$DW$419, DW_AT_decl_file("C:/sandbox/github/Lion-IRVT/Hardware/source/tida-010086/bts_F2837
    8433                      .dwattr $C$DW$419, DW_AT_decl_line(0x4b1)
    8434                      .dwattr $C$DW$419, DW_AT_decl_column(0x0f)
    8435              
    8436              $C$DW$420       .dwtag  DW_TAG_member
    8437                      .dwattr $C$DW$420, DW_AT_type(*$C$DW$T$52)
    8438                      .dwattr $C$DW$420, DW_AT_name("sps")
    8439                      .dwattr $C$DW$420, DW_AT_data_member_location[DW_OP_plus_uconst 0xe]
    8440                      .dwattr $C$DW$420, DW_AT_accessibility(DW_ACCESS_public)
    8441                      .dwattr $C$DW$420, DW_AT_decl_file("C:/sandbox/github/Lion-IRVT/Hardware/source/tida-010086/bts_F2837
TMS320C2000 Assembler PC v22.6.1 Tue Aug 13 19:46:08 2024

Copyright (c) 1996-2018 Texas Instruments Incorporated
bts.asm                                                              PAGE  173

    8442                      .dwattr $C$DW$420, DW_AT_decl_line(0x4b2)
    8443                      .dwattr $C$DW$420, DW_AT_decl_column(0x13)
    8444              
    8445              $C$DW$421       .dwtag  DW_TAG_member
    8446                      .dwattr $C$DW$421, DW_AT_type(*$C$DW$T$55)
    8447                      .dwattr $C$DW$421, DW_AT_name("css")
    8448                      .dwattr $C$DW$421, DW_AT_data_member_location[DW_OP_plus_uconst 0x10]
    8449                      .dwattr $C$DW$421, DW_AT_accessibility(DW_ACCESS_public)
    8450                      .dwattr $C$DW$421, DW_AT_decl_file("C:/sandbox/github/Lion-IRVT/Hardware/source/tida-010086/bts_F2837
    8451                      .dwattr $C$DW$421, DW_AT_decl_line(0x4b3)
    8452                      .dwattr $C$DW$421, DW_AT_decl_column(0x0e)
    8453              
    8454                      .dwattr $C$DW$T$56, DW_AT_decl_file("C:/sandbox/github/Lion-IRVT/Hardware/source/tida-010086/bts_F283
    8455                      .dwattr $C$DW$T$56, DW_AT_decl_line(0x4aa)
    8456                      .dwattr $C$DW$T$56, DW_AT_decl_column(0x19)
    8457                      .dwendtag $C$DW$T$56
    8458              
    8459                      .dwendtag $C$DW$TU$56
    8460              
    8461              
    8462              $C$DW$TU$150    .dwtag  DW_TAG_type_unit
    8463                      .dwmtype  $C$DW$T$150
    8464              $C$DW$422       .dwtag  DW_TAG_TI_far_type
    8465                      .dwattr $C$DW$422, DW_AT_type(*$C$DW$T$56)
    8466              
    8467              $C$DW$T$150     .dwtag  DW_TAG_volatile_type
    8468                      .dwattr $C$DW$T$150, DW_AT_type(*$C$DW$422)
    8469              
    8470                      .dwendtag $C$DW$TU$150
    8471              
    8472              
    8473              $C$DW$TU$151    .dwtag  DW_TAG_type_unit
    8474                      .dwmtype  $C$DW$T$151
    8475              $C$DW$T$151     .dwtag  DW_TAG_typedef
    8476                      .dwattr $C$DW$T$151, DW_AT_name("DCL_DF22")
    8477                      .dwattr $C$DW$T$151, DW_AT_type(*$C$DW$T$150)
    8478                      .dwattr $C$DW$T$151, DW_AT_decl_file("C:/sandbox/github/Lion-IRVT/Hardware/source/tida-010086/bts_F28
    8479                      .dwattr $C$DW$T$151, DW_AT_decl_line(0x4b4)
    8480                      .dwattr $C$DW$T$151, DW_AT_decl_column(0x03)
    8481              
    8482                      .dwendtag $C$DW$TU$151
    8483              
    8484              
    8485              $C$DW$TU$152    .dwtag  DW_TAG_type_unit
    8486                      .dwmtype  $C$DW$T$152
    8487              
    8488              $C$DW$T$152     .dwtag  DW_TAG_array_type
    8489                      .dwattr $C$DW$T$152, DW_AT_type(*$C$DW$T$151)
    8490                      .dwattr $C$DW$T$152, DW_AT_byte_size(0x90)
    8491              $C$DW$423       .dwtag  DW_TAG_subrange_type
    8492                      .dwattr $C$DW$423, DW_AT_upper_bound(0x07)
    8493              
    8494                      .dwendtag $C$DW$T$152
    8495              
    8496                      .dwendtag $C$DW$TU$152
TMS320C2000 Assembler PC v22.6.1 Tue Aug 13 19:46:08 2024

Copyright (c) 1996-2018 Texas Instruments Incorporated
bts.asm                                                              PAGE  174

    8497              
    8498              
    8499              $C$DW$TU$57     .dwtag  DW_TAG_type_unit
    8500                      .dwmtype  $C$DW$T$57
    8501              
    8502              $C$DW$T$57      .dwtag  DW_TAG_structure_type
    8503                      .dwattr $C$DW$T$57, DW_AT_name("dcl_df22_sps")
    8504                      .dwattr $C$DW$T$57, DW_AT_byte_size(0x0a)
    8505              $C$DW$424       .dwtag  DW_TAG_member
    8506                      .dwattr $C$DW$424, DW_AT_type(*$C$DW$T$19)
    8507                      .dwattr $C$DW$424, DW_AT_name("b0")
    8508                      .dwattr $C$DW$424, DW_AT_accessibility(DW_ACCESS_public)
    8509                      .dwattr $C$DW$424, DW_AT_decl_file("C:/sandbox/github/Lion-IRVT/Hardware/source/tida-010086/bts_F2837
    8510                      .dwattr $C$DW$424, DW_AT_decl_line(0x49f)
    8511                      .dwattr $C$DW$424, DW_AT_decl_column(0x0f)
    8512              
    8513              $C$DW$425       .dwtag  DW_TAG_member
    8514                      .dwattr $C$DW$425, DW_AT_type(*$C$DW$T$19)
    8515                      .dwattr $C$DW$425, DW_AT_name("b1")
    8516                      .dwattr $C$DW$425, DW_AT_data_member_location[DW_OP_plus_uconst 0x2]
    8517                      .dwattr $C$DW$425, DW_AT_accessibility(DW_ACCESS_public)
    8518                      .dwattr $C$DW$425, DW_AT_decl_file("C:/sandbox/github/Lion-IRVT/Hardware/source/tida-010086/bts_F2837
    8519                      .dwattr $C$DW$425, DW_AT_decl_line(0x4a0)
    8520                      .dwattr $C$DW$425, DW_AT_decl_column(0x0f)
    8521              
    8522              $C$DW$426       .dwtag  DW_TAG_member
    8523                      .dwattr $C$DW$426, DW_AT_type(*$C$DW$T$19)
    8524                      .dwattr $C$DW$426, DW_AT_name("b2")
    8525                      .dwattr $C$DW$426, DW_AT_data_member_location[DW_OP_plus_uconst 0x4]
    8526                      .dwattr $C$DW$426, DW_AT_accessibility(DW_ACCESS_public)
    8527                      .dwattr $C$DW$426, DW_AT_decl_file("C:/sandbox/github/Lion-IRVT/Hardware/source/tida-010086/bts_F2837
    8528                      .dwattr $C$DW$426, DW_AT_decl_line(0x4a1)
    8529                      .dwattr $C$DW$426, DW_AT_decl_column(0x0f)
    8530              
    8531              $C$DW$427       .dwtag  DW_TAG_member
    8532                      .dwattr $C$DW$427, DW_AT_type(*$C$DW$T$19)
    8533                      .dwattr $C$DW$427, DW_AT_name("a1")
    8534                      .dwattr $C$DW$427, DW_AT_data_member_location[DW_OP_plus_uconst 0x6]
    8535                      .dwattr $C$DW$427, DW_AT_accessibility(DW_ACCESS_public)
    8536                      .dwattr $C$DW$427, DW_AT_decl_file("C:/sandbox/github/Lion-IRVT/Hardware/source/tida-010086/bts_F2837
    8537                      .dwattr $C$DW$427, DW_AT_decl_line(0x4a2)
    8538                      .dwattr $C$DW$427, DW_AT_decl_column(0x0f)
    8539              
    8540              $C$DW$428       .dwtag  DW_TAG_member
    8541                      .dwattr $C$DW$428, DW_AT_type(*$C$DW$T$19)
    8542                      .dwattr $C$DW$428, DW_AT_name("a2")
    8543                      .dwattr $C$DW$428, DW_AT_data_member_location[DW_OP_plus_uconst 0x8]
    8544                      .dwattr $C$DW$428, DW_AT_accessibility(DW_ACCESS_public)
    8545                      .dwattr $C$DW$428, DW_AT_decl_file("C:/sandbox/github/Lion-IRVT/Hardware/source/tida-010086/bts_F2837
    8546                      .dwattr $C$DW$428, DW_AT_decl_line(0x4a3)
    8547                      .dwattr $C$DW$428, DW_AT_decl_column(0x0f)
    8548              
    8549                      .dwattr $C$DW$T$57, DW_AT_decl_file("C:/sandbox/github/Lion-IRVT/Hardware/source/tida-010086/bts_F283
    8550                      .dwattr $C$DW$T$57, DW_AT_decl_line(0x49e)
    8551                      .dwattr $C$DW$T$57, DW_AT_decl_column(0x19)
TMS320C2000 Assembler PC v22.6.1 Tue Aug 13 19:46:08 2024

Copyright (c) 1996-2018 Texas Instruments Incorporated
bts.asm                                                              PAGE  175

    8552                      .dwendtag $C$DW$T$57
    8553              
    8554                      .dwendtag $C$DW$TU$57
    8555              
    8556              
    8557              $C$DW$TU$50     .dwtag  DW_TAG_type_unit
    8558                      .dwmtype  $C$DW$T$50
    8559              $C$DW$429       .dwtag  DW_TAG_TI_far_type
    8560                      .dwattr $C$DW$429, DW_AT_type(*$C$DW$T$57)
    8561              
    8562              $C$DW$T$50      .dwtag  DW_TAG_volatile_type
    8563                      .dwattr $C$DW$T$50, DW_AT_type(*$C$DW$429)
    8564              
    8565                      .dwendtag $C$DW$TU$50
    8566              
    8567              
    8568              $C$DW$TU$51     .dwtag  DW_TAG_type_unit
    8569                      .dwmtype  $C$DW$T$51
    8570              $C$DW$T$51      .dwtag  DW_TAG_typedef
    8571                      .dwattr $C$DW$T$51, DW_AT_name("DCL_DF22_SPS")
    8572                      .dwattr $C$DW$T$51, DW_AT_type(*$C$DW$T$50)
    8573                      .dwattr $C$DW$T$51, DW_AT_decl_file("C:/sandbox/github/Lion-IRVT/Hardware/source/tida-010086/bts_F283
    8574                      .dwattr $C$DW$T$51, DW_AT_decl_line(0x4a4)
    8575                      .dwattr $C$DW$T$51, DW_AT_decl_column(0x03)
    8576              
    8577                      .dwendtag $C$DW$TU$51
    8578              
    8579              
    8580              $C$DW$TU$52     .dwtag  DW_TAG_type_unit
    8581                      .dwmtype  $C$DW$T$52
    8582              $C$DW$T$52      .dwtag  DW_TAG_pointer_type
    8583                      .dwattr $C$DW$T$52, DW_AT_type(*$C$DW$T$51)
    8584                      .dwattr $C$DW$T$52, DW_AT_address_class(0x20)
    8585              
    8586                      .dwendtag $C$DW$TU$52
    8587              

No Assembly Errors, No Assembly Warnings
