TMS320C2000 Assembler PC v22.6.1 Tue Aug 13 19:46:08 2024

Copyright (c) 1996-2018 Texas Instruments Incorporated
bts_main.asm                                                         PAGE    1

       1              ;***************************************************************
       2              ;* TMS320C2000 G3 C/C++ Codegen                               PC v22.6.1.LTS *
       3              ;* Date/Time created: Tue Aug 13 19:46:07 2024                 *
       4              ;***************************************************************
       5                      .compiler_opts --abi=eabi --cla_support=cla1 --diag_wrap=off --float_support=fpu32 --hll_source=on --
       6                      .asg    XAR2, FP
       7              
       8              $C$DW$CU        .dwtag  DW_TAG_compile_unit
       9                      .dwattr $C$DW$CU, DW_AT_name("../bts_main.c")
      10                      .dwattr $C$DW$CU, DW_AT_producer("TI TMS320C2000 G3 C/C++ Codegen PC v22.6.1.LTS Copyright (c) 1996-2
      11                      .dwattr $C$DW$CU, DW_AT_TI_version(0x01)
      12                      .dwattr $C$DW$CU, DW_AT_comp_dir("C:\sandbox\github\Lion-IRVT\Hardware\source\tida-010086\bts_F2837xD
      13              $C$DW$1 .dwtag  DW_TAG_variable
      14                      .dwattr $C$DW$1, DW_AT_name("BTS_measValues")
      15                      .dwattr $C$DW$1, DW_AT_linkage_name("BTS_measValues")
      16                      .dwattr $C$DW$1, DW_AT_type(*$C$DW$T$83)
      17                      .dwattr $C$DW$1, DW_AT_declaration
      18                      .dwattr $C$DW$1, DW_AT_external
      19                      .dwattr $C$DW$1, DW_AT_decl_file("C:/sandbox/github/Lion-IRVT/Hardware/source/tida-010086/bts_F2837xD
      20                      .dwattr $C$DW$1, DW_AT_decl_line(0x6e)
      21                      .dwattr $C$DW$1, DW_AT_decl_column(0x16)
      22              
      23              $C$DW$2 .dwtag  DW_TAG_variable
      24                      .dwattr $C$DW$2, DW_AT_name("BTS_userInputs")
      25                      .dwattr $C$DW$2, DW_AT_linkage_name("BTS_userInputs")
      26                      .dwattr $C$DW$2, DW_AT_type(*$C$DW$T$72)
      27                      .dwattr $C$DW$2, DW_AT_declaration
      28                      .dwattr $C$DW$2, DW_AT_external
      29                      .dwattr $C$DW$2, DW_AT_decl_file("C:/sandbox/github/Lion-IRVT/Hardware/source/tida-010086/bts_F2837xD
      30                      .dwattr $C$DW$2, DW_AT_decl_line(0xa5)
      31                      .dwattr $C$DW$2, DW_AT_decl_column(0x16)
      32              
      33              $C$DW$3 .dwtag  DW_TAG_variable
      34                      .dwattr $C$DW$3, DW_AT_name("BTS_ctrlLoopVariables")
      35                      .dwattr $C$DW$3, DW_AT_linkage_name("BTS_ctrlLoopVariables")
      36                      .dwattr $C$DW$3, DW_AT_type(*$C$DW$T$77)
      37                      .dwattr $C$DW$3, DW_AT_declaration
      38                      .dwattr $C$DW$3, DW_AT_external
      39                      .dwattr $C$DW$3, DW_AT_decl_file("C:/sandbox/github/Lion-IRVT/Hardware/source/tida-010086/bts_F2837xD
      40                      .dwattr $C$DW$3, DW_AT_decl_line(0xce)
      41                      .dwattr $C$DW$3, DW_AT_decl_column(0x1d)
      42              
      43              $C$DW$4 .dwtag  DW_TAG_variable
      44                      .dwattr $C$DW$4, DW_AT_name("BTS_ctrl_cc")
      45                      .dwattr $C$DW$4, DW_AT_linkage_name("BTS_ctrl_cc")
      46                      .dwattr $C$DW$4, DW_AT_type(*$C$DW$T$157)
      47                      .dwattr $C$DW$4, DW_AT_declaration
      48                      .dwattr $C$DW$4, DW_AT_external
      49                      .dwattr $C$DW$4, DW_AT_decl_file("C:/sandbox/github/Lion-IRVT/Hardware/source/tida-010086/bts_F2837xD
      50                      .dwattr $C$DW$4, DW_AT_decl_line(0xd8)
      51                      .dwattr $C$DW$4, DW_AT_decl_column(0x25)
      52              
      53              $C$DW$5 .dwtag  DW_TAG_variable
      54                      .dwattr $C$DW$5, DW_AT_name("BTS_ctrl_cv")
      55                      .dwattr $C$DW$5, DW_AT_linkage_name("BTS_ctrl_cv")
TMS320C2000 Assembler PC v22.6.1 Tue Aug 13 19:46:08 2024

Copyright (c) 1996-2018 Texas Instruments Incorporated
bts_main.asm                                                         PAGE    2

      56                      .dwattr $C$DW$5, DW_AT_type(*$C$DW$T$157)
      57                      .dwattr $C$DW$5, DW_AT_declaration
      58                      .dwattr $C$DW$5, DW_AT_external
      59                      .dwattr $C$DW$5, DW_AT_decl_file("C:/sandbox/github/Lion-IRVT/Hardware/source/tida-010086/bts_F2837xD
      60                      .dwattr $C$DW$5, DW_AT_decl_line(0xe2)
      61                      .dwattr $C$DW$5, DW_AT_decl_column(0x25)
      62              
      63              
      64              $C$DW$6 .dwtag  DW_TAG_subprogram
      65                      .dwattr $C$DW$6, DW_AT_name("SPI_clearInterruptStatus")
      66                      .dwattr $C$DW$6, DW_AT_linkage_name("SPI_clearInterruptStatus")
      67                      .dwattr $C$DW$6, DW_AT_declaration
      68                      .dwattr $C$DW$6, DW_AT_external
      69                      .dwattr $C$DW$6, DW_AT_decl_file("C:/ti/c2000/C2000Ware_DigitalPower_SDK_5_03_00_00/c2000ware/driverl
      70                      .dwattr $C$DW$6, DW_AT_decl_line(0x610)
      71                      .dwattr $C$DW$6, DW_AT_decl_column(0x01)
      72              $C$DW$7 .dwtag  DW_TAG_formal_parameter
      73                      .dwattr $C$DW$7, DW_AT_type(*$C$DW$T$43)
      74              
      75              $C$DW$8 .dwtag  DW_TAG_formal_parameter
      76                      .dwattr $C$DW$8, DW_AT_type(*$C$DW$T$43)
      77              
      78                      .dwendtag $C$DW$6
      79              
      80              
      81              $C$DW$9 .dwtag  DW_TAG_subprogram
      82                      .dwattr $C$DW$9, DW_AT_name("__SFRA_F32_collect")
      83                      .dwattr $C$DW$9, DW_AT_linkage_name("__SFRA_F32_collect")
      84                      .dwattr $C$DW$9, DW_AT_declaration
      85                      .dwattr $C$DW$9, DW_AT_external
      86                      .dwattr $C$DW$9, DW_AT_decl_file("C:/ti/c2000/C2000Ware_DigitalPower_SDK_5_03_00_00/libraries/sfra/in
      87                      .dwattr $C$DW$9, DW_AT_decl_line(0xa8)
      88                      .dwattr $C$DW$9, DW_AT_decl_column(0x0d)
      89              $C$DW$10        .dwtag  DW_TAG_formal_parameter
      90                      .dwattr $C$DW$10, DW_AT_type(*$C$DW$T$110)
      91              
      92              $C$DW$11        .dwtag  DW_TAG_formal_parameter
      93                      .dwattr $C$DW$11, DW_AT_type(*$C$DW$T$110)
      94              
      95                      .dwendtag $C$DW$9
      96              
      97              
      98              $C$DW$12        .dwtag  DW_TAG_subprogram
      99                      .dwattr $C$DW$12, DW_AT_name("BTS_HAL_setupDevice")
     100                      .dwattr $C$DW$12, DW_AT_linkage_name("BTS_HAL_setupDevice")
     101                      .dwattr $C$DW$12, DW_AT_declaration
     102                      .dwattr $C$DW$12, DW_AT_external
     103                      .dwattr $C$DW$12, DW_AT_decl_file("C:\sandbox\github\Lion-IRVT\Hardware\source\tida-010086\bts_F2837x
     104                      .dwattr $C$DW$12, DW_AT_decl_line(0x4c)
     105                      .dwattr $C$DW$12, DW_AT_decl_column(0x06)
     106                      .dwendtag $C$DW$12
     107              
     108              
     109              $C$DW$13        .dwtag  DW_TAG_subprogram
     110                      .dwattr $C$DW$13, DW_AT_name("BTS_HAL_setupSyncBuckPinsGpio")
TMS320C2000 Assembler PC v22.6.1 Tue Aug 13 19:46:08 2024

Copyright (c) 1996-2018 Texas Instruments Incorporated
bts_main.asm                                                         PAGE    3

     111                      .dwattr $C$DW$13, DW_AT_linkage_name("BTS_HAL_setupSyncBuckPinsGpio")
     112                      .dwattr $C$DW$13, DW_AT_declaration
     113                      .dwattr $C$DW$13, DW_AT_external
     114                      .dwattr $C$DW$13, DW_AT_decl_file("C:\sandbox\github\Lion-IRVT\Hardware\source\tida-010086\bts_F2837x
     115                      .dwattr $C$DW$13, DW_AT_decl_line(0x53)
     116                      .dwattr $C$DW$13, DW_AT_decl_column(0x06)
     117                      .dwendtag $C$DW$13
     118              
     119              
     120              $C$DW$14        .dwtag  DW_TAG_subprogram
     121                      .dwattr $C$DW$14, DW_AT_name("BTS_HAL_SetupI2C_GPIO")
     122                      .dwattr $C$DW$14, DW_AT_linkage_name("BTS_HAL_SetupI2C_GPIO")
     123                      .dwattr $C$DW$14, DW_AT_declaration
     124                      .dwattr $C$DW$14, DW_AT_external
     125                      .dwattr $C$DW$14, DW_AT_decl_file("C:\sandbox\github\Lion-IRVT\Hardware\source\tida-010086\bts_F2837x
     126                      .dwattr $C$DW$14, DW_AT_decl_line(0x65)
     127                      .dwattr $C$DW$14, DW_AT_decl_column(0x06)
     128                      .dwendtag $C$DW$14
     129              
     130              
     131              $C$DW$15        .dwtag  DW_TAG_subprogram
     132                      .dwattr $C$DW$15, DW_AT_name("BTS_HAL_SetupI2C_Init")
     133                      .dwattr $C$DW$15, DW_AT_linkage_name("BTS_HAL_SetupI2C_Init")
     134                      .dwattr $C$DW$15, DW_AT_declaration
     135                      .dwattr $C$DW$15, DW_AT_external
     136                      .dwattr $C$DW$15, DW_AT_decl_file("C:\sandbox\github\Lion-IRVT\Hardware\source\tida-010086\bts_F2837x
     137                      .dwattr $C$DW$15, DW_AT_decl_line(0x66)
     138                      .dwattr $C$DW$15, DW_AT_decl_column(0x06)
     139                      .dwendtag $C$DW$15
     140              
     141              
     142              $C$DW$16        .dwtag  DW_TAG_subprogram
     143                      .dwattr $C$DW$16, DW_AT_name("BTS_HAL_setupCanBus")
     144                      .dwattr $C$DW$16, DW_AT_linkage_name("BTS_HAL_setupCanBus")
     145                      .dwattr $C$DW$16, DW_AT_declaration
     146                      .dwattr $C$DW$16, DW_AT_external
     147                      .dwattr $C$DW$16, DW_AT_decl_file("C:\sandbox\github\Lion-IRVT\Hardware\source\tida-010086\bts_F2837x
     148                      .dwattr $C$DW$16, DW_AT_decl_line(0x64)
     149                      .dwattr $C$DW$16, DW_AT_decl_column(0x06)
     150                      .dwendtag $C$DW$16
     151              
     152              
     153              $C$DW$17        .dwtag  DW_TAG_subprogram
     154                      .dwattr $C$DW$17, DW_AT_name("BTS_HAL_disableEpwmCounting")
     155                      .dwattr $C$DW$17, DW_AT_linkage_name("BTS_HAL_disableEpwmCounting")
     156                      .dwattr $C$DW$17, DW_AT_declaration
     157                      .dwattr $C$DW$17, DW_AT_external
     158                      .dwattr $C$DW$17, DW_AT_decl_file("C:\sandbox\github\Lion-IRVT\Hardware\source\tida-010086\bts_F2837x
     159                      .dwattr $C$DW$17, DW_AT_decl_line(0x58)
     160                      .dwattr $C$DW$17, DW_AT_decl_column(0x06)
     161                      .dwendtag $C$DW$17
     162              
     163              
     164              $C$DW$18        .dwtag  DW_TAG_subprogram
     165                      .dwattr $C$DW$18, DW_AT_name("BTS_HAL_setupSyncBuckPwm")
TMS320C2000 Assembler PC v22.6.1 Tue Aug 13 19:46:08 2024

Copyright (c) 1996-2018 Texas Instruments Incorporated
bts_main.asm                                                         PAGE    4

     166                      .dwattr $C$DW$18, DW_AT_linkage_name("BTS_HAL_setupSyncBuckPwm")
     167                      .dwattr $C$DW$18, DW_AT_declaration
     168                      .dwattr $C$DW$18, DW_AT_external
     169                      .dwattr $C$DW$18, DW_AT_decl_file("C:\sandbox\github\Lion-IRVT\Hardware\source\tida-010086\bts_F2837x
     170                      .dwattr $C$DW$18, DW_AT_decl_line(0x55)
     171                      .dwattr $C$DW$18, DW_AT_decl_column(0x06)
     172              $C$DW$19        .dwtag  DW_TAG_formal_parameter
     173                      .dwattr $C$DW$19, DW_AT_type(*$C$DW$T$43)
     174              
     175                      .dwendtag $C$DW$18
     176              
     177              
     178              $C$DW$20        .dwtag  DW_TAG_subprogram
     179                      .dwattr $C$DW$20, DW_AT_name("BTS_HAL_setupAdcClock")
     180                      .dwattr $C$DW$20, DW_AT_linkage_name("BTS_HAL_setupAdcClock")
     181                      .dwattr $C$DW$20, DW_AT_declaration
     182                      .dwattr $C$DW$20, DW_AT_external
     183                      .dwattr $C$DW$20, DW_AT_decl_file("C:\sandbox\github\Lion-IRVT\Hardware\source\tida-010086\bts_F2837x
     184                      .dwattr $C$DW$20, DW_AT_decl_line(0x56)
     185                      .dwattr $C$DW$20, DW_AT_decl_column(0x06)
     186              $C$DW$21        .dwtag  DW_TAG_formal_parameter
     187                      .dwattr $C$DW$21, DW_AT_type(*$C$DW$T$43)
     188              
     189                      .dwendtag $C$DW$20
     190              
     191              
     192              $C$DW$22        .dwtag  DW_TAG_subprogram
     193                      .dwattr $C$DW$22, DW_AT_name("BTS_setupHrpwmMepScaleFactor")
     194                      .dwattr $C$DW$22, DW_AT_linkage_name("BTS_setupHrpwmMepScaleFactor")
     195                      .dwattr $C$DW$22, DW_AT_declaration
     196                      .dwattr $C$DW$22, DW_AT_external
     197                      .dwattr $C$DW$22, DW_AT_decl_file("C:/sandbox/github/Lion-IRVT/Hardware/source/tida-010086/bts_F2837x
     198                      .dwattr $C$DW$22, DW_AT_decl_line(0x179)
     199                      .dwattr $C$DW$22, DW_AT_decl_column(0x06)
     200                      .dwendtag $C$DW$22
     201              
     202              
     203              $C$DW$23        .dwtag  DW_TAG_subprogram
     204                      .dwattr $C$DW$23, DW_AT_name("BTS_HAL_enableEpwmCounting")
     205                      .dwattr $C$DW$23, DW_AT_linkage_name("BTS_HAL_enableEpwmCounting")
     206                      .dwattr $C$DW$23, DW_AT_declaration
     207                      .dwattr $C$DW$23, DW_AT_external
     208                      .dwattr $C$DW$23, DW_AT_decl_file("C:\sandbox\github\Lion-IRVT\Hardware\source\tida-010086\bts_F2837x
     209                      .dwattr $C$DW$23, DW_AT_decl_line(0x59)
     210                      .dwattr $C$DW$23, DW_AT_decl_column(0x06)
     211                      .dwendtag $C$DW$23
     212              
     213              
     214              $C$DW$24        .dwtag  DW_TAG_subprogram
     215                      .dwattr $C$DW$24, DW_AT_name("BTS_HAL_SetupSpiPinsGpio_Adc1")
     216                      .dwattr $C$DW$24, DW_AT_linkage_name("BTS_HAL_SetupSpiPinsGpio_Adc1")
     217                      .dwattr $C$DW$24, DW_AT_declaration
     218                      .dwattr $C$DW$24, DW_AT_external
     219                      .dwattr $C$DW$24, DW_AT_decl_file("C:\sandbox\github\Lion-IRVT\Hardware\source\tida-010086\bts_F2837x
     220                      .dwattr $C$DW$24, DW_AT_decl_line(0x62)
TMS320C2000 Assembler PC v22.6.1 Tue Aug 13 19:46:08 2024

Copyright (c) 1996-2018 Texas Instruments Incorporated
bts_main.asm                                                         PAGE    5

     221                      .dwattr $C$DW$24, DW_AT_decl_column(0x06)
     222                      .dwendtag $C$DW$24
     223              
     224              
     225              $C$DW$25        .dwtag  DW_TAG_subprogram
     226                      .dwattr $C$DW$25, DW_AT_name("BTS_HAL_SetupSpi")
     227                      .dwattr $C$DW$25, DW_AT_linkage_name("BTS_HAL_SetupSpi")
     228                      .dwattr $C$DW$25, DW_AT_declaration
     229                      .dwattr $C$DW$25, DW_AT_external
     230                      .dwattr $C$DW$25, DW_AT_decl_file("C:\sandbox\github\Lion-IRVT\Hardware\source\tida-010086\bts_F2837x
     231                      .dwattr $C$DW$25, DW_AT_decl_line(0x61)
     232                      .dwattr $C$DW$25, DW_AT_decl_column(0x06)
     233              $C$DW$26        .dwtag  DW_TAG_formal_parameter
     234                      .dwattr $C$DW$26, DW_AT_type(*$C$DW$T$43)
     235              
     236                      .dwendtag $C$DW$25
     237              
     238              
     239              $C$DW$27        .dwtag  DW_TAG_subprogram
     240                      .dwattr $C$DW$27, DW_AT_name("BTS_HAL_SetupSpiPinsGpio_Adc2")
     241                      .dwattr $C$DW$27, DW_AT_linkage_name("BTS_HAL_SetupSpiPinsGpio_Adc2")
     242                      .dwattr $C$DW$27, DW_AT_declaration
     243                      .dwattr $C$DW$27, DW_AT_external
     244                      .dwattr $C$DW$27, DW_AT_decl_file("C:\sandbox\github\Lion-IRVT\Hardware\source\tida-010086\bts_F2837x
     245                      .dwattr $C$DW$27, DW_AT_decl_line(0x63)
     246                      .dwattr $C$DW$27, DW_AT_decl_column(0x06)
     247                      .dwendtag $C$DW$27
     248              
     249              
     250              $C$DW$28        .dwtag  DW_TAG_subprogram
     251                      .dwattr $C$DW$28, DW_AT_name("BTS_HAL_setupExAdcGpio_Adc1")
     252                      .dwattr $C$DW$28, DW_AT_linkage_name("BTS_HAL_setupExAdcGpio_Adc1")
     253                      .dwattr $C$DW$28, DW_AT_declaration
     254                      .dwattr $C$DW$28, DW_AT_external
     255                      .dwattr $C$DW$28, DW_AT_decl_file("C:\sandbox\github\Lion-IRVT\Hardware\source\tida-010086\bts_F2837x
     256                      .dwattr $C$DW$28, DW_AT_decl_line(0x50)
     257                      .dwattr $C$DW$28, DW_AT_decl_column(0x06)
     258                      .dwendtag $C$DW$28
     259              
     260              
     261              $C$DW$29        .dwtag  DW_TAG_subprogram
     262                      .dwattr $C$DW$29, DW_AT_name("BTS_HAL_setupExAdc_ch1_4")
     263                      .dwattr $C$DW$29, DW_AT_linkage_name("BTS_HAL_setupExAdc_ch1_4")
     264                      .dwattr $C$DW$29, DW_AT_declaration
     265                      .dwattr $C$DW$29, DW_AT_external
     266                      .dwattr $C$DW$29, DW_AT_decl_file("C:\sandbox\github\Lion-IRVT\Hardware\source\tida-010086\bts_F2837x
     267                      .dwattr $C$DW$29, DW_AT_decl_line(0x4d)
     268                      .dwattr $C$DW$29, DW_AT_decl_column(0x06)
     269                      .dwendtag $C$DW$29
     270              
     271              
     272              $C$DW$30        .dwtag  DW_TAG_subprogram
     273                      .dwattr $C$DW$30, DW_AT_name("BTS_HAL_setupExAdcGpio_Adc2")
     274                      .dwattr $C$DW$30, DW_AT_linkage_name("BTS_HAL_setupExAdcGpio_Adc2")
     275                      .dwattr $C$DW$30, DW_AT_declaration
TMS320C2000 Assembler PC v22.6.1 Tue Aug 13 19:46:08 2024

Copyright (c) 1996-2018 Texas Instruments Incorporated
bts_main.asm                                                         PAGE    6

     276                      .dwattr $C$DW$30, DW_AT_external
     277                      .dwattr $C$DW$30, DW_AT_decl_file("C:\sandbox\github\Lion-IRVT\Hardware\source\tida-010086\bts_F2837x
     278                      .dwattr $C$DW$30, DW_AT_decl_line(0x51)
     279                      .dwattr $C$DW$30, DW_AT_decl_column(0x06)
     280                      .dwendtag $C$DW$30
     281              
     282              
     283              $C$DW$31        .dwtag  DW_TAG_subprogram
     284                      .dwattr $C$DW$31, DW_AT_name("BTS_HAL_setupExAdc_ch5_8")
     285                      .dwattr $C$DW$31, DW_AT_linkage_name("BTS_HAL_setupExAdc_ch5_8")
     286                      .dwattr $C$DW$31, DW_AT_declaration
     287                      .dwattr $C$DW$31, DW_AT_external
     288                      .dwattr $C$DW$31, DW_AT_decl_file("C:\sandbox\github\Lion-IRVT\Hardware\source\tida-010086\bts_F2837x
     289                      .dwattr $C$DW$31, DW_AT_decl_line(0x4e)
     290                      .dwattr $C$DW$31, DW_AT_decl_column(0x06)
     291                      .dwendtag $C$DW$31
     292              
     293              
     294              $C$DW$32        .dwtag  DW_TAG_subprogram
     295                      .dwattr $C$DW$32, DW_AT_name("BTS_initUserVariables")
     296                      .dwattr $C$DW$32, DW_AT_linkage_name("BTS_initUserVariables")
     297                      .dwattr $C$DW$32, DW_AT_declaration
     298                      .dwattr $C$DW$32, DW_AT_external
     299                      .dwattr $C$DW$32, DW_AT_decl_file("C:/sandbox/github/Lion-IRVT/Hardware/source/tida-010086/bts_F2837x
     300                      .dwattr $C$DW$32, DW_AT_decl_line(0x17c)
     301                      .dwattr $C$DW$32, DW_AT_decl_column(0x06)
     302                      .dwendtag $C$DW$32
     303              
     304              
     305              $C$DW$33        .dwtag  DW_TAG_subprogram
     306                      .dwattr $C$DW$33, DW_AT_name("BTS_initProgramVariables")
     307                      .dwattr $C$DW$33, DW_AT_linkage_name("BTS_initProgramVariables")
     308                      .dwattr $C$DW$33, DW_AT_declaration
     309                      .dwattr $C$DW$33, DW_AT_external
     310                      .dwattr $C$DW$33, DW_AT_decl_file("C:/sandbox/github/Lion-IRVT/Hardware/source/tida-010086/bts_F2837x
     311                      .dwattr $C$DW$33, DW_AT_decl_line(0x17d)
     312                      .dwattr $C$DW$33, DW_AT_decl_column(0x06)
     313                      .dwendtag $C$DW$33
     314              
     315              
     316              $C$DW$34        .dwtag  DW_TAG_subprogram
     317                      .dwattr $C$DW$34, DW_AT_name("BTS_initController")
     318                      .dwattr $C$DW$34, DW_AT_linkage_name("BTS_initController")
     319                      .dwattr $C$DW$34, DW_AT_declaration
     320                      .dwattr $C$DW$34, DW_AT_external
     321                      .dwattr $C$DW$34, DW_AT_decl_file("C:/sandbox/github/Lion-IRVT/Hardware/source/tida-010086/bts_F2837x
     322                      .dwattr $C$DW$34, DW_AT_decl_line(0x17e)
     323                      .dwattr $C$DW$34, DW_AT_decl_column(0x06)
     324                      .dwendtag $C$DW$34
     325              
     326              
     327              $C$DW$35        .dwtag  DW_TAG_subprogram
     328                      .dwattr $C$DW$35, DW_AT_name("BTS_setupSfra")
     329                      .dwattr $C$DW$35, DW_AT_linkage_name("BTS_setupSfra")
     330                      .dwattr $C$DW$35, DW_AT_declaration
TMS320C2000 Assembler PC v22.6.1 Tue Aug 13 19:46:08 2024

Copyright (c) 1996-2018 Texas Instruments Incorporated
bts_main.asm                                                         PAGE    7

     331                      .dwattr $C$DW$35, DW_AT_external
     332                      .dwattr $C$DW$35, DW_AT_decl_file("C:/sandbox/github/Lion-IRVT/Hardware/source/tida-010086/bts_F2837x
     333                      .dwattr $C$DW$35, DW_AT_decl_line(0x176)
     334                      .dwattr $C$DW$35, DW_AT_decl_column(0x06)
     335                      .dwendtag $C$DW$35
     336              
     337              
     338              $C$DW$36        .dwtag  DW_TAG_subprogram
     339                      .dwattr $C$DW$36, DW_AT_name("BTS_setupSfraGui")
     340                      .dwattr $C$DW$36, DW_AT_linkage_name("BTS_setupSfraGui")
     341                      .dwattr $C$DW$36, DW_AT_declaration
     342                      .dwattr $C$DW$36, DW_AT_external
     343                      .dwattr $C$DW$36, DW_AT_decl_file("C:/sandbox/github/Lion-IRVT/Hardware/source/tida-010086/bts_F2837x
     344                      .dwattr $C$DW$36, DW_AT_decl_line(0x177)
     345                      .dwattr $C$DW$36, DW_AT_decl_column(0x06)
     346                      .dwendtag $C$DW$36
     347              
     348              
     349              $C$DW$37        .dwtag  DW_TAG_subprogram
     350                      .dwattr $C$DW$37, DW_AT_name("BTS_HAL_setupInterruptTrigger_Adc1")
     351                      .dwattr $C$DW$37, DW_AT_linkage_name("BTS_HAL_setupInterruptTrigger_Adc1")
     352                      .dwattr $C$DW$37, DW_AT_declaration
     353                      .dwattr $C$DW$37, DW_AT_external
     354                      .dwattr $C$DW$37, DW_AT_decl_file("C:\sandbox\github\Lion-IRVT\Hardware\source\tida-010086\bts_F2837x
     355                      .dwattr $C$DW$37, DW_AT_decl_line(0x5b)
     356                      .dwattr $C$DW$37, DW_AT_decl_column(0x06)
     357                      .dwendtag $C$DW$37
     358              
     359              
     360              $C$DW$38        .dwtag  DW_TAG_subprogram
     361                      .dwattr $C$DW$38, DW_AT_name("BTS_HAL_setupInterruptTrigger_Adc2")
     362                      .dwattr $C$DW$38, DW_AT_linkage_name("BTS_HAL_setupInterruptTrigger_Adc2")
     363                      .dwattr $C$DW$38, DW_AT_declaration
     364                      .dwattr $C$DW$38, DW_AT_external
     365                      .dwattr $C$DW$38, DW_AT_decl_file("C:\sandbox\github\Lion-IRVT\Hardware\source\tida-010086\bts_F2837x
     366                      .dwattr $C$DW$38, DW_AT_decl_line(0x5c)
     367                      .dwattr $C$DW$38, DW_AT_decl_column(0x06)
     368                      .dwendtag $C$DW$38
     369              
     370              
     371              $C$DW$39        .dwtag  DW_TAG_subprogram
     372                      .dwattr $C$DW$39, DW_AT_name("BTS_HAL_setupInterrupt_Adc1")
     373                      .dwattr $C$DW$39, DW_AT_linkage_name("BTS_HAL_setupInterrupt_Adc1")
     374                      .dwattr $C$DW$39, DW_AT_declaration
     375                      .dwattr $C$DW$39, DW_AT_external
     376                      .dwattr $C$DW$39, DW_AT_decl_file("C:\sandbox\github\Lion-IRVT\Hardware\source\tida-010086\bts_F2837x
     377                      .dwattr $C$DW$39, DW_AT_decl_line(0x5e)
     378                      .dwattr $C$DW$39, DW_AT_decl_column(0x06)
     379                      .dwendtag $C$DW$39
     380              
     381              
     382              $C$DW$40        .dwtag  DW_TAG_subprogram
     383                      .dwattr $C$DW$40, DW_AT_name("BTS_HAL_setupInterrupt_Adc2")
     384                      .dwattr $C$DW$40, DW_AT_linkage_name("BTS_HAL_setupInterrupt_Adc2")
     385                      .dwattr $C$DW$40, DW_AT_declaration
TMS320C2000 Assembler PC v22.6.1 Tue Aug 13 19:46:08 2024

Copyright (c) 1996-2018 Texas Instruments Incorporated
bts_main.asm                                                         PAGE    8

     386                      .dwattr $C$DW$40, DW_AT_external
     387                      .dwattr $C$DW$40, DW_AT_decl_file("C:\sandbox\github\Lion-IRVT\Hardware\source\tida-010086\bts_F2837x
     388                      .dwattr $C$DW$40, DW_AT_decl_line(0x5f)
     389                      .dwattr $C$DW$40, DW_AT_decl_column(0x06)
     390                      .dwendtag $C$DW$40
     391              
     392              
     393              $C$DW$41        .dwtag  DW_TAG_subprogram
     394                      .dwattr $C$DW$41, DW_AT_name("BTS_HAL_setupInterrupt_I2c")
     395                      .dwattr $C$DW$41, DW_AT_linkage_name("BTS_HAL_setupInterrupt_I2c")
     396                      .dwattr $C$DW$41, DW_AT_declaration
     397                      .dwattr $C$DW$41, DW_AT_external
     398                      .dwattr $C$DW$41, DW_AT_decl_file("C:\sandbox\github\Lion-IRVT\Hardware\source\tida-010086\bts_F2837x
     399                      .dwattr $C$DW$41, DW_AT_decl_line(0x60)
     400                      .dwattr $C$DW$41, DW_AT_decl_column(0x06)
     401                      .dwendtag $C$DW$41
     402              
     403              
     404              $C$DW$42        .dwtag  DW_TAG_subprogram
     405                      .dwattr $C$DW$42, DW_AT_name("BTS_HAL_setupInterrupt")
     406                      .dwattr $C$DW$42, DW_AT_linkage_name("BTS_HAL_setupInterrupt")
     407                      .dwattr $C$DW$42, DW_AT_declaration
     408                      .dwattr $C$DW$42, DW_AT_external
     409                      .dwattr $C$DW$42, DW_AT_decl_file("C:\sandbox\github\Lion-IRVT\Hardware\source\tida-010086\bts_F2837x
     410                      .dwattr $C$DW$42, DW_AT_decl_line(0x5d)
     411                      .dwattr $C$DW$42, DW_AT_decl_column(0x06)
     412                      .dwendtag $C$DW$42
     413              
     414              
     415              $C$DW$43        .dwtag  DW_TAG_subprogram
     416                      .dwattr $C$DW$43, DW_AT_name("BTS_HAL_setupSyncBuckPinsEpwm")
     417                      .dwattr $C$DW$43, DW_AT_linkage_name("BTS_HAL_setupSyncBuckPinsEpwm")
     418                      .dwattr $C$DW$43, DW_AT_declaration
     419                      .dwattr $C$DW$43, DW_AT_external
     420                      .dwattr $C$DW$43, DW_AT_decl_file("C:\sandbox\github\Lion-IRVT\Hardware\source\tida-010086\bts_F2837x
     421                      .dwattr $C$DW$43, DW_AT_decl_line(0x54)
     422                      .dwattr $C$DW$43, DW_AT_decl_column(0x06)
     423                      .dwendtag $C$DW$43
     424              
     425              
     426              $C$DW$44        .dwtag  DW_TAG_subprogram
     427                      .dwattr $C$DW$44, DW_AT_name("BTS_updateReference")
     428                      .dwattr $C$DW$44, DW_AT_linkage_name("BTS_updateReference")
     429                      .dwattr $C$DW$44, DW_AT_declaration
     430                      .dwattr $C$DW$44, DW_AT_external
     431                      .dwattr $C$DW$44, DW_AT_decl_file("C:/sandbox/github/Lion-IRVT/Hardware/source/tida-010086/bts_F2837x
     432                      .dwattr $C$DW$44, DW_AT_decl_line(0x17b)
     433                      .dwattr $C$DW$44, DW_AT_decl_column(0x06)
     434              $C$DW$45        .dwtag  DW_TAG_formal_parameter
     435                      .dwattr $C$DW$45, DW_AT_type(*$C$DW$T$71)
     436              
     437              $C$DW$46        .dwtag  DW_TAG_formal_parameter
     438                      .dwattr $C$DW$46, DW_AT_type(*$C$DW$T$76)
     439              
     440                      .dwendtag $C$DW$44
TMS320C2000 Assembler PC v22.6.1 Tue Aug 13 19:46:08 2024

Copyright (c) 1996-2018 Texas Instruments Incorporated
bts_main.asm                                                         PAGE    9

     441              
     442              
     443              $C$DW$47        .dwtag  DW_TAG_subprogram
     444                      .dwattr $C$DW$47, DW_AT_name("SFRA_GUI_runSerialHostComms")
     445                      .dwattr $C$DW$47, DW_AT_linkage_name("SFRA_GUI_runSerialHostComms")
     446                      .dwattr $C$DW$47, DW_AT_declaration
     447                      .dwattr $C$DW$47, DW_AT_external
     448                      .dwattr $C$DW$47, DW_AT_decl_file("C:/ti/c2000/C2000Ware_DigitalPower_SDK_5_03_00_00/libraries/sfra/g
     449                      .dwattr $C$DW$47, DW_AT_decl_line(0x4e)
     450                      .dwattr $C$DW$47, DW_AT_decl_column(0x06)
     451              $C$DW$48        .dwtag  DW_TAG_formal_parameter
     452                      .dwattr $C$DW$48, DW_AT_type(*$C$DW$T$68)
     453              
     454                      .dwendtag $C$DW$47
     455              
     456              
     457              $C$DW$49        .dwtag  DW_TAG_subprogram
     458                      .dwattr $C$DW$49, DW_AT_name("SFRA_F32_runBackgroundTask")
     459                      .dwattr $C$DW$49, DW_AT_linkage_name("SFRA_F32_runBackgroundTask")
     460                      .dwattr $C$DW$49, DW_AT_declaration
     461                      .dwattr $C$DW$49, DW_AT_external
     462                      .dwattr $C$DW$49, DW_AT_decl_file("C:/ti/c2000/C2000Ware_DigitalPower_SDK_5_03_00_00/libraries/sfra/i
     463                      .dwattr $C$DW$49, DW_AT_decl_line(0xb0)
     464                      .dwattr $C$DW$49, DW_AT_decl_column(0x0d)
     465              $C$DW$50        .dwtag  DW_TAG_formal_parameter
     466                      .dwattr $C$DW$50, DW_AT_type(*$C$DW$T$68)
     467              
     468                      .dwendtag $C$DW$49
     469              
     470              
     471              $C$DW$51        .dwtag  DW_TAG_subprogram
     472                      .dwattr $C$DW$51, DW_AT_name("BTS_monitor_Iout_Vout")
     473                      .dwattr $C$DW$51, DW_AT_linkage_name("BTS_monitor_Iout_Vout")
     474                      .dwattr $C$DW$51, DW_AT_declaration
     475                      .dwattr $C$DW$51, DW_AT_external
     476                      .dwattr $C$DW$51, DW_AT_decl_file("C:/sandbox/github/Lion-IRVT/Hardware/source/tida-010086/bts_F2837x
     477                      .dwattr $C$DW$51, DW_AT_decl_line(0x17f)
     478                      .dwattr $C$DW$51, DW_AT_decl_column(0x06)
     479              $C$DW$52        .dwtag  DW_TAG_formal_parameter
     480                      .dwattr $C$DW$52, DW_AT_type(*$C$DW$T$82)
     481              
     482                      .dwendtag $C$DW$51
     483              
     484              $C$DW$53        .dwtag  DW_TAG_variable
     485                      .dwattr $C$DW$53, DW_AT_name("BTS_ExAdcRxflag1")
     486                      .dwattr $C$DW$53, DW_AT_linkage_name("BTS_ExAdcRxflag1")
     487                      .dwattr $C$DW$53, DW_AT_type(*$C$DW$T$21)
     488                      .dwattr $C$DW$53, DW_AT_declaration
     489                      .dwattr $C$DW$53, DW_AT_external
     490                      .dwattr $C$DW$53, DW_AT_decl_file("C:\sandbox\github\Lion-IRVT\Hardware\source\tida-010086\bts_F2837x
     491                      .dwattr $C$DW$53, DW_AT_decl_line(0x43)
     492                      .dwattr $C$DW$53, DW_AT_decl_column(0x1a)
     493              
     494              $C$DW$54        .dwtag  DW_TAG_variable
     495                      .dwattr $C$DW$54, DW_AT_name("BTS_ExAdcRxflag2")
TMS320C2000 Assembler PC v22.6.1 Tue Aug 13 19:46:08 2024

Copyright (c) 1996-2018 Texas Instruments Incorporated
bts_main.asm                                                         PAGE   10

     496                      .dwattr $C$DW$54, DW_AT_linkage_name("BTS_ExAdcRxflag2")
     497                      .dwattr $C$DW$54, DW_AT_type(*$C$DW$T$21)
     498                      .dwattr $C$DW$54, DW_AT_declaration
     499                      .dwattr $C$DW$54, DW_AT_external
     500                      .dwattr $C$DW$54, DW_AT_decl_file("C:\sandbox\github\Lion-IRVT\Hardware\source\tida-010086\bts_F2837x
     501                      .dwattr $C$DW$54, DW_AT_decl_line(0x44)
     502                      .dwattr $C$DW$54, DW_AT_decl_column(0x1a)
     503              
     504              $C$DW$55        .dwtag  DW_TAG_variable
     505                      .dwattr $C$DW$55, DW_AT_name("BTS_sfoStatus")
     506                      .dwattr $C$DW$55, DW_AT_linkage_name("BTS_sfoStatus")
     507                      .dwattr $C$DW$55, DW_AT_type(*$C$DW$T$20)
     508                      .dwattr $C$DW$55, DW_AT_declaration
     509                      .dwattr $C$DW$55, DW_AT_external
     510                      .dwattr $C$DW$55, DW_AT_decl_file("C:/sandbox/github/Lion-IRVT/Hardware/source/tida-010086/bts_F2837x
     511                      .dwattr $C$DW$55, DW_AT_decl_line(0x157)
     512                      .dwattr $C$DW$55, DW_AT_decl_column(0x13)
     513              
     514              
     515              $C$DW$56        .dwtag  DW_TAG_subprogram
     516                      .dwattr $C$DW$56, DW_AT_name("SFO")
     517                      .dwattr $C$DW$56, DW_AT_linkage_name("SFO")
     518                      .dwattr $C$DW$56, DW_AT_type(*$C$DW$T$10)
     519                      .dwattr $C$DW$56, DW_AT_declaration
     520                      .dwattr $C$DW$56, DW_AT_external
     521                      .dwattr $C$DW$56, DW_AT_decl_file("C:/sandbox/github/Lion-IRVT/Hardware/source/tida-010086/bts_F2837x
     522                      .dwattr $C$DW$56, DW_AT_decl_line(0x40)
     523                      .dwattr $C$DW$56, DW_AT_decl_column(0x05)
     524                      .dwendtag $C$DW$56
     525              
     526              
     527              $C$DW$57        .dwtag  DW_TAG_subprogram
     528                      .dwattr $C$DW$57, DW_AT_name("BTS_readCalibration")
     529                      .dwattr $C$DW$57, DW_AT_linkage_name("BTS_readCalibration")
     530                      .dwattr $C$DW$57, DW_AT_type(*$C$DW$T$10)
     531                      .dwattr $C$DW$57, DW_AT_declaration
     532                      .dwattr $C$DW$57, DW_AT_external
     533                      .dwattr $C$DW$57, DW_AT_decl_file("../bts_main.c")
     534                      .dwattr $C$DW$57, DW_AT_decl_line(0xb9)
     535                      .dwattr $C$DW$57, DW_AT_decl_column(0x05)
     536                      .dwendtag $C$DW$57
     537              
     538 00000000               .data
     539                      .align  1
     540                      .elfsym ||channel$1||,SYM_SIZE(1),SYM_BLOCKED(1)
     541 00000000       ||channel$1||:
     542 00000000 0000          .bits           0,16
     543                                      ; channel$1 @ 0
     544              
     545              
     546              $C$DW$58        .dwtag  DW_TAG_subprogram
     547                      .dwattr $C$DW$58, DW_AT_name("BTS_monitor_program_update")
     548                      .dwattr $C$DW$58, DW_AT_linkage_name("BTS_monitor_program_update")
     549                      .dwattr $C$DW$58, DW_AT_type(*$C$DW$T$10)
     550                      .dwattr $C$DW$58, DW_AT_declaration
TMS320C2000 Assembler PC v22.6.1 Tue Aug 13 19:46:08 2024

Copyright (c) 1996-2018 Texas Instruments Incorporated
bts_main.asm                                                         PAGE   11

     551                      .dwattr $C$DW$58, DW_AT_external
     552                      .dwattr $C$DW$58, DW_AT_decl_file("../bts_main.c")
     553                      .dwattr $C$DW$58, DW_AT_decl_line(0x1d0)
     554                      .dwattr $C$DW$58, DW_AT_decl_column(0x05)
     555                      .dwendtag $C$DW$58
     556              
     557              $C$DW$59        .dwtag  DW_TAG_variable
     558                      .dwattr $C$DW$59, DW_AT_name("MEP_ScaleFactor")
     559                      .dwattr $C$DW$59, DW_AT_linkage_name("MEP_ScaleFactor")
     560                      .dwattr $C$DW$59, DW_AT_type(*$C$DW$T$43)
     561                      .dwattr $C$DW$59, DW_AT_declaration
     562                      .dwattr $C$DW$59, DW_AT_external
     563                      .dwattr $C$DW$59, DW_AT_decl_file("C:\sandbox\github\Lion-IRVT\Hardware\source\tida-010086\bts_F2837x
     564                      .dwattr $C$DW$59, DW_AT_decl_line(0x45)
     565                      .dwattr $C$DW$59, DW_AT_decl_column(0x12)
     566              
     567                      .global ||Alpha_State_Ptr||
     568 00000000               .bss    ||Alpha_State_Ptr||,2,1,1
     569              $C$DW$60        .dwtag  DW_TAG_variable
     570                      .dwattr $C$DW$60, DW_AT_name("Alpha_State_Ptr")
     571                      .dwattr $C$DW$60, DW_AT_linkage_name("Alpha_State_Ptr")
     572                      .dwattr $C$DW$60, DW_AT_location[DW_OP_addr ||Alpha_State_Ptr||]
     573                      .dwattr $C$DW$60, DW_AT_type(*$C$DW$T$91)
     574                      .dwattr $C$DW$60, DW_AT_external
     575                      .dwattr $C$DW$60, DW_AT_decl_file("../bts_main.c")
     576                      .dwattr $C$DW$60, DW_AT_decl_line(0x25)
     577                      .dwattr $C$DW$60, DW_AT_decl_column(0x08)
     578              
     579                      .global ||A_Task_Ptr||
     580 00000002               .bss    ||A_Task_Ptr||,2,1,1
     581              $C$DW$61        .dwtag  DW_TAG_variable
     582                      .dwattr $C$DW$61, DW_AT_name("A_Task_Ptr")
     583                      .dwattr $C$DW$61, DW_AT_linkage_name("A_Task_Ptr")
     584                      .dwattr $C$DW$61, DW_AT_location[DW_OP_addr ||A_Task_Ptr||]
     585                      .dwattr $C$DW$61, DW_AT_type(*$C$DW$T$91)
     586                      .dwattr $C$DW$61, DW_AT_external
     587                      .dwattr $C$DW$61, DW_AT_decl_file("../bts_main.c")
     588                      .dwattr $C$DW$61, DW_AT_decl_line(0x26)
     589                      .dwattr $C$DW$61, DW_AT_decl_column(0x08)
     590              
     591                      .global ||B_Task_Ptr||
     592 00000004               .bss    ||B_Task_Ptr||,2,1,1
     593              $C$DW$62        .dwtag  DW_TAG_variable
     594                      .dwattr $C$DW$62, DW_AT_name("B_Task_Ptr")
     595                      .dwattr $C$DW$62, DW_AT_linkage_name("B_Task_Ptr")
     596                      .dwattr $C$DW$62, DW_AT_location[DW_OP_addr ||B_Task_Ptr||]
     597                      .dwattr $C$DW$62, DW_AT_type(*$C$DW$T$91)
     598                      .dwattr $C$DW$62, DW_AT_external
     599                      .dwattr $C$DW$62, DW_AT_decl_file("../bts_main.c")
     600                      .dwattr $C$DW$62, DW_AT_decl_line(0x27)
     601                      .dwattr $C$DW$62, DW_AT_decl_column(0x08)
     602              
     603                      .global ||C_Task_Ptr||
     604 00000006               .bss    ||C_Task_Ptr||,2,1,1
     605              $C$DW$63        .dwtag  DW_TAG_variable
TMS320C2000 Assembler PC v22.6.1 Tue Aug 13 19:46:08 2024

Copyright (c) 1996-2018 Texas Instruments Incorporated
bts_main.asm                                                         PAGE   12

     606                      .dwattr $C$DW$63, DW_AT_name("C_Task_Ptr")
     607                      .dwattr $C$DW$63, DW_AT_linkage_name("C_Task_Ptr")
     608                      .dwattr $C$DW$63, DW_AT_location[DW_OP_addr ||C_Task_Ptr||]
     609                      .dwattr $C$DW$63, DW_AT_type(*$C$DW$T$91)
     610                      .dwattr $C$DW$63, DW_AT_external
     611                      .dwattr $C$DW$63, DW_AT_decl_file("../bts_main.c")
     612                      .dwattr $C$DW$63, DW_AT_decl_line(0x28)
     613                      .dwattr $C$DW$63, DW_AT_decl_column(0x08)
     614              
     615              
     616              $C$DW$64        .dwtag  DW_TAG_subprogram
     617                      .dwattr $C$DW$64, DW_AT_name("__SFRA_F32_inject")
     618                      .dwattr $C$DW$64, DW_AT_linkage_name("__SFRA_F32_inject")
     619                      .dwattr $C$DW$64, DW_AT_type(*$C$DW$T$16)
     620                      .dwattr $C$DW$64, DW_AT_declaration
     621                      .dwattr $C$DW$64, DW_AT_external
     622                      .dwattr $C$DW$64, DW_AT_decl_file("C:/ti/c2000/C2000Ware_DigitalPower_SDK_5_03_00_00/libraries/sfra/i
     623                      .dwattr $C$DW$64, DW_AT_decl_line(0x9c)
     624                      .dwattr $C$DW$64, DW_AT_decl_column(0x0e)
     625              $C$DW$65        .dwtag  DW_TAG_formal_parameter
     626                      .dwattr $C$DW$65, DW_AT_type(*$C$DW$T$16)
     627              
     628                      .dwendtag $C$DW$64
     629              
     630              
     631              $C$DW$66        .dwtag  DW_TAG_subprogram
     632                      .dwattr $C$DW$66, DW_AT_name("__eallow")
     633                      .dwattr $C$DW$66, DW_AT_linkage_name("__eallow")
     634                      .dwattr $C$DW$66, DW_AT_declaration
     635                      .dwattr $C$DW$66, DW_AT_external
     636                      .dwendtag $C$DW$66
     637              
     638              
     639              $C$DW$67        .dwtag  DW_TAG_subprogram
     640                      .dwattr $C$DW$67, DW_AT_name("__edis")
     641                      .dwattr $C$DW$67, DW_AT_linkage_name("__edis")
     642                      .dwattr $C$DW$67, DW_AT_declaration
     643                      .dwattr $C$DW$67, DW_AT_external
     644                      .dwendtag $C$DW$67
     645              
     646                      .global ||vTimer0||
     647 00000000       ||vTimer0||:    .usect  ".bss:vTimer0",4,0,0
     648              $C$DW$68        .dwtag  DW_TAG_variable
     649                      .dwattr $C$DW$68, DW_AT_name("vTimer0")
     650                      .dwattr $C$DW$68, DW_AT_linkage_name("vTimer0")
     651                      .dwattr $C$DW$68, DW_AT_location[DW_OP_addr ||vTimer0||]
     652                      .dwattr $C$DW$68, DW_AT_type(*$C$DW$T$136)
     653                      .dwattr $C$DW$68, DW_AT_external
     654                      .dwattr $C$DW$68, DW_AT_decl_file("../bts_main.c")
     655                      .dwattr $C$DW$68, DW_AT_decl_line(0x1e)
     656                      .dwattr $C$DW$68, DW_AT_decl_column(0x0a)
     657              
     658                      .global ||vTimer1||
     659 00000000       ||vTimer1||:    .usect  ".bss:vTimer1",4,0,0
     660              $C$DW$69        .dwtag  DW_TAG_variable
TMS320C2000 Assembler PC v22.6.1 Tue Aug 13 19:46:08 2024

Copyright (c) 1996-2018 Texas Instruments Incorporated
bts_main.asm                                                         PAGE   13

     661                      .dwattr $C$DW$69, DW_AT_name("vTimer1")
     662                      .dwattr $C$DW$69, DW_AT_linkage_name("vTimer1")
     663                      .dwattr $C$DW$69, DW_AT_location[DW_OP_addr ||vTimer1||]
     664                      .dwattr $C$DW$69, DW_AT_type(*$C$DW$T$136)
     665                      .dwattr $C$DW$69, DW_AT_external
     666                      .dwattr $C$DW$69, DW_AT_decl_file("../bts_main.c")
     667                      .dwattr $C$DW$69, DW_AT_decl_line(0x1f)
     668                      .dwattr $C$DW$69, DW_AT_decl_column(0x0a)
     669              
     670                      .global ||vTimer2||
     671 00000000       ||vTimer2||:    .usect  ".bss:vTimer2",4,0,0
     672              $C$DW$70        .dwtag  DW_TAG_variable
     673                      .dwattr $C$DW$70, DW_AT_name("vTimer2")
     674                      .dwattr $C$DW$70, DW_AT_linkage_name("vTimer2")
     675                      .dwattr $C$DW$70, DW_AT_location[DW_OP_addr ||vTimer2||]
     676                      .dwattr $C$DW$70, DW_AT_type(*$C$DW$T$136)
     677                      .dwattr $C$DW$70, DW_AT_external
     678                      .dwattr $C$DW$70, DW_AT_decl_file("../bts_main.c")
     679                      .dwattr $C$DW$70, DW_AT_decl_line(0x20)
     680                      .dwattr $C$DW$70, DW_AT_decl_column(0x0a)
     681              
     682              $C$DW$71        .dwtag  DW_TAG_variable
     683                      .dwattr $C$DW$71, DW_AT_name("BTS_ADC1")
     684                      .dwattr $C$DW$71, DW_AT_linkage_name("BTS_ADC1")
     685                      .dwattr $C$DW$71, DW_AT_type(*$C$DW$T$65)
     686                      .dwattr $C$DW$71, DW_AT_declaration
     687                      .dwattr $C$DW$71, DW_AT_external
     688                      .dwattr $C$DW$71, DW_AT_decl_file("C:\sandbox\github\Lion-IRVT\Hardware\source\tida-010086\bts_F2837x
     689                      .dwattr $C$DW$71, DW_AT_decl_line(0x41)
     690                      .dwattr $C$DW$71, DW_AT_decl_column(0x12)
     691              
     692              $C$DW$72        .dwtag  DW_TAG_variable
     693                      .dwattr $C$DW$72, DW_AT_name("BTS_ADC2")
     694                      .dwattr $C$DW$72, DW_AT_linkage_name("BTS_ADC2")
     695                      .dwattr $C$DW$72, DW_AT_type(*$C$DW$T$65)
     696                      .dwattr $C$DW$72, DW_AT_declaration
     697                      .dwattr $C$DW$72, DW_AT_external
     698                      .dwattr $C$DW$72, DW_AT_decl_file("C:\sandbox\github\Lion-IRVT\Hardware\source\tida-010086\bts_F2837x
     699                      .dwattr $C$DW$72, DW_AT_decl_line(0x42)
     700                      .dwattr $C$DW$72, DW_AT_decl_column(0x12)
     701              
     702              $C$DW$73        .dwtag  DW_TAG_variable
     703                      .dwattr $C$DW$73, DW_AT_name("BTS_sfra")
     704                      .dwattr $C$DW$73, DW_AT_linkage_name("BTS_sfra")
     705                      .dwattr $C$DW$73, DW_AT_type(*$C$DW$T$67)
     706                      .dwattr $C$DW$73, DW_AT_declaration
     707                      .dwattr $C$DW$73, DW_AT_external
     708                      .dwattr $C$DW$73, DW_AT_decl_file("C:/sandbox/github/Lion-IRVT/Hardware/source/tida-010086/bts_F2837x
     709                      .dwattr $C$DW$73, DW_AT_decl_line(0x15f)
     710                      .dwattr $C$DW$73, DW_AT_decl_column(0x15)
     711              
     712                      .sblock ".bss"
     713                      .sblock ".data"
     714              ;       C:\ti\ccs1271\ccs\tools\compiler\ti-cgt-c2000_22.6.1.LTS\bin\opt2000.exe C:\\Users\\lucas\\AppData\\L
     715              ;       C:\ti\ccs1271\ccs\tools\compiler\ti-cgt-c2000_22.6.1.LTS\bin\acia2000.exe -@C:\\Users\\lucas\\AppData
TMS320C2000 Assembler PC v22.6.1 Tue Aug 13 19:46:08 2024

Copyright (c) 1996-2018 Texas Instruments Incorporated
bts_main.asm                                                         PAGE   14

     716 00000000               .sect   ".text"
     717                      .clink
     718                      .global ||C3||
     719              
     720              $C$DW$74        .dwtag  DW_TAG_subprogram
     721                      .dwattr $C$DW$74, DW_AT_name("C3")
     722                      .dwattr $C$DW$74, DW_AT_low_pc(||C3||)
     723                      .dwattr $C$DW$74, DW_AT_high_pc(0x00)
     724                      .dwattr $C$DW$74, DW_AT_linkage_name("C3")
     725                      .dwattr $C$DW$74, DW_AT_external
     726                      .dwattr $C$DW$74, DW_AT_decl_file("../bts_main.c")
     727                      .dwattr $C$DW$74, DW_AT_decl_line(0x1d8)
     728                      .dwattr $C$DW$74, DW_AT_decl_column(0x06)
     729                      .dwattr $C$DW$74, DW_AT_TI_max_frame_size(-2)
     730                      .dwpsn  file "../bts_main.c",line 473,column 1,is_stmt,address ||C3||,isa 0
     731              
     732                      .dwfde $C$DW$CIE, ||C3||
     733              
     734              ;***************************************************************
     735              ;* FNAME: C3                            FR SIZE:   0           *
     736              ;*                                                             *
     737              ;* FUNCTION ENVIRONMENT                                        *
     738              ;*                                                             *
     739              ;* FUNCTION PROPERTIES                                         *
     740              ;*                            0 Parameter,  0 Auto,  0 SOE     *
     741              ;***************************************************************
     742              
     743 00000000       ||C3||:
     744                      .dwcfi  cfa_offset, -2
     745                      .dwcfi  save_reg_to_mem, 26, 0
     746                      .dwpsn  file "../bts_main.c",line 479,column 5,is_stmt,isa 0
     747 00000000 8F00!         MOVL      XAR4,#||C1||          ; [CPU_ARAU] |479| 
         00000001 0000 
     748 00000002 761F!         MOVW      DP,#||C_Task_Ptr||    ; [CPU_ARAU] 
         00000003 0000 
     749 00000004 A800!         MOVL      @||C_Task_Ptr||,XAR4  ; [CPU_ALU] |479| 
     750              $C$DW$75        .dwtag  DW_TAG_TI_branch
     751                      .dwattr $C$DW$75, DW_AT_low_pc(0x00)
     752                      .dwattr $C$DW$75, DW_AT_TI_return
     753              
     754 00000005 0006          LRETR     ; [CPU_ALU] 
     755                      ; return occurs ; [] 
     756                      .dwattr $C$DW$74, DW_AT_TI_end_file("../bts_main.c")
     757                      .dwattr $C$DW$74, DW_AT_TI_end_line(0x1e0)
     758                      .dwattr $C$DW$74, DW_AT_TI_end_column(0x01)
     759                      .dwendentry
     760                      .dwendtag $C$DW$74
     761              
     762 00000006               .sect   ".text"
     763                      .clink
     764                      .global ||C2||
     765              
     766              $C$DW$76        .dwtag  DW_TAG_subprogram
     767                      .dwattr $C$DW$76, DW_AT_name("C2")
     768                      .dwattr $C$DW$76, DW_AT_low_pc(||C2||)
TMS320C2000 Assembler PC v22.6.1 Tue Aug 13 19:46:08 2024

Copyright (c) 1996-2018 Texas Instruments Incorporated
bts_main.asm                                                         PAGE   15

     769                      .dwattr $C$DW$76, DW_AT_high_pc(0x00)
     770                      .dwattr $C$DW$76, DW_AT_linkage_name("C2")
     771                      .dwattr $C$DW$76, DW_AT_external
     772                      .dwattr $C$DW$76, DW_AT_decl_file("../bts_main.c")
     773                      .dwattr $C$DW$76, DW_AT_decl_line(0x1ca)
     774                      .dwattr $C$DW$76, DW_AT_decl_column(0x06)
     775                      .dwattr $C$DW$76, DW_AT_TI_max_frame_size(-2)
     776                      .dwpsn  file "../bts_main.c",line 459,column 1,is_stmt,address ||C2||,isa 0
     777              
     778                      .dwfde $C$DW$CIE, ||C2||
     779              $C$DW$77        .dwtag  DW_TAG_variable
     780                      .dwattr $C$DW$77, DW_AT_name("channel")
     781                      .dwattr $C$DW$77, DW_AT_linkage_name("channel$1")
     782                      .dwattr $C$DW$77, DW_AT_type(*$C$DW$T$20)
     783                      .dwattr $C$DW$77, DW_AT_location[DW_OP_addr ||channel$1||]
     784              
     785              
     786              ;***************************************************************
     787              ;* FNAME: C2                            FR SIZE:   0           *
     788              ;*                                                             *
     789              ;* FUNCTION ENVIRONMENT                                        *
     790              ;*                                                             *
     791              ;* FUNCTION PROPERTIES                                         *
     792              ;*                            0 Parameter,  0 Auto,  0 SOE     *
     793              ;***************************************************************
     794              
     795 00000006       ||C2||:
     796              ;* T     assigned to $O$y1
     797                      .dwcfi  cfa_offset, -2
     798                      .dwcfi  save_reg_to_mem, 26, 0
     799 00000006 761F!         MOVW      DP,#||channel$1||     ; [CPU_ARAU] 
         00000007 0000 
     800                      .dwpsn  file "../bts_main.c",line 462,column 5,is_stmt,isa 0
     801 00000008 9200!         MOV       AL,@||channel$1||     ; [CPU_ALU] |462| 
     802 00000009 2901          CLRC      SXM                   ; [CPU_ALU] 
     803                      .dwpsn  file "../bts_main.c",line 464,column 5,is_stmt,isa 0
     804 0000000a 8F00!         MOVL      XAR4,#||BTS_userInputs|| ; [CPU_ARAU] |464| 
         0000000b 0000 
     805 0000000c BE52          MOVB      XAR6,#82              ; [CPU_ALU] |464| 
     806                      .dwpsn  file "../bts_main.c",line 462,column 5,is_stmt,isa 0
     807 0000000d 9C01          ADDB      AL,#1                 ; [CPU_ALU] |462| 
     808                      .dwpsn  file "../bts_main.c",line 464,column 5,is_stmt,isa 0
     809 0000000e 8F40!         MOVL      XAR5,#||BTS_measValues|| ; [CPU_ARAU] |464| 
         0000000f 0000 
     810                      .dwpsn  file "../bts_main.c",line 462,column 5,is_stmt,isa 0
     811 00000010 9007          ANDB      AL,#0x07              ; [CPU_ALU] |462| 
     812 00000011 2DA9          MOV       T,AL                  ; [CPU_ALU] |462| 
     813 00000012 9600!         MOV       @||channel$1||,AL     ; [CPU_ALU] |462| 
     814                      .dwpsn  file "../bts_main.c",line 464,column 5,is_stmt,isa 0
     815 00000013 5603          MOV       ACC,T << 5            ; [CPU_ALU] |464| 
         00000014 05AC 
     816 00000015 5601          ADDL      XAR4,ACC              ; [CPU_ALU] |464| 
         00000016 00A4 
     817 00000017 36A6          MPYU      ACC,T,AR6             ; [CPU_ALU] |464| 
     818 00000018 5601          ADDL      XAR5,ACC              ; [CPU_ALU] |464| 
TMS320C2000 Assembler PC v22.6.1 Tue Aug 13 19:46:08 2024

Copyright (c) 1996-2018 Texas Instruments Incorporated
bts_main.asm                                                         PAGE   16

         00000019 00A5 
     819              $C$DW$78        .dwtag  DW_TAG_TI_branch
     820                      .dwattr $C$DW$78, DW_AT_low_pc(0x00)
     821                      .dwattr $C$DW$78, DW_AT_name("BTS_monitor_program_update")
     822                      .dwattr $C$DW$78, DW_AT_TI_call
     823              
     824 0000001a 7640!         LCR       #||BTS_monitor_program_update|| ; [CPU_ALU] |464| 
         0000001b 0000 
     825                      ; call occurs [#||BTS_monitor_program_update||] ; [] |464| 
     826 0000001c 761F!         MOVW      DP,#||C_Task_Ptr||    ; [CPU_ARAU] 
         0000001d 0000 
     827                      .dwpsn  file "../bts_main.c",line 469,column 5,is_stmt,isa 0
     828 0000001e 8F00!         MOVL      XAR4,#||C3||          ; [CPU_ARAU] |469| 
         0000001f 0000 
     829 00000020 A800!         MOVL      @||C_Task_Ptr||,XAR4  ; [CPU_ALU] |469| 
     830              $C$DW$79        .dwtag  DW_TAG_TI_branch
     831                      .dwattr $C$DW$79, DW_AT_low_pc(0x00)
     832                      .dwattr $C$DW$79, DW_AT_TI_return
     833              
     834 00000021 0006          LRETR     ; [CPU_ALU] 
     835                      ; return occurs ; [] 
     836                      .dwattr $C$DW$76, DW_AT_TI_end_file("../bts_main.c")
     837                      .dwattr $C$DW$76, DW_AT_TI_end_line(0x1d6)
     838                      .dwattr $C$DW$76, DW_AT_TI_end_column(0x01)
     839                      .dwendentry
     840                      .dwendtag $C$DW$76
     841              
     842 00000022               .sect   ".text"
     843                      .clink
     844                      .global ||B3||
     845              
     846              $C$DW$80        .dwtag  DW_TAG_subprogram
     847                      .dwattr $C$DW$80, DW_AT_name("B3")
     848                      .dwattr $C$DW$80, DW_AT_low_pc(||B3||)
     849                      .dwattr $C$DW$80, DW_AT_high_pc(0x00)
     850                      .dwattr $C$DW$80, DW_AT_linkage_name("B3")
     851                      .dwattr $C$DW$80, DW_AT_external
     852                      .dwattr $C$DW$80, DW_AT_decl_file("../bts_main.c")
     853                      .dwattr $C$DW$80, DW_AT_decl_line(0x1a5)
     854                      .dwattr $C$DW$80, DW_AT_decl_column(0x06)
     855                      .dwattr $C$DW$80, DW_AT_TI_max_frame_size(-2)
     856                      .dwpsn  file "../bts_main.c",line 422,column 1,is_stmt,address ||B3||,isa 0
     857              
     858                      .dwfde $C$DW$CIE, ||B3||
     859              
     860              ;***************************************************************
     861              ;* FNAME: B3                            FR SIZE:   0           *
     862              ;*                                                             *
     863              ;* FUNCTION ENVIRONMENT                                        *
     864              ;*                                                             *
     865              ;* FUNCTION PROPERTIES                                         *
     866              ;*                            0 Parameter,  0 Auto,  0 SOE     *
     867              ;***************************************************************
     868              
     869 00000022       ||B3||:
TMS320C2000 Assembler PC v22.6.1 Tue Aug 13 19:46:08 2024

Copyright (c) 1996-2018 Texas Instruments Incorporated
bts_main.asm                                                         PAGE   17

     870                      .dwcfi  cfa_offset, -2
     871                      .dwcfi  save_reg_to_mem, 26, 0
     872                      .dwpsn  file "../bts_main.c",line 430,column 5,is_stmt,isa 0
     873 00000022 8F00!         MOVL      XAR4,#||B1||          ; [CPU_ARAU] |430| 
         00000023 0000 
     874 00000024 761F!         MOVW      DP,#||B_Task_Ptr||    ; [CPU_ARAU] 
         00000025 0000 
     875 00000026 A800!         MOVL      @||B_Task_Ptr||,XAR4  ; [CPU_ALU] |430| 
     876              $C$DW$81        .dwtag  DW_TAG_TI_branch
     877                      .dwattr $C$DW$81, DW_AT_low_pc(0x00)
     878                      .dwattr $C$DW$81, DW_AT_TI_return
     879              
     880 00000027 0006          LRETR     ; [CPU_ALU] 
     881                      ; return occurs ; [] 
     882                      .dwattr $C$DW$80, DW_AT_TI_end_file("../bts_main.c")
     883                      .dwattr $C$DW$80, DW_AT_TI_end_line(0x1af)
     884                      .dwattr $C$DW$80, DW_AT_TI_end_column(0x01)
     885                      .dwendentry
     886                      .dwendtag $C$DW$80
     887              
     888 00000028               .sect   ".text"
     889                      .clink
     890                      .global ||B2||
     891              
     892              $C$DW$82        .dwtag  DW_TAG_subprogram
     893                      .dwattr $C$DW$82, DW_AT_name("B2")
     894                      .dwattr $C$DW$82, DW_AT_low_pc(||B2||)
     895                      .dwattr $C$DW$82, DW_AT_high_pc(0x00)
     896                      .dwattr $C$DW$82, DW_AT_linkage_name("B2")
     897                      .dwattr $C$DW$82, DW_AT_external
     898                      .dwattr $C$DW$82, DW_AT_decl_file("../bts_main.c")
     899                      .dwattr $C$DW$82, DW_AT_decl_line(0x198)
     900                      .dwattr $C$DW$82, DW_AT_decl_column(0x06)
     901                      .dwattr $C$DW$82, DW_AT_TI_max_frame_size(-2)
     902                      .dwpsn  file "../bts_main.c",line 409,column 1,is_stmt,address ||B2||,isa 0
     903              
     904                      .dwfde $C$DW$CIE, ||B2||
     905              
     906              ;***************************************************************
     907              ;* FNAME: B2                            FR SIZE:   0           *
     908              ;*                                                             *
     909              ;* FUNCTION ENVIRONMENT                                        *
     910              ;*                                                             *
     911              ;* FUNCTION PROPERTIES                                         *
     912              ;*                            0 Parameter,  0 Auto,  0 SOE     *
     913              ;***************************************************************
     914              
     915 00000028       ||B2||:
     916                      .dwcfi  cfa_offset, -2
     917                      .dwcfi  save_reg_to_mem, 26, 0
     918                      .dwpsn  file "../bts_main.c",line 413,column 5,is_stmt,isa 0
     919 00000028 8F00!         MOVL      XAR4,#||BTS_sfra||    ; [CPU_ARAU] |413| 
         00000029 0000 
     920              $C$DW$83        .dwtag  DW_TAG_TI_branch
     921                      .dwattr $C$DW$83, DW_AT_low_pc(0x00)
TMS320C2000 Assembler PC v22.6.1 Tue Aug 13 19:46:08 2024

Copyright (c) 1996-2018 Texas Instruments Incorporated
bts_main.asm                                                         PAGE   18

     922                      .dwattr $C$DW$83, DW_AT_name("SFRA_F32_runBackgroundTask")
     923                      .dwattr $C$DW$83, DW_AT_TI_call
     924              
     925 0000002a 7640!         LCR       #||SFRA_F32_runBackgroundTask|| ; [CPU_ALU] |413| 
         0000002b 0000 
     926                      ; call occurs [#||SFRA_F32_runBackgroundTask||] ; [] |413| 
     927 0000002c 761F!         MOVW      DP,#||B_Task_Ptr||    ; [CPU_ARAU] 
         0000002d 0000 
     928                      .dwpsn  file "../bts_main.c",line 418,column 5,is_stmt,isa 0
     929 0000002e 8F00!         MOVL      XAR4,#||B3||          ; [CPU_ARAU] |418| 
         0000002f 0000 
     930 00000030 A800!         MOVL      @||B_Task_Ptr||,XAR4  ; [CPU_ALU] |418| 
     931              $C$DW$84        .dwtag  DW_TAG_TI_branch
     932                      .dwattr $C$DW$84, DW_AT_low_pc(0x00)
     933                      .dwattr $C$DW$84, DW_AT_TI_return
     934              
     935 00000031 0006          LRETR     ; [CPU_ALU] 
     936                      ; return occurs ; [] 
     937                      .dwattr $C$DW$82, DW_AT_TI_end_file("../bts_main.c")
     938                      .dwattr $C$DW$82, DW_AT_TI_end_line(0x1a3)
     939                      .dwattr $C$DW$82, DW_AT_TI_end_column(0x01)
     940                      .dwendentry
     941                      .dwendtag $C$DW$82
     942              
     943 00000032               .sect   ".text"
     944                      .clink
     945                      .global ||A3||
     946              
     947              $C$DW$85        .dwtag  DW_TAG_subprogram
     948                      .dwattr $C$DW$85, DW_AT_name("A3")
     949                      .dwattr $C$DW$85, DW_AT_low_pc(||A3||)
     950                      .dwattr $C$DW$85, DW_AT_high_pc(0x00)
     951                      .dwattr $C$DW$85, DW_AT_linkage_name("A3")
     952                      .dwattr $C$DW$85, DW_AT_external
     953                      .dwattr $C$DW$85, DW_AT_decl_file("../bts_main.c")
     954                      .dwattr $C$DW$85, DW_AT_decl_line(0x17a)
     955                      .dwattr $C$DW$85, DW_AT_decl_column(0x06)
     956                      .dwattr $C$DW$85, DW_AT_TI_max_frame_size(-2)
     957                      .dwpsn  file "../bts_main.c",line 379,column 1,is_stmt,address ||A3||,isa 0
     958              
     959                      .dwfde $C$DW$CIE, ||A3||
     960              
     961              ;***************************************************************
     962              ;* FNAME: A3                            FR SIZE:   0           *
     963              ;*                                                             *
     964              ;* FUNCTION ENVIRONMENT                                        *
     965              ;*                                                             *
     966              ;* FUNCTION PROPERTIES                                         *
     967              ;*                            0 Parameter,  0 Auto,  0 SOE     *
     968              ;***************************************************************
     969              
     970 00000032       ||A3||:
     971                      .dwcfi  cfa_offset, -2
     972                      .dwcfi  save_reg_to_mem, 26, 0
     973                      .dwpsn  file "C:/sandbox/github/Lion-IRVT/Hardware/source/tida-010086/bts_F2837xD_8ch/bts.h",line 396
TMS320C2000 Assembler PC v22.6.1 Tue Aug 13 19:46:08 2024

Copyright (c) 1996-2018 Texas Instruments Incorporated
bts_main.asm                                                         PAGE   19

     974              $C$DW$86        .dwtag  DW_TAG_TI_branch
     975                      .dwattr $C$DW$86, DW_AT_low_pc(0x00)
     976                      .dwattr $C$DW$86, DW_AT_name("SFO")
     977                      .dwattr $C$DW$86, DW_AT_TI_call
     978              
     979 00000032 7640!         LCR       #||SFO||              ; [CPU_ALU] |396| 
         00000033 0000 
     980                      ; call occurs [#||SFO||] ; [] |396| 
     981 00000034 761F!         MOVW      DP,#||A_Task_Ptr||    ; [CPU_ARAU] 
         00000035 0000 
     982                      .dwpsn  file "../bts_main.c",line 388,column 5,is_stmt,isa 0
     983 00000036 8F00!         MOVL      XAR4,#||A1||          ; [CPU_ARAU] |388| 
         00000037 0000 
     984 00000038 A800!         MOVL      @||A_Task_Ptr||,XAR4  ; [CPU_ALU] |388| 
     985 00000039 761F!         MOVW      DP,#||BTS_sfoStatus|| ; [CPU_ARAU] 
         0000003a 0000 
     986                      .dwpsn  file "C:/sandbox/github/Lion-IRVT/Hardware/source/tida-010086/bts_F2837xD_8ch/bts.h",line 396
     987 0000003b 9600!         MOV       @||BTS_sfoStatus||,AL ; [CPU_ALU] |396| 
     988              $C$DW$87        .dwtag  DW_TAG_TI_branch
     989                      .dwattr $C$DW$87, DW_AT_low_pc(0x00)
     990                      .dwattr $C$DW$87, DW_AT_TI_return
     991              
     992 0000003c 0006          LRETR     ; [CPU_ALU] 
     993                      ; return occurs ; [] 
     994                      .dwattr $C$DW$85, DW_AT_TI_end_file("../bts_main.c")
     995                      .dwattr $C$DW$85, DW_AT_TI_end_line(0x185)
     996                      .dwattr $C$DW$85, DW_AT_TI_end_column(0x01)
     997                      .dwendentry
     998                      .dwendtag $C$DW$85
     999              
    1000 0000003d               .sect   ".text"
    1001                      .clink
    1002                      .global ||A2||
    1003              
    1004              $C$DW$88        .dwtag  DW_TAG_subprogram
    1005                      .dwattr $C$DW$88, DW_AT_name("A2")
    1006                      .dwattr $C$DW$88, DW_AT_low_pc(||A2||)
    1007                      .dwattr $C$DW$88, DW_AT_high_pc(0x00)
    1008                      .dwattr $C$DW$88, DW_AT_linkage_name("A2")
    1009                      .dwattr $C$DW$88, DW_AT_external
    1010                      .dwattr $C$DW$88, DW_AT_decl_file("../bts_main.c")
    1011                      .dwattr $C$DW$88, DW_AT_decl_line(0x16d)
    1012                      .dwattr $C$DW$88, DW_AT_decl_column(0x06)
    1013                      .dwattr $C$DW$88, DW_AT_TI_max_frame_size(-2)
    1014                      .dwpsn  file "../bts_main.c",line 366,column 1,is_stmt,address ||A2||,isa 0
    1015              
    1016                      .dwfde $C$DW$CIE, ||A2||
    1017              
    1018              ;***************************************************************
    1019              ;* FNAME: A2                            FR SIZE:   0           *
    1020              ;*                                                             *
    1021              ;* FUNCTION ENVIRONMENT                                        *
    1022              ;*                                                             *
    1023              ;* FUNCTION PROPERTIES                                         *
    1024              ;*                            0 Parameter,  0 Auto,  0 SOE     *
TMS320C2000 Assembler PC v22.6.1 Tue Aug 13 19:46:08 2024

Copyright (c) 1996-2018 Texas Instruments Incorporated
bts_main.asm                                                         PAGE   20

    1025              ;***************************************************************
    1026              
    1027 0000003d       ||A2||:
    1028                      .dwcfi  cfa_offset, -2
    1029                      .dwcfi  save_reg_to_mem, 26, 0
    1030                      .dwpsn  file "../bts_main.c",line 370,column 5,is_stmt,isa 0
    1031 0000003d 8F00!         MOVL      XAR4,#||BTS_sfra||    ; [CPU_ARAU] |370| 
         0000003e 0000 
    1032              $C$DW$89        .dwtag  DW_TAG_TI_branch
    1033                      .dwattr $C$DW$89, DW_AT_low_pc(0x00)
    1034                      .dwattr $C$DW$89, DW_AT_name("SFRA_GUI_runSerialHostComms")
    1035                      .dwattr $C$DW$89, DW_AT_TI_call
    1036              
    1037 0000003f 7640!         LCR       #||SFRA_GUI_runSerialHostComms|| ; [CPU_ALU] |370| 
         00000040 0000 
    1038                      ; call occurs [#||SFRA_GUI_runSerialHostComms||] ; [] |370| 
    1039 00000041 761F!         MOVW      DP,#||A_Task_Ptr||    ; [CPU_ARAU] 
         00000042 0000 
    1040                      .dwpsn  file "../bts_main.c",line 375,column 5,is_stmt,isa 0
    1041 00000043 8F00!         MOVL      XAR4,#||A3||          ; [CPU_ARAU] |375| 
         00000044 0000 
    1042 00000045 A800!         MOVL      @||A_Task_Ptr||,XAR4  ; [CPU_ALU] |375| 
    1043              $C$DW$90        .dwtag  DW_TAG_TI_branch
    1044                      .dwattr $C$DW$90, DW_AT_low_pc(0x00)
    1045                      .dwattr $C$DW$90, DW_AT_TI_return
    1046              
    1047 00000046 0006          LRETR     ; [CPU_ALU] 
    1048                      ; return occurs ; [] 
    1049                      .dwattr $C$DW$88, DW_AT_TI_end_file("../bts_main.c")
    1050                      .dwattr $C$DW$88, DW_AT_TI_end_line(0x178)
    1051                      .dwattr $C$DW$88, DW_AT_TI_end_column(0x01)
    1052                      .dwendentry
    1053                      .dwendtag $C$DW$88
    1054              
    1055 00000047               .sect   ".text"
    1056                      .clink
    1057                      .global ||C1||
    1058              
    1059              $C$DW$91        .dwtag  DW_TAG_subprogram
    1060                      .dwattr $C$DW$91, DW_AT_name("C1")
    1061                      .dwattr $C$DW$91, DW_AT_low_pc(||C1||)
    1062                      .dwattr $C$DW$91, DW_AT_high_pc(0x00)
    1063                      .dwattr $C$DW$91, DW_AT_linkage_name("C1")
    1064                      .dwattr $C$DW$91, DW_AT_external
    1065                      .dwattr $C$DW$91, DW_AT_decl_file("../bts_main.c")
    1066                      .dwattr $C$DW$91, DW_AT_decl_line(0x1b6)
    1067                      .dwattr $C$DW$91, DW_AT_decl_column(0x06)
    1068                      .dwattr $C$DW$91, DW_AT_TI_max_frame_size(-4)
    1069                      .dwpsn  file "../bts_main.c",line 439,column 1,is_stmt,address ||C1||,isa 0
    1070              
    1071                      .dwfde $C$DW$CIE, ||C1||
    1072              
    1073              ;***************************************************************
    1074              ;* FNAME: C1                            FR SIZE:   2           *
    1075              ;*                                                             *
TMS320C2000 Assembler PC v22.6.1 Tue Aug 13 19:46:08 2024

Copyright (c) 1996-2018 Texas Instruments Incorporated
bts_main.asm                                                         PAGE   21

    1076              ;* FUNCTION ENVIRONMENT                                        *
    1077              ;*                                                             *
    1078              ;* FUNCTION PROPERTIES                                         *
    1079              ;*                            0 Parameter,  0 Auto,  2 SOE     *
    1080              ;***************************************************************
    1081              
    1082 00000047       ||C1||:
    1083              ;* AR1   assigned to $O$C1
    1084                      .dwcfi  cfa_offset, -2
    1085                      .dwcfi  save_reg_to_mem, 26, 0
    1086 00000047 B2BD          MOVL      *SP++,XAR1            ; [CPU_ALU] 
    1087                      .dwcfi  save_reg_to_mem, 7, 2
    1088                      .dwcfi  cfa_offset, -4
    1089                      .dwpsn  file "../bts_main.c",line 442,column 5,is_stmt,isa 0
    1090 00000048 8D40!         MOVL      XAR1,#||BTS_measValues|| ; [CPU_ARAU] |442| 
         00000049 0000 
    1091 0000004a 8AA1          MOVL      XAR4,XAR1             ; [CPU_ALU] |442| 
    1092              $C$DW$92        .dwtag  DW_TAG_TI_branch
    1093                      .dwattr $C$DW$92, DW_AT_low_pc(0x00)
    1094                      .dwattr $C$DW$92, DW_AT_name("BTS_monitor_Iout_Vout")
    1095                      .dwattr $C$DW$92, DW_AT_TI_call
    1096              
    1097 0000004b 7640!         LCR       #||BTS_monitor_Iout_Vout|| ; [CPU_ALU] |442| 
         0000004c 0000 
    1098                      ; call occurs [#||BTS_monitor_Iout_Vout||] ; [] |442| 
    1099                      .dwpsn  file "../bts_main.c",line 443,column 5,is_stmt,isa 0
    1100 0000004d 8AA1          MOVL      XAR4,XAR1             ; [CPU_ALU] |443| 
    1101 0000004e DC52          ADDB      XAR4,#82              ; [CPU_ALU] |443| 
    1102              $C$DW$93        .dwtag  DW_TAG_TI_branch
    1103                      .dwattr $C$DW$93, DW_AT_low_pc(0x00)
    1104                      .dwattr $C$DW$93, DW_AT_name("BTS_monitor_Iout_Vout")
    1105                      .dwattr $C$DW$93, DW_AT_TI_call
    1106              
    1107 0000004f 7640!         LCR       #||BTS_monitor_Iout_Vout|| ; [CPU_ALU] |443| 
         00000050 0000 
    1108                      ; call occurs [#||BTS_monitor_Iout_Vout||] ; [] |443| 
    1109                      .dwpsn  file "../bts_main.c",line 444,column 5,is_stmt,isa 0
    1110 00000051 B2A9          MOVL      ACC,XAR1              ; [CPU_ALU] |444| 
    1111 00000052 09A4          ADDB      ACC,#164              ; [CPU_ALU] |444| 
    1112 00000053 8AA9          MOVL      XAR4,ACC              ; [CPU_ALU] |444| 
    1113              $C$DW$94        .dwtag  DW_TAG_TI_branch
    1114                      .dwattr $C$DW$94, DW_AT_low_pc(0x00)
    1115                      .dwattr $C$DW$94, DW_AT_name("BTS_monitor_Iout_Vout")
    1116                      .dwattr $C$DW$94, DW_AT_TI_call
    1117              
    1118 00000054 7640!         LCR       #||BTS_monitor_Iout_Vout|| ; [CPU_ALU] |444| 
         00000055 0000 
    1119                      ; call occurs [#||BTS_monitor_Iout_Vout||] ; [] |444| 
    1120                      .dwpsn  file "../bts_main.c",line 445,column 5,is_stmt,isa 0
    1121 00000056 B2A9          MOVL      ACC,XAR1              ; [CPU_ALU] |445| 
    1122 00000057 09F6          ADDB      ACC,#246              ; [CPU_ALU] |445| 
    1123 00000058 8AA9          MOVL      XAR4,ACC              ; [CPU_ALU] |445| 
    1124              $C$DW$95        .dwtag  DW_TAG_TI_branch
    1125                      .dwattr $C$DW$95, DW_AT_low_pc(0x00)
    1126                      .dwattr $C$DW$95, DW_AT_name("BTS_monitor_Iout_Vout")
TMS320C2000 Assembler PC v22.6.1 Tue Aug 13 19:46:08 2024

Copyright (c) 1996-2018 Texas Instruments Incorporated
bts_main.asm                                                         PAGE   22

    1127                      .dwattr $C$DW$95, DW_AT_TI_call
    1128              
    1129 00000059 7640!         LCR       #||BTS_monitor_Iout_Vout|| ; [CPU_ALU] |445| 
         0000005a 0000 
    1130                      ; call occurs [#||BTS_monitor_Iout_Vout||] ; [] |445| 
    1131                      .dwpsn  file "../bts_main.c",line 446,column 5,is_stmt,isa 0
    1132 0000005b B2A9          MOVL      ACC,XAR1              ; [CPU_ALU] |446| 
    1133 0000005c FF13          ADD       ACC,#41 << 3          ; [CPU_ALU] |446| 
         0000005d 0029 
    1134 0000005e 8AA9          MOVL      XAR4,ACC              ; [CPU_ALU] |446| 
    1135              $C$DW$96        .dwtag  DW_TAG_TI_branch
    1136                      .dwattr $C$DW$96, DW_AT_low_pc(0x00)
    1137                      .dwattr $C$DW$96, DW_AT_name("BTS_monitor_Iout_Vout")
    1138                      .dwattr $C$DW$96, DW_AT_TI_call
    1139              
    1140 0000005f 7640!         LCR       #||BTS_monitor_Iout_Vout|| ; [CPU_ALU] |446| 
         00000060 0000 
    1141                      ; call occurs [#||BTS_monitor_Iout_Vout||] ; [] |446| 
    1142                      .dwpsn  file "../bts_main.c",line 447,column 5,is_stmt,isa 0
    1143 00000061 B2A9          MOVL      ACC,XAR1              ; [CPU_ALU] |447| 
    1144 00000062 FF11          ADD       ACC,#205 << 1         ; [CPU_ALU] |447| 
         00000063 00CD 
    1145 00000064 8AA9          MOVL      XAR4,ACC              ; [CPU_ALU] |447| 
    1146              $C$DW$97        .dwtag  DW_TAG_TI_branch
    1147                      .dwattr $C$DW$97, DW_AT_low_pc(0x00)
    1148                      .dwattr $C$DW$97, DW_AT_name("BTS_monitor_Iout_Vout")
    1149                      .dwattr $C$DW$97, DW_AT_TI_call
    1150              
    1151 00000065 7640!         LCR       #||BTS_monitor_Iout_Vout|| ; [CPU_ALU] |447| 
         00000066 0000 
    1152                      ; call occurs [#||BTS_monitor_Iout_Vout||] ; [] |447| 
    1153                      .dwpsn  file "../bts_main.c",line 448,column 5,is_stmt,isa 0
    1154 00000067 B2A9          MOVL      ACC,XAR1              ; [CPU_ALU] |448| 
    1155 00000068 FF12          ADD       ACC,#123 << 2         ; [CPU_ALU] |448| 
         00000069 007B 
    1156 0000006a 8AA9          MOVL      XAR4,ACC              ; [CPU_ALU] |448| 
    1157              $C$DW$98        .dwtag  DW_TAG_TI_branch
    1158                      .dwattr $C$DW$98, DW_AT_low_pc(0x00)
    1159                      .dwattr $C$DW$98, DW_AT_name("BTS_monitor_Iout_Vout")
    1160                      .dwattr $C$DW$98, DW_AT_TI_call
    1161              
    1162 0000006b 7640!         LCR       #||BTS_monitor_Iout_Vout|| ; [CPU_ALU] |448| 
         0000006c 0000 
    1163                      ; call occurs [#||BTS_monitor_Iout_Vout||] ; [] |448| 
    1164                      .dwpsn  file "../bts_main.c",line 449,column 5,is_stmt,isa 0
    1165 0000006d B2A9          MOVL      ACC,XAR1              ; [CPU_ALU] |449| 
    1166 0000006e FF11          ADD       ACC,#287 << 1         ; [CPU_ALU] |449| 
         0000006f 011F 
    1167 00000070 8AA9          MOVL      XAR4,ACC              ; [CPU_ALU] |449| 
    1168              $C$DW$99        .dwtag  DW_TAG_TI_branch
    1169                      .dwattr $C$DW$99, DW_AT_low_pc(0x00)
    1170                      .dwattr $C$DW$99, DW_AT_name("BTS_monitor_Iout_Vout")
    1171                      .dwattr $C$DW$99, DW_AT_TI_call
    1172              
    1173 00000071 7640!         LCR       #||BTS_monitor_Iout_Vout|| ; [CPU_ALU] |449| 
TMS320C2000 Assembler PC v22.6.1 Tue Aug 13 19:46:08 2024

Copyright (c) 1996-2018 Texas Instruments Incorporated
bts_main.asm                                                         PAGE   23

         00000072 0000 
    1174                      ; call occurs [#||BTS_monitor_Iout_Vout||] ; [] |449| 
    1175 00000073 761F!         MOVW      DP,#||C_Task_Ptr||    ; [CPU_ARAU] 
         00000074 0000 
    1176                      .dwpsn  file "../bts_main.c",line 455,column 5,is_stmt,isa 0
    1177 00000075 8F00!         MOVL      XAR4,#||C2||          ; [CPU_ARAU] |455| 
         00000076 0000 
    1178 00000077 A800!         MOVL      @||C_Task_Ptr||,XAR4  ; [CPU_ALU] |455| 
    1179 00000078 8BBE          MOVL      XAR1,*--SP            ; [CPU_ALU] 
    1180                      .dwcfi  cfa_offset, -2
    1181                      .dwcfi  restore_reg, 7
    1182              $C$DW$100       .dwtag  DW_TAG_TI_branch
    1183                      .dwattr $C$DW$100, DW_AT_low_pc(0x00)
    1184                      .dwattr $C$DW$100, DW_AT_TI_return
    1185              
    1186 00000079 0006          LRETR     ; [CPU_ALU] 
    1187                      ; return occurs ; [] 
    1188                      .dwattr $C$DW$91, DW_AT_TI_end_file("../bts_main.c")
    1189                      .dwattr $C$DW$91, DW_AT_TI_end_line(0x1c8)
    1190                      .dwattr $C$DW$91, DW_AT_TI_end_column(0x01)
    1191                      .dwendentry
    1192                      .dwendtag $C$DW$91
    1193              
    1194 0000007a               .sect   ".text"
    1195                      .clink
    1196                      .global ||B1||
    1197              
    1198              $C$DW$101       .dwtag  DW_TAG_subprogram
    1199                      .dwattr $C$DW$101, DW_AT_name("B1")
    1200                      .dwattr $C$DW$101, DW_AT_low_pc(||B1||)
    1201                      .dwattr $C$DW$101, DW_AT_high_pc(0x00)
    1202                      .dwattr $C$DW$101, DW_AT_linkage_name("B1")
    1203                      .dwattr $C$DW$101, DW_AT_external
    1204                      .dwattr $C$DW$101, DW_AT_decl_file("../bts_main.c")
    1205                      .dwattr $C$DW$101, DW_AT_decl_line(0x18c)
    1206                      .dwattr $C$DW$101, DW_AT_decl_column(0x06)
    1207                      .dwattr $C$DW$101, DW_AT_TI_max_frame_size(-2)
    1208                      .dwpsn  file "../bts_main.c",line 397,column 1,is_stmt,address ||B1||,isa 0
    1209              
    1210                      .dwfde $C$DW$CIE, ||B1||
    1211              
    1212              ;***************************************************************
    1213              ;* FNAME: B1                            FR SIZE:   0           *
    1214              ;*                                                             *
    1215              ;* FUNCTION ENVIRONMENT                                        *
    1216              ;*                                                             *
    1217              ;* FUNCTION PROPERTIES                                         *
    1218              ;*                            0 Parameter,  0 Auto,  0 SOE     *
    1219              ;***************************************************************
    1220              
    1221 0000007a       ||B1||:
    1222                      .dwcfi  cfa_offset, -2
    1223                      .dwcfi  save_reg_to_mem, 26, 0
    1224                      .dwpsn  file "../bts_main.c",line 405,column 5,is_stmt,isa 0
    1225 0000007a 8F00!         MOVL      XAR4,#||B2||          ; [CPU_ARAU] |405| 
TMS320C2000 Assembler PC v22.6.1 Tue Aug 13 19:46:08 2024

Copyright (c) 1996-2018 Texas Instruments Incorporated
bts_main.asm                                                         PAGE   24

         0000007b 0000 
    1226 0000007c 761F!         MOVW      DP,#||B_Task_Ptr||    ; [CPU_ARAU] 
         0000007d 0000 
    1227 0000007e A800!         MOVL      @||B_Task_Ptr||,XAR4  ; [CPU_ALU] |405| 
    1228              $C$DW$102       .dwtag  DW_TAG_TI_branch
    1229                      .dwattr $C$DW$102, DW_AT_low_pc(0x00)
    1230                      .dwattr $C$DW$102, DW_AT_TI_return
    1231              
    1232 0000007f 0006          LRETR     ; [CPU_ALU] 
    1233                      ; return occurs ; [] 
    1234                      .dwattr $C$DW$101, DW_AT_TI_end_file("../bts_main.c")
    1235                      .dwattr $C$DW$101, DW_AT_TI_end_line(0x196)
    1236                      .dwattr $C$DW$101, DW_AT_TI_end_column(0x01)
    1237                      .dwendentry
    1238                      .dwendtag $C$DW$101
    1239              
    1240 00000080               .sect   ".text"
    1241                      .clink
    1242                      .global ||A1||
    1243              
    1244              $C$DW$103       .dwtag  DW_TAG_subprogram
    1245                      .dwattr $C$DW$103, DW_AT_name("A1")
    1246                      .dwattr $C$DW$103, DW_AT_low_pc(||A1||)
    1247                      .dwattr $C$DW$103, DW_AT_high_pc(0x00)
    1248                      .dwattr $C$DW$103, DW_AT_linkage_name("A1")
    1249                      .dwattr $C$DW$103, DW_AT_external
    1250                      .dwattr $C$DW$103, DW_AT_decl_file("../bts_main.c")
    1251                      .dwattr $C$DW$103, DW_AT_decl_line(0x157)
    1252                      .dwattr $C$DW$103, DW_AT_decl_column(0x06)
    1253                      .dwattr $C$DW$103, DW_AT_TI_max_frame_size(-6)
    1254                      .dwpsn  file "../bts_main.c",line 344,column 1,is_stmt,address ||A1||,isa 0
    1255              
    1256                      .dwfde $C$DW$CIE, ||A1||
    1257              
    1258              ;***************************************************************
    1259              ;* FNAME: A1                            FR SIZE:   4           *
    1260              ;*                                                             *
    1261              ;* FUNCTION ENVIRONMENT                                        *
    1262              ;*                                                             *
    1263              ;* FUNCTION PROPERTIES                                         *
    1264              ;*                            0 Parameter,  0 Auto,  4 SOE     *
    1265              ;***************************************************************
    1266              
    1267 00000080       ||A1||:
    1268              ;* AR2   assigned to $O$C1
    1269              ;* AR1   assigned to $O$C2
    1270                      .dwcfi  cfa_offset, -2
    1271                      .dwcfi  save_reg_to_mem, 26, 0
    1272 00000080 B2BD          MOVL      *SP++,XAR1            ; [CPU_ALU] 
    1273                      .dwcfi  save_reg_to_mem, 7, 2
    1274                      .dwcfi  cfa_offset, -4
    1275                      .dwpsn  file "../bts_main.c",line 350,column 5,is_stmt,isa 0
    1276 00000081 8D40!         MOVL      XAR1,#||BTS_ctrlLoopVariables|| ; [CPU_ARAU] |350| 
         00000082 0000 
    1277 00000083 AABD          MOVL      *SP++,XAR2            ; [CPU_ALU] 
TMS320C2000 Assembler PC v22.6.1 Tue Aug 13 19:46:08 2024

Copyright (c) 1996-2018 Texas Instruments Incorporated
bts_main.asm                                                         PAGE   25

    1278                      .dwcfi  save_reg_to_mem, 9, 4
    1279                      .dwcfi  cfa_offset, -6
    1280 00000084 8D80!         MOVL      XAR2,#||BTS_userInputs|| ; [CPU_ARAU] |350| 
         00000085 0000 
    1281 00000086 83A1          MOVL      XAR5,XAR1             ; [CPU_ALU] |350| 
    1282 00000087 8AA2          MOVL      XAR4,XAR2             ; [CPU_ALU] |350| 
    1283              $C$DW$104       .dwtag  DW_TAG_TI_branch
    1284                      .dwattr $C$DW$104, DW_AT_low_pc(0x00)
    1285                      .dwattr $C$DW$104, DW_AT_name("BTS_updateReference")
    1286                      .dwattr $C$DW$104, DW_AT_TI_call
    1287              
    1288 00000088 7640!         LCR       #||BTS_updateReference|| ; [CPU_ALU] |350| 
         00000089 0000 
    1289                      ; call occurs [#||BTS_updateReference||] ; [] |350| 
    1290                      .dwpsn  file "../bts_main.c",line 351,column 5,is_stmt,isa 0
    1291 0000008a 8AA2          MOVL      XAR4,XAR2             ; [CPU_ALU] |351| 
    1292 0000008b 83A1          MOVL      XAR5,XAR1             ; [CPU_ALU] |351| 
    1293 0000008c DC20          ADDB      XAR4,#32              ; [CPU_ALU] |351| 
    1294 0000008d DD24          ADDB      XAR5,#36              ; [CPU_ALU] |351| 
    1295              $C$DW$105       .dwtag  DW_TAG_TI_branch
    1296                      .dwattr $C$DW$105, DW_AT_low_pc(0x00)
    1297                      .dwattr $C$DW$105, DW_AT_name("BTS_updateReference")
    1298                      .dwattr $C$DW$105, DW_AT_TI_call
    1299              
    1300 0000008e 7640!         LCR       #||BTS_updateReference|| ; [CPU_ALU] |351| 
         0000008f 0000 
    1301                      ; call occurs [#||BTS_updateReference||] ; [] |351| 
    1302                      .dwpsn  file "../bts_main.c",line 352,column 5,is_stmt,isa 0
    1303 00000090 8AA2          MOVL      XAR4,XAR2             ; [CPU_ALU] |352| 
    1304 00000091 83A1          MOVL      XAR5,XAR1             ; [CPU_ALU] |352| 
    1305 00000092 DC40          ADDB      XAR4,#64              ; [CPU_ALU] |352| 
    1306 00000093 DD48          ADDB      XAR5,#72              ; [CPU_ALU] |352| 
    1307              $C$DW$106       .dwtag  DW_TAG_TI_branch
    1308                      .dwattr $C$DW$106, DW_AT_low_pc(0x00)
    1309                      .dwattr $C$DW$106, DW_AT_name("BTS_updateReference")
    1310                      .dwattr $C$DW$106, DW_AT_TI_call
    1311              
    1312 00000094 7640!         LCR       #||BTS_updateReference|| ; [CPU_ALU] |352| 
         00000095 0000 
    1313                      ; call occurs [#||BTS_updateReference||] ; [] |352| 
    1314                      .dwpsn  file "../bts_main.c",line 353,column 5,is_stmt,isa 0
    1315 00000096 8AA2          MOVL      XAR4,XAR2             ; [CPU_ALU] |353| 
    1316 00000097 83A1          MOVL      XAR5,XAR1             ; [CPU_ALU] |353| 
    1317 00000098 DC60          ADDB      XAR4,#96              ; [CPU_ALU] |353| 
    1318 00000099 DD6C          ADDB      XAR5,#108             ; [CPU_ALU] |353| 
    1319              $C$DW$107       .dwtag  DW_TAG_TI_branch
    1320                      .dwattr $C$DW$107, DW_AT_low_pc(0x00)
    1321                      .dwattr $C$DW$107, DW_AT_name("BTS_updateReference")
    1322                      .dwattr $C$DW$107, DW_AT_TI_call
    1323              
    1324 0000009a 7640!         LCR       #||BTS_updateReference|| ; [CPU_ALU] |353| 
         0000009b 0000 
    1325                      ; call occurs [#||BTS_updateReference||] ; [] |353| 
    1326                      .dwpsn  file "../bts_main.c",line 354,column 5,is_stmt,isa 0
    1327 0000009c AAA9          MOVL      ACC,XAR2              ; [CPU_ALU] |354| 
TMS320C2000 Assembler PC v22.6.1 Tue Aug 13 19:46:08 2024

Copyright (c) 1996-2018 Texas Instruments Incorporated
bts_main.asm                                                         PAGE   26

    1328 0000009d 0980          ADDB      ACC,#128              ; [CPU_ALU] |354| 
    1329 0000009e 8AA9          MOVL      XAR4,ACC              ; [CPU_ALU] |354| 
    1330 0000009f B2A9          MOVL      ACC,XAR1              ; [CPU_ALU] |354| 
    1331 000000a0 0990          ADDB      ACC,#144              ; [CPU_ALU] |354| 
    1332 000000a1 83A9          MOVL      XAR5,ACC              ; [CPU_ALU] |354| 
    1333              $C$DW$108       .dwtag  DW_TAG_TI_branch
    1334                      .dwattr $C$DW$108, DW_AT_low_pc(0x00)
    1335                      .dwattr $C$DW$108, DW_AT_name("BTS_updateReference")
    1336                      .dwattr $C$DW$108, DW_AT_TI_call
    1337              
    1338 000000a2 7640!         LCR       #||BTS_updateReference|| ; [CPU_ALU] |354| 
         000000a3 0000 
    1339                      ; call occurs [#||BTS_updateReference||] ; [] |354| 
    1340                      .dwpsn  file "../bts_main.c",line 355,column 5,is_stmt,isa 0
    1341 000000a4 AAA9          MOVL      ACC,XAR2              ; [CPU_ALU] |355| 
    1342 000000a5 09A0          ADDB      ACC,#160              ; [CPU_ALU] |355| 
    1343 000000a6 8AA9          MOVL      XAR4,ACC              ; [CPU_ALU] |355| 
    1344 000000a7 B2A9          MOVL      ACC,XAR1              ; [CPU_ALU] |355| 
    1345 000000a8 09B4          ADDB      ACC,#180              ; [CPU_ALU] |355| 
    1346 000000a9 83A9          MOVL      XAR5,ACC              ; [CPU_ALU] |355| 
    1347              $C$DW$109       .dwtag  DW_TAG_TI_branch
    1348                      .dwattr $C$DW$109, DW_AT_low_pc(0x00)
    1349                      .dwattr $C$DW$109, DW_AT_name("BTS_updateReference")
    1350                      .dwattr $C$DW$109, DW_AT_TI_call
    1351              
    1352 000000aa 7640!         LCR       #||BTS_updateReference|| ; [CPU_ALU] |355| 
         000000ab 0000 
    1353                      ; call occurs [#||BTS_updateReference||] ; [] |355| 
    1354                      .dwpsn  file "../bts_main.c",line 356,column 5,is_stmt,isa 0
    1355 000000ac AAA9          MOVL      ACC,XAR2              ; [CPU_ALU] |356| 
    1356 000000ad 09C0          ADDB      ACC,#192              ; [CPU_ALU] |356| 
    1357 000000ae 8AA9          MOVL      XAR4,ACC              ; [CPU_ALU] |356| 
    1358 000000af B2A9          MOVL      ACC,XAR1              ; [CPU_ALU] |356| 
    1359 000000b0 09D8          ADDB      ACC,#216              ; [CPU_ALU] |356| 
    1360 000000b1 83A9          MOVL      XAR5,ACC              ; [CPU_ALU] |356| 
    1361              $C$DW$110       .dwtag  DW_TAG_TI_branch
    1362                      .dwattr $C$DW$110, DW_AT_low_pc(0x00)
    1363                      .dwattr $C$DW$110, DW_AT_name("BTS_updateReference")
    1364                      .dwattr $C$DW$110, DW_AT_TI_call
    1365              
    1366 000000b2 7640!         LCR       #||BTS_updateReference|| ; [CPU_ALU] |356| 
         000000b3 0000 
    1367                      ; call occurs [#||BTS_updateReference||] ; [] |356| 
    1368                      .dwpsn  file "../bts_main.c",line 357,column 5,is_stmt,isa 0
    1369 000000b4 AAA9          MOVL      ACC,XAR2              ; [CPU_ALU] |357| 
    1370 000000b5 09E0          ADDB      ACC,#224              ; [CPU_ALU] |357| 
    1371 000000b6 8AA9          MOVL      XAR4,ACC              ; [CPU_ALU] |357| 
    1372 000000b7 B2A9          MOVL      ACC,XAR1              ; [CPU_ALU] |357| 
    1373 000000b8 09FC          ADDB      ACC,#252              ; [CPU_ALU] |357| 
    1374 000000b9 83A9          MOVL      XAR5,ACC              ; [CPU_ALU] |357| 
    1375              $C$DW$111       .dwtag  DW_TAG_TI_branch
    1376                      .dwattr $C$DW$111, DW_AT_low_pc(0x00)
    1377                      .dwattr $C$DW$111, DW_AT_name("BTS_updateReference")
    1378                      .dwattr $C$DW$111, DW_AT_TI_call
    1379              
TMS320C2000 Assembler PC v22.6.1 Tue Aug 13 19:46:08 2024

Copyright (c) 1996-2018 Texas Instruments Incorporated
bts_main.asm                                                         PAGE   27

    1380 000000ba 7640!         LCR       #||BTS_updateReference|| ; [CPU_ALU] |357| 
         000000bb 0000 
    1381                      ; call occurs [#||BTS_updateReference||] ; [] |357| 
    1382 000000bc 761F!         MOVW      DP,#||A_Task_Ptr||    ; [CPU_ARAU] 
         000000bd 0000 
    1383                      .dwpsn  file "../bts_main.c",line 362,column 5,is_stmt,isa 0
    1384 000000be 8F00!         MOVL      XAR4,#||A2||          ; [CPU_ARAU] |362| 
         000000bf 0000 
    1385 000000c0 A800!         MOVL      @||A_Task_Ptr||,XAR4  ; [CPU_ALU] |362| 
    1386 000000c1 86BE          MOVL      XAR2,*--SP            ; [CPU_ALU] 
    1387                      .dwcfi  cfa_offset, -4
    1388                      .dwcfi  restore_reg, 9
    1389 000000c2 8BBE          MOVL      XAR1,*--SP            ; [CPU_ALU] 
    1390                      .dwcfi  cfa_offset, -2
    1391                      .dwcfi  restore_reg, 7
    1392              $C$DW$112       .dwtag  DW_TAG_TI_branch
    1393                      .dwattr $C$DW$112, DW_AT_low_pc(0x00)
    1394                      .dwattr $C$DW$112, DW_AT_TI_return
    1395              
    1396 000000c3 0006          LRETR     ; [CPU_ALU] 
    1397                      ; return occurs ; [] 
    1398                      .dwattr $C$DW$103, DW_AT_TI_end_file("../bts_main.c")
    1399                      .dwattr $C$DW$103, DW_AT_TI_end_line(0x16b)
    1400                      .dwattr $C$DW$103, DW_AT_TI_end_column(0x01)
    1401                      .dwendentry
    1402                      .dwendtag $C$DW$103
    1403              
    1404 000000c4               .sect   ".text"
    1405                      .clink
    1406                      .global ||A0||
    1407              
    1408              $C$DW$113       .dwtag  DW_TAG_subprogram
    1409                      .dwattr $C$DW$113, DW_AT_name("A0")
    1410                      .dwattr $C$DW$113, DW_AT_low_pc(||A0||)
    1411                      .dwattr $C$DW$113, DW_AT_high_pc(0x00)
    1412                      .dwattr $C$DW$113, DW_AT_linkage_name("A0")
    1413                      .dwattr $C$DW$113, DW_AT_external
    1414                      .dwattr $C$DW$113, DW_AT_decl_file("../bts_main.c")
    1415                      .dwattr $C$DW$113, DW_AT_decl_line(0x117)
    1416                      .dwattr $C$DW$113, DW_AT_decl_column(0x06)
    1417                      .dwattr $C$DW$113, DW_AT_TI_max_frame_size(-2)
    1418                      .dwpsn  file "../bts_main.c",line 280,column 1,is_stmt,address ||A0||,isa 0
    1419              
    1420                      .dwfde $C$DW$CIE, ||A0||
    1421              
    1422              ;***************************************************************
    1423              ;* FNAME: A0                            FR SIZE:   0           *
    1424              ;*                                                             *
    1425              ;* FUNCTION ENVIRONMENT                                        *
    1426              ;*                                                             *
    1427              ;* FUNCTION PROPERTIES                                         *
    1428              ;*                            0 Parameter,  0 Auto,  0 SOE     *
    1429              ;***************************************************************
    1430              
    1431 000000c4       ||A0||:
TMS320C2000 Assembler PC v22.6.1 Tue Aug 13 19:46:08 2024

Copyright (c) 1996-2018 Texas Instruments Incorporated
bts_main.asm                                                         PAGE   28

    1432              ;* AL    assigned to $O$R1
    1433                      .dwcfi  cfa_offset, -2
    1434                      .dwcfi  save_reg_to_mem, 26, 0
    1435                      .dwpsn  file "C:/ti/c2000/C2000Ware_DigitalPower_SDK_5_03_00_00/c2000ware/driverlib/f2837xd/driverlib
    1436 000000c4 F5A9          MOV       AL,*(0:0x0c04)        ; [CPU_ALU] |399| 
         000000c5 0C04 
    1437 000000c6 FFCE          LSR       AL,15                 ; [CPU_ALU] |399| 
    1438                      .dwpsn  file "../bts_main.c",line 284,column 5,is_stmt,isa 0
    1439 000000c7 5201          CMPB      AL,#1                 ; [CPU_ALU] |284| 
    1440 000000c8 600E          B         ||$C$L1||,NEQ         ; [CPU_ALU] |284| 
    1441                      ; branchcc occurs ; [] |284| 
    1442 000000c9 761F!         MOVW      DP,#||A_Task_Ptr||    ; [CPU_ARAU] 
         000000ca 0000 
    1443                      .dwpsn  file "C:/ti/c2000/C2000Ware_DigitalPower_SDK_5_03_00_00/c2000ware/driverlib/f2837xd/driverlib
    1444 000000cb F5A9          MOV       AL,*(0:0x0c04)        ; [CPU_ALU] |167| 
         000000cc 0C04 
    1445                      .dwpsn  file "../bts_main.c",line 291,column 9,is_stmt,isa 0
    1446 000000cd C500!         MOVL      XAR7,@||A_Task_Ptr||  ; [CPU_ALU] |291| 
    1447                      .dwpsn  file "C:/ti/c2000/C2000Ware_DigitalPower_SDK_5_03_00_00/c2000ware/driverlib/f2837xd/driverlib
    1448 000000ce 1AA9          OR        AL,#0x8000            ; [CPU_ALU] |167| 
         000000cf 8000 
    1449 000000d0 F4A9          MOV       *(0:0x0c04),AL        ; [CPU_ALU] |167| 
         000000d1 0C04 
    1450                      .dwpsn  file "../bts_main.c",line 291,column 9,is_stmt,isa 0
    1451              $C$DW$114       .dwtag  DW_TAG_TI_branch
    1452                      .dwattr $C$DW$114, DW_AT_low_pc(0x00)
    1453                      .dwattr $C$DW$114, DW_AT_TI_call
    1454                      .dwattr $C$DW$114, DW_AT_TI_indirect
    1455              
    1456 000000d2 3E67          LCR       *XAR7                 ; [CPU_ALU] |291| 
    1457                      ; call occurs [XAR7] ; [] |291| 
    1458 000000d3 761F!         MOVW      DP,#||vTimer0||       ; [CPU_ARAU] 
         000000d4 0000 
    1459                      .dwpsn  file "../bts_main.c",line 293,column 9,is_stmt,isa 0
    1460 000000d5 0A00!         INC       @||vTimer0||          ; [CPU_ALU] |293| 
    1461 000000d6       ||$C$L1||:    
    1462                      .dwpsn  file "../bts_main.c",line 295,column 5,is_stmt,isa 0
    1463 000000d6 8F00!         MOVL      XAR4,#||B0||          ; [CPU_ARAU] |295| 
         000000d7 0000 
    1464 000000d8 761F!         MOVW      DP,#||Alpha_State_Ptr|| ; [CPU_ARAU] 
         000000d9 0000 
    1465 000000da A800!         MOVL      @||Alpha_State_Ptr||,XAR4 ; [CPU_ALU] |295| 
    1466              $C$DW$115       .dwtag  DW_TAG_TI_branch
    1467                      .dwattr $C$DW$115, DW_AT_low_pc(0x00)
    1468                      .dwattr $C$DW$115, DW_AT_TI_return
    1469              
    1470 000000db 0006          LRETR     ; [CPU_ALU] 
    1471                      ; return occurs ; [] 
    1472                      .dwattr $C$DW$113, DW_AT_TI_end_file("../bts_main.c")
    1473                      .dwattr $C$DW$113, DW_AT_TI_end_line(0x128)
    1474                      .dwattr $C$DW$113, DW_AT_TI_end_column(0x01)
    1475                      .dwendentry
    1476                      .dwendtag $C$DW$113
    1477              
    1478 000000dc               .sect   ".text"
TMS320C2000 Assembler PC v22.6.1 Tue Aug 13 19:46:08 2024

Copyright (c) 1996-2018 Texas Instruments Incorporated
bts_main.asm                                                         PAGE   29

    1479                      .clink
    1480                      .global ||B0||
    1481              
    1482              $C$DW$116       .dwtag  DW_TAG_subprogram
    1483                      .dwattr $C$DW$116, DW_AT_name("B0")
    1484                      .dwattr $C$DW$116, DW_AT_low_pc(||B0||)
    1485                      .dwattr $C$DW$116, DW_AT_high_pc(0x00)
    1486                      .dwattr $C$DW$116, DW_AT_linkage_name("B0")
    1487                      .dwattr $C$DW$116, DW_AT_external
    1488                      .dwattr $C$DW$116, DW_AT_decl_file("../bts_main.c")
    1489                      .dwattr $C$DW$116, DW_AT_decl_line(0x12a)
    1490                      .dwattr $C$DW$116, DW_AT_decl_column(0x06)
    1491                      .dwattr $C$DW$116, DW_AT_TI_max_frame_size(-2)
    1492                      .dwpsn  file "../bts_main.c",line 299,column 1,is_stmt,address ||B0||,isa 0
    1493              
    1494                      .dwfde $C$DW$CIE, ||B0||
    1495              
    1496              ;***************************************************************
    1497              ;* FNAME: B0                            FR SIZE:   0           *
    1498              ;*                                                             *
    1499              ;* FUNCTION ENVIRONMENT                                        *
    1500              ;*                                                             *
    1501              ;* FUNCTION PROPERTIES                                         *
    1502              ;*                            0 Parameter,  0 Auto,  0 SOE     *
    1503              ;***************************************************************
    1504              
    1505 000000dc       ||B0||:
    1506              ;* AL    assigned to $O$R1
    1507                      .dwcfi  cfa_offset, -2
    1508                      .dwcfi  save_reg_to_mem, 26, 0
    1509                      .dwpsn  file "C:/ti/c2000/C2000Ware_DigitalPower_SDK_5_03_00_00/c2000ware/driverlib/f2837xd/driverlib
    1510 000000dc F5A9          MOV       AL,*(0:0x0c0c)        ; [CPU_ALU] |399| 
         000000dd 0C0C 
    1511 000000de FFCE          LSR       AL,15                 ; [CPU_ALU] |399| 
    1512                      .dwpsn  file "../bts_main.c",line 303,column 5,is_stmt,isa 0
    1513 000000df 5201          CMPB      AL,#1                 ; [CPU_ALU] |303| 
    1514 000000e0 600E          B         ||$C$L2||,NEQ         ; [CPU_ALU] |303| 
    1515                      ; branchcc occurs ; [] |303| 
    1516 000000e1 761F!         MOVW      DP,#||B_Task_Ptr||    ; [CPU_ARAU] 
         000000e2 0000 
    1517                      .dwpsn  file "C:/ti/c2000/C2000Ware_DigitalPower_SDK_5_03_00_00/c2000ware/driverlib/f2837xd/driverlib
    1518 000000e3 F5A9          MOV       AL,*(0:0x0c0c)        ; [CPU_ALU] |167| 
         000000e4 0C0C 
    1519                      .dwpsn  file "../bts_main.c",line 310,column 9,is_stmt,isa 0
    1520 000000e5 C500!         MOVL      XAR7,@||B_Task_Ptr||  ; [CPU_ALU] |310| 
    1521                      .dwpsn  file "C:/ti/c2000/C2000Ware_DigitalPower_SDK_5_03_00_00/c2000ware/driverlib/f2837xd/driverlib
    1522 000000e6 1AA9          OR        AL,#0x8000            ; [CPU_ALU] |167| 
         000000e7 8000 
    1523 000000e8 F4A9          MOV       *(0:0x0c0c),AL        ; [CPU_ALU] |167| 
         000000e9 0C0C 
    1524                      .dwpsn  file "../bts_main.c",line 310,column 9,is_stmt,isa 0
    1525              $C$DW$117       .dwtag  DW_TAG_TI_branch
    1526                      .dwattr $C$DW$117, DW_AT_low_pc(0x00)
    1527                      .dwattr $C$DW$117, DW_AT_TI_call
    1528                      .dwattr $C$DW$117, DW_AT_TI_indirect
TMS320C2000 Assembler PC v22.6.1 Tue Aug 13 19:46:08 2024

Copyright (c) 1996-2018 Texas Instruments Incorporated
bts_main.asm                                                         PAGE   30

    1529              
    1530 000000ea 3E67          LCR       *XAR7                 ; [CPU_ALU] |310| 
    1531                      ; call occurs [XAR7] ; [] |310| 
    1532 000000eb 761F!         MOVW      DP,#||vTimer1||       ; [CPU_ARAU] 
         000000ec 0000 
    1533                      .dwpsn  file "../bts_main.c",line 312,column 9,is_stmt,isa 0
    1534 000000ed 0A00!         INC       @||vTimer1||          ; [CPU_ALU] |312| 
    1535 000000ee       ||$C$L2||:    
    1536                      .dwpsn  file "../bts_main.c",line 315,column 5,is_stmt,isa 0
    1537 000000ee 8F00!         MOVL      XAR4,#||C0||          ; [CPU_ARAU] |315| 
         000000ef 0000 
    1538 000000f0 761F!         MOVW      DP,#||Alpha_State_Ptr|| ; [CPU_ARAU] 
         000000f1 0000 
    1539 000000f2 A800!         MOVL      @||Alpha_State_Ptr||,XAR4 ; [CPU_ALU] |315| 
    1540              $C$DW$118       .dwtag  DW_TAG_TI_branch
    1541                      .dwattr $C$DW$118, DW_AT_low_pc(0x00)
    1542                      .dwattr $C$DW$118, DW_AT_TI_return
    1543              
    1544 000000f3 0006          LRETR     ; [CPU_ALU] 
    1545                      ; return occurs ; [] 
    1546                      .dwattr $C$DW$116, DW_AT_TI_end_file("../bts_main.c")
    1547                      .dwattr $C$DW$116, DW_AT_TI_end_line(0x13c)
    1548                      .dwattr $C$DW$116, DW_AT_TI_end_column(0x01)
    1549                      .dwendentry
    1550                      .dwendtag $C$DW$116
    1551              
    1552 000000f4               .sect   ".text"
    1553                      .clink
    1554                      .global ||C0||
    1555              
    1556              $C$DW$119       .dwtag  DW_TAG_subprogram
    1557                      .dwattr $C$DW$119, DW_AT_name("C0")
    1558                      .dwattr $C$DW$119, DW_AT_low_pc(||C0||)
    1559                      .dwattr $C$DW$119, DW_AT_high_pc(0x00)
    1560                      .dwattr $C$DW$119, DW_AT_linkage_name("C0")
    1561                      .dwattr $C$DW$119, DW_AT_external
    1562                      .dwattr $C$DW$119, DW_AT_decl_file("../bts_main.c")
    1563                      .dwattr $C$DW$119, DW_AT_decl_line(0x13e)
    1564                      .dwattr $C$DW$119, DW_AT_decl_column(0x06)
    1565                      .dwattr $C$DW$119, DW_AT_TI_max_frame_size(-2)
    1566                      .dwpsn  file "../bts_main.c",line 319,column 1,is_stmt,address ||C0||,isa 0
    1567              
    1568                      .dwfde $C$DW$CIE, ||C0||
    1569              
    1570              ;***************************************************************
    1571              ;* FNAME: C0                            FR SIZE:   0           *
    1572              ;*                                                             *
    1573              ;* FUNCTION ENVIRONMENT                                        *
    1574              ;*                                                             *
    1575              ;* FUNCTION PROPERTIES                                         *
    1576              ;*                            0 Parameter,  0 Auto,  0 SOE     *
    1577              ;***************************************************************
    1578              
    1579 000000f4       ||C0||:
    1580              ;* AL    assigned to $O$R1
TMS320C2000 Assembler PC v22.6.1 Tue Aug 13 19:46:08 2024

Copyright (c) 1996-2018 Texas Instruments Incorporated
bts_main.asm                                                         PAGE   31

    1581                      .dwcfi  cfa_offset, -2
    1582                      .dwcfi  save_reg_to_mem, 26, 0
    1583                      .dwpsn  file "C:/ti/c2000/C2000Ware_DigitalPower_SDK_5_03_00_00/c2000ware/driverlib/f2837xd/driverlib
    1584 000000f4 F5A9          MOV       AL,*(0:0x0c14)        ; [CPU_ALU] |399| 
         000000f5 0C14 
    1585 000000f6 FFCE          LSR       AL,15                 ; [CPU_ALU] |399| 
    1586                      .dwpsn  file "../bts_main.c",line 323,column 5,is_stmt,isa 0
    1587 000000f7 5201          CMPB      AL,#1                 ; [CPU_ALU] |323| 
    1588 000000f8 600E          B         ||$C$L3||,NEQ         ; [CPU_ALU] |323| 
    1589                      ; branchcc occurs ; [] |323| 
    1590 000000f9 761F!         MOVW      DP,#||C_Task_Ptr||    ; [CPU_ARAU] 
         000000fa 0000 
    1591                      .dwpsn  file "C:/ti/c2000/C2000Ware_DigitalPower_SDK_5_03_00_00/c2000ware/driverlib/f2837xd/driverlib
    1592 000000fb F5A9          MOV       AL,*(0:0x0c14)        ; [CPU_ALU] |167| 
         000000fc 0C14 
    1593                      .dwpsn  file "../bts_main.c",line 330,column 9,is_stmt,isa 0
    1594 000000fd C500!         MOVL      XAR7,@||C_Task_Ptr||  ; [CPU_ALU] |330| 
    1595                      .dwpsn  file "C:/ti/c2000/C2000Ware_DigitalPower_SDK_5_03_00_00/c2000ware/driverlib/f2837xd/driverlib
    1596 000000fe 1AA9          OR        AL,#0x8000            ; [CPU_ALU] |167| 
         000000ff 8000 
    1597 00000100 F4A9          MOV       *(0:0x0c14),AL        ; [CPU_ALU] |167| 
         00000101 0C14 
    1598                      .dwpsn  file "../bts_main.c",line 330,column 9,is_stmt,isa 0
    1599              $C$DW$120       .dwtag  DW_TAG_TI_branch
    1600                      .dwattr $C$DW$120, DW_AT_low_pc(0x00)
    1601                      .dwattr $C$DW$120, DW_AT_TI_call
    1602                      .dwattr $C$DW$120, DW_AT_TI_indirect
    1603              
    1604 00000102 3E67          LCR       *XAR7                 ; [CPU_ALU] |330| 
    1605                      ; call occurs [XAR7] ; [] |330| 
    1606 00000103 761F!         MOVW      DP,#||vTimer2||       ; [CPU_ARAU] 
         00000104 0000 
    1607                      .dwpsn  file "../bts_main.c",line 332,column 9,is_stmt,isa 0
    1608 00000105 0A00!         INC       @||vTimer2||          ; [CPU_ALU] |332| 
    1609 00000106       ||$C$L3||:    
    1610                      .dwpsn  file "../bts_main.c",line 335,column 5,is_stmt,isa 0
    1611 00000106 8F00!         MOVL      XAR4,#||A0||          ; [CPU_ARAU] |335| 
         00000107 0000 
    1612 00000108 761F!         MOVW      DP,#||Alpha_State_Ptr|| ; [CPU_ARAU] 
         00000109 0000 
    1613 0000010a A800!         MOVL      @||Alpha_State_Ptr||,XAR4 ; [CPU_ALU] |335| 
    1614              $C$DW$121       .dwtag  DW_TAG_TI_branch
    1615                      .dwattr $C$DW$121, DW_AT_low_pc(0x00)
    1616                      .dwattr $C$DW$121, DW_AT_TI_return
    1617              
    1618 0000010b 0006          LRETR     ; [CPU_ALU] 
    1619                      ; return occurs ; [] 
    1620                      .dwattr $C$DW$119, DW_AT_TI_end_file("../bts_main.c")
    1621                      .dwattr $C$DW$119, DW_AT_TI_end_line(0x150)
    1622                      .dwattr $C$DW$119, DW_AT_TI_end_column(0x01)
    1623                      .dwendentry
    1624                      .dwendtag $C$DW$119
    1625              
    1626 0000010c               .sect   ".text"
    1627                      .clink
TMS320C2000 Assembler PC v22.6.1 Tue Aug 13 19:46:08 2024

Copyright (c) 1996-2018 Texas Instruments Incorporated
bts_main.asm                                                         PAGE   32

    1628                      .global ||main||
    1629              
    1630              $C$DW$122       .dwtag  DW_TAG_subprogram
    1631                      .dwattr $C$DW$122, DW_AT_name("main")
    1632                      .dwattr $C$DW$122, DW_AT_low_pc(||main||)
    1633                      .dwattr $C$DW$122, DW_AT_high_pc(0x00)
    1634                      .dwattr $C$DW$122, DW_AT_linkage_name("main")
    1635                      .dwattr $C$DW$122, DW_AT_external
    1636                      .dwattr $C$DW$122, DW_AT_decl_file("../bts_main.c")
    1637                      .dwattr $C$DW$122, DW_AT_decl_line(0x4b)
    1638                      .dwattr $C$DW$122, DW_AT_decl_column(0x06)
    1639                      .dwattr $C$DW$122, DW_AT_TI_max_frame_size(-2)
    1640                      .dwpsn  file "../bts_main.c",line 76,column 1,is_stmt,address ||main||,isa 0
    1641              
    1642                      .dwfde $C$DW$CIE, ||main||
    1643              
    1644              ;***************************************************************
    1645              ;* FNAME: main                          FR SIZE:   0           *
    1646              ;*                                                             *
    1647              ;* FUNCTION ENVIRONMENT                                        *
    1648              ;*                                                             *
    1649              ;* FUNCTION PROPERTIES                                         *
    1650              ;*                            0 Parameter,  0 Auto,  0 SOE     *
    1651              ;***************************************************************
    1652              
    1653 0000010c       ||main||:
    1654                      .dwcfi  cfa_offset, -2
    1655                      .dwcfi  save_reg_to_mem, 26, 0
    1656                      .dwpsn  file "../bts_main.c",line 82,column 5,is_stmt,isa 0
    1657              $C$DW$123       .dwtag  DW_TAG_TI_branch
    1658                      .dwattr $C$DW$123, DW_AT_low_pc(0x00)
    1659                      .dwattr $C$DW$123, DW_AT_name("BTS_HAL_setupDevice")
    1660                      .dwattr $C$DW$123, DW_AT_TI_call
    1661              
    1662 0000010c 7640!         LCR       #||BTS_HAL_setupDevice|| ; [CPU_ALU] |82| 
         0000010d 0000 
    1663                      ; call occurs [#||BTS_HAL_setupDevice||] ; [] |82| 
    1664                      .dwpsn  file "../bts_main.c",line 90,column 5,is_stmt,isa 0
    1665              $C$DW$124       .dwtag  DW_TAG_TI_branch
    1666                      .dwattr $C$DW$124, DW_AT_low_pc(0x00)
    1667                      .dwattr $C$DW$124, DW_AT_name("BTS_HAL_setupSyncBuckPinsGpio")
    1668                      .dwattr $C$DW$124, DW_AT_TI_call
    1669              
    1670 0000010e 7640!         LCR       #||BTS_HAL_setupSyncBuckPinsGpio|| ; [CPU_ALU] |90| 
         0000010f 0000 
    1671                      ; call occurs [#||BTS_HAL_setupSyncBuckPinsGpio||] ; [] |90| 
    1672                      .dwpsn  file "../bts_main.c",line 92,column 5,is_stmt,isa 0
    1673              $C$DW$125       .dwtag  DW_TAG_TI_branch
    1674                      .dwattr $C$DW$125, DW_AT_low_pc(0x00)
    1675                      .dwattr $C$DW$125, DW_AT_name("BTS_HAL_SetupI2C_GPIO")
    1676                      .dwattr $C$DW$125, DW_AT_TI_call
    1677              
    1678 00000110 7640!         LCR       #||BTS_HAL_SetupI2C_GPIO|| ; [CPU_ALU] |92| 
         00000111 0000 
    1679                      ; call occurs [#||BTS_HAL_SetupI2C_GPIO||] ; [] |92| 
TMS320C2000 Assembler PC v22.6.1 Tue Aug 13 19:46:08 2024

Copyright (c) 1996-2018 Texas Instruments Incorporated
bts_main.asm                                                         PAGE   33

    1680                      .dwpsn  file "../bts_main.c",line 94,column 5,is_stmt,isa 0
    1681              $C$DW$126       .dwtag  DW_TAG_TI_branch
    1682                      .dwattr $C$DW$126, DW_AT_low_pc(0x00)
    1683                      .dwattr $C$DW$126, DW_AT_name("BTS_HAL_SetupI2C_Init")
    1684                      .dwattr $C$DW$126, DW_AT_TI_call
    1685              
    1686 00000112 7640!         LCR       #||BTS_HAL_SetupI2C_Init|| ; [CPU_ALU] |94| 
         00000113 0000 
    1687                      ; call occurs [#||BTS_HAL_SetupI2C_Init||] ; [] |94| 
    1688                      .dwpsn  file "../bts_main.c",line 96,column 5,is_stmt,isa 0
    1689              $C$DW$127       .dwtag  DW_TAG_TI_branch
    1690                      .dwattr $C$DW$127, DW_AT_low_pc(0x00)
    1691                      .dwattr $C$DW$127, DW_AT_name("BTS_HAL_setupCanBus")
    1692                      .dwattr $C$DW$127, DW_AT_TI_call
    1693              
    1694 00000114 7640!         LCR       #||BTS_HAL_setupCanBus|| ; [CPU_ALU] |96| 
         00000115 0000 
    1695                      ; call occurs [#||BTS_HAL_setupCanBus||] ; [] |96| 
    1696 00000116 761F!         MOVW      DP,#||Alpha_State_Ptr|| ; [CPU_ARAU] 
         00000117 0000 
    1697                      .dwpsn  file "../bts_main.c",line 101,column 5,is_stmt,isa 0
    1698 00000118 76C0!         MOVL      XAR7,#||A0||          ; [CPU_ARAU] |101| 
         00000119 0000 
    1699                      .dwpsn  file "../bts_main.c",line 102,column 5,is_stmt,isa 0
    1700 0000011a 7680!         MOVL      XAR6,#||A1||          ; [CPU_ARAU] |102| 
         0000011b 0000 
    1701                      .dwpsn  file "../bts_main.c",line 103,column 5,is_stmt,isa 0
    1702 0000011c 8F40!         MOVL      XAR5,#||B1||          ; [CPU_ARAU] |103| 
         0000011d 0000 
    1703                      .dwpsn  file "../bts_main.c",line 104,column 5,is_stmt,isa 0
    1704 0000011e 8F00!         MOVL      XAR4,#||C1||          ; [CPU_ARAU] |104| 
         0000011f 0000 
    1705                      .dwpsn  file "../bts_main.c",line 101,column 5,is_stmt,isa 0
    1706 00000120 C300!         MOVL      @||Alpha_State_Ptr||,XAR7 ; [CPU_ALU] |101| 
    1707                      .dwpsn  file "../bts_main.c",line 102,column 5,is_stmt,isa 0
    1708 00000121 C200!         MOVL      @||A_Task_Ptr||,XAR6  ; [CPU_ALU] |102| 
    1709                      .dwpsn  file "../bts_main.c",line 103,column 5,is_stmt,isa 0
    1710 00000122 A000!         MOVL      @||B_Task_Ptr||,XAR5  ; [CPU_ALU] |103| 
    1711                      .dwpsn  file "../bts_main.c",line 104,column 5,is_stmt,isa 0
    1712 00000123 A800!         MOVL      @||C_Task_Ptr||,XAR4  ; [CPU_ALU] |104| 
    1713                      .dwpsn  file "../bts_main.c",line 109,column 5,is_stmt,isa 0
    1714              $C$DW$128       .dwtag  DW_TAG_TI_branch
    1715                      .dwattr $C$DW$128, DW_AT_low_pc(0x00)
    1716                      .dwattr $C$DW$128, DW_AT_name("BTS_HAL_disableEpwmCounting")
    1717                      .dwattr $C$DW$128, DW_AT_TI_call
    1718              
    1719 00000124 7640!         LCR       #||BTS_HAL_disableEpwmCounting|| ; [CPU_ALU] |109| 
         00000125 0000 
    1720                      ; call occurs [#||BTS_HAL_disableEpwmCounting||] ; [] |109| 
    1721                      .dwpsn  file "../bts_main.c",line 116,column 5,is_stmt,isa 0
    1722 00000126 FF20          MOV       ACC,#16384            ; [CPU_ALU] |116| 
         00000127 4000 
    1723              $C$DW$129       .dwtag  DW_TAG_TI_branch
    1724                      .dwattr $C$DW$129, DW_AT_low_pc(0x00)
    1725                      .dwattr $C$DW$129, DW_AT_name("BTS_HAL_setupSyncBuckPwm")
TMS320C2000 Assembler PC v22.6.1 Tue Aug 13 19:46:08 2024

Copyright (c) 1996-2018 Texas Instruments Incorporated
bts_main.asm                                                         PAGE   34

    1726                      .dwattr $C$DW$129, DW_AT_TI_call
    1727              
    1728 00000128 7640!         LCR       #||BTS_HAL_setupSyncBuckPwm|| ; [CPU_ALU] |116| 
         00000129 0000 
    1729                      ; call occurs [#||BTS_HAL_setupSyncBuckPwm||] ; [] |116| 
    1730                      .dwpsn  file "../bts_main.c",line 117,column 5,is_stmt,isa 0
    1731 0000012a FF20          MOV       ACC,#16640            ; [CPU_ALU] |117| 
         0000012b 4100 
    1732              $C$DW$130       .dwtag  DW_TAG_TI_branch
    1733                      .dwattr $C$DW$130, DW_AT_low_pc(0x00)
    1734                      .dwattr $C$DW$130, DW_AT_name("BTS_HAL_setupSyncBuckPwm")
    1735                      .dwattr $C$DW$130, DW_AT_TI_call
    1736              
    1737 0000012c 7640!         LCR       #||BTS_HAL_setupSyncBuckPwm|| ; [CPU_ALU] |117| 
         0000012d 0000 
    1738                      ; call occurs [#||BTS_HAL_setupSyncBuckPwm||] ; [] |117| 
    1739                      .dwpsn  file "../bts_main.c",line 118,column 5,is_stmt,isa 0
    1740 0000012e FF20          MOV       ACC,#16896            ; [CPU_ALU] |118| 
         0000012f 4200 
    1741              $C$DW$131       .dwtag  DW_TAG_TI_branch
    1742                      .dwattr $C$DW$131, DW_AT_low_pc(0x00)
    1743                      .dwattr $C$DW$131, DW_AT_name("BTS_HAL_setupSyncBuckPwm")
    1744                      .dwattr $C$DW$131, DW_AT_TI_call
    1745              
    1746 00000130 7640!         LCR       #||BTS_HAL_setupSyncBuckPwm|| ; [CPU_ALU] |118| 
         00000131 0000 
    1747                      ; call occurs [#||BTS_HAL_setupSyncBuckPwm||] ; [] |118| 
    1748                      .dwpsn  file "../bts_main.c",line 119,column 5,is_stmt,isa 0
    1749 00000132 FF20          MOV       ACC,#17152            ; [CPU_ALU] |119| 
         00000133 4300 
    1750              $C$DW$132       .dwtag  DW_TAG_TI_branch
    1751                      .dwattr $C$DW$132, DW_AT_low_pc(0x00)
    1752                      .dwattr $C$DW$132, DW_AT_name("BTS_HAL_setupSyncBuckPwm")
    1753                      .dwattr $C$DW$132, DW_AT_TI_call
    1754              
    1755 00000134 7640!         LCR       #||BTS_HAL_setupSyncBuckPwm|| ; [CPU_ALU] |119| 
         00000135 0000 
    1756                      ; call occurs [#||BTS_HAL_setupSyncBuckPwm||] ; [] |119| 
    1757                      .dwpsn  file "../bts_main.c",line 120,column 5,is_stmt,isa 0
    1758 00000136 FF20          MOV       ACC,#17408            ; [CPU_ALU] |120| 
         00000137 4400 
    1759              $C$DW$133       .dwtag  DW_TAG_TI_branch
    1760                      .dwattr $C$DW$133, DW_AT_low_pc(0x00)
    1761                      .dwattr $C$DW$133, DW_AT_name("BTS_HAL_setupSyncBuckPwm")
    1762                      .dwattr $C$DW$133, DW_AT_TI_call
    1763              
    1764 00000138 7640!         LCR       #||BTS_HAL_setupSyncBuckPwm|| ; [CPU_ALU] |120| 
         00000139 0000 
    1765                      ; call occurs [#||BTS_HAL_setupSyncBuckPwm||] ; [] |120| 
    1766                      .dwpsn  file "../bts_main.c",line 121,column 5,is_stmt,isa 0
    1767 0000013a FF20          MOV       ACC,#17664            ; [CPU_ALU] |121| 
         0000013b 4500 
    1768              $C$DW$134       .dwtag  DW_TAG_TI_branch
    1769                      .dwattr $C$DW$134, DW_AT_low_pc(0x00)
    1770                      .dwattr $C$DW$134, DW_AT_name("BTS_HAL_setupSyncBuckPwm")
TMS320C2000 Assembler PC v22.6.1 Tue Aug 13 19:46:08 2024

Copyright (c) 1996-2018 Texas Instruments Incorporated
bts_main.asm                                                         PAGE   35

    1771                      .dwattr $C$DW$134, DW_AT_TI_call
    1772              
    1773 0000013c 7640!         LCR       #||BTS_HAL_setupSyncBuckPwm|| ; [CPU_ALU] |121| 
         0000013d 0000 
    1774                      ; call occurs [#||BTS_HAL_setupSyncBuckPwm||] ; [] |121| 
    1775                      .dwpsn  file "../bts_main.c",line 122,column 5,is_stmt,isa 0
    1776 0000013e FF20          MOV       ACC,#17920            ; [CPU_ALU] |122| 
         0000013f 4600 
    1777              $C$DW$135       .dwtag  DW_TAG_TI_branch
    1778                      .dwattr $C$DW$135, DW_AT_low_pc(0x00)
    1779                      .dwattr $C$DW$135, DW_AT_name("BTS_HAL_setupSyncBuckPwm")
    1780                      .dwattr $C$DW$135, DW_AT_TI_call
    1781              
    1782 00000140 7640!         LCR       #||BTS_HAL_setupSyncBuckPwm|| ; [CPU_ALU] |122| 
         00000141 0000 
    1783                      ; call occurs [#||BTS_HAL_setupSyncBuckPwm||] ; [] |122| 
    1784                      .dwpsn  file "../bts_main.c",line 123,column 5,is_stmt,isa 0
    1785 00000142 FF20          MOV       ACC,#18176            ; [CPU_ALU] |123| 
         00000143 4700 
    1786              $C$DW$136       .dwtag  DW_TAG_TI_branch
    1787                      .dwattr $C$DW$136, DW_AT_low_pc(0x00)
    1788                      .dwattr $C$DW$136, DW_AT_name("BTS_HAL_setupSyncBuckPwm")
    1789                      .dwattr $C$DW$136, DW_AT_TI_call
    1790              
    1791 00000144 7640!         LCR       #||BTS_HAL_setupSyncBuckPwm|| ; [CPU_ALU] |123| 
         00000145 0000 
    1792                      ; call occurs [#||BTS_HAL_setupSyncBuckPwm||] ; [] |123| 
    1793                      .dwpsn  file "../bts_main.c",line 125,column 5,is_stmt,isa 0
    1794 00000146 FF20          MOV       ACC,#18944            ; [CPU_ALU] |125| 
         00000147 4A00 
    1795              $C$DW$137       .dwtag  DW_TAG_TI_branch
    1796                      .dwattr $C$DW$137, DW_AT_low_pc(0x00)
    1797                      .dwattr $C$DW$137, DW_AT_name("BTS_HAL_setupAdcClock")
    1798                      .dwattr $C$DW$137, DW_AT_TI_call
    1799              
    1800 00000148 7640!         LCR       #||BTS_HAL_setupAdcClock|| ; [CPU_ALU] |125| 
         00000149 0000 
    1801                      ; call occurs [#||BTS_HAL_setupAdcClock||] ; [] |125| 
    1802                      .dwpsn  file "../bts_main.c",line 126,column 5,is_stmt,isa 0
    1803 0000014a FF20          MOV       ACC,#19200            ; [CPU_ALU] |126| 
         0000014b 4B00 
    1804              $C$DW$138       .dwtag  DW_TAG_TI_branch
    1805                      .dwattr $C$DW$138, DW_AT_low_pc(0x00)
    1806                      .dwattr $C$DW$138, DW_AT_name("BTS_HAL_setupAdcClock")
    1807                      .dwattr $C$DW$138, DW_AT_TI_call
    1808              
    1809 0000014c 7640!         LCR       #||BTS_HAL_setupAdcClock|| ; [CPU_ALU] |126| 
         0000014d 0000 
    1810                      ; call occurs [#||BTS_HAL_setupAdcClock||] ; [] |126| 
    1811                      .dwpsn  file "../bts_main.c",line 134,column 5,is_stmt,isa 0
    1812              $C$DW$139       .dwtag  DW_TAG_TI_branch
    1813                      .dwattr $C$DW$139, DW_AT_low_pc(0x00)
    1814                      .dwattr $C$DW$139, DW_AT_name("BTS_setupHrpwmMepScaleFactor")
    1815                      .dwattr $C$DW$139, DW_AT_TI_call
    1816              
TMS320C2000 Assembler PC v22.6.1 Tue Aug 13 19:46:08 2024

Copyright (c) 1996-2018 Texas Instruments Incorporated
bts_main.asm                                                         PAGE   36

    1817 0000014e 7640!         LCR       #||BTS_setupHrpwmMepScaleFactor|| ; [CPU_ALU] |134| 
         0000014f 0000 
    1818                      ; call occurs [#||BTS_setupHrpwmMepScaleFactor||] ; [] |134| 
    1819                      .dwpsn  file "../bts_main.c",line 139,column 5,is_stmt,isa 0
    1820              $C$DW$140       .dwtag  DW_TAG_TI_branch
    1821                      .dwattr $C$DW$140, DW_AT_low_pc(0x00)
    1822                      .dwattr $C$DW$140, DW_AT_name("BTS_HAL_enableEpwmCounting")
    1823                      .dwattr $C$DW$140, DW_AT_TI_call
    1824              
    1825 00000150 7640!         LCR       #||BTS_HAL_enableEpwmCounting|| ; [CPU_ALU] |139| 
         00000151 0000 
    1826                      ; call occurs [#||BTS_HAL_enableEpwmCounting||] ; [] |139| 
    1827                      .dwpsn  file "../bts_main.c",line 145,column 5,is_stmt,isa 0
    1828              $C$DW$141       .dwtag  DW_TAG_TI_branch
    1829                      .dwattr $C$DW$141, DW_AT_low_pc(0x00)
    1830                      .dwattr $C$DW$141, DW_AT_name("BTS_HAL_SetupSpiPinsGpio_Adc1")
    1831                      .dwattr $C$DW$141, DW_AT_TI_call
    1832              
    1833 00000152 7640!         LCR       #||BTS_HAL_SetupSpiPinsGpio_Adc1|| ; [CPU_ALU] |145| 
         00000153 0000 
    1834                      ; call occurs [#||BTS_HAL_SetupSpiPinsGpio_Adc1||] ; [] |145| 
    1835                      .dwpsn  file "../bts_main.c",line 146,column 5,is_stmt,isa 0
    1836 00000154 FF20          MOV       ACC,#24832            ; [CPU_ALU] |146| 
         00000155 6100 
    1837              $C$DW$142       .dwtag  DW_TAG_TI_branch
    1838                      .dwattr $C$DW$142, DW_AT_low_pc(0x00)
    1839                      .dwattr $C$DW$142, DW_AT_name("BTS_HAL_SetupSpi")
    1840                      .dwattr $C$DW$142, DW_AT_TI_call
    1841              
    1842 00000156 7640!         LCR       #||BTS_HAL_SetupSpi|| ; [CPU_ALU] |146| 
         00000157 0000 
    1843                      ; call occurs [#||BTS_HAL_SetupSpi||] ; [] |146| 
    1844                      .dwpsn  file "../bts_main.c",line 148,column 5,is_stmt,isa 0
    1845              $C$DW$143       .dwtag  DW_TAG_TI_branch
    1846                      .dwattr $C$DW$143, DW_AT_low_pc(0x00)
    1847                      .dwattr $C$DW$143, DW_AT_name("BTS_HAL_SetupSpiPinsGpio_Adc2")
    1848                      .dwattr $C$DW$143, DW_AT_TI_call
    1849              
    1850 00000158 7640!         LCR       #||BTS_HAL_SetupSpiPinsGpio_Adc2|| ; [CPU_ALU] |148| 
         00000159 0000 
    1851                      ; call occurs [#||BTS_HAL_SetupSpiPinsGpio_Adc2||] ; [] |148| 
    1852                      .dwpsn  file "../bts_main.c",line 149,column 5,is_stmt,isa 0
    1853 0000015a FF20          MOV       ACC,#24864            ; [CPU_ALU] |149| 
         0000015b 6120 
    1854              $C$DW$144       .dwtag  DW_TAG_TI_branch
    1855                      .dwattr $C$DW$144, DW_AT_low_pc(0x00)
    1856                      .dwattr $C$DW$144, DW_AT_name("BTS_HAL_SetupSpi")
    1857                      .dwattr $C$DW$144, DW_AT_TI_call
    1858              
    1859 0000015c 7640!         LCR       #||BTS_HAL_SetupSpi|| ; [CPU_ALU] |149| 
         0000015d 0000 
    1860                      ; call occurs [#||BTS_HAL_SetupSpi||] ; [] |149| 
    1861                      .dwpsn  file "../bts_main.c",line 151,column 5,is_stmt,isa 0
    1862              $C$DW$145       .dwtag  DW_TAG_TI_branch
    1863                      .dwattr $C$DW$145, DW_AT_low_pc(0x00)
TMS320C2000 Assembler PC v22.6.1 Tue Aug 13 19:46:08 2024

Copyright (c) 1996-2018 Texas Instruments Incorporated
bts_main.asm                                                         PAGE   37

    1864                      .dwattr $C$DW$145, DW_AT_name("BTS_HAL_setupExAdcGpio_Adc1")
    1865                      .dwattr $C$DW$145, DW_AT_TI_call
    1866              
    1867 0000015e 7640!         LCR       #||BTS_HAL_setupExAdcGpio_Adc1|| ; [CPU_ALU] |151| 
         0000015f 0000 
    1868                      ; call occurs [#||BTS_HAL_setupExAdcGpio_Adc1||] ; [] |151| 
    1869                      .dwpsn  file "../bts_main.c",line 152,column 5,is_stmt,isa 0
    1870              $C$DW$146       .dwtag  DW_TAG_TI_branch
    1871                      .dwattr $C$DW$146, DW_AT_low_pc(0x00)
    1872                      .dwattr $C$DW$146, DW_AT_name("BTS_HAL_setupExAdc_ch1_4")
    1873                      .dwattr $C$DW$146, DW_AT_TI_call
    1874              
    1875 00000160 7640!         LCR       #||BTS_HAL_setupExAdc_ch1_4|| ; [CPU_ALU] |152| 
         00000161 0000 
    1876                      ; call occurs [#||BTS_HAL_setupExAdc_ch1_4||] ; [] |152| 
    1877                      .dwpsn  file "../bts_main.c",line 154,column 5,is_stmt,isa 0
    1878              $C$DW$147       .dwtag  DW_TAG_TI_branch
    1879                      .dwattr $C$DW$147, DW_AT_low_pc(0x00)
    1880                      .dwattr $C$DW$147, DW_AT_name("BTS_HAL_setupExAdcGpio_Adc2")
    1881                      .dwattr $C$DW$147, DW_AT_TI_call
    1882              
    1883 00000162 7640!         LCR       #||BTS_HAL_setupExAdcGpio_Adc2|| ; [CPU_ALU] |154| 
         00000163 0000 
    1884                      ; call occurs [#||BTS_HAL_setupExAdcGpio_Adc2||] ; [] |154| 
    1885                      .dwpsn  file "../bts_main.c",line 155,column 5,is_stmt,isa 0
    1886              $C$DW$148       .dwtag  DW_TAG_TI_branch
    1887                      .dwattr $C$DW$148, DW_AT_low_pc(0x00)
    1888                      .dwattr $C$DW$148, DW_AT_name("BTS_HAL_setupExAdc_ch5_8")
    1889                      .dwattr $C$DW$148, DW_AT_TI_call
    1890              
    1891 00000164 7640!         LCR       #||BTS_HAL_setupExAdc_ch5_8|| ; [CPU_ALU] |155| 
         00000165 0000 
    1892                      ; call occurs [#||BTS_HAL_setupExAdc_ch5_8||] ; [] |155| 
    1893                      .dwpsn  file "../bts_main.c",line 160,column 5,is_stmt,isa 0
    1894              $C$DW$149       .dwtag  DW_TAG_TI_branch
    1895                      .dwattr $C$DW$149, DW_AT_low_pc(0x00)
    1896                      .dwattr $C$DW$149, DW_AT_name("BTS_initUserVariables")
    1897                      .dwattr $C$DW$149, DW_AT_TI_call
    1898              
    1899 00000166 7640!         LCR       #||BTS_initUserVariables|| ; [CPU_ALU] |160| 
         00000167 0000 
    1900                      ; call occurs [#||BTS_initUserVariables||] ; [] |160| 
    1901                      .dwpsn  file "../bts_main.c",line 161,column 5,is_stmt,isa 0
    1902              $C$DW$150       .dwtag  DW_TAG_TI_branch
    1903                      .dwattr $C$DW$150, DW_AT_low_pc(0x00)
    1904                      .dwattr $C$DW$150, DW_AT_name("BTS_initProgramVariables")
    1905                      .dwattr $C$DW$150, DW_AT_TI_call
    1906              
    1907 00000168 7640!         LCR       #||BTS_initProgramVariables|| ; [CPU_ALU] |161| 
         00000169 0000 
    1908                      ; call occurs [#||BTS_initProgramVariables||] ; [] |161| 
    1909                      .dwpsn  file "../bts_main.c",line 162,column 5,is_stmt,isa 0
    1910              $C$DW$151       .dwtag  DW_TAG_TI_branch
    1911                      .dwattr $C$DW$151, DW_AT_low_pc(0x00)
    1912                      .dwattr $C$DW$151, DW_AT_name("BTS_initController")
TMS320C2000 Assembler PC v22.6.1 Tue Aug 13 19:46:08 2024

Copyright (c) 1996-2018 Texas Instruments Incorporated
bts_main.asm                                                         PAGE   38

    1913                      .dwattr $C$DW$151, DW_AT_TI_call
    1914              
    1915 0000016a 7640!         LCR       #||BTS_initController|| ; [CPU_ALU] |162| 
         0000016b 0000 
    1916                      ; call occurs [#||BTS_initController||] ; [] |162| 
    1917                      .dwpsn  file "../bts_main.c",line 167,column 5,is_stmt,isa 0
    1918              $C$DW$152       .dwtag  DW_TAG_TI_branch
    1919                      .dwattr $C$DW$152, DW_AT_low_pc(0x00)
    1920                      .dwattr $C$DW$152, DW_AT_name("BTS_setupSfra")
    1921                      .dwattr $C$DW$152, DW_AT_TI_call
    1922              
    1923 0000016c 7640!         LCR       #||BTS_setupSfra||    ; [CPU_ALU] |167| 
         0000016d 0000 
    1924                      ; call occurs [#||BTS_setupSfra||] ; [] |167| 
    1925                      .dwpsn  file "../bts_main.c",line 168,column 5,is_stmt,isa 0
    1926              $C$DW$153       .dwtag  DW_TAG_TI_branch
    1927                      .dwattr $C$DW$153, DW_AT_low_pc(0x00)
    1928                      .dwattr $C$DW$153, DW_AT_name("BTS_setupSfraGui")
    1929                      .dwattr $C$DW$153, DW_AT_TI_call
    1930              
    1931 0000016e 7640!         LCR       #||BTS_setupSfraGui|| ; [CPU_ALU] |168| 
         0000016f 0000 
    1932                      ; call occurs [#||BTS_setupSfraGui||] ; [] |168| 
    1933                      .dwpsn  file "../bts_main.c",line 173,column 5,is_stmt,isa 0
    1934              $C$DW$154       .dwtag  DW_TAG_TI_branch
    1935                      .dwattr $C$DW$154, DW_AT_low_pc(0x00)
    1936                      .dwattr $C$DW$154, DW_AT_name("BTS_HAL_setupInterruptTrigger_Adc1")
    1937                      .dwattr $C$DW$154, DW_AT_TI_call
    1938              
    1939 00000170 7640!         LCR       #||BTS_HAL_setupInterruptTrigger_Adc1|| ; [CPU_ALU] |173| 
         00000171 0000 
    1940                      ; call occurs [#||BTS_HAL_setupInterruptTrigger_Adc1||] ; [] |173| 
    1941                      .dwpsn  file "../bts_main.c",line 174,column 5,is_stmt,isa 0
    1942              $C$DW$155       .dwtag  DW_TAG_TI_branch
    1943                      .dwattr $C$DW$155, DW_AT_low_pc(0x00)
    1944                      .dwattr $C$DW$155, DW_AT_name("BTS_HAL_setupInterruptTrigger_Adc2")
    1945                      .dwattr $C$DW$155, DW_AT_TI_call
    1946              
    1947 00000172 7640!         LCR       #||BTS_HAL_setupInterruptTrigger_Adc2|| ; [CPU_ALU] |174| 
         00000173 0000 
    1948                      ; call occurs [#||BTS_HAL_setupInterruptTrigger_Adc2||] ; [] |174| 
    1949                      .dwpsn  file "../bts_main.c",line 176,column 5,is_stmt,isa 0
    1950              $C$DW$156       .dwtag  DW_TAG_TI_branch
    1951                      .dwattr $C$DW$156, DW_AT_low_pc(0x00)
    1952                      .dwattr $C$DW$156, DW_AT_name("BTS_HAL_setupInterrupt_Adc1")
    1953                      .dwattr $C$DW$156, DW_AT_TI_call
    1954              
    1955 00000174 7640!         LCR       #||BTS_HAL_setupInterrupt_Adc1|| ; [CPU_ALU] |176| 
         00000175 0000 
    1956                      ; call occurs [#||BTS_HAL_setupInterrupt_Adc1||] ; [] |176| 
    1957                      .dwpsn  file "../bts_main.c",line 177,column 5,is_stmt,isa 0
    1958              $C$DW$157       .dwtag  DW_TAG_TI_branch
    1959                      .dwattr $C$DW$157, DW_AT_low_pc(0x00)
    1960                      .dwattr $C$DW$157, DW_AT_name("BTS_HAL_setupInterrupt_Adc2")
    1961                      .dwattr $C$DW$157, DW_AT_TI_call
TMS320C2000 Assembler PC v22.6.1 Tue Aug 13 19:46:08 2024

Copyright (c) 1996-2018 Texas Instruments Incorporated
bts_main.asm                                                         PAGE   39

    1962              
    1963 00000176 7640!         LCR       #||BTS_HAL_setupInterrupt_Adc2|| ; [CPU_ALU] |177| 
         00000177 0000 
    1964                      ; call occurs [#||BTS_HAL_setupInterrupt_Adc2||] ; [] |177| 
    1965                      .dwpsn  file "../bts_main.c",line 179,column 5,is_stmt,isa 0
    1966              $C$DW$158       .dwtag  DW_TAG_TI_branch
    1967                      .dwattr $C$DW$158, DW_AT_low_pc(0x00)
    1968                      .dwattr $C$DW$158, DW_AT_name("BTS_HAL_setupInterrupt_I2c")
    1969                      .dwattr $C$DW$158, DW_AT_TI_call
    1970              
    1971 00000178 7640!         LCR       #||BTS_HAL_setupInterrupt_I2c|| ; [CPU_ALU] |179| 
         00000179 0000 
    1972                      ; call occurs [#||BTS_HAL_setupInterrupt_I2c||] ; [] |179| 
    1973                      .dwpsn  file "../bts_main.c",line 181,column 5,is_stmt,isa 0
    1974              $C$DW$159       .dwtag  DW_TAG_TI_branch
    1975                      .dwattr $C$DW$159, DW_AT_low_pc(0x00)
    1976                      .dwattr $C$DW$159, DW_AT_name("BTS_HAL_setupInterrupt")
    1977                      .dwattr $C$DW$159, DW_AT_TI_call
    1978              
    1979 0000017a 7640!         LCR       #||BTS_HAL_setupInterrupt|| ; [CPU_ALU] |181| 
         0000017b 0000 
    1980                      ; call occurs [#||BTS_HAL_setupInterrupt||] ; [] |181| 
    1981                      .dwpsn  file "../bts_main.c",line 185,column 5,is_stmt,isa 0
    1982              $C$DW$160       .dwtag  DW_TAG_TI_branch
    1983                      .dwattr $C$DW$160, DW_AT_low_pc(0x00)
    1984                      .dwattr $C$DW$160, DW_AT_name("BTS_readCalibration")
    1985                      .dwattr $C$DW$160, DW_AT_TI_call
    1986              
    1987 0000017c 7640!         LCR       #||BTS_readCalibration|| ; [CPU_ALU] |185| 
         0000017d 0000 
    1988                      ; call occurs [#||BTS_readCalibration||] ; [] |185| 
    1989                      .dwpsn  file "../bts_main.c",line 192,column 5,is_stmt,isa 0
    1990              $C$DW$161       .dwtag  DW_TAG_TI_branch
    1991                      .dwattr $C$DW$161, DW_AT_low_pc(0x00)
    1992                      .dwattr $C$DW$161, DW_AT_name("BTS_HAL_setupSyncBuckPinsEpwm")
    1993                      .dwattr $C$DW$161, DW_AT_TI_call
    1994              
    1995 0000017e 7640!         LCR       #||BTS_HAL_setupSyncBuckPinsEpwm|| ; [CPU_ALU] |192| 
         0000017f 0000 
    1996                      ; call occurs [#||BTS_HAL_setupSyncBuckPinsEpwm||] ; [] |192| 
    1997                      .dwpsn  file "C:\sandbox\github\Lion-IRVT\Hardware\source\tida-010086\bts_F2837xD_8ch\bts_hal.h",line
    1998 00000180 9B00          MOVB      AH,#0                 ; [CPU_ALU] |139| 
    1999                      .dwpsn  file "C:\sandbox\github\Lion-IRVT\Hardware\source\tida-010086\bts_F2837xD_8ch\bts_hal.h",line
    2000 00000181 BE00          MOVB      XAR6,#0               ; [CPU_ALU] |142| 
    2001                      .dwpsn  file "C:\sandbox\github\Lion-IRVT\Hardware\source\tida-010086\bts_F2837xD_8ch\bts_hal.h",line
    2002 00000182 9A00          MOVB      AL,#0                 ; [CPU_ALU] |146| 
    2003                      .dwpsn  file "C:\sandbox\github\Lion-IRVT\Hardware\source\tida-010086\bts_F2837xD_8ch\bts_hal.h",line
    2004 00000183 F4A8          MOV       *(0:0x6108),AH        ; [CPU_ALU] |139| 
         00000184 6108 
    2005                      .dwpsn  file "C:\sandbox\github\Lion-IRVT\Hardware\source\tida-010086\bts_F2837xD_8ch\bts_hal.h",line
    2006 00000185 F4A6          MOV       *(0:0x6108),AR6       ; [CPU_ALU] |142| 
         00000186 6108 
    2007                      .dwpsn  file "C:\sandbox\github\Lion-IRVT\Hardware\source\tida-010086\bts_F2837xD_8ch\bts_hal.h",line
    2008 00000187 B600          MOVB      XAR7,#0               ; [CPU_ALU] |146| 
    2009 00000188 F4A9          MOV       *(0:0x6108),AL        ; [CPU_ALU] |146| 
TMS320C2000 Assembler PC v22.6.1 Tue Aug 13 19:46:08 2024

Copyright (c) 1996-2018 Texas Instruments Incorporated
bts_main.asm                                                         PAGE   40

         00000189 6108 
    2010 0000018a F4A8          MOV       *(0:0x6108),AH        ; [CPU_ALU] |146| 
         0000018b 6108 
    2011 0000018c F4A9          MOV       *(0:0x6108),AL        ; [CPU_ALU] |146| 
         0000018d 6108 
    2012 0000018e F4A6          MOV       *(0:0x6108),AR6       ; [CPU_ALU] |146| 
         0000018f 6108 
    2013 00000190 F4A8          MOV       *(0:0x6108),AH        ; [CPU_ALU] |146| 
         00000191 6108 
    2014 00000192 F4A9          MOV       *(0:0x6108),AL        ; [CPU_ALU] |146| 
         00000193 6108 
    2015 00000194 F4A8          MOV       *(0:0x6108),AH        ; [CPU_ALU] |146| 
         00000195 6108 
    2016 00000196 F4A6          MOV       *(0:0x6108),AR6       ; [CPU_ALU] |146| 
         00000197 6108 
    2017                      .dwpsn  file "C:\sandbox\github\Lion-IRVT\Hardware\source\tida-010086\bts_F2837xD_8ch\bts_hal.h",line
    2018 00000198 F4A9          MOV       *(0:0x6128),AL        ; [CPU_ALU] |139| 
         00000199 6128 
    2019                      .dwpsn  file "C:\sandbox\github\Lion-IRVT\Hardware\source\tida-010086\bts_F2837xD_8ch\bts_hal.h",line
    2020 0000019a F4A8          MOV       *(0:0x6128),AH        ; [CPU_ALU] |142| 
         0000019b 6128 
    2021                      .dwpsn  file "C:\sandbox\github\Lion-IRVT\Hardware\source\tida-010086\bts_F2837xD_8ch\bts_hal.h",line
    2022 0000019c F4A9          MOV       *(0:0x6128),AL        ; [CPU_ALU] |146| 
         0000019d 6128 
    2023 0000019e F4A6          MOV       *(0:0x6128),AR6       ; [CPU_ALU] |146| 
         0000019f 6128 
    2024 000001a0 F4A8          MOV       *(0:0x6128),AH        ; [CPU_ALU] |146| 
         000001a1 6128 
    2025 000001a2 F4A9          MOV       *(0:0x6128),AL        ; [CPU_ALU] |146| 
         000001a3 6128 
    2026 000001a4 F4A7          MOV       *(0:0x6128),AR7       ; [CPU_ALU] |146| 
         000001a5 6128 
    2027 000001a6 F4A6          MOV       *(0:0x6128),AR6       ; [CPU_ALU] |146| 
         000001a7 6128 
    2028 000001a8 F4A8          MOV       *(0:0x6128),AH        ; [CPU_ALU] |146| 
         000001a9 6128 
    2029 000001aa F4A9          MOV       *(0:0x6128),AL        ; [CPU_ALU] |146| 
         000001ab 6128 
    2030 000001ac       ||$C$L4||:    
    2031 000001ac 761F!         MOVW      DP,#||Alpha_State_Ptr|| ; [CPU_ARAU] 
         000001ad 0000 
    2032                      .dwpsn  file "../bts_main.c",line 207,column 9,is_stmt,isa 0
    2033 000001ae C500!         MOVL      XAR7,@||Alpha_State_Ptr|| ; [CPU_ALU] |207| 
    2034              $C$DW$162       .dwtag  DW_TAG_TI_branch
    2035                      .dwattr $C$DW$162, DW_AT_low_pc(0x00)
    2036                      .dwattr $C$DW$162, DW_AT_TI_call
    2037                      .dwattr $C$DW$162, DW_AT_TI_indirect
    2038              
    2039 000001af 3E67          LCR       *XAR7                 ; [CPU_ALU] |207| 
    2040                      ; call occurs [XAR7] ; [] |207| 
    2041                      .dwpsn  file "../bts_main.c",line 208,column 5,is_stmt,isa 0
    2042 000001b0 6FFC          B         ||$C$L4||,UNC         ; [CPU_ALU] |208| 
    2043                      ; branch occurs ; [] |208| 
    2044                      .dwattr $C$DW$122, DW_AT_TI_end_file("../bts_main.c")
    2045                      .dwattr $C$DW$122, DW_AT_TI_end_line(0xd1)
TMS320C2000 Assembler PC v22.6.1 Tue Aug 13 19:46:08 2024

Copyright (c) 1996-2018 Texas Instruments Incorporated
bts_main.asm                                                         PAGE   41

    2046                      .dwattr $C$DW$122, DW_AT_TI_end_column(0x01)
    2047                      .dwendentry
    2048                      .dwendtag $C$DW$122
    2049              
    2050 00000000               .sect   ".text:__signbitl"
    2051                      .clink
    2052                      .global ||__signbitl||
    2053              
    2054              $C$DW$163       .dwtag  DW_TAG_subprogram
    2055                      .dwattr $C$DW$163, DW_AT_name("__signbitl")
    2056                      .dwattr $C$DW$163, DW_AT_low_pc(||__signbitl||)
    2057                      .dwattr $C$DW$163, DW_AT_high_pc(0x00)
    2058                      .dwattr $C$DW$163, DW_AT_linkage_name("__signbitl")
    2059                      .dwattr $C$DW$163, DW_AT_external
    2060                      .dwattr $C$DW$163, DW_AT_type(*$C$DW$T$10)
    2061                      .dwattr $C$DW$163, DW_AT_decl_file("C:/ti/ccs1271/ccs/tools/compiler/ti-cgt-c2000_22.6.1.LTS/include/
    2062                      .dwattr $C$DW$163, DW_AT_decl_line(0x16f)
    2063                      .dwattr $C$DW$163, DW_AT_decl_column(0x18)
    2064                      .dwattr $C$DW$163, DW_AT_TI_max_frame_size(-6)
    2065                      .dwpsn  file "C:/ti/ccs1271/ccs/tools/compiler/ti-cgt-c2000_22.6.1.LTS/include/_defs.h",line 368,colu
    2066              
    2067                      .dwfde $C$DW$CIE, ||__signbitl||
    2068              $C$DW$164       .dwtag  DW_TAG_formal_parameter
    2069                      .dwattr $C$DW$164, DW_AT_name("e")
    2070                      .dwattr $C$DW$164, DW_AT_type(*$C$DW$T$152)
    2071                      .dwattr $C$DW$164, DW_AT_location[DW_OP_reg12]
    2072              
    2073              
    2074              ;***************************************************************
    2075              ;* FNAME: __signbitl                    FR SIZE:   4           *
    2076              ;*                                                             *
    2077              ;* FUNCTION ENVIRONMENT                                        *
    2078              ;*                                                             *
    2079              ;* FUNCTION PROPERTIES                                         *
    2080              ;*                            4 Parameter,  0 Auto,  0 SOE     *
    2081              ;***************************************************************
    2082              
    2083              ||__signbitl||:
    2084              ;* AR4   assigned to e
    2085              $C$DW$165       .dwtag  DW_TAG_variable
    2086                      .dwattr $C$DW$165, DW_AT_name("e")
    2087                      .dwattr $C$DW$165, DW_AT_type(*$C$DW$T$153)
    2088                      .dwattr $C$DW$165, DW_AT_location[DW_OP_reg12]
    2089              
    2090                      .dwcfi  cfa_offset, -2
    2091                      .dwcfi  save_reg_to_mem, 26, 0
    2092 00000000 FE04          ADDB      SP,#4                 ; [CPU_ARAU] 
    2093                      .dwcfi  cfa_offset, -6
    2094                      .dwpsn  file "C:/ti/ccs1271/ccs/tools/compiler/ti-cgt-c2000_22.6.1.LTS/include/_defs.h",line 368,colu
    2095 00000001 0200          MOVB      ACC,#0                ; [CPU_ALU] |368| 
    2096 00000002 1E44          MOVL      *-SP[4],ACC           ; [CPU_ALU] |368| 
    2097 00000003 2B42          MOV       *-SP[2],#0            ; [CPU_ALU] |368| 
    2098 00000004 2B41          MOV       *-SP[1],#0            ; [CPU_ALU] |368| 
    2099 00000005 A3C4          MOVL      P,*+XAR4[0]           ; [CPU_ALU] |368| 
    2100 00000006 06D4          MOVL      ACC,*+XAR4[2]         ; [CPU_ALU] |368| 
TMS320C2000 Assembler PC v22.6.1 Tue Aug 13 19:46:08 2024

Copyright (c) 1996-2018 Texas Instruments Incorporated
bts_main.asm                                                         PAGE   42

    2101 00000007 18AB          AND       PL,#0                 ; [CPU_ALU] |368| 
         00000008 0000 
    2102 00000009 18AA          AND       PH,#0                 ; [CPU_ALU] |368| 
         0000000a 0000 
    2103 0000000b 9000          ANDB      AL,#0                 ; [CPU_ALU] |368| 
    2104 0000000c 18A8          AND       AH,#32768             ; [CPU_ALU] |368| 
         0000000d 8000 
    2105              $C$DW$166       .dwtag  DW_TAG_TI_branch
    2106                      .dwattr $C$DW$166, DW_AT_low_pc(0x00)
    2107                      .dwattr $C$DW$166, DW_AT_name("__c28xabi_cmpull")
    2108                      .dwattr $C$DW$166, DW_AT_TI_call
    2109              
    2110 0000000e 7640!         LCR       #||__c28xabi_cmpull|| ; [CPU_ALU] |368| 
         0000000f 0000 
    2111                      ; call occurs [#||__c28xabi_cmpull||] ; [] |368| 
    2112 00000010 9B00          MOVB      AH,#0                 ; [CPU_ALU] |368| 
    2113 00000011 5200          CMPB      AL,#0                 ; [CPU_ALU] |368| 
    2114 00000012 56B0          MOVB      AH,#1,NEQ             ; [CPU_ALU] |368| 
         00000013 01A8 
    2115 00000014 92A8          MOV       AL,AH                 ; [CPU_ALU] |368| 
    2116 00000015 FE84          SUBB      SP,#4                 ; [CPU_ARAU] 
    2117                      .dwcfi  cfa_offset, -2
    2118              $C$DW$167       .dwtag  DW_TAG_TI_branch
    2119                      .dwattr $C$DW$167, DW_AT_low_pc(0x00)
    2120                      .dwattr $C$DW$167, DW_AT_TI_return
    2121              
    2122 00000016 0006          LRETR     ; [CPU_ALU] 
    2123                      ; return occurs ; [] 
    2124                      .dwattr $C$DW$163, DW_AT_TI_end_file("C:/ti/ccs1271/ccs/tools/compiler/ti-cgt-c2000_22.6.1.LTS/includ
    2125                      .dwattr $C$DW$163, DW_AT_TI_end_line(0x170)
    2126                      .dwattr $C$DW$163, DW_AT_TI_end_column(0x2b)
    2127                      .dwendentry
    2128                      .dwendtag $C$DW$163
    2129              
    2130 00000000               .sect   ".text:__signbitf"
    2131                      .clink
    2132                      .global ||__signbitf||
    2133              
    2134              $C$DW$168       .dwtag  DW_TAG_subprogram
    2135                      .dwattr $C$DW$168, DW_AT_name("__signbitf")
    2136                      .dwattr $C$DW$168, DW_AT_low_pc(||__signbitf||)
    2137                      .dwattr $C$DW$168, DW_AT_high_pc(0x00)
    2138                      .dwattr $C$DW$168, DW_AT_linkage_name("__signbitf")
    2139                      .dwattr $C$DW$168, DW_AT_external
    2140                      .dwattr $C$DW$168, DW_AT_type(*$C$DW$T$10)
    2141                      .dwattr $C$DW$168, DW_AT_decl_file("C:/ti/ccs1271/ccs/tools/compiler/ti-cgt-c2000_22.6.1.LTS/include/
    2142                      .dwattr $C$DW$168, DW_AT_decl_line(0x16d)
    2143                      .dwattr $C$DW$168, DW_AT_decl_column(0x18)
    2144                      .dwattr $C$DW$168, DW_AT_TI_max_frame_size(-2)
    2145                      .dwpsn  file "C:/ti/ccs1271/ccs/tools/compiler/ti-cgt-c2000_22.6.1.LTS/include/_defs.h",line 366,colu
    2146              
    2147                      .dwfde $C$DW$CIE, ||__signbitf||
    2148              $C$DW$169       .dwtag  DW_TAG_formal_parameter
    2149                      .dwattr $C$DW$169, DW_AT_name("f")
    2150                      .dwattr $C$DW$169, DW_AT_type(*$C$DW$T$16)
TMS320C2000 Assembler PC v22.6.1 Tue Aug 13 19:46:08 2024

Copyright (c) 1996-2018 Texas Instruments Incorporated
bts_main.asm                                                         PAGE   43

    2151                      .dwattr $C$DW$169, DW_AT_location[DW_OP_regx 0x2b]
    2152              
    2153              
    2154              ;***************************************************************
    2155              ;* FNAME: __signbitf                    FR SIZE:   0           *
    2156              ;*                                                             *
    2157              ;* FUNCTION ENVIRONMENT                                        *
    2158              ;*                                                             *
    2159              ;* FUNCTION PROPERTIES                                         *
    2160              ;*                            0 Parameter,  0 Auto,  0 SOE     *
    2161              ;***************************************************************
    2162              
    2163              ||__signbitf||:
    2164              ;* R0    assigned to f
    2165              $C$DW$170       .dwtag  DW_TAG_variable
    2166                      .dwattr $C$DW$170, DW_AT_name("f")
    2167                      .dwattr $C$DW$170, DW_AT_type(*$C$DW$T$146)
    2168                      .dwattr $C$DW$170, DW_AT_location[DW_OP_regx 0x2b]
    2169              
    2170                      .dwcfi  cfa_offset, -2
    2171                      .dwcfi  save_reg_to_mem, 26, 0
    2172                      .dwpsn  file "C:/ti/ccs1271/ccs/tools/compiler/ti-cgt-c2000_22.6.1.LTS/include/_defs.h",line 366,colu
    2173 00000000 BFA9          MOV32     ACC,R0H               ; [CPU_FPU] |366| 
         00000001 0F12 
    2174 00000002 BE00          MOVB      XAR6,#0               ; [CPU_ALU] |366| 
    2175 00000003 9000          ANDB      AL,#0                 ; [CPU_ALU] |366| 
    2176 00000004 18A8          AND       AH,#32768             ; [CPU_ALU] |366| 
         00000005 8000 
    2177 00000006 FF58          TEST      ACC                   ; [CPU_ALU] |366| 
    2178 00000007 56B0          MOVB      XAR6,#1,NEQ           ; [CPU_ALU] |366| 
         00000008 01A6 
    2179 00000009 92A6          MOV       AL,AR6                ; [CPU_ALU] |366| 
    2180              $C$DW$171       .dwtag  DW_TAG_TI_branch
    2181                      .dwattr $C$DW$171, DW_AT_low_pc(0x00)
    2182                      .dwattr $C$DW$171, DW_AT_TI_return
    2183              
    2184 0000000a 0006          LRETR     ; [CPU_ALU] 
    2185                      ; return occurs ; [] 
    2186                      .dwattr $C$DW$168, DW_AT_TI_end_file("C:/ti/ccs1271/ccs/tools/compiler/ti-cgt-c2000_22.6.1.LTS/includ
    2187                      .dwattr $C$DW$168, DW_AT_TI_end_line(0x16e)
    2188                      .dwattr $C$DW$168, DW_AT_TI_end_column(0x29)
    2189                      .dwendentry
    2190                      .dwendtag $C$DW$168
    2191              
    2192 00000000               .sect   ".text:__signbit"
    2193                      .clink
    2194                      .global ||__signbit||
    2195              
    2196              $C$DW$172       .dwtag  DW_TAG_subprogram
    2197                      .dwattr $C$DW$172, DW_AT_name("__signbit")
    2198                      .dwattr $C$DW$172, DW_AT_low_pc(||__signbit||)
    2199                      .dwattr $C$DW$172, DW_AT_high_pc(0x00)
    2200                      .dwattr $C$DW$172, DW_AT_linkage_name("__signbit")
    2201                      .dwattr $C$DW$172, DW_AT_external
    2202                      .dwattr $C$DW$172, DW_AT_type(*$C$DW$T$10)
TMS320C2000 Assembler PC v22.6.1 Tue Aug 13 19:46:08 2024

Copyright (c) 1996-2018 Texas Instruments Incorporated
bts_main.asm                                                         PAGE   44

    2203                      .dwattr $C$DW$172, DW_AT_decl_file("C:/ti/ccs1271/ccs/tools/compiler/ti-cgt-c2000_22.6.1.LTS/include/
    2204                      .dwattr $C$DW$172, DW_AT_decl_line(0x16b)
    2205                      .dwattr $C$DW$172, DW_AT_decl_column(0x18)
    2206                      .dwattr $C$DW$172, DW_AT_TI_max_frame_size(-6)
    2207                      .dwpsn  file "C:/ti/ccs1271/ccs/tools/compiler/ti-cgt-c2000_22.6.1.LTS/include/_defs.h",line 364,colu
    2208              
    2209                      .dwfde $C$DW$CIE, ||__signbit||
    2210              $C$DW$173       .dwtag  DW_TAG_formal_parameter
    2211                      .dwattr $C$DW$173, DW_AT_name("d")
    2212                      .dwattr $C$DW$173, DW_AT_type(*$C$DW$T$149)
    2213                      .dwattr $C$DW$173, DW_AT_location[DW_OP_reg12]
    2214              
    2215              
    2216              ;***************************************************************
    2217              ;* FNAME: __signbit                     FR SIZE:   4           *
    2218              ;*                                                             *
    2219              ;* FUNCTION ENVIRONMENT                                        *
    2220              ;*                                                             *
    2221              ;* FUNCTION PROPERTIES                                         *
    2222              ;*                            4 Parameter,  0 Auto,  0 SOE     *
    2223              ;***************************************************************
    2224              
    2225              ||__signbit||:
    2226              ;* AR4   assigned to d
    2227              $C$DW$174       .dwtag  DW_TAG_variable
    2228                      .dwattr $C$DW$174, DW_AT_name("d")
    2229                      .dwattr $C$DW$174, DW_AT_type(*$C$DW$T$150)
    2230                      .dwattr $C$DW$174, DW_AT_location[DW_OP_reg12]
    2231              
    2232                      .dwcfi  cfa_offset, -2
    2233                      .dwcfi  save_reg_to_mem, 26, 0
    2234 00000000 FE04          ADDB      SP,#4                 ; [CPU_ARAU] 
    2235                      .dwcfi  cfa_offset, -6
    2236                      .dwpsn  file "C:/ti/ccs1271/ccs/tools/compiler/ti-cgt-c2000_22.6.1.LTS/include/_defs.h",line 364,colu
    2237 00000001 0200          MOVB      ACC,#0                ; [CPU_ALU] |364| 
    2238 00000002 1E44          MOVL      *-SP[4],ACC           ; [CPU_ALU] |364| 
    2239 00000003 2B42          MOV       *-SP[2],#0            ; [CPU_ALU] |364| 
    2240 00000004 2B41          MOV       *-SP[1],#0            ; [CPU_ALU] |364| 
    2241 00000005 A3C4          MOVL      P,*+XAR4[0]           ; [CPU_ALU] |364| 
    2242 00000006 06D4          MOVL      ACC,*+XAR4[2]         ; [CPU_ALU] |364| 
    2243 00000007 18AB          AND       PL,#0                 ; [CPU_ALU] |364| 
         00000008 0000 
    2244 00000009 18AA          AND       PH,#0                 ; [CPU_ALU] |364| 
         0000000a 0000 
    2245 0000000b 9000          ANDB      AL,#0                 ; [CPU_ALU] |364| 
    2246 0000000c 18A8          AND       AH,#32768             ; [CPU_ALU] |364| 
         0000000d 8000 
    2247              $C$DW$175       .dwtag  DW_TAG_TI_branch
    2248                      .dwattr $C$DW$175, DW_AT_low_pc(0x00)
    2249                      .dwattr $C$DW$175, DW_AT_name("__c28xabi_cmpull")
    2250                      .dwattr $C$DW$175, DW_AT_TI_call
    2251              
    2252 0000000e 7640!         LCR       #||__c28xabi_cmpull|| ; [CPU_ALU] |364| 
         0000000f 0000 
    2253                      ; call occurs [#||__c28xabi_cmpull||] ; [] |364| 
TMS320C2000 Assembler PC v22.6.1 Tue Aug 13 19:46:08 2024

Copyright (c) 1996-2018 Texas Instruments Incorporated
bts_main.asm                                                         PAGE   45

    2254 00000010 9B00          MOVB      AH,#0                 ; [CPU_ALU] |364| 
    2255 00000011 5200          CMPB      AL,#0                 ; [CPU_ALU] |364| 
    2256 00000012 56B0          MOVB      AH,#1,NEQ             ; [CPU_ALU] |364| 
         00000013 01A8 
    2257 00000014 92A8          MOV       AL,AH                 ; [CPU_ALU] |364| 
    2258 00000015 FE84          SUBB      SP,#4                 ; [CPU_ARAU] 
    2259                      .dwcfi  cfa_offset, -2
    2260              $C$DW$176       .dwtag  DW_TAG_TI_branch
    2261                      .dwattr $C$DW$176, DW_AT_low_pc(0x00)
    2262                      .dwattr $C$DW$176, DW_AT_TI_return
    2263              
    2264 00000016 0006          LRETR     ; [CPU_ALU] 
    2265                      ; return occurs ; [] 
    2266                      .dwattr $C$DW$172, DW_AT_TI_end_file("C:/ti/ccs1271/ccs/tools/compiler/ti-cgt-c2000_22.6.1.LTS/includ
    2267                      .dwattr $C$DW$172, DW_AT_TI_end_line(0x16c)
    2268                      .dwattr $C$DW$172, DW_AT_TI_end_column(0x2a)
    2269                      .dwendentry
    2270                      .dwendtag $C$DW$172
    2271              
    2272 00000000               .sect   ".text:__relaxed_sqrtf"
    2273                      .clink
    2274                      .global ||__relaxed_sqrtf||
    2275              
    2276              $C$DW$177       .dwtag  DW_TAG_subprogram
    2277                      .dwattr $C$DW$177, DW_AT_name("__relaxed_sqrtf")
    2278                      .dwattr $C$DW$177, DW_AT_low_pc(||__relaxed_sqrtf||)
    2279                      .dwattr $C$DW$177, DW_AT_high_pc(0x00)
    2280                      .dwattr $C$DW$177, DW_AT_linkage_name("__relaxed_sqrtf")
    2281                      .dwattr $C$DW$177, DW_AT_external
    2282                      .dwattr $C$DW$177, DW_AT_type(*$C$DW$T$16)
    2283                      .dwattr $C$DW$177, DW_AT_decl_file("C:/ti/ccs1271/ccs/tools/compiler/ti-cgt-c2000_22.6.1.LTS/include/
    2284                      .dwattr $C$DW$177, DW_AT_decl_line(0x103)
    2285                      .dwattr $C$DW$177, DW_AT_decl_column(0x10)
    2286                      .dwattr $C$DW$177, DW_AT_TI_max_frame_size(-2)
    2287                      .dwpsn  file "C:/ti/ccs1271/ccs/tools/compiler/ti-cgt-c2000_22.6.1.LTS/include/math.h",line 260,colum
    2288              
    2289                      .dwfde $C$DW$CIE, ||__relaxed_sqrtf||
    2290              $C$DW$178       .dwtag  DW_TAG_formal_parameter
    2291                      .dwattr $C$DW$178, DW_AT_name("x")
    2292                      .dwattr $C$DW$178, DW_AT_type(*$C$DW$T$16)
    2293                      .dwattr $C$DW$178, DW_AT_location[DW_OP_regx 0x2b]
    2294              
    2295              
    2296              ;***************************************************************
    2297              ;* FNAME: __relaxed_sqrtf               FR SIZE:   0           *
    2298              ;*                                                             *
    2299              ;* FUNCTION ENVIRONMENT                                        *
    2300              ;*                                                             *
    2301              ;* FUNCTION PROPERTIES                                         *
    2302              ;*                            0 Parameter,  0 Auto,  0 SOE     *
    2303              ;***************************************************************
    2304              
    2305              ||__relaxed_sqrtf||:
    2306              ;* R0    assigned to x
    2307              $C$DW$179       .dwtag  DW_TAG_variable
TMS320C2000 Assembler PC v22.6.1 Tue Aug 13 19:46:08 2024

Copyright (c) 1996-2018 Texas Instruments Incorporated
bts_main.asm                                                         PAGE   46

    2308                      .dwattr $C$DW$179, DW_AT_name("x")
    2309                      .dwattr $C$DW$179, DW_AT_type(*$C$DW$T$146)
    2310                      .dwattr $C$DW$179, DW_AT_location[DW_OP_regx 0x2b]
    2311              
    2312                      .dwcfi  cfa_offset, -2
    2313                      .dwcfi  save_reg_to_mem, 26, 0
    2314                      .dwpsn  file "C:/ti/ccs1271/ccs/tools/compiler/ti-cgt-c2000_22.6.1.LTS/include/math.h",line 261,colum
    2315 00000000 E277          SQRTF32   R0H,R0H               ; [CPU_FPU] |261| 
         00000001 0000 
    2316 00000002 7700          NOP       ; [CPU_ALU] 
    2317 00000003 7700          NOP       ; [CPU_ALU] 
    2318 00000004 7700          NOP       ; [CPU_ALU] 
    2319              $C$DW$180       .dwtag  DW_TAG_TI_branch
    2320                      .dwattr $C$DW$180, DW_AT_low_pc(0x00)
    2321                      .dwattr $C$DW$180, DW_AT_TI_return
    2322              
    2323 00000005 0006          LRETR     ; [CPU_ALU] 
    2324                      ; return occurs ; [] 
    2325                      .dwattr $C$DW$177, DW_AT_TI_end_file("C:/ti/ccs1271/ccs/tools/compiler/ti-cgt-c2000_22.6.1.LTS/includ
    2326                      .dwattr $C$DW$177, DW_AT_TI_end_line(0x106)
    2327                      .dwattr $C$DW$177, DW_AT_TI_end_column(0x01)
    2328                      .dwendentry
    2329                      .dwendtag $C$DW$177
    2330              
    2331 00000000               .sect   ".text:__relaxed_sinf"
    2332                      .clink
    2333                      .global ||__relaxed_sinf||
    2334              
    2335              $C$DW$181       .dwtag  DW_TAG_subprogram
    2336                      .dwattr $C$DW$181, DW_AT_name("__relaxed_sinf")
    2337                      .dwattr $C$DW$181, DW_AT_low_pc(||__relaxed_sinf||)
    2338                      .dwattr $C$DW$181, DW_AT_high_pc(0x00)
    2339                      .dwattr $C$DW$181, DW_AT_linkage_name("__relaxed_sinf")
    2340                      .dwattr $C$DW$181, DW_AT_external
    2341                      .dwattr $C$DW$181, DW_AT_type(*$C$DW$T$16)
    2342                      .dwattr $C$DW$181, DW_AT_decl_file("C:/ti/ccs1271/ccs/tools/compiler/ti-cgt-c2000_22.6.1.LTS/include/
    2343                      .dwattr $C$DW$181, DW_AT_decl_line(0x108)
    2344                      .dwattr $C$DW$181, DW_AT_decl_column(0x10)
    2345                      .dwattr $C$DW$181, DW_AT_TI_max_frame_size(-2)
    2346                      .dwpsn  file "C:/ti/ccs1271/ccs/tools/compiler/ti-cgt-c2000_22.6.1.LTS/include/math.h",line 265,colum
    2347              
    2348                      .dwfde $C$DW$CIE, ||__relaxed_sinf||
    2349              $C$DW$182       .dwtag  DW_TAG_formal_parameter
    2350                      .dwattr $C$DW$182, DW_AT_name("x")
    2351                      .dwattr $C$DW$182, DW_AT_type(*$C$DW$T$16)
    2352                      .dwattr $C$DW$182, DW_AT_location[DW_OP_regx 0x2b]
    2353              
    2354              
    2355              ;***************************************************************
    2356              ;* FNAME: __relaxed_sinf                FR SIZE:   0           *
    2357              ;*                                                             *
    2358              ;* FUNCTION ENVIRONMENT                                        *
    2359              ;*                                                             *
    2360              ;* FUNCTION PROPERTIES                                         *
    2361              ;*                            0 Parameter,  0 Auto,  0 SOE     *
TMS320C2000 Assembler PC v22.6.1 Tue Aug 13 19:46:08 2024

Copyright (c) 1996-2018 Texas Instruments Incorporated
bts_main.asm                                                         PAGE   47

    2362              ;***************************************************************
    2363              
    2364              ||__relaxed_sinf||:
    2365              ;* R0    assigned to x
    2366              $C$DW$183       .dwtag  DW_TAG_variable
    2367                      .dwattr $C$DW$183, DW_AT_name("x")
    2368                      .dwattr $C$DW$183, DW_AT_type(*$C$DW$T$146)
    2369                      .dwattr $C$DW$183, DW_AT_location[DW_OP_regx 0x2b]
    2370              
    2371                      .dwcfi  cfa_offset, -2
    2372                      .dwcfi  save_reg_to_mem, 26, 0
    2373                      .dwpsn  file "C:/ti/ccs1271/ccs/tools/compiler/ti-cgt-c2000_22.6.1.LTS/include/math.h",line 266,colum
    2374 00000000 E271          DIV2PIF32 R0H,R0H               ; [CPU_FPU] |266| 
         00000001 0000 
    2375 00000002 7700          NOP       ; [CPU_ALU] 
    2376 00000003 E278          SINPUF32  R0H,R0H               ; [CPU_FPU] |266| 
         00000004 0000 
    2377 00000005 7700          NOP       ; [CPU_ALU] 
    2378 00000006 7700          NOP       ; [CPU_ALU] 
    2379              $C$DW$184       .dwtag  DW_TAG_TI_branch
    2380                      .dwattr $C$DW$184, DW_AT_low_pc(0x00)
    2381                      .dwattr $C$DW$184, DW_AT_TI_return
    2382              
    2383 00000007 0006          LRETR     ; [CPU_ALU] 
    2384                      ; return occurs ; [] 
    2385                      .dwattr $C$DW$181, DW_AT_TI_end_file("C:/ti/ccs1271/ccs/tools/compiler/ti-cgt-c2000_22.6.1.LTS/includ
    2386                      .dwattr $C$DW$181, DW_AT_TI_end_line(0x10b)
    2387                      .dwattr $C$DW$181, DW_AT_TI_end_column(0x01)
    2388                      .dwendentry
    2389                      .dwendtag $C$DW$181
    2390              
    2391 00000000               .sect   ".text:__relaxed_fmodf"
    2392                      .clink
    2393                      .global ||__relaxed_fmodf||
    2394              
    2395              $C$DW$185       .dwtag  DW_TAG_subprogram
    2396                      .dwattr $C$DW$185, DW_AT_name("__relaxed_fmodf")
    2397                      .dwattr $C$DW$185, DW_AT_low_pc(||__relaxed_fmodf||)
    2398                      .dwattr $C$DW$185, DW_AT_high_pc(0x00)
    2399                      .dwattr $C$DW$185, DW_AT_linkage_name("__relaxed_fmodf")
    2400                      .dwattr $C$DW$185, DW_AT_external
    2401                      .dwattr $C$DW$185, DW_AT_type(*$C$DW$T$16)
    2402                      .dwattr $C$DW$185, DW_AT_decl_file("C:/ti/ccs1271/ccs/tools/compiler/ti-cgt-c2000_22.6.1.LTS/include/
    2403                      .dwattr $C$DW$185, DW_AT_decl_line(0x11c)
    2404                      .dwattr $C$DW$185, DW_AT_decl_column(0x10)
    2405                      .dwattr $C$DW$185, DW_AT_TI_max_frame_size(-2)
    2406                      .dwpsn  file "C:/ti/ccs1271/ccs/tools/compiler/ti-cgt-c2000_22.6.1.LTS/include/math.h",line 285,colum
    2407              
    2408                      .dwfde $C$DW$CIE, ||__relaxed_fmodf||
    2409              $C$DW$186       .dwtag  DW_TAG_formal_parameter
    2410                      .dwattr $C$DW$186, DW_AT_name("y")
    2411                      .dwattr $C$DW$186, DW_AT_type(*$C$DW$T$16)
    2412                      .dwattr $C$DW$186, DW_AT_location[DW_OP_regx 0x2b]
    2413              
    2414              $C$DW$187       .dwtag  DW_TAG_formal_parameter
TMS320C2000 Assembler PC v22.6.1 Tue Aug 13 19:46:08 2024

Copyright (c) 1996-2018 Texas Instruments Incorporated
bts_main.asm                                                         PAGE   48

    2415                      .dwattr $C$DW$187, DW_AT_name("x")
    2416                      .dwattr $C$DW$187, DW_AT_type(*$C$DW$T$16)
    2417                      .dwattr $C$DW$187, DW_AT_location[DW_OP_regx 0x2f]
    2418              
    2419              
    2420              ;***************************************************************
    2421              ;* FNAME: __relaxed_fmodf               FR SIZE:   0           *
    2422              ;*                                                             *
    2423              ;* FUNCTION ENVIRONMENT                                        *
    2424              ;*                                                             *
    2425              ;* FUNCTION PROPERTIES                                         *
    2426              ;*                            0 Parameter,  0 Auto,  0 SOE     *
    2427              ;***************************************************************
    2428              
    2429              ||__relaxed_fmodf||:
    2430              ;* R0    assigned to y
    2431              $C$DW$188       .dwtag  DW_TAG_variable
    2432                      .dwattr $C$DW$188, DW_AT_name("y")
    2433                      .dwattr $C$DW$188, DW_AT_type(*$C$DW$T$146)
    2434                      .dwattr $C$DW$188, DW_AT_location[DW_OP_regx 0x2b]
    2435              
    2436              ;* R1    assigned to x
    2437              $C$DW$189       .dwtag  DW_TAG_variable
    2438                      .dwattr $C$DW$189, DW_AT_name("x")
    2439                      .dwattr $C$DW$189, DW_AT_type(*$C$DW$T$146)
    2440                      .dwattr $C$DW$189, DW_AT_location[DW_OP_regx 0x2f]
    2441              
    2442                      .dwcfi  cfa_offset, -2
    2443                      .dwcfi  save_reg_to_mem, 26, 0
    2444                      .dwpsn  file "C:/ti/ccs1271/ccs/tools/compiler/ti-cgt-c2000_22.6.1.LTS/include/math.h",line 286,colum
    2445 00000000 E274          DIVF32    R2H,R0H,R1H           ; [CPU_FPU] |286| 
         00000001 0042 
    2446 00000002 7700          NOP       ; [CPU_ALU] 
    2447 00000003 7700          NOP       ; [CPU_ALU] 
    2448 00000004 7700          NOP       ; [CPU_ALU] 
    2449 00000005 7700          NOP       ; [CPU_ALU] 
    2450 00000006 E688          F32TOI32  R2H,R2H               ; [CPU_FPU] |286| 
         00000007 0012 
    2451 00000008 7700          NOP       ; [CPU_ALU] 
    2452 00000009 E689          I32TOF32  R2H,R2H               ; [CPU_FPU] |286| 
         0000000a 0012 
    2453 0000000b 7700          NOP       ; [CPU_ALU] 
    2454 0000000c E700          MPYF32    R1H,R1H,R2H           ; [CPU_FPU] |286| 
         0000000d 0089 
    2455 0000000e 7700          NOP       ; [CPU_ALU] 
    2456 0000000f E720          SUBF32    R0H,R0H,R1H           ; [CPU_FPU] |286| 
         00000010 0040 
    2457              $C$DW$190       .dwtag  DW_TAG_TI_branch
    2458                      .dwattr $C$DW$190, DW_AT_low_pc(0x00)
    2459                      .dwattr $C$DW$190, DW_AT_TI_return
    2460              
    2461 00000011 0006          LRETR     ; [CPU_ALU] 
    2462                      ; return occurs ; [] 
    2463                      .dwattr $C$DW$185, DW_AT_TI_end_file("C:/ti/ccs1271/ccs/tools/compiler/ti-cgt-c2000_22.6.1.LTS/includ
    2464                      .dwattr $C$DW$185, DW_AT_TI_end_line(0x11f)
TMS320C2000 Assembler PC v22.6.1 Tue Aug 13 19:46:08 2024

Copyright (c) 1996-2018 Texas Instruments Incorporated
bts_main.asm                                                         PAGE   49

    2465                      .dwattr $C$DW$185, DW_AT_TI_end_column(0x01)
    2466                      .dwendentry
    2467                      .dwendtag $C$DW$185
    2468              
    2469 00000000               .sect   ".text:__relaxed_fminf"
    2470                      .clink
    2471                      .global ||__relaxed_fminf||
    2472              
    2473              $C$DW$191       .dwtag  DW_TAG_subprogram
    2474                      .dwattr $C$DW$191, DW_AT_name("__relaxed_fminf")
    2475                      .dwattr $C$DW$191, DW_AT_low_pc(||__relaxed_fminf||)
    2476                      .dwattr $C$DW$191, DW_AT_high_pc(0x00)
    2477                      .dwattr $C$DW$191, DW_AT_linkage_name("__relaxed_fminf")
    2478                      .dwattr $C$DW$191, DW_AT_external
    2479                      .dwattr $C$DW$191, DW_AT_type(*$C$DW$T$16)
    2480                      .dwattr $C$DW$191, DW_AT_decl_file("C:/ti/ccs1271/ccs/tools/compiler/ti-cgt-c2000_22.6.1.LTS/include/
    2481                      .dwattr $C$DW$191, DW_AT_decl_line(0xee)
    2482                      .dwattr $C$DW$191, DW_AT_decl_column(0x10)
    2483                      .dwattr $C$DW$191, DW_AT_TI_max_frame_size(-2)
    2484                      .dwpsn  file "C:/ti/ccs1271/ccs/tools/compiler/ti-cgt-c2000_22.6.1.LTS/include/math.h",line 239,colum
    2485              
    2486                      .dwfde $C$DW$CIE, ||__relaxed_fminf||
    2487              $C$DW$192       .dwtag  DW_TAG_formal_parameter
    2488                      .dwattr $C$DW$192, DW_AT_name("x")
    2489                      .dwattr $C$DW$192, DW_AT_type(*$C$DW$T$16)
    2490                      .dwattr $C$DW$192, DW_AT_location[DW_OP_regx 0x2b]
    2491              
    2492              $C$DW$193       .dwtag  DW_TAG_formal_parameter
    2493                      .dwattr $C$DW$193, DW_AT_name("y")
    2494                      .dwattr $C$DW$193, DW_AT_type(*$C$DW$T$16)
    2495                      .dwattr $C$DW$193, DW_AT_location[DW_OP_regx 0x2f]
    2496              
    2497              
    2498              ;***************************************************************
    2499              ;* FNAME: __relaxed_fminf               FR SIZE:   0           *
    2500              ;*                                                             *
    2501              ;* FUNCTION ENVIRONMENT                                        *
    2502              ;*                                                             *
    2503              ;* FUNCTION PROPERTIES                                         *
    2504              ;*                            0 Parameter,  0 Auto,  0 SOE     *
    2505              ;***************************************************************
    2506              
    2507              ||__relaxed_fminf||:
    2508              ;* R1    assigned to y
    2509              $C$DW$194       .dwtag  DW_TAG_variable
    2510                      .dwattr $C$DW$194, DW_AT_name("y")
    2511                      .dwattr $C$DW$194, DW_AT_type(*$C$DW$T$146)
    2512                      .dwattr $C$DW$194, DW_AT_location[DW_OP_regx 0x2f]
    2513              
    2514                      .dwcfi  cfa_offset, -2
    2515                      .dwcfi  save_reg_to_mem, 26, 0
    2516                      .dwpsn  file "C:/ti/ccs1271/ccs/tools/compiler/ti-cgt-c2000_22.6.1.LTS/include/math.h",line 240,colum
    2517 00000000 E697          MINF32    R0H,R1H               ; [CPU_FPU] |240| 
         00000001 0008 
    2518              $C$DW$195       .dwtag  DW_TAG_TI_branch
TMS320C2000 Assembler PC v22.6.1 Tue Aug 13 19:46:08 2024

Copyright (c) 1996-2018 Texas Instruments Incorporated
bts_main.asm                                                         PAGE   50

    2519                      .dwattr $C$DW$195, DW_AT_low_pc(0x00)
    2520                      .dwattr $C$DW$195, DW_AT_TI_return
    2521              
    2522 00000002 0006          LRETR     ; [CPU_ALU] 
    2523                      ; return occurs ; [] 
    2524                      .dwattr $C$DW$191, DW_AT_TI_end_file("C:/ti/ccs1271/ccs/tools/compiler/ti-cgt-c2000_22.6.1.LTS/includ
    2525                      .dwattr $C$DW$191, DW_AT_TI_end_line(0xf1)
    2526                      .dwattr $C$DW$191, DW_AT_TI_end_column(0x01)
    2527                      .dwendentry
    2528                      .dwendtag $C$DW$191
    2529              
    2530 00000000               .sect   ".text:__relaxed_fmaxf"
    2531                      .clink
    2532                      .global ||__relaxed_fmaxf||
    2533              
    2534              $C$DW$196       .dwtag  DW_TAG_subprogram
    2535                      .dwattr $C$DW$196, DW_AT_name("__relaxed_fmaxf")
    2536                      .dwattr $C$DW$196, DW_AT_low_pc(||__relaxed_fmaxf||)
    2537                      .dwattr $C$DW$196, DW_AT_high_pc(0x00)
    2538                      .dwattr $C$DW$196, DW_AT_linkage_name("__relaxed_fmaxf")
    2539                      .dwattr $C$DW$196, DW_AT_external
    2540                      .dwattr $C$DW$196, DW_AT_type(*$C$DW$T$16)
    2541                      .dwattr $C$DW$196, DW_AT_decl_file("C:/ti/ccs1271/ccs/tools/compiler/ti-cgt-c2000_22.6.1.LTS/include/
    2542                      .dwattr $C$DW$196, DW_AT_decl_line(0xe8)
    2543                      .dwattr $C$DW$196, DW_AT_decl_column(0x10)
    2544                      .dwattr $C$DW$196, DW_AT_TI_max_frame_size(-2)
    2545                      .dwpsn  file "C:/ti/ccs1271/ccs/tools/compiler/ti-cgt-c2000_22.6.1.LTS/include/math.h",line 233,colum
    2546              
    2547                      .dwfde $C$DW$CIE, ||__relaxed_fmaxf||
    2548              $C$DW$197       .dwtag  DW_TAG_formal_parameter
    2549                      .dwattr $C$DW$197, DW_AT_name("x")
    2550                      .dwattr $C$DW$197, DW_AT_type(*$C$DW$T$16)
    2551                      .dwattr $C$DW$197, DW_AT_location[DW_OP_regx 0x2b]
    2552              
    2553              $C$DW$198       .dwtag  DW_TAG_formal_parameter
    2554                      .dwattr $C$DW$198, DW_AT_name("y")
    2555                      .dwattr $C$DW$198, DW_AT_type(*$C$DW$T$16)
    2556                      .dwattr $C$DW$198, DW_AT_location[DW_OP_regx 0x2f]
    2557              
    2558              
    2559              ;***************************************************************
    2560              ;* FNAME: __relaxed_fmaxf               FR SIZE:   0           *
    2561              ;*                                                             *
    2562              ;* FUNCTION ENVIRONMENT                                        *
    2563              ;*                                                             *
    2564              ;* FUNCTION PROPERTIES                                         *
    2565              ;*                            0 Parameter,  0 Auto,  0 SOE     *
    2566              ;***************************************************************
    2567              
    2568              ||__relaxed_fmaxf||:
    2569              ;* R1    assigned to y
    2570              $C$DW$199       .dwtag  DW_TAG_variable
    2571                      .dwattr $C$DW$199, DW_AT_name("y")
    2572                      .dwattr $C$DW$199, DW_AT_type(*$C$DW$T$146)
    2573                      .dwattr $C$DW$199, DW_AT_location[DW_OP_regx 0x2f]
TMS320C2000 Assembler PC v22.6.1 Tue Aug 13 19:46:08 2024

Copyright (c) 1996-2018 Texas Instruments Incorporated
bts_main.asm                                                         PAGE   51

    2574              
    2575                      .dwcfi  cfa_offset, -2
    2576                      .dwcfi  save_reg_to_mem, 26, 0
    2577                      .dwpsn  file "C:/ti/ccs1271/ccs/tools/compiler/ti-cgt-c2000_22.6.1.LTS/include/math.h",line 234,colum
    2578 00000000 E696          MAXF32    R0H,R1H               ; [CPU_FPU] |234| 
         00000001 0008 
    2579              $C$DW$200       .dwtag  DW_TAG_TI_branch
    2580                      .dwattr $C$DW$200, DW_AT_low_pc(0x00)
    2581                      .dwattr $C$DW$200, DW_AT_TI_return
    2582              
    2583 00000002 0006          LRETR     ; [CPU_ALU] 
    2584                      ; return occurs ; [] 
    2585                      .dwattr $C$DW$196, DW_AT_TI_end_file("C:/ti/ccs1271/ccs/tools/compiler/ti-cgt-c2000_22.6.1.LTS/includ
    2586                      .dwattr $C$DW$196, DW_AT_TI_end_line(0xeb)
    2587                      .dwattr $C$DW$196, DW_AT_TI_end_column(0x01)
    2588                      .dwendentry
    2589                      .dwendtag $C$DW$196
    2590              
    2591 00000000               .sect   ".text:__relaxed_cosf"
    2592                      .clink
    2593                      .global ||__relaxed_cosf||
    2594              
    2595              $C$DW$201       .dwtag  DW_TAG_subprogram
    2596                      .dwattr $C$DW$201, DW_AT_name("__relaxed_cosf")
    2597                      .dwattr $C$DW$201, DW_AT_low_pc(||__relaxed_cosf||)
    2598                      .dwattr $C$DW$201, DW_AT_high_pc(0x00)
    2599                      .dwattr $C$DW$201, DW_AT_linkage_name("__relaxed_cosf")
    2600                      .dwattr $C$DW$201, DW_AT_external
    2601                      .dwattr $C$DW$201, DW_AT_type(*$C$DW$T$16)
    2602                      .dwattr $C$DW$201, DW_AT_decl_file("C:/ti/ccs1271/ccs/tools/compiler/ti-cgt-c2000_22.6.1.LTS/include/
    2603                      .dwattr $C$DW$201, DW_AT_decl_line(0x10d)
    2604                      .dwattr $C$DW$201, DW_AT_decl_column(0x10)
    2605                      .dwattr $C$DW$201, DW_AT_TI_max_frame_size(-2)
    2606                      .dwpsn  file "C:/ti/ccs1271/ccs/tools/compiler/ti-cgt-c2000_22.6.1.LTS/include/math.h",line 270,colum
    2607              
    2608                      .dwfde $C$DW$CIE, ||__relaxed_cosf||
    2609              $C$DW$202       .dwtag  DW_TAG_formal_parameter
    2610                      .dwattr $C$DW$202, DW_AT_name("x")
    2611                      .dwattr $C$DW$202, DW_AT_type(*$C$DW$T$16)
    2612                      .dwattr $C$DW$202, DW_AT_location[DW_OP_regx 0x2b]
    2613              
    2614              
    2615              ;***************************************************************
    2616              ;* FNAME: __relaxed_cosf                FR SIZE:   0           *
    2617              ;*                                                             *
    2618              ;* FUNCTION ENVIRONMENT                                        *
    2619              ;*                                                             *
    2620              ;* FUNCTION PROPERTIES                                         *
    2621              ;*                            0 Parameter,  0 Auto,  0 SOE     *
    2622              ;***************************************************************
    2623              
    2624              ||__relaxed_cosf||:
    2625              ;* R0    assigned to x
    2626              $C$DW$203       .dwtag  DW_TAG_variable
    2627                      .dwattr $C$DW$203, DW_AT_name("x")
TMS320C2000 Assembler PC v22.6.1 Tue Aug 13 19:46:08 2024

Copyright (c) 1996-2018 Texas Instruments Incorporated
bts_main.asm                                                         PAGE   52

    2628                      .dwattr $C$DW$203, DW_AT_type(*$C$DW$T$146)
    2629                      .dwattr $C$DW$203, DW_AT_location[DW_OP_regx 0x2b]
    2630              
    2631                      .dwcfi  cfa_offset, -2
    2632                      .dwcfi  save_reg_to_mem, 26, 0
    2633                      .dwpsn  file "C:/ti/ccs1271/ccs/tools/compiler/ti-cgt-c2000_22.6.1.LTS/include/math.h",line 271,colum
    2634 00000000 E271          DIV2PIF32 R0H,R0H               ; [CPU_FPU] |271| 
         00000001 0000 
    2635 00000002 7700          NOP       ; [CPU_ALU] 
    2636 00000003 E279          COSPUF32  R0H,R0H               ; [CPU_FPU] |271| 
         00000004 0000 
    2637 00000005 7700          NOP       ; [CPU_ALU] 
    2638 00000006 7700          NOP       ; [CPU_ALU] 
    2639              $C$DW$204       .dwtag  DW_TAG_TI_branch
    2640                      .dwattr $C$DW$204, DW_AT_low_pc(0x00)
    2641                      .dwattr $C$DW$204, DW_AT_TI_return
    2642              
    2643 00000007 0006          LRETR     ; [CPU_ALU] 
    2644                      ; return occurs ; [] 
    2645                      .dwattr $C$DW$201, DW_AT_TI_end_file("C:/ti/ccs1271/ccs/tools/compiler/ti-cgt-c2000_22.6.1.LTS/includ
    2646                      .dwattr $C$DW$201, DW_AT_TI_end_line(0x110)
    2647                      .dwattr $C$DW$201, DW_AT_TI_end_column(0x01)
    2648                      .dwendentry
    2649                      .dwendtag $C$DW$201
    2650              
    2651 00000000               .sect   ".text:__relaxed_atanf"
    2652                      .clink
    2653                      .global ||__relaxed_atanf||
    2654              
    2655              $C$DW$205       .dwtag  DW_TAG_subprogram
    2656                      .dwattr $C$DW$205, DW_AT_name("__relaxed_atanf")
    2657                      .dwattr $C$DW$205, DW_AT_low_pc(||__relaxed_atanf||)
    2658                      .dwattr $C$DW$205, DW_AT_high_pc(0x00)
    2659                      .dwattr $C$DW$205, DW_AT_linkage_name("__relaxed_atanf")
    2660                      .dwattr $C$DW$205, DW_AT_external
    2661                      .dwattr $C$DW$205, DW_AT_type(*$C$DW$T$16)
    2662                      .dwattr $C$DW$205, DW_AT_decl_file("C:/ti/ccs1271/ccs/tools/compiler/ti-cgt-c2000_22.6.1.LTS/include/
    2663                      .dwattr $C$DW$205, DW_AT_decl_line(0x112)
    2664                      .dwattr $C$DW$205, DW_AT_decl_column(0x10)
    2665                      .dwattr $C$DW$205, DW_AT_TI_max_frame_size(-2)
    2666                      .dwpsn  file "C:/ti/ccs1271/ccs/tools/compiler/ti-cgt-c2000_22.6.1.LTS/include/math.h",line 275,colum
    2667              
    2668                      .dwfde $C$DW$CIE, ||__relaxed_atanf||
    2669              $C$DW$206       .dwtag  DW_TAG_formal_parameter
    2670                      .dwattr $C$DW$206, DW_AT_name("x")
    2671                      .dwattr $C$DW$206, DW_AT_type(*$C$DW$T$16)
    2672                      .dwattr $C$DW$206, DW_AT_location[DW_OP_regx 0x2b]
    2673              
    2674              
    2675              ;***************************************************************
    2676              ;* FNAME: __relaxed_atanf               FR SIZE:   0           *
    2677              ;*                                                             *
    2678              ;* FUNCTION ENVIRONMENT                                        *
    2679              ;*                                                             *
    2680              ;* FUNCTION PROPERTIES                                         *
TMS320C2000 Assembler PC v22.6.1 Tue Aug 13 19:46:08 2024

Copyright (c) 1996-2018 Texas Instruments Incorporated
bts_main.asm                                                         PAGE   53

    2681              ;*                            0 Parameter,  0 Auto,  0 SOE     *
    2682              ;***************************************************************
    2683              
    2684              ||__relaxed_atanf||:
    2685              ;* R0    assigned to x
    2686              $C$DW$207       .dwtag  DW_TAG_variable
    2687                      .dwattr $C$DW$207, DW_AT_name("x")
    2688                      .dwattr $C$DW$207, DW_AT_type(*$C$DW$T$146)
    2689                      .dwattr $C$DW$207, DW_AT_location[DW_OP_regx 0x2b]
    2690              
    2691                      .dwcfi  cfa_offset, -2
    2692                      .dwcfi  save_reg_to_mem, 26, 0
    2693                      .dwpsn  file "C:/ti/ccs1271/ccs/tools/compiler/ti-cgt-c2000_22.6.1.LTS/include/math.h",line 276,colum
    2694 00000000 E801          MOVIZ     R1H,#16256            ; [CPU_FPU] |276| 
         00000001 FC01 
    2695 00000002 E27C          QUADF32   R1H,R0H,R0H,R1H       ; [CPU_FPU] |276| 
         00000003 0201 
    2696 00000004 7700          NOP       ; [CPU_ALU] 
    2697 00000005 7700          NOP       ; [CPU_ALU] 
    2698 00000006 7700          NOP       ; [CPU_ALU] 
    2699 00000007 7700          NOP       ; [CPU_ALU] 
    2700 00000008 E27A          ATANPUF32 R0H,R0H               ; [CPU_FPU] |276| 
         00000009 0000 
    2701 0000000a 7700          NOP       ; [CPU_ALU] 
    2702 0000000b 7700          NOP       ; [CPU_ALU] 
    2703 0000000c 7700          NOP       ; [CPU_ALU] 
    2704 0000000d E710          ADDF32    R0H,R0H,R1H           ; [CPU_FPU] |276| 
         0000000e 0040 
    2705 0000000f 7700          NOP       ; [CPU_ALU] 
    2706 00000010 7700          NOP       ; [CPU_ALU] 
    2707 00000011 E270          MPY2PIF32 R0H,R0H               ; [CPU_FPU] |276| 
         00000012 0000 
    2708 00000013 7700          NOP       ; [CPU_ALU] 
    2709              $C$DW$208       .dwtag  DW_TAG_TI_branch
    2710                      .dwattr $C$DW$208, DW_AT_low_pc(0x00)
    2711                      .dwattr $C$DW$208, DW_AT_TI_return
    2712              
    2713 00000014 0006          LRETR     ; [CPU_ALU] 
    2714                      ; return occurs ; [] 
    2715                      .dwattr $C$DW$205, DW_AT_TI_end_file("C:/ti/ccs1271/ccs/tools/compiler/ti-cgt-c2000_22.6.1.LTS/includ
    2716                      .dwattr $C$DW$205, DW_AT_TI_end_line(0x115)
    2717                      .dwattr $C$DW$205, DW_AT_TI_end_column(0x01)
    2718                      .dwendentry
    2719                      .dwendtag $C$DW$205
    2720              
    2721 00000000               .sect   ".text:__relaxed_atan2f"
    2722                      .clink
    2723                      .global ||__relaxed_atan2f||
    2724              
    2725              $C$DW$209       .dwtag  DW_TAG_subprogram
    2726                      .dwattr $C$DW$209, DW_AT_name("__relaxed_atan2f")
    2727                      .dwattr $C$DW$209, DW_AT_low_pc(||__relaxed_atan2f||)
    2728                      .dwattr $C$DW$209, DW_AT_high_pc(0x00)
    2729                      .dwattr $C$DW$209, DW_AT_linkage_name("__relaxed_atan2f")
    2730                      .dwattr $C$DW$209, DW_AT_external
TMS320C2000 Assembler PC v22.6.1 Tue Aug 13 19:46:08 2024

Copyright (c) 1996-2018 Texas Instruments Incorporated
bts_main.asm                                                         PAGE   54

    2731                      .dwattr $C$DW$209, DW_AT_type(*$C$DW$T$16)
    2732                      .dwattr $C$DW$209, DW_AT_decl_file("C:/ti/ccs1271/ccs/tools/compiler/ti-cgt-c2000_22.6.1.LTS/include/
    2733                      .dwattr $C$DW$209, DW_AT_decl_line(0x117)
    2734                      .dwattr $C$DW$209, DW_AT_decl_column(0x10)
    2735                      .dwattr $C$DW$209, DW_AT_TI_max_frame_size(-2)
    2736                      .dwpsn  file "C:/ti/ccs1271/ccs/tools/compiler/ti-cgt-c2000_22.6.1.LTS/include/math.h",line 280,colum
    2737              
    2738                      .dwfde $C$DW$CIE, ||__relaxed_atan2f||
    2739              $C$DW$210       .dwtag  DW_TAG_formal_parameter
    2740                      .dwattr $C$DW$210, DW_AT_name("y")
    2741                      .dwattr $C$DW$210, DW_AT_type(*$C$DW$T$16)
    2742                      .dwattr $C$DW$210, DW_AT_location[DW_OP_regx 0x2b]
    2743              
    2744              $C$DW$211       .dwtag  DW_TAG_formal_parameter
    2745                      .dwattr $C$DW$211, DW_AT_name("x")
    2746                      .dwattr $C$DW$211, DW_AT_type(*$C$DW$T$16)
    2747                      .dwattr $C$DW$211, DW_AT_location[DW_OP_regx 0x2f]
    2748              
    2749              
    2750              ;***************************************************************
    2751              ;* FNAME: __relaxed_atan2f              FR SIZE:   0           *
    2752              ;*                                                             *
    2753              ;* FUNCTION ENVIRONMENT                                        *
    2754              ;*                                                             *
    2755              ;* FUNCTION PROPERTIES                                         *
    2756              ;*                            0 Parameter,  0 Auto,  0 SOE     *
    2757              ;***************************************************************
    2758              
    2759              ||__relaxed_atan2f||:
    2760              ;* R0    assigned to y
    2761              $C$DW$212       .dwtag  DW_TAG_variable
    2762                      .dwattr $C$DW$212, DW_AT_name("y")
    2763                      .dwattr $C$DW$212, DW_AT_type(*$C$DW$T$146)
    2764                      .dwattr $C$DW$212, DW_AT_location[DW_OP_regx 0x2b]
    2765              
    2766              ;* R1    assigned to x
    2767              $C$DW$213       .dwtag  DW_TAG_variable
    2768                      .dwattr $C$DW$213, DW_AT_name("x")
    2769                      .dwattr $C$DW$213, DW_AT_type(*$C$DW$T$146)
    2770                      .dwattr $C$DW$213, DW_AT_location[DW_OP_regx 0x2f]
    2771              
    2772                      .dwcfi  cfa_offset, -2
    2773                      .dwcfi  save_reg_to_mem, 26, 0
    2774                      .dwpsn  file "C:/ti/ccs1271/ccs/tools/compiler/ti-cgt-c2000_22.6.1.LTS/include/math.h",line 281,colum
    2775 00000000 E27C          QUADF32   R1H,R0H,R0H,R1H       ; [CPU_FPU] |281| 
         00000001 0201 
    2776 00000002 7700          NOP       ; [CPU_ALU] 
    2777 00000003 7700          NOP       ; [CPU_ALU] 
    2778 00000004 7700          NOP       ; [CPU_ALU] 
    2779 00000005 7700          NOP       ; [CPU_ALU] 
    2780 00000006 E27A          ATANPUF32 R0H,R0H               ; [CPU_FPU] |281| 
         00000007 0000 
    2781 00000008 7700          NOP       ; [CPU_ALU] 
    2782 00000009 7700          NOP       ; [CPU_ALU] 
    2783 0000000a 7700          NOP       ; [CPU_ALU] 
TMS320C2000 Assembler PC v22.6.1 Tue Aug 13 19:46:08 2024

Copyright (c) 1996-2018 Texas Instruments Incorporated
bts_main.asm                                                         PAGE   55

    2784 0000000b E710          ADDF32    R0H,R0H,R1H           ; [CPU_FPU] |281| 
         0000000c 0040 
    2785 0000000d 7700          NOP       ; [CPU_ALU] 
    2786 0000000e 7700          NOP       ; [CPU_ALU] 
    2787 0000000f E270          MPY2PIF32 R0H,R0H               ; [CPU_FPU] |281| 
         00000010 0000 
    2788 00000011 7700          NOP       ; [CPU_ALU] 
    2789              $C$DW$214       .dwtag  DW_TAG_TI_branch
    2790                      .dwattr $C$DW$214, DW_AT_low_pc(0x00)
    2791                      .dwattr $C$DW$214, DW_AT_TI_return
    2792              
    2793 00000012 0006          LRETR     ; [CPU_ALU] 
    2794                      ; return occurs ; [] 
    2795                      .dwattr $C$DW$209, DW_AT_TI_end_file("C:/ti/ccs1271/ccs/tools/compiler/ti-cgt-c2000_22.6.1.LTS/includ
    2796                      .dwattr $C$DW$209, DW_AT_TI_end_line(0x11a)
    2797                      .dwattr $C$DW$209, DW_AT_TI_end_column(0x01)
    2798                      .dwendentry
    2799                      .dwendtag $C$DW$209
    2800              
    2801 00000000               .sect   ".text:__isnormall"
    2802                      .clink
    2803                      .global ||__isnormall||
    2804              
    2805              $C$DW$215       .dwtag  DW_TAG_subprogram
    2806                      .dwattr $C$DW$215, DW_AT_name("__isnormall")
    2807                      .dwattr $C$DW$215, DW_AT_low_pc(||__isnormall||)
    2808                      .dwattr $C$DW$215, DW_AT_high_pc(0x00)
    2809                      .dwattr $C$DW$215, DW_AT_linkage_name("__isnormall")
    2810                      .dwattr $C$DW$215, DW_AT_external
    2811                      .dwattr $C$DW$215, DW_AT_type(*$C$DW$T$10)
    2812                      .dwattr $C$DW$215, DW_AT_decl_file("C:/ti/ccs1271/ccs/tools/compiler/ti-cgt-c2000_22.6.1.LTS/include/
    2813                      .dwattr $C$DW$215, DW_AT_decl_line(0x167)
    2814                      .dwattr $C$DW$215, DW_AT_decl_column(0x18)
    2815                      .dwattr $C$DW$215, DW_AT_TI_max_frame_size(-6)
    2816                      .dwpsn  file "C:/ti/ccs1271/ccs/tools/compiler/ti-cgt-c2000_22.6.1.LTS/include/_defs.h",line 360,colu
    2817              
    2818                      .dwfde $C$DW$CIE, ||__isnormall||
    2819              $C$DW$216       .dwtag  DW_TAG_formal_parameter
    2820                      .dwattr $C$DW$216, DW_AT_name("e")
    2821                      .dwattr $C$DW$216, DW_AT_type(*$C$DW$T$152)
    2822                      .dwattr $C$DW$216, DW_AT_location[DW_OP_reg12]
    2823              
    2824              
    2825              ;***************************************************************
    2826              ;* FNAME: __isnormall                   FR SIZE:   4           *
    2827              ;*                                                             *
    2828              ;* FUNCTION ENVIRONMENT                                        *
    2829              ;*                                                             *
    2830              ;* FUNCTION PROPERTIES                                         *
    2831              ;*                            4 Parameter,  0 Auto,  0 SOE     *
    2832              ;***************************************************************
    2833              
    2834              ||__isnormall||:
    2835              ;* AR5   assigned to $O$C2
    2836              ;* AR6   assigned to $O$S1
TMS320C2000 Assembler PC v22.6.1 Tue Aug 13 19:46:08 2024

Copyright (c) 1996-2018 Texas Instruments Incorporated
bts_main.asm                                                         PAGE   56

    2837              ;* AR4   assigned to e
    2838              $C$DW$217       .dwtag  DW_TAG_variable
    2839                      .dwattr $C$DW$217, DW_AT_name("e")
    2840                      .dwattr $C$DW$217, DW_AT_type(*$C$DW$T$153)
    2841                      .dwattr $C$DW$217, DW_AT_location[DW_OP_reg12]
    2842              
    2843                      .dwcfi  cfa_offset, -2
    2844                      .dwcfi  save_reg_to_mem, 26, 0
    2845 00000000 FE04          ADDB      SP,#4                 ; [CPU_ARAU] 
    2846                      .dwcfi  cfa_offset, -6
    2847                      .dwpsn  file "C:/ti/ccs1271/ccs/tools/compiler/ti-cgt-c2000_22.6.1.LTS/include/_defs.h",line 360,colu
    2848 00000001 83C4          MOVL      XAR5,*+XAR4[0]        ; [CPU_ALU] |360| 
    2849 00000002 8AD4          MOVL      XAR4,*+XAR4[2]        ; [CPU_ALU] |360| 
    2850 00000003 BE00          MOVB      XAR6,#0               ; [CPU_ALU] |360| 
    2851 00000004 28AC          MOV       T,#52                 ; [CPU_ALU] |360| 
         00000005 0034 
    2852 00000006 A0AB          MOVL      P,XAR5                ; [CPU_ALU] |360| 
    2853 00000007 A8A9          MOVL      ACC,XAR4              ; [CPU_ALU] |360| 
    2854 00000008 C244          MOVL      *-SP[4],XAR6          ; [CPU_ALU] |360| 
    2855 00000009 2B42          MOV       *-SP[2],#0            ; [CPU_ALU] |360| 
    2856 0000000a 565B          LSR64     ACC:P,T               ; [CPU_ALU] |360| 
    2857 0000000b 2B41          MOV       *-SP[1],#0            ; [CPU_FPU] |360| 
    2858 0000000c 9000          ANDB      AL,#0                 ; [CPU_ALU] |360| 
    2859 0000000d 9100          ANDB      AH,#0                 ; [CPU_ALU] |360| 
    2860 0000000e 18AB          AND       PL,#2047              ; [CPU_ALU] |360| 
         0000000f 07FF 
    2861 00000010 18AA          AND       PH,#0                 ; [CPU_ALU] |360| 
         00000011 0000 
    2862              $C$DW$218       .dwtag  DW_TAG_TI_branch
    2863                      .dwattr $C$DW$218, DW_AT_low_pc(0x00)
    2864                      .dwattr $C$DW$218, DW_AT_name("__c28xabi_cmpull")
    2865                      .dwattr $C$DW$218, DW_AT_TI_call
    2866              
    2867 00000012 7640!         LCR       #||__c28xabi_cmpull|| ; [CPU_ALU] |360| 
         00000013 0000 
    2868                      ; call occurs [#||__c28xabi_cmpull||] ; [] |360| 
    2869 00000014 BE00          MOVB      XAR6,#0               ; [CPU_ALU] |360| 
    2870 00000015 5200          CMPB      AL,#0                 ; [CPU_ALU] |360| 
    2871 00000016 610E          B         ||$C$L5||,EQ          ; [CPU_ALU] |360| 
    2872                      ; branchcc occurs ; [] |360| 
    2873 00000017 A0AB          MOVL      P,XAR5                ; [CPU_ALU] |360| 
    2874 00000018 A8A9          MOVL      ACC,XAR4              ; [CPU_ALU] |360| 
    2875 00000019 28AC          MOV       T,#48                 ; [CPU_ALU] |360| 
         0000001a 0030 
    2876 0000001b 565B          LSR64     ACC:P,T               ; [CPU_ALU] |360| 
    2877 0000001c 18AB          AND       PL,#0x7ff0            ; [CPU_ALU] |360| 
         0000001d 7FF0 
    2878 0000001e 80AB          MOVZ      AR7,PL                ; [CPU_ALU] |360| 
    2879 0000001f FF20          MOV       ACC,#32752            ; [CPU_ALU] |360| 
         00000020 7FF0 
    2880 00000021 0FA7          CMPL      ACC,XAR7              ; [CPU_ALU] |360| 
    2881 00000022 56B0          MOVB      XAR6,#1,NEQ           ; [CPU_ALU] |360| 
         00000023 01A6 
    2882 00000024       ||$C$L5||:    
    2883 00000024 FE84          SUBB      SP,#4                 ; [CPU_ARAU] 
TMS320C2000 Assembler PC v22.6.1 Tue Aug 13 19:46:08 2024

Copyright (c) 1996-2018 Texas Instruments Incorporated
bts_main.asm                                                         PAGE   57

    2884                      .dwcfi  cfa_offset, -2
    2885 00000025 92A6          MOV       AL,AR6                ; [CPU_ALU] |360| 
    2886              $C$DW$219       .dwtag  DW_TAG_TI_branch
    2887                      .dwattr $C$DW$219, DW_AT_low_pc(0x00)
    2888                      .dwattr $C$DW$219, DW_AT_TI_return
    2889              
    2890 00000026 0006          LRETR     ; [CPU_ALU] 
    2891                      ; return occurs ; [] 
    2892                      .dwattr $C$DW$215, DW_AT_TI_end_file("C:/ti/ccs1271/ccs/tools/compiler/ti-cgt-c2000_22.6.1.LTS/includ
    2893                      .dwattr $C$DW$215, DW_AT_TI_end_line(0x169)
    2894                      .dwattr $C$DW$215, DW_AT_TI_end_column(0x31)
    2895                      .dwendentry
    2896                      .dwendtag $C$DW$215
    2897              
    2898 00000000               .sect   ".text:__isnormalf"
    2899                      .clink
    2900                      .global ||__isnormalf||
    2901              
    2902              $C$DW$220       .dwtag  DW_TAG_subprogram
    2903                      .dwattr $C$DW$220, DW_AT_name("__isnormalf")
    2904                      .dwattr $C$DW$220, DW_AT_low_pc(||__isnormalf||)
    2905                      .dwattr $C$DW$220, DW_AT_high_pc(0x00)
    2906                      .dwattr $C$DW$220, DW_AT_linkage_name("__isnormalf")
    2907                      .dwattr $C$DW$220, DW_AT_external
    2908                      .dwattr $C$DW$220, DW_AT_type(*$C$DW$T$10)
    2909                      .dwattr $C$DW$220, DW_AT_decl_file("C:/ti/ccs1271/ccs/tools/compiler/ti-cgt-c2000_22.6.1.LTS/include/
    2910                      .dwattr $C$DW$220, DW_AT_decl_line(0x163)
    2911                      .dwattr $C$DW$220, DW_AT_decl_column(0x18)
    2912                      .dwattr $C$DW$220, DW_AT_TI_max_frame_size(-2)
    2913                      .dwpsn  file "C:/ti/ccs1271/ccs/tools/compiler/ti-cgt-c2000_22.6.1.LTS/include/_defs.h",line 356,colu
    2914              
    2915                      .dwfde $C$DW$CIE, ||__isnormalf||
    2916              $C$DW$221       .dwtag  DW_TAG_formal_parameter
    2917                      .dwattr $C$DW$221, DW_AT_name("f")
    2918                      .dwattr $C$DW$221, DW_AT_type(*$C$DW$T$16)
    2919                      .dwattr $C$DW$221, DW_AT_location[DW_OP_regx 0x2b]
    2920              
    2921              
    2922              ;***************************************************************
    2923              ;* FNAME: __isnormalf                   FR SIZE:   0           *
    2924              ;*                                                             *
    2925              ;* FUNCTION ENVIRONMENT                                        *
    2926              ;*                                                             *
    2927              ;* FUNCTION PROPERTIES                                         *
    2928              ;*                            0 Parameter,  0 Auto,  0 SOE     *
    2929              ;***************************************************************
    2930              
    2931              ||__isnormalf||:
    2932              ;* PL    assigned to $O$K3
    2933              ;* AR6   assigned to $O$S1
    2934              ;* R0    assigned to f
    2935              $C$DW$222       .dwtag  DW_TAG_variable
    2936                      .dwattr $C$DW$222, DW_AT_name("f")
    2937                      .dwattr $C$DW$222, DW_AT_type(*$C$DW$T$146)
    2938                      .dwattr $C$DW$222, DW_AT_location[DW_OP_regx 0x2b]
TMS320C2000 Assembler PC v22.6.1 Tue Aug 13 19:46:08 2024

Copyright (c) 1996-2018 Texas Instruments Incorporated
bts_main.asm                                                         PAGE   58

    2939              
    2940                      .dwcfi  cfa_offset, -2
    2941                      .dwcfi  save_reg_to_mem, 26, 0
    2942                      .dwpsn  file "C:/ti/ccs1271/ccs/tools/compiler/ti-cgt-c2000_22.6.1.LTS/include/_defs.h",line 356,colu
    2943 00000000 BFAB          MOV32     P,R0H                 ; [CPU_FPU] |356| 
         00000001 0F12 
    2944 00000002 28AC          MOV       T,#23                 ; [CPU_ALU] |356| 
         00000003 0017 
    2945 00000004 A9A9          MOVL      ACC,P                 ; [CPU_ALU] |356| 
    2946 00000005 BE00          MOVB      XAR6,#0               ; [CPU_ALU] |356| 
    2947 00000006 5622          LSRL      ACC,T                 ; [CPU_ALU] |356| 
    2948 00000007 90FF          ANDB      AL,#0xff              ; [CPU_ALU] |356| 
    2949 00000008 6109          B         ||$C$L6||,EQ          ; [CPU_ALU] |356| 
    2950                      ; branchcc occurs ; [] |356| 
    2951 00000009 CCAA          AND       AL,PH,#0x7f80         ; [CPU_ALU] |356| 
         0000000a 7F80 
    2952 0000000b 80A9          MOVZ      AR7,AL                ; [CPU_ALU] |356| 
    2953 0000000c FF20          MOV       ACC,#32640            ; [CPU_ALU] |356| 
         0000000d 7F80 
    2954 0000000e 0FA7          CMPL      ACC,XAR7              ; [CPU_ALU] |356| 
    2955 0000000f 56B0          MOVB      XAR6,#1,NEQ           ; [CPU_ALU] |356| 
         00000010 01A6 
    2956 00000011       ||$C$L6||:    
    2957 00000011 92A6          MOV       AL,AR6                ; [CPU_ALU] |356| 
    2958              $C$DW$223       .dwtag  DW_TAG_TI_branch
    2959                      .dwattr $C$DW$223, DW_AT_low_pc(0x00)
    2960                      .dwattr $C$DW$223, DW_AT_TI_return
    2961              
    2962 00000012 0006          LRETR     ; [CPU_ALU] 
    2963                      ; return occurs ; [] 
    2964                      .dwattr $C$DW$220, DW_AT_TI_end_file("C:/ti/ccs1271/ccs/tools/compiler/ti-cgt-c2000_22.6.1.LTS/includ
    2965                      .dwattr $C$DW$220, DW_AT_TI_end_line(0x165)
    2966                      .dwattr $C$DW$220, DW_AT_TI_end_column(0x2f)
    2967                      .dwendentry
    2968                      .dwendtag $C$DW$220
    2969              
    2970 00000000               .sect   ".text:__isnormal"
    2971                      .clink
    2972                      .global ||__isnormal||
    2973              
    2974              $C$DW$224       .dwtag  DW_TAG_subprogram
    2975                      .dwattr $C$DW$224, DW_AT_name("__isnormal")
    2976                      .dwattr $C$DW$224, DW_AT_low_pc(||__isnormal||)
    2977                      .dwattr $C$DW$224, DW_AT_high_pc(0x00)
    2978                      .dwattr $C$DW$224, DW_AT_linkage_name("__isnormal")
    2979                      .dwattr $C$DW$224, DW_AT_external
    2980                      .dwattr $C$DW$224, DW_AT_type(*$C$DW$T$10)
    2981                      .dwattr $C$DW$224, DW_AT_decl_file("C:/ti/ccs1271/ccs/tools/compiler/ti-cgt-c2000_22.6.1.LTS/include/
    2982                      .dwattr $C$DW$224, DW_AT_decl_line(0x15f)
    2983                      .dwattr $C$DW$224, DW_AT_decl_column(0x18)
    2984                      .dwattr $C$DW$224, DW_AT_TI_max_frame_size(-6)
    2985                      .dwpsn  file "C:/ti/ccs1271/ccs/tools/compiler/ti-cgt-c2000_22.6.1.LTS/include/_defs.h",line 352,colu
    2986              
    2987                      .dwfde $C$DW$CIE, ||__isnormal||
    2988              $C$DW$225       .dwtag  DW_TAG_formal_parameter
TMS320C2000 Assembler PC v22.6.1 Tue Aug 13 19:46:08 2024

Copyright (c) 1996-2018 Texas Instruments Incorporated
bts_main.asm                                                         PAGE   59

    2989                      .dwattr $C$DW$225, DW_AT_name("d")
    2990                      .dwattr $C$DW$225, DW_AT_type(*$C$DW$T$149)
    2991                      .dwattr $C$DW$225, DW_AT_location[DW_OP_reg12]
    2992              
    2993              
    2994              ;***************************************************************
    2995              ;* FNAME: __isnormal                    FR SIZE:   4           *
    2996              ;*                                                             *
    2997              ;* FUNCTION ENVIRONMENT                                        *
    2998              ;*                                                             *
    2999              ;* FUNCTION PROPERTIES                                         *
    3000              ;*                            4 Parameter,  0 Auto,  0 SOE     *
    3001              ;***************************************************************
    3002              
    3003              ||__isnormal||:
    3004              ;* AR5   assigned to $O$C2
    3005              ;* AR6   assigned to $O$S1
    3006              ;* AR4   assigned to d
    3007              $C$DW$226       .dwtag  DW_TAG_variable
    3008                      .dwattr $C$DW$226, DW_AT_name("d")
    3009                      .dwattr $C$DW$226, DW_AT_type(*$C$DW$T$150)
    3010                      .dwattr $C$DW$226, DW_AT_location[DW_OP_reg12]
    3011              
    3012                      .dwcfi  cfa_offset, -2
    3013                      .dwcfi  save_reg_to_mem, 26, 0
    3014 00000000 FE04          ADDB      SP,#4                 ; [CPU_ARAU] 
    3015                      .dwcfi  cfa_offset, -6
    3016                      .dwpsn  file "C:/ti/ccs1271/ccs/tools/compiler/ti-cgt-c2000_22.6.1.LTS/include/_defs.h",line 352,colu
    3017 00000001 83C4          MOVL      XAR5,*+XAR4[0]        ; [CPU_ALU] |352| 
    3018 00000002 8AD4          MOVL      XAR4,*+XAR4[2]        ; [CPU_ALU] |352| 
    3019 00000003 BE00          MOVB      XAR6,#0               ; [CPU_ALU] |352| 
    3020 00000004 28AC          MOV       T,#52                 ; [CPU_ALU] |352| 
         00000005 0034 
    3021 00000006 A0AB          MOVL      P,XAR5                ; [CPU_ALU] |352| 
    3022 00000007 A8A9          MOVL      ACC,XAR4              ; [CPU_ALU] |352| 
    3023 00000008 C244          MOVL      *-SP[4],XAR6          ; [CPU_ALU] |352| 
    3024 00000009 2B42          MOV       *-SP[2],#0            ; [CPU_ALU] |352| 
    3025 0000000a 565B          LSR64     ACC:P,T               ; [CPU_ALU] |352| 
    3026 0000000b 2B41          MOV       *-SP[1],#0            ; [CPU_FPU] |352| 
    3027 0000000c 9000          ANDB      AL,#0                 ; [CPU_ALU] |352| 
    3028 0000000d 9100          ANDB      AH,#0                 ; [CPU_ALU] |352| 
    3029 0000000e 18AB          AND       PL,#2047              ; [CPU_ALU] |352| 
         0000000f 07FF 
    3030 00000010 18AA          AND       PH,#0                 ; [CPU_ALU] |352| 
         00000011 0000 
    3031              $C$DW$227       .dwtag  DW_TAG_TI_branch
    3032                      .dwattr $C$DW$227, DW_AT_low_pc(0x00)
    3033                      .dwattr $C$DW$227, DW_AT_name("__c28xabi_cmpull")
    3034                      .dwattr $C$DW$227, DW_AT_TI_call
    3035              
    3036 00000012 7640!         LCR       #||__c28xabi_cmpull|| ; [CPU_ALU] |352| 
         00000013 0000 
    3037                      ; call occurs [#||__c28xabi_cmpull||] ; [] |352| 
    3038 00000014 BE00          MOVB      XAR6,#0               ; [CPU_ALU] |352| 
    3039 00000015 5200          CMPB      AL,#0                 ; [CPU_ALU] |352| 
TMS320C2000 Assembler PC v22.6.1 Tue Aug 13 19:46:08 2024

Copyright (c) 1996-2018 Texas Instruments Incorporated
bts_main.asm                                                         PAGE   60

    3040 00000016 610E          B         ||$C$L7||,EQ          ; [CPU_ALU] |352| 
    3041                      ; branchcc occurs ; [] |352| 
    3042 00000017 A0AB          MOVL      P,XAR5                ; [CPU_ALU] |352| 
    3043 00000018 A8A9          MOVL      ACC,XAR4              ; [CPU_ALU] |352| 
    3044 00000019 28AC          MOV       T,#48                 ; [CPU_ALU] |352| 
         0000001a 0030 
    3045 0000001b 565B          LSR64     ACC:P,T               ; [CPU_ALU] |352| 
    3046 0000001c 18AB          AND       PL,#0x7ff0            ; [CPU_ALU] |352| 
         0000001d 7FF0 
    3047 0000001e 80AB          MOVZ      AR7,PL                ; [CPU_ALU] |352| 
    3048 0000001f FF20          MOV       ACC,#32752            ; [CPU_ALU] |352| 
         00000020 7FF0 
    3049 00000021 0FA7          CMPL      ACC,XAR7              ; [CPU_ALU] |352| 
    3050 00000022 56B0          MOVB      XAR6,#1,NEQ           ; [CPU_ALU] |352| 
         00000023 01A6 
    3051 00000024       ||$C$L7||:    
    3052 00000024 FE84          SUBB      SP,#4                 ; [CPU_ARAU] 
    3053                      .dwcfi  cfa_offset, -2
    3054 00000025 92A6          MOV       AL,AR6                ; [CPU_ALU] |352| 
    3055              $C$DW$228       .dwtag  DW_TAG_TI_branch
    3056                      .dwattr $C$DW$228, DW_AT_low_pc(0x00)
    3057                      .dwattr $C$DW$228, DW_AT_TI_return
    3058              
    3059 00000026 0006          LRETR     ; [CPU_ALU] 
    3060                      ; return occurs ; [] 
    3061                      .dwattr $C$DW$224, DW_AT_TI_end_file("C:/ti/ccs1271/ccs/tools/compiler/ti-cgt-c2000_22.6.1.LTS/includ
    3062                      .dwattr $C$DW$224, DW_AT_TI_end_line(0x161)
    3063                      .dwattr $C$DW$224, DW_AT_TI_end_column(0x30)
    3064                      .dwendentry
    3065                      .dwendtag $C$DW$224
    3066              
    3067 00000000               .sect   ".text:__isnanl"
    3068                      .clink
    3069                      .global ||__isnanl||
    3070              
    3071              $C$DW$229       .dwtag  DW_TAG_subprogram
    3072                      .dwattr $C$DW$229, DW_AT_name("__isnanl")
    3073                      .dwattr $C$DW$229, DW_AT_low_pc(||__isnanl||)
    3074                      .dwattr $C$DW$229, DW_AT_high_pc(0x00)
    3075                      .dwattr $C$DW$229, DW_AT_linkage_name("__isnanl")
    3076                      .dwattr $C$DW$229, DW_AT_external
    3077                      .dwattr $C$DW$229, DW_AT_type(*$C$DW$T$10)
    3078                      .dwattr $C$DW$229, DW_AT_decl_file("C:/ti/ccs1271/ccs/tools/compiler/ti-cgt-c2000_22.6.1.LTS/include/
    3079                      .dwattr $C$DW$229, DW_AT_decl_line(0x15b)
    3080                      .dwattr $C$DW$229, DW_AT_decl_column(0x18)
    3081                      .dwattr $C$DW$229, DW_AT_TI_max_frame_size(-6)
    3082                      .dwpsn  file "C:/ti/ccs1271/ccs/tools/compiler/ti-cgt-c2000_22.6.1.LTS/include/_defs.h",line 348,colu
    3083              
    3084                      .dwfde $C$DW$CIE, ||__isnanl||
    3085              $C$DW$230       .dwtag  DW_TAG_formal_parameter
    3086                      .dwattr $C$DW$230, DW_AT_name("e")
    3087                      .dwattr $C$DW$230, DW_AT_type(*$C$DW$T$152)
    3088                      .dwattr $C$DW$230, DW_AT_location[DW_OP_reg12]
    3089              
    3090              
TMS320C2000 Assembler PC v22.6.1 Tue Aug 13 19:46:08 2024

Copyright (c) 1996-2018 Texas Instruments Incorporated
bts_main.asm                                                         PAGE   61

    3091              ;***************************************************************
    3092              ;* FNAME: __isnanl                      FR SIZE:   4           *
    3093              ;*                                                             *
    3094              ;* FUNCTION ENVIRONMENT                                        *
    3095              ;*                                                             *
    3096              ;* FUNCTION PROPERTIES                                         *
    3097              ;*                            4 Parameter,  0 Auto,  0 SOE     *
    3098              ;***************************************************************
    3099              
    3100              ||__isnanl||:
    3101              ;* AR7   assigned to $O$C2
    3102              ;* AR4   assigned to $O$S1
    3103              ;* AR4   assigned to e
    3104              $C$DW$231       .dwtag  DW_TAG_variable
    3105                      .dwattr $C$DW$231, DW_AT_name("e")
    3106                      .dwattr $C$DW$231, DW_AT_type(*$C$DW$T$153)
    3107                      .dwattr $C$DW$231, DW_AT_location[DW_OP_reg12]
    3108              
    3109                      .dwcfi  cfa_offset, -2
    3110                      .dwcfi  save_reg_to_mem, 26, 0
    3111 00000000 FE04          ADDB      SP,#4                 ; [CPU_ARAU] 
    3112                      .dwcfi  cfa_offset, -6
    3113                      .dwpsn  file "C:/ti/ccs1271/ccs/tools/compiler/ti-cgt-c2000_22.6.1.LTS/include/_defs.h",line 348,colu
    3114 00000001 C5C4          MOVL      XAR7,*+XAR4[0]        ; [CPU_ALU] |348| 
    3115 00000002 06D4          MOVL      ACC,*+XAR4[2]         ; [CPU_ALU] |348| 
    3116 00000003 28AC          MOV       T,#48                 ; [CPU_ALU] |348| 
         00000004 0030 
    3117 00000005 1EA6          MOVL      XAR6,ACC              ; [CPU_ALU] |348| 
    3118 00000006 A3A7          MOVL      P,XAR7                ; [CPU_ALU] |348| 
    3119 00000007 D400          MOVB      XAR4,#0               ; [CPU_ALU] |348| 
    3120 00000008 565B          LSR64     ACC:P,T               ; [CPU_ALU] |348| 
    3121 00000009 2BAA          MOV       PH,#0                 ; [CPU_ALU] |348| 
    3122 0000000a 18AB          AND       PL,#0x7ff0            ; [CPU_ALU] |348| 
         0000000b 7FF0 
    3123 0000000c FF20          MOV       ACC,#32752            ; [CPU_ALU] |348| 
         0000000d 7FF0 
    3124 0000000e 0FAB          CMPL      ACC,P                 ; [CPU_ALU] |348| 
    3125 0000000f 6013          B         ||$C$L8||,NEQ         ; [CPU_ALU] |348| 
    3126                      ; branchcc occurs ; [] |348| 
    3127 00000010 06A6          MOVL      ACC,XAR6              ; [CPU_ALU] |348| 
    3128 00000011 A3A7          MOVL      P,XAR7                ; [CPU_ALU] |348| 
    3129 00000012 BE00          MOVB      XAR6,#0               ; [CPU_ALU] |348| 
    3130 00000013 18A9          AND       AL,#65535             ; [CPU_ALU] |348| 
         00000014 FFFF 
    3131 00000015 910F          ANDB      AH,#15                ; [CPU_ALU] |348| 
    3132 00000016 18AB          AND       PL,#65535             ; [CPU_ALU] |348| 
         00000017 FFFF 
    3133 00000018 18AA          AND       PH,#65535             ; [CPU_ALU] |348| 
         00000019 FFFF 
    3134 0000001a C244          MOVL      *-SP[4],XAR6          ; [CPU_FPU] |348| 
    3135 0000001b 2B42          MOV       *-SP[2],#0            ; [CPU_FPU] |348| 
    3136 0000001c 2B41          MOV       *-SP[1],#0            ; [CPU_FPU] |348| 
    3137              $C$DW$232       .dwtag  DW_TAG_TI_branch
    3138                      .dwattr $C$DW$232, DW_AT_low_pc(0x00)
    3139                      .dwattr $C$DW$232, DW_AT_name("__c28xabi_cmpull")
TMS320C2000 Assembler PC v22.6.1 Tue Aug 13 19:46:08 2024

Copyright (c) 1996-2018 Texas Instruments Incorporated
bts_main.asm                                                         PAGE   62

    3140                      .dwattr $C$DW$232, DW_AT_TI_call
    3141              
    3142 0000001d 7640!         LCR       #||__c28xabi_cmpull|| ; [CPU_ALU] |348| 
         0000001e 0000 
    3143                      ; call occurs [#||__c28xabi_cmpull||] ; [] |348| 
    3144 0000001f 5200          CMPB      AL,#0                 ; [CPU_ALU] |348| 
    3145 00000020 56B0          MOVB      XAR4,#1,NEQ           ; [CPU_ALU] |348| 
         00000021 01A4 
    3146 00000022       ||$C$L8||:    
    3147 00000022 FE84          SUBB      SP,#4                 ; [CPU_ARAU] 
    3148                      .dwcfi  cfa_offset, -2
    3149 00000023 92A4          MOV       AL,AR4                ; [CPU_ALU] |348| 
    3150              $C$DW$233       .dwtag  DW_TAG_TI_branch
    3151                      .dwattr $C$DW$233, DW_AT_low_pc(0x00)
    3152                      .dwattr $C$DW$233, DW_AT_TI_return
    3153              
    3154 00000024 0006          LRETR     ; [CPU_ALU] 
    3155                      ; return occurs ; [] 
    3156                      .dwattr $C$DW$229, DW_AT_TI_end_file("C:/ti/ccs1271/ccs/tools/compiler/ti-cgt-c2000_22.6.1.LTS/includ
    3157                      .dwattr $C$DW$229, DW_AT_TI_end_line(0x15d)
    3158                      .dwattr $C$DW$229, DW_AT_TI_end_column(0x30)
    3159                      .dwendentry
    3160                      .dwendtag $C$DW$229
    3161              
    3162 00000000               .sect   ".text:__isnanf"
    3163                      .clink
    3164                      .global ||__isnanf||
    3165              
    3166              $C$DW$234       .dwtag  DW_TAG_subprogram
    3167                      .dwattr $C$DW$234, DW_AT_name("__isnanf")
    3168                      .dwattr $C$DW$234, DW_AT_low_pc(||__isnanf||)
    3169                      .dwattr $C$DW$234, DW_AT_high_pc(0x00)
    3170                      .dwattr $C$DW$234, DW_AT_linkage_name("__isnanf")
    3171                      .dwattr $C$DW$234, DW_AT_external
    3172                      .dwattr $C$DW$234, DW_AT_type(*$C$DW$T$10)
    3173                      .dwattr $C$DW$234, DW_AT_decl_file("C:/ti/ccs1271/ccs/tools/compiler/ti-cgt-c2000_22.6.1.LTS/include/
    3174                      .dwattr $C$DW$234, DW_AT_decl_line(0x158)
    3175                      .dwattr $C$DW$234, DW_AT_decl_column(0x18)
    3176                      .dwattr $C$DW$234, DW_AT_TI_max_frame_size(-2)
    3177                      .dwpsn  file "C:/ti/ccs1271/ccs/tools/compiler/ti-cgt-c2000_22.6.1.LTS/include/_defs.h",line 345,colu
    3178              
    3179                      .dwfde $C$DW$CIE, ||__isnanf||
    3180              $C$DW$235       .dwtag  DW_TAG_formal_parameter
    3181                      .dwattr $C$DW$235, DW_AT_name("f")
    3182                      .dwattr $C$DW$235, DW_AT_type(*$C$DW$T$16)
    3183                      .dwattr $C$DW$235, DW_AT_location[DW_OP_regx 0x2b]
    3184              
    3185              
    3186              ;***************************************************************
    3187              ;* FNAME: __isnanf                      FR SIZE:   0           *
    3188              ;*                                                             *
    3189              ;* FUNCTION ENVIRONMENT                                        *
    3190              ;*                                                             *
    3191              ;* FUNCTION PROPERTIES                                         *
    3192              ;*                            0 Parameter,  0 Auto,  0 SOE     *
TMS320C2000 Assembler PC v22.6.1 Tue Aug 13 19:46:08 2024

Copyright (c) 1996-2018 Texas Instruments Incorporated
bts_main.asm                                                         PAGE   63

    3193              ;***************************************************************
    3194              
    3195              ||__isnanf||:
    3196              ;* PL    assigned to $O$K3
    3197              ;* AR6   assigned to $O$S1
    3198              ;* R0    assigned to f
    3199              $C$DW$236       .dwtag  DW_TAG_variable
    3200                      .dwattr $C$DW$236, DW_AT_name("f")
    3201                      .dwattr $C$DW$236, DW_AT_type(*$C$DW$T$146)
    3202                      .dwattr $C$DW$236, DW_AT_location[DW_OP_regx 0x2b]
    3203              
    3204                      .dwcfi  cfa_offset, -2
    3205                      .dwcfi  save_reg_to_mem, 26, 0
    3206                      .dwpsn  file "C:/ti/ccs1271/ccs/tools/compiler/ti-cgt-c2000_22.6.1.LTS/include/_defs.h",line 345,colu
    3207 00000000 BFAB          MOV32     P,R0H                 ; [CPU_FPU] |345| 
         00000001 0F12 
    3208 00000002 CCAA          AND       AL,PH,#0x7f80         ; [CPU_ALU] |345| 
         00000003 7F80 
    3209 00000004 80A9          MOVZ      AR7,AL                ; [CPU_ALU] |345| 
    3210 00000005 BE00          MOVB      XAR6,#0               ; [CPU_ALU] |345| 
    3211 00000006 FF20          MOV       ACC,#32640            ; [CPU_ALU] |345| 
         00000007 7F80 
    3212 00000008 0FA7          CMPL      ACC,XAR7              ; [CPU_ALU] |345| 
    3213 00000009 6006          B         ||$C$L9||,NEQ         ; [CPU_ALU] |345| 
    3214                      ; branchcc occurs ; [] |345| 
    3215 0000000a A9A9          MOVL      ACC,P                 ; [CPU_ALU] |345| 
    3216 0000000b 917F          ANDB      AH,#127               ; [CPU_ALU] |345| 
    3217 0000000c FF58          TEST      ACC                   ; [CPU_ALU] |345| 
    3218 0000000d 56B0          MOVB      XAR6,#1,NEQ           ; [CPU_ALU] |345| 
         0000000e 01A6 
    3219 0000000f       ||$C$L9||:    
    3220 0000000f 92A6          MOV       AL,AR6                ; [CPU_ALU] |345| 
    3221              $C$DW$237       .dwtag  DW_TAG_TI_branch
    3222                      .dwattr $C$DW$237, DW_AT_low_pc(0x00)
    3223                      .dwattr $C$DW$237, DW_AT_TI_return
    3224              
    3225 00000010 0006          LRETR     ; [CPU_ALU] 
    3226                      ; return occurs ; [] 
    3227                      .dwattr $C$DW$234, DW_AT_TI_end_file("C:/ti/ccs1271/ccs/tools/compiler/ti-cgt-c2000_22.6.1.LTS/includ
    3228                      .dwattr $C$DW$234, DW_AT_TI_end_line(0x15a)
    3229                      .dwattr $C$DW$234, DW_AT_TI_end_column(0x2e)
    3230                      .dwendentry
    3231                      .dwendtag $C$DW$234
    3232              
    3233 00000000               .sect   ".text:__isnan"
    3234                      .clink
    3235                      .global ||__isnan||
    3236              
    3237              $C$DW$238       .dwtag  DW_TAG_subprogram
    3238                      .dwattr $C$DW$238, DW_AT_name("__isnan")
    3239                      .dwattr $C$DW$238, DW_AT_low_pc(||__isnan||)
    3240                      .dwattr $C$DW$238, DW_AT_high_pc(0x00)
    3241                      .dwattr $C$DW$238, DW_AT_linkage_name("__isnan")
    3242                      .dwattr $C$DW$238, DW_AT_external
    3243                      .dwattr $C$DW$238, DW_AT_type(*$C$DW$T$10)
TMS320C2000 Assembler PC v22.6.1 Tue Aug 13 19:46:08 2024

Copyright (c) 1996-2018 Texas Instruments Incorporated
bts_main.asm                                                         PAGE   64

    3244                      .dwattr $C$DW$238, DW_AT_decl_file("C:/ti/ccs1271/ccs/tools/compiler/ti-cgt-c2000_22.6.1.LTS/include/
    3245                      .dwattr $C$DW$238, DW_AT_decl_line(0x155)
    3246                      .dwattr $C$DW$238, DW_AT_decl_column(0x18)
    3247                      .dwattr $C$DW$238, DW_AT_TI_max_frame_size(-6)
    3248                      .dwpsn  file "C:/ti/ccs1271/ccs/tools/compiler/ti-cgt-c2000_22.6.1.LTS/include/_defs.h",line 342,colu
    3249              
    3250                      .dwfde $C$DW$CIE, ||__isnan||
    3251              $C$DW$239       .dwtag  DW_TAG_formal_parameter
    3252                      .dwattr $C$DW$239, DW_AT_name("d")
    3253                      .dwattr $C$DW$239, DW_AT_type(*$C$DW$T$149)
    3254                      .dwattr $C$DW$239, DW_AT_location[DW_OP_reg12]
    3255              
    3256              
    3257              ;***************************************************************
    3258              ;* FNAME: __isnan                       FR SIZE:   4           *
    3259              ;*                                                             *
    3260              ;* FUNCTION ENVIRONMENT                                        *
    3261              ;*                                                             *
    3262              ;* FUNCTION PROPERTIES                                         *
    3263              ;*                            4 Parameter,  0 Auto,  0 SOE     *
    3264              ;***************************************************************
    3265              
    3266              ||__isnan||:
    3267              ;* AR7   assigned to $O$C2
    3268              ;* AR4   assigned to $O$S1
    3269              ;* AR4   assigned to d
    3270              $C$DW$240       .dwtag  DW_TAG_variable
    3271                      .dwattr $C$DW$240, DW_AT_name("d")
    3272                      .dwattr $C$DW$240, DW_AT_type(*$C$DW$T$150)
    3273                      .dwattr $C$DW$240, DW_AT_location[DW_OP_reg12]
    3274              
    3275                      .dwcfi  cfa_offset, -2
    3276                      .dwcfi  save_reg_to_mem, 26, 0
    3277 00000000 FE04          ADDB      SP,#4                 ; [CPU_ARAU] 
    3278                      .dwcfi  cfa_offset, -6
    3279                      .dwpsn  file "C:/ti/ccs1271/ccs/tools/compiler/ti-cgt-c2000_22.6.1.LTS/include/_defs.h",line 342,colu
    3280 00000001 C5C4          MOVL      XAR7,*+XAR4[0]        ; [CPU_ALU] |342| 
    3281 00000002 06D4          MOVL      ACC,*+XAR4[2]         ; [CPU_ALU] |342| 
    3282 00000003 28AC          MOV       T,#48                 ; [CPU_ALU] |342| 
         00000004 0030 
    3283 00000005 1EA6          MOVL      XAR6,ACC              ; [CPU_ALU] |342| 
    3284 00000006 A3A7          MOVL      P,XAR7                ; [CPU_ALU] |342| 
    3285 00000007 D400          MOVB      XAR4,#0               ; [CPU_ALU] |342| 
    3286 00000008 565B          LSR64     ACC:P,T               ; [CPU_ALU] |342| 
    3287 00000009 2BAA          MOV       PH,#0                 ; [CPU_ALU] |342| 
    3288 0000000a 18AB          AND       PL,#0x7ff0            ; [CPU_ALU] |342| 
         0000000b 7FF0 
    3289 0000000c FF20          MOV       ACC,#32752            ; [CPU_ALU] |342| 
         0000000d 7FF0 
    3290 0000000e 0FAB          CMPL      ACC,P                 ; [CPU_ALU] |342| 
    3291 0000000f 6013          B         ||$C$L10||,NEQ        ; [CPU_ALU] |342| 
    3292                      ; branchcc occurs ; [] |342| 
    3293 00000010 06A6          MOVL      ACC,XAR6              ; [CPU_ALU] |342| 
    3294 00000011 A3A7          MOVL      P,XAR7                ; [CPU_ALU] |342| 
    3295 00000012 BE00          MOVB      XAR6,#0               ; [CPU_ALU] |342| 
TMS320C2000 Assembler PC v22.6.1 Tue Aug 13 19:46:08 2024

Copyright (c) 1996-2018 Texas Instruments Incorporated
bts_main.asm                                                         PAGE   65

    3296 00000013 18A9          AND       AL,#65535             ; [CPU_ALU] |342| 
         00000014 FFFF 
    3297 00000015 910F          ANDB      AH,#15                ; [CPU_ALU] |342| 
    3298 00000016 18AB          AND       PL,#65535             ; [CPU_ALU] |342| 
         00000017 FFFF 
    3299 00000018 18AA          AND       PH,#65535             ; [CPU_ALU] |342| 
         00000019 FFFF 
    3300 0000001a C244          MOVL      *-SP[4],XAR6          ; [CPU_FPU] |342| 
    3301 0000001b 2B42          MOV       *-SP[2],#0            ; [CPU_FPU] |342| 
    3302 0000001c 2B41          MOV       *-SP[1],#0            ; [CPU_FPU] |342| 
    3303              $C$DW$241       .dwtag  DW_TAG_TI_branch
    3304                      .dwattr $C$DW$241, DW_AT_low_pc(0x00)
    3305                      .dwattr $C$DW$241, DW_AT_name("__c28xabi_cmpull")
    3306                      .dwattr $C$DW$241, DW_AT_TI_call
    3307              
    3308 0000001d 7640!         LCR       #||__c28xabi_cmpull|| ; [CPU_ALU] |342| 
         0000001e 0000 
    3309                      ; call occurs [#||__c28xabi_cmpull||] ; [] |342| 
    3310 0000001f 5200          CMPB      AL,#0                 ; [CPU_ALU] |342| 
    3311 00000020 56B0          MOVB      XAR4,#1,NEQ           ; [CPU_ALU] |342| 
         00000021 01A4 
    3312 00000022       ||$C$L10||:    
    3313 00000022 FE84          SUBB      SP,#4                 ; [CPU_ARAU] 
    3314                      .dwcfi  cfa_offset, -2
    3315 00000023 92A4          MOV       AL,AR4                ; [CPU_ALU] |342| 
    3316              $C$DW$242       .dwtag  DW_TAG_TI_branch
    3317                      .dwattr $C$DW$242, DW_AT_low_pc(0x00)
    3318                      .dwattr $C$DW$242, DW_AT_TI_return
    3319              
    3320 00000024 0006          LRETR     ; [CPU_ALU] 
    3321                      ; return occurs ; [] 
    3322                      .dwattr $C$DW$238, DW_AT_TI_end_file("C:/ti/ccs1271/ccs/tools/compiler/ti-cgt-c2000_22.6.1.LTS/includ
    3323                      .dwattr $C$DW$238, DW_AT_TI_end_line(0x157)
    3324                      .dwattr $C$DW$238, DW_AT_TI_end_column(0x2f)
    3325                      .dwendentry
    3326                      .dwendtag $C$DW$238
    3327              
    3328 00000000               .sect   ".text:__isinfl"
    3329                      .clink
    3330                      .global ||__isinfl||
    3331              
    3332              $C$DW$243       .dwtag  DW_TAG_subprogram
    3333                      .dwattr $C$DW$243, DW_AT_name("__isinfl")
    3334                      .dwattr $C$DW$243, DW_AT_low_pc(||__isinfl||)
    3335                      .dwattr $C$DW$243, DW_AT_high_pc(0x00)
    3336                      .dwattr $C$DW$243, DW_AT_linkage_name("__isinfl")
    3337                      .dwattr $C$DW$243, DW_AT_external
    3338                      .dwattr $C$DW$243, DW_AT_type(*$C$DW$T$10)
    3339                      .dwattr $C$DW$243, DW_AT_decl_file("C:/ti/ccs1271/ccs/tools/compiler/ti-cgt-c2000_22.6.1.LTS/include/
    3340                      .dwattr $C$DW$243, DW_AT_decl_line(0x17a)
    3341                      .dwattr $C$DW$243, DW_AT_decl_column(0x18)
    3342                      .dwattr $C$DW$243, DW_AT_TI_max_frame_size(-6)
    3343                      .dwpsn  file "C:/ti/ccs1271/ccs/tools/compiler/ti-cgt-c2000_22.6.1.LTS/include/_defs.h",line 379,colu
    3344              
    3345                      .dwfde $C$DW$CIE, ||__isinfl||
TMS320C2000 Assembler PC v22.6.1 Tue Aug 13 19:46:08 2024

Copyright (c) 1996-2018 Texas Instruments Incorporated
bts_main.asm                                                         PAGE   66

    3346              $C$DW$244       .dwtag  DW_TAG_formal_parameter
    3347                      .dwattr $C$DW$244, DW_AT_name("e")
    3348                      .dwattr $C$DW$244, DW_AT_type(*$C$DW$T$152)
    3349                      .dwattr $C$DW$244, DW_AT_location[DW_OP_reg12]
    3350              
    3351              
    3352              ;***************************************************************
    3353              ;* FNAME: __isinfl                      FR SIZE:   4           *
    3354              ;*                                                             *
    3355              ;* FUNCTION ENVIRONMENT                                        *
    3356              ;*                                                             *
    3357              ;* FUNCTION PROPERTIES                                         *
    3358              ;*                            4 Parameter,  0 Auto,  0 SOE     *
    3359              ;***************************************************************
    3360              
    3361              ||__isinfl||:
    3362              ;* AR7   assigned to $O$C2
    3363              ;* AR4   assigned to $O$S1
    3364              ;* AR4   assigned to e
    3365              $C$DW$245       .dwtag  DW_TAG_variable
    3366                      .dwattr $C$DW$245, DW_AT_name("e")
    3367                      .dwattr $C$DW$245, DW_AT_type(*$C$DW$T$153)
    3368                      .dwattr $C$DW$245, DW_AT_location[DW_OP_reg12]
    3369              
    3370                      .dwcfi  cfa_offset, -2
    3371                      .dwcfi  save_reg_to_mem, 26, 0
